ARM GAS  /var/folders/cs/83z6p2tj4w57s6p2rt8nwfp00000gn/T//ccot36Fs.s 			page 1


   1              		.cpu cortex-m7
   2              		.eabi_attribute 27, 1	@ Tag_ABI_HardFP_use
   3              		.eabi_attribute 28, 1	@ Tag_ABI_VFP_args
   4              		.eabi_attribute 20, 1	@ Tag_ABI_FP_denormal
   5              		.eabi_attribute 21, 1	@ Tag_ABI_FP_exceptions
   6              		.eabi_attribute 23, 3	@ Tag_ABI_FP_number_model
   7              		.eabi_attribute 24, 1	@ Tag_ABI_align8_needed
   8              		.eabi_attribute 25, 1	@ Tag_ABI_align8_preserved
   9              		.eabi_attribute 26, 1	@ Tag_ABI_enum_size
  10              		.eabi_attribute 30, 2	@ Tag_ABI_optimization_goals
  11              		.eabi_attribute 34, 1	@ Tag_CPU_unaligned_access
  12              		.eabi_attribute 18, 4	@ Tag_ABI_PCS_wchar_t
  13              		.file	"3dmath.c"
  14              	@ GNU C17 (GNU Tools for Arm Embedded Processors 9-2019-q4-major) version 9.2.1 20191025 (release) 
  15              	@	compiled by GNU C version 4.2.1 Compatible Apple LLVM 9.0.0 (clang-900.0.39.2), GMP version 6.1.0
  16              	
  17              	@ GGC heuristics: --param ggc-min-expand=100 --param ggc-min-heapsize=131072
  18              	@ options passed:  -I . -I . -I /Users/orllewin/Developer/PlaydateSDK/C_API
  19              	@ -I mini3d -imultilib thumb/v7e-m+fp/hard
  20              	@ -iprefix /usr/local/playdate/gcc-arm-none-eabi-9-2019-q4-major/bin/../lib/gcc/arm-none-eabi/9.2.1
  21              	@ -isysroot /usr/local/playdate/gcc-arm-none-eabi-9-2019-q4-major/bin/../arm-none-eabi
  22              	@ -MD build/mini3d/3dmath.d -MF build/dep/3dmath.o.d -MP
  23              	@ -MQ build/mini3d/3dmath.o -D__USES_INITFINI__ -D __FPU_USED=1
  24              	@ -D TARGET_PLAYDATE=1 -D TARGET_EXTENSION=1 mini3d/3dmath.c -mthumb
  25              	@ -mcpu=cortex-m7 -mfloat-abi=hard -mfpu=fpv5-sp-d16 -march=armv7e-m+fpv5
  26              	@ -auxbase-strip build/mini3d/3dmath.o -g -gdwarf-2 -O2 -Wall -Wno-unused
  27              	@ -Wstrict-prototypes -Wno-unknown-pragmas -Wdouble-promotion
  28              	@ -falign-functions=16 -fomit-frame-pointer -fverbose-asm
  29              	@ -ffunction-sections -fdata-sections
  30              	@ options enabled:  -faggressive-loop-optimizations -falign-functions
  31              	@ -falign-jumps -falign-labels -falign-loops -fassume-phsa -fauto-inc-dec
  32              	@ -fbranch-count-reg -fcaller-saves -fcombine-stack-adjustments -fcommon
  33              	@ -fcompare-elim -fcprop-registers -fcrossjumping -fcse-follow-jumps
  34              	@ -fdata-sections -fdefer-pop -fdelete-null-pointer-checks -fdevirtualize
  35              	@ -fdevirtualize-speculatively -fdwarf2-cfi-asm -fearly-inlining
  36              	@ -feliminate-unused-debug-types -fexpensive-optimizations
  37              	@ -fforward-propagate -ffp-int-builtin-inexact -ffunction-cse
  38              	@ -ffunction-sections -fgcse -fgcse-lm -fgnu-runtime -fgnu-unique
  39              	@ -fguess-branch-probability -fhoist-adjacent-loads -fident -fif-conversion
  40              	@ -fif-conversion2 -findirect-inlining -finline -finline-atomics
  41              	@ -finline-functions-called-once -finline-small-functions -fipa-bit-cp
  42              	@ -fipa-cp -fipa-icf -fipa-icf-functions -fipa-icf-variables -fipa-profile
  43              	@ -fipa-pure-const -fipa-ra -fipa-reference -fipa-reference-addressable
  44              	@ -fipa-sra -fipa-stack-alignment -fipa-vrp -fira-hoist-pressure
  45              	@ -fira-share-save-slots -fira-share-spill-slots
  46              	@ -fisolate-erroneous-paths-dereference -fivopts -fkeep-static-consts
  47              	@ -fleading-underscore -flifetime-dse -flra-remat -flto-odr-type-merging
  48              	@ -fmath-errno -fmerge-constants -fmerge-debug-strings
  49              	@ -fmove-loop-invariants -fomit-frame-pointer -foptimize-sibling-calls
  50              	@ -foptimize-strlen -fpartial-inlining -fpeephole -fpeephole2 -fplt
  51              	@ -fprefetch-loop-arrays -freg-struct-return -freorder-blocks
  52              	@ -freorder-functions -frerun-cse-after-loop
  53              	@ -fsched-critical-path-heuristic -fsched-dep-count-heuristic
  54              	@ -fsched-group-heuristic -fsched-interblock -fsched-last-insn-heuristic
  55              	@ -fsched-pressure -fsched-rank-heuristic -fsched-spec
  56              	@ -fsched-spec-insn-heuristic -fsched-stalled-insns-dep -fschedule-insns
  57              	@ -fschedule-insns2 -fsection-anchors -fsemantic-interposition
ARM GAS  /var/folders/cs/83z6p2tj4w57s6p2rt8nwfp00000gn/T//ccot36Fs.s 			page 2


  58              	@ -fshow-column -fshrink-wrap -fshrink-wrap-separate -fsigned-zeros
  59              	@ -fsplit-ivs-in-unroller -fsplit-wide-types -fssa-backprop -fssa-phiopt
  60              	@ -fstdarg-opt -fstore-merging -fstrict-aliasing
  61              	@ -fstrict-volatile-bitfields -fsync-libcalls -fthread-jumps
  62              	@ -ftoplevel-reorder -ftrapping-math -ftree-bit-ccp -ftree-builtin-call-dce
  63              	@ -ftree-ccp -ftree-ch -ftree-coalesce-vars -ftree-copy-prop -ftree-cselim
  64              	@ -ftree-dce -ftree-dominator-opts -ftree-dse -ftree-forwprop -ftree-fre
  65              	@ -ftree-loop-if-convert -ftree-loop-im -ftree-loop-ivcanon
  66              	@ -ftree-loop-optimize -ftree-parallelize-loops= -ftree-phiprop -ftree-pre
  67              	@ -ftree-pta -ftree-reassoc -ftree-scev-cprop -ftree-sink -ftree-slsr
  68              	@ -ftree-sra -ftree-switch-conversion -ftree-tail-merge -ftree-ter
  69              	@ -ftree-vrp -funit-at-a-time -fvar-tracking -fvar-tracking-assignments
  70              	@ -fverbose-asm -fzero-initialized-in-bss -masm-syntax-unified -mbe32
  71              	@ -mlittle-endian -mpic-data-is-text-relative -msched-prolog -mthumb
  72              	@ -munaligned-access -mvectorize-with-neon-quad
  73              	
  74              		.text
  75              	.Ltext0:
  76              		.cfi_sections	.debug_frame
  77              		.section	.text.Matrix3DMake,"ax",%progbits
  78              		.align	1
  79              		.p2align 4,,15
  80              		.global	Matrix3DMake
  81              		.arch armv7e-m
  82              		.syntax unified
  83              		.thumb
  84              		.thumb_func
  85              		.fpu fpv5-sp-d16
  86              		.type	Matrix3DMake, %function
  87              	Matrix3DMake:
  88              	.LVL0:
  89              	.LFB12:
  90              		.file 1 "mini3d/3dmath.c"
   1:mini3d/3dmath.c **** //
   2:mini3d/3dmath.c **** //  pd3d.c
   3:mini3d/3dmath.c **** //  Playdate Simulator
   4:mini3d/3dmath.c **** //
   5:mini3d/3dmath.c **** //  Created by Dave Hayden on 8/25/15.
   6:mini3d/3dmath.c **** //  Copyright (c) 2015 Panic, Inc. All rights reserved.
   7:mini3d/3dmath.c **** //
   8:mini3d/3dmath.c **** 
   9:mini3d/3dmath.c **** #include <string.h>
  10:mini3d/3dmath.c **** #include "3dmath.h"
  11:mini3d/3dmath.c **** 
  12:mini3d/3dmath.c **** Matrix3D identityMatrix = { .isIdentity = 1, .inverting = 0, .m = {{1, 0, 0}, {0, 1, 0}, {0, 0, 1}}
  13:mini3d/3dmath.c **** 
  14:mini3d/3dmath.c **** Matrix3D Matrix3DMake(float m11, float m12, float m13, float m21, float m22, float m23, float m31, 
  15:mini3d/3dmath.c **** {
  91              		.loc 1 15 1 view -0
  92              		.cfi_startproc
  93              		@ args = 0, pretend = 0, frame = 0
  94              		@ frame_needed = 0, uses_anonymous_args = 0
  95              		@ link register save eliminated.
  16:mini3d/3dmath.c **** 	return (Matrix3D){ .isIdentity = 0, .inverting = inverting, .m = {{m11, m12, m13}, {m21, m22, m23}
  96              		.loc 1 16 2 view .LVU1
  97              	@ mini3d/3dmath.c:16: 	return (Matrix3D){ .isIdentity = 0, .inverting = inverting, .m = {{m11, m12,
  98              		.loc 1 16 9 is_stmt 0 view .LVU2
ARM GAS  /var/folders/cs/83z6p2tj4w57s6p2rt8nwfp00000gn/T//ccot36Fs.s 			page 3


  99 0000 0278     		ldrb	r2, [r0]	@ zero_extendqisi2	@ MEM[(struct  *)&<retval>], MEM[(struct  *)&<retval>]
 100 0002 01F00101 		and	r1, r1, #1	@ tmp128, tmp153,
 101              	.LVL1:
 102              		.loc 1 16 9 view .LVU3
 103 0006 80ED010A 		vstr.32	s0, [r0, #4]	@ tmp144, <retval>.m
 104 000a 22F00302 		bic	r2, r2, #3	@ tmp135, MEM[(struct  *)&<retval>],
 105 000e C0ED020A 		vstr.32	s1, [r0, #8]	@ tmp145, <retval>.m
 106 0012 80ED031A 		vstr.32	s2, [r0, #12]	@ tmp146, <retval>.m
 107 0016 42EA4101 		orr	r1, r2, r1, lsl #1	@ tmp138, tmp135, tmp128,
 108 001a 0022     		movs	r2, #0	@ tmp140,
 109 001c C0ED041A 		vstr.32	s3, [r0, #16]	@ tmp147, <retval>.m
 110 0020 0170     		strb	r1, [r0]	@ tmp138, MEM[(struct  *)&<retval>]
 111 0022 80ED052A 		vstr.32	s4, [r0, #20]	@ tmp148, <retval>.m
 112 0026 C0ED062A 		vstr.32	s5, [r0, #24]	@ tmp149, <retval>.m
 113 002a 80ED073A 		vstr.32	s6, [r0, #28]	@ tmp150, <retval>.m
 114 002e C0ED083A 		vstr.32	s7, [r0, #32]	@ tmp151, <retval>.m
 115 0032 80ED094A 		vstr.32	s8, [r0, #36]	@ tmp152, <retval>.m
 116 0036 8262     		str	r2, [r0, #40]	@ float	@ tmp140, <retval>.dx
 117 0038 C262     		str	r2, [r0, #44]	@ float	@ tmp140, <retval>.dy
 118 003a 0263     		str	r2, [r0, #48]	@ float	@ tmp140, <retval>.dz
 119              	@ mini3d/3dmath.c:17: }
  17:mini3d/3dmath.c **** }
 120              		.loc 1 17 1 view .LVU4
 121 003c 7047     		bx	lr	@
 122              		.cfi_endproc
 123              	.LFE12:
 124              		.size	Matrix3DMake, .-Matrix3DMake
 125 003e 00BF     		.section	.text.Matrix3DMakeTranslate,"ax",%progbits
 126              		.align	1
 127              		.p2align 4,,15
 128              		.global	Matrix3DMakeTranslate
 129              		.syntax unified
 130              		.thumb
 131              		.thumb_func
 132              		.fpu fpv5-sp-d16
 133              		.type	Matrix3DMakeTranslate, %function
 134              	Matrix3DMakeTranslate:
 135              	.LVL2:
 136              	.LFB13:
  18:mini3d/3dmath.c **** 
  19:mini3d/3dmath.c **** Matrix3D Matrix3DMakeTranslate(float dx, float dy, float dz)
  20:mini3d/3dmath.c **** {
 137              		.loc 1 20 1 is_stmt 1 view -0
 138              		.cfi_startproc
 139              		@ args = 0, pretend = 0, frame = 0
 140              		@ frame_needed = 0, uses_anonymous_args = 0
 141              		@ link register save eliminated.
  21:mini3d/3dmath.c **** 	return (Matrix3D){ .isIdentity = 1, .inverting = 0, .m = {{1, 0, 0}, {0, 1, 0}, {0, 0, 1}}, .dx = 
 142              		.loc 1 21 2 view .LVU6
 143              	@ mini3d/3dmath.c:21: 	return (Matrix3D){ .isIdentity = 1, .inverting = 0, .m = {{1, 0, 0}, {0, 1, 
 144              		.loc 1 21 9 is_stmt 0 view .LVU7
 145 0000 0178     		ldrb	r1, [r0]	@ zero_extendqisi2	@ MEM[(struct  *)&<retval>], MEM[(struct  *)&<retval>]
 146 0002 0022     		movs	r2, #0	@ tmp124,
 147 0004 80ED0A0A 		vstr.32	s0, [r0, #40]	@ tmp133, <retval>.dx
 148 0008 21F00301 		bic	r1, r1, #3	@ tmp119, MEM[(struct  *)&<retval>],
 149 000c C0ED0B0A 		vstr.32	s1, [r0, #44]	@ tmp134, <retval>.dy
 150 0010 80ED0C1A 		vstr.32	s2, [r0, #48]	@ tmp135, <retval>.dz
ARM GAS  /var/folders/cs/83z6p2tj4w57s6p2rt8nwfp00000gn/T//ccot36Fs.s 			page 4


 151 0014 41F00101 		orr	r1, r1, #1	@ tmp121, tmp119,
 152 0018 8260     		str	r2, [r0, #8]	@ float	@ tmp124, <retval>.m
 153 001a C260     		str	r2, [r0, #12]	@ float	@ tmp124, <retval>.m
 154 001c 0170     		strb	r1, [r0]	@ tmp121, MEM[(struct  *)&<retval>]
 155 001e 0261     		str	r2, [r0, #16]	@ float	@ tmp124, <retval>.m
 156 0020 8261     		str	r2, [r0, #24]	@ float	@ tmp124, <retval>.m
 157 0022 C261     		str	r2, [r0, #28]	@ float	@ tmp124, <retval>.m
 158 0024 0262     		str	r2, [r0, #32]	@ float	@ tmp124, <retval>.m
 159              	@ mini3d/3dmath.c:20: {
  20:mini3d/3dmath.c **** 	return (Matrix3D){ .isIdentity = 1, .inverting = 0, .m = {{1, 0, 0}, {0, 1, 0}, {0, 0, 1}}, .dx = 
 160              		.loc 1 20 1 view .LVU8
 161 0026 10B4     		push	{r4}	@
 162              	.LCFI0:
 163              		.cfi_def_cfa_offset 4
 164              		.cfi_offset 4, -4
 165              	@ mini3d/3dmath.c:21: 	return (Matrix3D){ .isIdentity = 1, .inverting = 0, .m = {{1, 0, 0}, {0, 1, 
 166              		.loc 1 21 9 view .LVU9
 167 0028 4FF07E54 		mov	r4, #1065353216	@ tmp123,
 168 002c 4460     		str	r4, [r0, #4]	@ float	@ tmp123, <retval>.m
 169 002e 4461     		str	r4, [r0, #20]	@ float	@ tmp123, <retval>.m
 170 0030 4462     		str	r4, [r0, #36]	@ float	@ tmp123, <retval>.m
 171              	@ mini3d/3dmath.c:22: }
  22:mini3d/3dmath.c **** }
 172              		.loc 1 22 1 view .LVU10
 173 0032 5DF8044B 		ldr	r4, [sp], #4	@,
 174              	.LCFI1:
 175              		.cfi_restore 4
 176              		.cfi_def_cfa_offset 0
 177 0036 7047     		bx	lr	@
 178              		.cfi_endproc
 179              	.LFE13:
 180              		.size	Matrix3DMakeTranslate, .-Matrix3DMakeTranslate
 181              		.section	.text.Matrix3D_multiply,"ax",%progbits
 182              		.align	1
 183              		.p2align 4,,15
 184              		.global	Matrix3D_multiply
 185              		.syntax unified
 186              		.thumb
 187              		.thumb_func
 188              		.fpu fpv5-sp-d16
 189              		.type	Matrix3D_multiply, %function
 190              	Matrix3D_multiply:
 191              	.LVL3:
 192              	.LFB14:
  23:mini3d/3dmath.c **** 
  24:mini3d/3dmath.c **** Matrix3D Matrix3D_multiply(Matrix3D l, Matrix3D r)
  25:mini3d/3dmath.c **** {
 193              		.loc 1 25 1 is_stmt 1 view -0
 194              		.cfi_startproc
 195              		@ args = 108, pretend = 16, frame = 32
 196              		@ frame_needed = 0, uses_anonymous_args = 0
 197              		.loc 1 25 1 is_stmt 0 view .LVU12
 198 0000 84B0     		sub	sp, sp, #16	@,,
 199              	.LCFI2:
 200              		.cfi_def_cfa_offset 16
 201 0002 F0B5     		push	{r4, r5, r6, r7, lr}	@
 202              	.LCFI3:
ARM GAS  /var/folders/cs/83z6p2tj4w57s6p2rt8nwfp00000gn/T//ccot36Fs.s 			page 5


 203              		.cfi_def_cfa_offset 36
 204              		.cfi_offset 4, -36
 205              		.cfi_offset 5, -32
 206              		.cfi_offset 6, -28
 207              		.cfi_offset 7, -24
 208              		.cfi_offset 14, -20
 209 0004 2DED108B 		vpush.64	{d8, d9, d10, d11, d12, d13, d14, d15}	@
 210              	.LCFI4:
 211              		.cfi_def_cfa_offset 100
 212              		.cfi_offset 80, -100
 213              		.cfi_offset 81, -96
 214              		.cfi_offset 82, -92
 215              		.cfi_offset 83, -88
 216              		.cfi_offset 84, -84
 217              		.cfi_offset 85, -80
 218              		.cfi_offset 86, -76
 219              		.cfi_offset 87, -72
 220              		.cfi_offset 88, -68
 221              		.cfi_offset 89, -64
 222              		.cfi_offset 90, -60
 223              		.cfi_offset 91, -56
 224              		.cfi_offset 92, -52
 225              		.cfi_offset 93, -48
 226              		.cfi_offset 94, -44
 227              		.cfi_offset 95, -40
 228 0008 89B0     		sub	sp, sp, #36	@,,
 229              	.LCFI5:
 230              		.cfi_def_cfa_offset 136
 231              	@ mini3d/3dmath.c:25: {
 232              		.loc 1 25 1 view .LVU13
 233 000a 0446     		mov	r4, r0	@ .result_ptr, tmp240
 234 000c 9DED297A 		vldr.32	s14, [sp, #164]	@ l$dx, MEM[(struct  *)&l + 40B]
 235 0010 1FAD     		add	r5, sp, #124	@ tmp180,,
 236 0012 9DED2D4A 		vldr.32	s8, [sp, #180]	@ r$m$0$0, MEM[(struct  *)&r + 4B]
 237 0016 DDED2F5A 		vldr.32	s11, [sp, #188]	@ r$m$0$2, MEM[(struct  *)&r + 12B]
 238 001a DDED304A 		vldr.32	s9, [sp, #192]	@ r$m$1$0, MEM[(struct  *)&r + 16B]
 239 001e 9DED326A 		vldr.32	s12, [sp, #200]	@ r$m$1$2, MEM[(struct  *)&r + 24B]
 240 0022 9DED335A 		vldr.32	s10, [sp, #204]	@ r$m$2$0, MEM[(struct  *)&r + 28B]
 241 0026 DDED347A 		vldr.32	s15, [sp, #208]	@ r$m$2$1, MEM[(struct  *)&r + 32B]
 242 002a DDED356A 		vldr.32	s13, [sp, #212]	@ r$m$2$2, MEM[(struct  *)&r + 36B]
 243 002e 8DED077A 		vstr.32	s14, [sp, #28]	@ int	@ l$dx, %sfp
 244 0032 8DED064A 		vstr.32	s8, [sp, #24]	@ int	@ r$m$0$0, %sfp
 245 0036 CDED055A 		vstr.32	s11, [sp, #20]	@ int	@ r$m$0$2, %sfp
 246 003a CDED044A 		vstr.32	s9, [sp, #16]	@ int	@ r$m$1$0, %sfp
 247 003e 8DED036A 		vstr.32	s12, [sp, #12]	@ int	@ r$m$1$2, %sfp
 248 0042 8DED025A 		vstr.32	s10, [sp, #8]	@ int	@ r$m$2$0, %sfp
 249 0046 CDED017A 		vstr.32	s15, [sp, #4]	@ int	@ r$m$2$1, %sfp
 250 004a CDED006A 		vstr.32	s13, [sp]	@ int	@ r$m$2$2, %sfp
 251 004e 9DED22EA 		vldr.32	s28, [sp, #136]	@ m$12, MEM[(struct  *)&l + 12B]
 252 0052 DDED23AA 		vldr.32	s21, [sp, #140]	@ m$16, MEM[(struct  *)&l + 16B]
 253 0056 9DED24AA 		vldr.32	s20, [sp, #144]	@ m$20, MEM[(struct  *)&l + 20B]
 254 005a DDED259A 		vldr.32	s19, [sp, #148]	@ m$24, MEM[(struct  *)&l + 24B]
 255 005e DDED26DA 		vldr.32	s27, [sp, #152]	@ m$28, MEM[(struct  *)&l + 28B]
 256 0062 9DED27DA 		vldr.32	s26, [sp, #156]	@ m$32, MEM[(struct  *)&l + 32B]
 257 0066 DDED28CA 		vldr.32	s25, [sp, #160]	@ m$36, MEM[(struct  *)&l + 36B]
 258 006a 9DED2A8A 		vldr.32	s16, [sp, #168]	@ l$dy, MEM[(struct  *)&l + 44B]
 259 006e DDED2BFA 		vldr.32	s31, [sp, #172]	@ l$dz, MEM[(struct  *)&l + 48B]
ARM GAS  /var/folders/cs/83z6p2tj4w57s6p2rt8nwfp00000gn/T//ccot36Fs.s 			page 6


 260 0072 9DED2E9A 		vldr.32	s18, [sp, #184]	@ r$m$0$1, MEM[(struct  *)&r + 8B]
 261 0076 DDED318A 		vldr.32	s17, [sp, #196]	@ r$m$1$1, MEM[(struct  *)&r + 20B]
 262 007a 9DED36CA 		vldr.32	s24, [sp, #216]	@ r$dx, MEM[(struct  *)&r + 40B]
 263 007e DDED37BA 		vldr.32	s23, [sp, #220]	@ r$dy, MEM[(struct  *)&r + 44B]
 264 0082 9DED38BA 		vldr.32	s22, [sp, #224]	@ r$dz, MEM[(struct  *)&r + 48B]
 265 0086 85E80E00 		stm	r5, {r1, r2, r3}	@ tmp180,,,
 266              	@ mini3d/3dmath.c:26: 	Matrix3D m = { .isIdentity = 0, .inverting = l.inverting ^ r.inverting };
  26:mini3d/3dmath.c **** 	Matrix3D m = { .isIdentity = 0, .inverting = l.inverting ^ r.inverting };
 267              		.loc 1 26 11 view .LVU14
 268 008a 3422     		movs	r2, #52	@,
 269 008c 0021     		movs	r1, #0	@,
 270 008e 9DED20FA 		vldr.32	s30, [sp, #128]	@ m$4, MEM[(struct  *)&l + 4B]
 271              	.LVL4:
 272              		.loc 1 26 11 view .LVU15
 273 0092 DDED21EA 		vldr.32	s29, [sp, #132]	@ m$8, MEM[(struct  *)&l + 8B]
 274              	.LVL5:
 275              		.loc 1 26 2 is_stmt 1 view .LVU16
 276              	@ mini3d/3dmath.c:26: 	Matrix3D m = { .isIdentity = 0, .inverting = l.inverting ^ r.inverting };
 277              		.loc 1 26 11 is_stmt 0 view .LVU17
 278 0096 FFF7FEFF 		bl	memset		@
 279              	.LVL6:
 280              	@ mini3d/3dmath.c:26: 	Matrix3D m = { .isIdentity = 0, .inverting = l.inverting ^ r.inverting };
 281              		.loc 1 26 48 view .LVU18
 282 009a 9DF87C10 		ldrb	r1, [sp, #124]	@ zero_extendqisi2	@ l, l
 283              	@ mini3d/3dmath.c:26: 	Matrix3D m = { .isIdentity = 0, .inverting = l.inverting ^ r.inverting };
 284              		.loc 1 26 62 view .LVU19
 285 009e 9DF8B020 		ldrb	r2, [sp, #176]	@ zero_extendqisi2	@ r, r
 286              	@ mini3d/3dmath.c:26: 	Matrix3D m = { .isIdentity = 0, .inverting = l.inverting ^ r.inverting };
 287              		.loc 1 26 48 view .LVU20
 288 00a2 41F34003 		sbfx	r3, r1, #1, #1	@ tmp187, l,,
 289              	@ mini3d/3dmath.c:28: 	if ( l.isIdentity )
  27:mini3d/3dmath.c **** 	
  28:mini3d/3dmath.c **** 	if ( l.isIdentity )
 290              		.loc 1 28 5 view .LVU21
 291 00a6 11F0010F 		tst	r1, #1	@ l,
 292              	@ mini3d/3dmath.c:26: 	Matrix3D m = { .isIdentity = 0, .inverting = l.inverting ^ r.inverting };
  26:mini3d/3dmath.c **** 	Matrix3D m = { .isIdentity = 0, .inverting = l.inverting ^ r.inverting };
 293              		.loc 1 26 62 view .LVU22
 294 00aa 42F34000 		sbfx	r0, r2, #1, #1	@ tmp191, r,,
 295              	@ mini3d/3dmath.c:28: 	if ( l.isIdentity )
 296              		.loc 1 28 5 view .LVU23
 297 00ae DDED006A 		vldr.32	s13, [sp]	@ int	@ r$m$2$2, %sfp
 298 00b2 DDED017A 		vldr.32	s15, [sp, #4]	@ int	@ r$m$2$1, %sfp
 299              	@ mini3d/3dmath.c:26: 	Matrix3D m = { .isIdentity = 0, .inverting = l.inverting ^ r.inverting };
  26:mini3d/3dmath.c **** 	Matrix3D m = { .isIdentity = 0, .inverting = l.inverting ^ r.inverting };
 300              		.loc 1 26 11 view .LVU24
 301 00b6 83EA0003 		eor	r3, r3, r0	@ tmp192, tmp187, tmp191
 302              	@ mini3d/3dmath.c:28: 	if ( l.isIdentity )
 303              		.loc 1 28 5 view .LVU25
 304 00ba 9DED025A 		vldr.32	s10, [sp, #8]	@ int	@ r$m$2$0, %sfp
 305 00be 9DED036A 		vldr.32	s12, [sp, #12]	@ int	@ r$m$1$2, %sfp
 306              	@ mini3d/3dmath.c:26: 	Matrix3D m = { .isIdentity = 0, .inverting = l.inverting ^ r.inverting };
  26:mini3d/3dmath.c **** 	Matrix3D m = { .isIdentity = 0, .inverting = l.inverting ^ r.inverting };
 307              		.loc 1 26 11 view .LVU26
 308 00c2 5BB2     		sxtb	r3, r3	@ m$inverting, tmp192
 309              	.LVL7:
 310              		.loc 1 28 2 is_stmt 1 view .LVU27
ARM GAS  /var/folders/cs/83z6p2tj4w57s6p2rt8nwfp00000gn/T//ccot36Fs.s 			page 7


 311              	@ mini3d/3dmath.c:28: 	if ( l.isIdentity )
 312              		.loc 1 28 5 is_stmt 0 view .LVU28
 313 00c4 DDED044A 		vldr.32	s9, [sp, #16]	@ int	@ r$m$1$0, %sfp
 314 00c8 DDED055A 		vldr.32	s11, [sp, #20]	@ int	@ r$m$0$2, %sfp
 315 00cc 9DED064A 		vldr.32	s8, [sp, #24]	@ int	@ r$m$0$0, %sfp
 316 00d0 9DED077A 		vldr.32	s14, [sp, #28]	@ int	@ l$dx, %sfp
 317 00d4 1BD0     		beq	.L6		@,
  29:mini3d/3dmath.c **** 	{
  30:mini3d/3dmath.c **** 		if ( r.isIdentity )
 318              		.loc 1 30 3 is_stmt 1 view .LVU29
 319              	@ mini3d/3dmath.c:30: 		if ( r.isIdentity )
 320              		.loc 1 30 6 is_stmt 0 view .LVU30
 321 00d6 D107     		lsls	r1, r2, #31	@, r,
 322 00d8 00F1A080 		bmi	.L12		@,
 323              	@ mini3d/3dmath.c:33: 			memcpy(&m.m, &r.m, sizeof(r.m));
  31:mini3d/3dmath.c **** 			m = identityMatrix;
  32:mini3d/3dmath.c **** 		else
  33:mini3d/3dmath.c **** 			memcpy(&m.m, &r.m, sizeof(r.m));
 324              		.loc 1 33 4 view .LVU31
 325 00dc F0EE66CA 		vmov.f32	s25, s13	@ m$36, r$m$2$2
 326 00e0 B0EE67DA 		vmov.f32	s26, s15	@ m$32, r$m$2$1
 327 00e4 F0EE45DA 		vmov.f32	s27, s10	@ m$28, r$m$2$0
 328              	.LVL8:
 329              		.loc 1 33 4 view .LVU32
 330 00e8 F0EE469A 		vmov.f32	s19, s12	@ m$24, r$m$1$2
 331              	.LVL9:
 332              		.loc 1 33 4 view .LVU33
 333 00ec B0EE68AA 		vmov.f32	s20, s17	@ m$20, r$m$1$1
 334              	.LVL10:
 335              		.loc 1 33 4 view .LVU34
 336 00f0 F0EE64AA 		vmov.f32	s21, s9	@ m$16, r$m$1$0
 337              	.LVL11:
 338              		.loc 1 33 4 view .LVU35
 339 00f4 B0EE65EA 		vmov.f32	s28, s11	@ m$12, r$m$0$2
 340              	.LVL12:
 341              		.loc 1 33 4 view .LVU36
 342 00f8 F0EE49EA 		vmov.f32	s29, s18	@ m$8, r$m$0$1
 343              	.LVL13:
 344              		.loc 1 33 4 view .LVU37
 345 00fc B0EE44FA 		vmov.f32	s30, s8	@ m$4, r$m$0$0
 346              	.LVL14:
 347              	.L7:
  34:mini3d/3dmath.c **** 		
  35:mini3d/3dmath.c **** 		m.dx = l.dx + r.dx;
 348              		.loc 1 35 3 is_stmt 1 view .LVU38
 349              	@ mini3d/3dmath.c:35: 		m.dx = l.dx + r.dx;
 350              		.loc 1 35 15 is_stmt 0 view .LVU39
 351 0100 37EE0C9A 		vadd.f32	s18, s14, s24	@ m$dx, l$dx, r$dx
 352              	.LVL15:
  36:mini3d/3dmath.c **** 		m.dy = l.dy + r.dy;
 353              		.loc 1 36 3 is_stmt 1 view .LVU40
 354              	@ mini3d/3dmath.c:36: 		m.dy = l.dy + r.dy;
 355              		.loc 1 36 15 is_stmt 0 view .LVU41
 356 0104 38EE2B8A 		vadd.f32	s16, s16, s23	@ m$dy, l$dy, r$dy
  37:mini3d/3dmath.c **** 		m.dz = l.dz + r.dz;
 357              		.loc 1 37 3 is_stmt 1 view .LVU42
 358              	@ mini3d/3dmath.c:37: 		m.dz = l.dz + r.dz;
ARM GAS  /var/folders/cs/83z6p2tj4w57s6p2rt8nwfp00000gn/T//ccot36Fs.s 			page 8


 359              		.loc 1 37 15 is_stmt 0 view .LVU43
 360 0108 7FEE8B7A 		vadd.f32	s15, s31, s22	@ m$dz, l$dz, r$dz
 361 010c 19E0     		b	.L8		@
 362              	.LVL16:
 363              	.L6:
  38:mini3d/3dmath.c **** 	}
  39:mini3d/3dmath.c **** 	else
  40:mini3d/3dmath.c **** 	{
  41:mini3d/3dmath.c **** 		if ( !r.isIdentity )
 364              		.loc 1 41 3 is_stmt 1 view .LVU44
 365              	@ mini3d/3dmath.c:41: 		if ( !r.isIdentity )
 366              		.loc 1 41 6 is_stmt 0 view .LVU45
 367 010e D207     		lsls	r2, r2, #31	@, r,
 368 0110 3BD5     		bpl	.L13		@,
 369              	.LVL17:
 370              	.L9:
  42:mini3d/3dmath.c **** 		{
  43:mini3d/3dmath.c **** 			m.m[0][0] = l.m[0][0] * r.m[0][0] + l.m[1][0] * r.m[0][1] + l.m[2][0] * r.m[0][2];
  44:mini3d/3dmath.c **** 			m.m[1][0] = l.m[0][0] * r.m[1][0] + l.m[1][0] * r.m[1][1] + l.m[2][0] * r.m[1][2];
  45:mini3d/3dmath.c **** 			m.m[2][0] = l.m[0][0] * r.m[2][0] + l.m[1][0] * r.m[2][1] + l.m[2][0] * r.m[2][2];
  46:mini3d/3dmath.c **** 
  47:mini3d/3dmath.c **** 			m.m[0][1] = l.m[0][1] * r.m[0][0] + l.m[1][1] * r.m[0][1] + l.m[2][1] * r.m[0][2];
  48:mini3d/3dmath.c **** 			m.m[1][1] = l.m[0][1] * r.m[1][0] + l.m[1][1] * r.m[1][1] + l.m[2][1] * r.m[1][2];
  49:mini3d/3dmath.c **** 			m.m[2][1] = l.m[0][1] * r.m[2][0] + l.m[1][1] * r.m[2][1] + l.m[2][1] * r.m[2][2];
  50:mini3d/3dmath.c **** 
  51:mini3d/3dmath.c **** 			m.m[0][2] = l.m[0][2] * r.m[0][0] + l.m[1][2] * r.m[0][1] + l.m[2][2] * r.m[0][2];
  52:mini3d/3dmath.c **** 			m.m[1][2] = l.m[0][2] * r.m[1][0] + l.m[1][2] * r.m[1][1] + l.m[2][2] * r.m[1][2];
  53:mini3d/3dmath.c **** 			m.m[2][2] = l.m[0][2] * r.m[2][0] + l.m[1][2] * r.m[2][1] + l.m[2][2] * r.m[2][2];
  54:mini3d/3dmath.c **** 		}
  55:mini3d/3dmath.c **** 		else
  56:mini3d/3dmath.c **** 			memcpy(&m.m, &l.m, sizeof(l.m));
  57:mini3d/3dmath.c **** 
  58:mini3d/3dmath.c **** 		m.dx = l.dx * r.m[0][0] + l.dy * r.m[0][1] + l.dz * r.m[0][2] + r.dx;
 371              		.loc 1 58 3 is_stmt 1 view .LVU46
 372              	@ mini3d/3dmath.c:58: 		m.dx = l.dx * r.m[0][0] + l.dy * r.m[0][1] + l.dz * r.m[0][2] + r.dx;
 373              		.loc 1 58 34 is_stmt 0 view .LVU47
 374 0112 28EE099A 		vmul.f32	s18, s16, s18	@ tmp235, l$dy, r$m$0$1
 375              	.LVL18:
 376              	@ mini3d/3dmath.c:59: 		m.dy = l.dx * r.m[1][0] + l.dy * r.m[1][1] + l.dz * r.m[1][2] + r.dy;
  59:mini3d/3dmath.c **** 		m.dy = l.dx * r.m[1][0] + l.dy * r.m[1][1] + l.dz * r.m[1][2] + r.dy;
 377              		.loc 1 59 34 view .LVU48
 378 0116 68EE288A 		vmul.f32	s17, s16, s17	@ tmp236, l$dy, r$m$1$1
 379              	.LVL19:
 380              	@ mini3d/3dmath.c:60: 		m.dz = l.dx * r.m[2][0] + l.dy * r.m[2][1] + l.dz * r.m[2][2] + r.dz;
  60:mini3d/3dmath.c **** 		m.dz = l.dx * r.m[2][0] + l.dy * r.m[2][1] + l.dz * r.m[2][2] + r.dz;
 381              		.loc 1 60 34 view .LVU49
 382 011a 68EE277A 		vmul.f32	s15, s16, s15	@ tmp237, l$dy, r$m$2$1
 383              	@ mini3d/3dmath.c:58: 		m.dx = l.dx * r.m[0][0] + l.dy * r.m[0][1] + l.dz * r.m[0][2] + r.dx;
  58:mini3d/3dmath.c **** 		m.dy = l.dx * r.m[1][0] + l.dy * r.m[1][1] + l.dz * r.m[1][2] + r.dy;
 384              		.loc 1 58 27 view .LVU50
 385 011e A7EE049A 		vfma.f32	s18, s14, s8	@ _60, l$dx, r$m$0$0
 386              	@ mini3d/3dmath.c:59: 		m.dy = l.dx * r.m[1][0] + l.dy * r.m[1][1] + l.dz * r.m[1][2] + r.dy;
  59:mini3d/3dmath.c **** 		m.dy = l.dx * r.m[1][0] + l.dy * r.m[1][1] + l.dz * r.m[1][2] + r.dy;
 387              		.loc 1 59 27 view .LVU51
 388 0122 E7EE248A 		vfma.f32	s17, s14, s9	@ _66, l$dx, r$m$1$0
 389              	@ mini3d/3dmath.c:60: 		m.dz = l.dx * r.m[2][0] + l.dy * r.m[2][1] + l.dz * r.m[2][2] + r.dz;
 390              		.loc 1 60 27 view .LVU52
ARM GAS  /var/folders/cs/83z6p2tj4w57s6p2rt8nwfp00000gn/T//ccot36Fs.s 			page 9


 391 0126 E7EE057A 		vfma.f32	s15, s14, s10	@ _72, l$dx, r$m$2$0
 392              	@ mini3d/3dmath.c:58: 		m.dx = l.dx * r.m[0][0] + l.dy * r.m[0][1] + l.dz * r.m[0][2] + r.dx;
  58:mini3d/3dmath.c **** 		m.dy = l.dx * r.m[1][0] + l.dy * r.m[1][1] + l.dz * r.m[1][2] + r.dy;
 393              		.loc 1 58 46 view .LVU53
 394 012a AFEEA59A 		vfma.f32	s18, s31, s11	@ _62, l$dz, r$m$0$2
 395              	@ mini3d/3dmath.c:59: 		m.dy = l.dx * r.m[1][0] + l.dy * r.m[1][1] + l.dz * r.m[1][2] + r.dy;
  59:mini3d/3dmath.c **** 		m.dy = l.dx * r.m[1][0] + l.dy * r.m[1][1] + l.dz * r.m[1][2] + r.dy;
 396              		.loc 1 59 46 view .LVU54
 397 012e EFEE868A 		vfma.f32	s17, s31, s12	@ _68, l$dz, r$m$1$2
 398              	@ mini3d/3dmath.c:60: 		m.dz = l.dx * r.m[2][0] + l.dy * r.m[2][1] + l.dz * r.m[2][2] + r.dz;
 399              		.loc 1 60 46 view .LVU55
 400 0132 EFEEA67A 		vfma.f32	s15, s31, s13	@ _74, l$dz, r$m$2$2
 401              	@ mini3d/3dmath.c:58: 		m.dx = l.dx * r.m[0][0] + l.dy * r.m[0][1] + l.dz * r.m[0][2] + r.dx;
  58:mini3d/3dmath.c **** 		m.dy = l.dx * r.m[1][0] + l.dy * r.m[1][1] + l.dz * r.m[1][2] + r.dy;
 402              		.loc 1 58 65 view .LVU56
 403 0136 39EE0C9A 		vadd.f32	s18, s18, s24	@ m$dx, _62, r$dx
  59:mini3d/3dmath.c **** 		m.dy = l.dx * r.m[1][0] + l.dy * r.m[1][1] + l.dz * r.m[1][2] + r.dy;
 404              		.loc 1 59 3 is_stmt 1 view .LVU57
 405              	@ mini3d/3dmath.c:59: 		m.dy = l.dx * r.m[1][0] + l.dy * r.m[1][1] + l.dz * r.m[1][2] + r.dy;
  59:mini3d/3dmath.c **** 		m.dy = l.dx * r.m[1][0] + l.dy * r.m[1][1] + l.dz * r.m[1][2] + r.dy;
 406              		.loc 1 59 65 is_stmt 0 view .LVU58
 407 013a 38EEAB8A 		vadd.f32	s16, s17, s23	@ m$dy, _68, r$dy
 408              		.loc 1 60 3 is_stmt 1 view .LVU59
 409              	@ mini3d/3dmath.c:60: 		m.dz = l.dx * r.m[2][0] + l.dy * r.m[2][1] + l.dz * r.m[2][2] + r.dz;
 410              		.loc 1 60 65 is_stmt 0 view .LVU60
 411 013e 77EE8B7A 		vadd.f32	s15, s15, s22	@ m$dz, _74, r$dz
 412              	.LVL20:
 413              	.L8:
  61:mini3d/3dmath.c **** 	}
  62:mini3d/3dmath.c **** 	
  63:mini3d/3dmath.c **** 	return m;
 414              		.loc 1 63 2 is_stmt 1 view .LVU61
 415              	@ mini3d/3dmath.c:63: 	return m;
 416              		.loc 1 63 9 is_stmt 0 view .LVU62
 417 0142 2278     		ldrb	r2, [r4]	@ zero_extendqisi2	@, <retval>.inverting
 418              	@ mini3d/3dmath.c:64: }
  64:mini3d/3dmath.c **** }
 419              		.loc 1 64 1 view .LVU63
 420 0144 2046     		mov	r0, r4	@, .result_ptr
 421              	@ mini3d/3dmath.c:63: 	return m;
  63:mini3d/3dmath.c **** }
 422              		.loc 1 63 9 view .LVU64
 423 0146 84ED01FA 		vstr.32	s30, [r4, #4]	@ m$4, MEM[(struct  *)&<retval> + 4B]
 424 014a 63F34102 		bfi	r2, r3, #1, #1	@ <retval>.inverting, m$inverting,,
 425 014e C4ED02EA 		vstr.32	s29, [r4, #8]	@ m$8, MEM[(struct  *)&<retval> + 8B]
 426 0152 84ED03EA 		vstr.32	s28, [r4, #12]	@ m$12, MEM[(struct  *)&<retval> + 12B]
 427 0156 C4ED04AA 		vstr.32	s21, [r4, #16]	@ m$16, MEM[(struct  *)&<retval> + 16B]
 428 015a 84ED05AA 		vstr.32	s20, [r4, #20]	@ m$20, MEM[(struct  *)&<retval> + 20B]
 429 015e C4ED069A 		vstr.32	s19, [r4, #24]	@ m$24, MEM[(struct  *)&<retval> + 24B]
 430 0162 C4ED07DA 		vstr.32	s27, [r4, #28]	@ m$28, MEM[(struct  *)&<retval> + 28B]
 431 0166 84ED08DA 		vstr.32	s26, [r4, #32]	@ m$32, MEM[(struct  *)&<retval> + 32B]
 432 016a C4ED09CA 		vstr.32	s25, [r4, #36]	@ m$36, MEM[(struct  *)&<retval> + 36B]
 433 016e 84ED0A9A 		vstr.32	s18, [r4, #40]	@ m$dx, MEM[(struct  *)&<retval> + 40B]
 434 0172 84ED0B8A 		vstr.32	s16, [r4, #44]	@ m$dy, MEM[(struct  *)&<retval> + 44B]
 435 0176 C4ED0C7A 		vstr.32	s15, [r4, #48]	@ m$dz, MEM[(struct  *)&<retval> + 48B]
 436              	.LVL21:
  63:mini3d/3dmath.c **** }
ARM GAS  /var/folders/cs/83z6p2tj4w57s6p2rt8nwfp00000gn/T//ccot36Fs.s 			page 10


 437              		.loc 1 63 9 view .LVU65
 438 017a 2270     		strb	r2, [r4]	@ <retval>.inverting, <retval>.inverting
 439              	@ mini3d/3dmath.c:64: }
 440              		.loc 1 64 1 view .LVU66
 441 017c 09B0     		add	sp, sp, #36	@,,
 442              	.LCFI6:
 443              		.cfi_remember_state
 444              		.cfi_def_cfa_offset 100
 445              		@ sp needed	@
 446 017e BDEC108B 		vldm	sp!, {d8-d15}	@,
 447              	.LCFI7:
 448              		.cfi_restore 94
 449              		.cfi_restore 95
 450              		.cfi_restore 92
 451              		.cfi_restore 93
 452              		.cfi_restore 90
 453              		.cfi_restore 91
 454              		.cfi_restore 88
 455              		.cfi_restore 89
 456              		.cfi_restore 86
 457              		.cfi_restore 87
 458              		.cfi_restore 84
 459              		.cfi_restore 85
 460              		.cfi_restore 82
 461              		.cfi_restore 83
 462              		.cfi_restore 80
 463              		.cfi_restore 81
 464              		.cfi_def_cfa_offset 36
 465 0182 BDE8F040 		pop	{r4, r5, r6, r7, lr}	@
 466              	.LCFI8:
 467              		.cfi_restore 14
 468              		.cfi_restore 7
 469              		.cfi_restore 6
 470              		.cfi_restore 5
 471              		.cfi_restore 4
 472              		.cfi_def_cfa_offset 16
 473              	.LVL22:
 474              		.loc 1 64 1 view .LVU67
 475 0186 04B0     		add	sp, sp, #16	@,,
 476              	.LCFI9:
 477              		.cfi_def_cfa_offset 0
 478              	.LVL23:
 479              		.loc 1 64 1 view .LVU68
 480 0188 7047     		bx	lr	@
 481              	.LVL24:
 482              	.L13:
 483              	.LCFI10:
 484              		.cfi_restore_state
  43:mini3d/3dmath.c **** 			m.m[1][0] = l.m[0][0] * r.m[1][0] + l.m[1][0] * r.m[1][1] + l.m[2][0] * r.m[1][2];
 485              		.loc 1 43 4 is_stmt 1 view .LVU69
 486              	@ mini3d/3dmath.c:48: 			m.m[1][1] = l.m[0][1] * r.m[1][0] + l.m[1][1] * r.m[1][1] + l.m[2][1] * r.
  48:mini3d/3dmath.c **** 			m.m[2][1] = l.m[0][1] * r.m[2][0] + l.m[1][1] * r.m[2][1] + l.m[2][1] * r.m[2][2];
 487              		.loc 1 48 50 is_stmt 0 view .LVU70
 488 018a 6AEE282A 		vmul.f32	s5, s20, s17	@ tmp230, m$20, r$m$1$1
 489              	@ mini3d/3dmath.c:44: 			m.m[1][0] = l.m[0][0] * r.m[1][0] + l.m[1][0] * r.m[1][1] + l.m[2][0] * r.
  44:mini3d/3dmath.c **** 			m.m[2][0] = l.m[0][0] * r.m[2][0] + l.m[1][0] * r.m[2][1] + l.m[2][0] * r.m[2][2];
 490              		.loc 1 44 50 view .LVU71
ARM GAS  /var/folders/cs/83z6p2tj4w57s6p2rt8nwfp00000gn/T//ccot36Fs.s 			page 11


 491 018e 6AEEA80A 		vmul.f32	s1, s21, s17	@ tmp227, m$16, r$m$1$1
 492              	@ mini3d/3dmath.c:43: 			m.m[0][0] = l.m[0][0] * r.m[0][0] + l.m[1][0] * r.m[0][1] + l.m[2][0] * r.
  43:mini3d/3dmath.c **** 			m.m[1][0] = l.m[0][0] * r.m[1][0] + l.m[1][0] * r.m[1][1] + l.m[2][0] * r.m[1][2];
 493              		.loc 1 43 50 view .LVU72
 494 0192 2AEE891A 		vmul.f32	s2, s21, s18	@ tmp226, m$16, r$m$0$1
 495              	@ mini3d/3dmath.c:48: 			m.m[1][1] = l.m[0][1] * r.m[1][0] + l.m[1][1] * r.m[1][1] + l.m[2][1] * r.
  48:mini3d/3dmath.c **** 			m.m[2][1] = l.m[0][1] * r.m[2][0] + l.m[1][1] * r.m[2][1] + l.m[2][1] * r.m[2][2];
 496              		.loc 1 48 38 view .LVU73
 497 0196 EEEEA42A 		vfma.f32	s5, s29, s9	@ tmp230, m$8, r$m$1$0
 498              	@ mini3d/3dmath.c:44: 			m.m[1][0] = l.m[0][0] * r.m[1][0] + l.m[1][0] * r.m[1][1] + l.m[2][0] * r.
  44:mini3d/3dmath.c **** 			m.m[2][0] = l.m[0][0] * r.m[2][0] + l.m[1][0] * r.m[2][1] + l.m[2][0] * r.m[2][2];
 499              		.loc 1 44 38 view .LVU74
 500 019a EFEE240A 		vfma.f32	s1, s30, s9	@ tmp227, m$4, r$m$1$0
 501              	@ mini3d/3dmath.c:47: 			m.m[0][1] = l.m[0][1] * r.m[0][0] + l.m[1][1] * r.m[0][1] + l.m[2][1] * r.
  47:mini3d/3dmath.c **** 			m.m[1][1] = l.m[0][1] * r.m[1][0] + l.m[1][1] * r.m[1][1] + l.m[2][1] * r.m[1][2];
 502              		.loc 1 47 50 view .LVU75
 503 019e 2AEE093A 		vmul.f32	s6, s20, s18	@ tmp229, m$20, r$m$0$1
 504              	@ mini3d/3dmath.c:45: 			m.m[2][0] = l.m[0][0] * r.m[2][0] + l.m[1][0] * r.m[2][1] + l.m[2][0] * r.
  45:mini3d/3dmath.c **** 
 505              		.loc 1 45 50 view .LVU76
 506 01a2 6AEEA71A 		vmul.f32	s3, s21, s15	@ tmp228, m$16, r$m$2$1
 507              	@ mini3d/3dmath.c:49: 			m.m[2][1] = l.m[0][1] * r.m[2][0] + l.m[1][1] * r.m[2][1] + l.m[2][1] * r.
  49:mini3d/3dmath.c **** 
 508              		.loc 1 49 50 view .LVU77
 509 01a6 2AEE272A 		vmul.f32	s4, s20, s15	@ tmp231, m$20, r$m$2$1
 510              	@ mini3d/3dmath.c:51: 			m.m[0][2] = l.m[0][2] * r.m[0][0] + l.m[1][2] * r.m[0][1] + l.m[2][2] * r.
  51:mini3d/3dmath.c **** 			m.m[1][2] = l.m[0][2] * r.m[1][0] + l.m[1][2] * r.m[1][1] + l.m[2][2] * r.m[1][2];
 511              		.loc 1 51 50 view .LVU78
 512 01aa 69EE893A 		vmul.f32	s7, s19, s18	@ tmp232, m$24, r$m$0$1
 513              	@ mini3d/3dmath.c:48: 			m.m[1][1] = l.m[0][1] * r.m[1][0] + l.m[1][1] * r.m[1][1] + l.m[2][1] * r.
  48:mini3d/3dmath.c **** 			m.m[2][1] = l.m[0][1] * r.m[2][0] + l.m[1][1] * r.m[2][1] + l.m[2][1] * r.m[2][2];
 514              		.loc 1 48 38 view .LVU79
 515 01ae B0EE62AA 		vmov.f32	s20, s5	@ _35, tmp230
 516              	.LVL25:
 517              	@ mini3d/3dmath.c:53: 			m.m[2][2] = l.m[0][2] * r.m[2][0] + l.m[1][2] * r.m[2][1] + l.m[2][2] * r.
  53:mini3d/3dmath.c **** 		}
 518              		.loc 1 53 50 view .LVU80
 519 01b2 69EEA72A 		vmul.f32	s5, s19, s15	@ tmp234, m$24, r$m$2$1
 520              	@ mini3d/3dmath.c:43: 			m.m[0][0] = l.m[0][0] * r.m[0][0] + l.m[1][0] * r.m[0][1] + l.m[2][0] * r.
  43:mini3d/3dmath.c **** 			m.m[1][0] = l.m[0][0] * r.m[1][0] + l.m[1][0] * r.m[1][1] + l.m[2][0] * r.m[1][2];
 521              		.loc 1 43 38 view .LVU81
 522 01b6 AFEE041A 		vfma.f32	s2, s30, s8	@ _15, m$4, r$m$0$0
 523              	@ mini3d/3dmath.c:47: 			m.m[0][1] = l.m[0][1] * r.m[0][0] + l.m[1][1] * r.m[0][1] + l.m[2][1] * r.
  47:mini3d/3dmath.c **** 			m.m[1][1] = l.m[0][1] * r.m[1][0] + l.m[1][1] * r.m[1][1] + l.m[2][1] * r.m[1][2];
 524              		.loc 1 47 38 view .LVU82
 525 01ba AEEE843A 		vfma.f32	s6, s29, s8	@ _30, m$8, r$m$0$0
 526              	@ mini3d/3dmath.c:51: 			m.m[0][2] = l.m[0][2] * r.m[0][0] + l.m[1][2] * r.m[0][1] + l.m[2][2] * r.
  51:mini3d/3dmath.c **** 			m.m[1][2] = l.m[0][2] * r.m[1][0] + l.m[1][2] * r.m[1][1] + l.m[2][2] * r.m[1][2];
 527              		.loc 1 51 38 view .LVU83
 528 01be EEEE043A 		vfma.f32	s7, s28, s8	@ _45, m$12, r$m$0$0
 529              	@ mini3d/3dmath.c:45: 			m.m[2][0] = l.m[0][0] * r.m[2][0] + l.m[1][0] * r.m[2][1] + l.m[2][0] * r.
  45:mini3d/3dmath.c **** 
 530              		.loc 1 45 38 view .LVU84
 531 01c2 EFEE051A 		vfma.f32	s3, s30, s10	@ _25, m$4, r$m$2$0
 532              	@ mini3d/3dmath.c:49: 			m.m[2][1] = l.m[0][1] * r.m[2][0] + l.m[1][1] * r.m[2][1] + l.m[2][1] * r.
  49:mini3d/3dmath.c **** 
 533              		.loc 1 49 38 view .LVU85
ARM GAS  /var/folders/cs/83z6p2tj4w57s6p2rt8nwfp00000gn/T//ccot36Fs.s 			page 12


 534 01c6 AEEE852A 		vfma.f32	s4, s29, s10	@ _40, m$8, r$m$2$0
 535              	@ mini3d/3dmath.c:53: 			m.m[2][2] = l.m[0][2] * r.m[2][0] + l.m[1][2] * r.m[2][1] + l.m[2][2] * r.
  53:mini3d/3dmath.c **** 		}
 536              		.loc 1 53 38 view .LVU86
 537 01ca EEEE052A 		vfma.f32	s5, s28, s10	@ _55, m$12, r$m$2$0
 538              	@ mini3d/3dmath.c:44: 			m.m[1][0] = l.m[0][0] * r.m[1][0] + l.m[1][0] * r.m[1][1] + l.m[2][0] * r.
  44:mini3d/3dmath.c **** 			m.m[2][0] = l.m[0][0] * r.m[2][0] + l.m[1][0] * r.m[2][1] + l.m[2][0] * r.m[2][2];
 539              		.loc 1 44 38 view .LVU87
 540 01ce F0EE60AA 		vmov.f32	s21, s1	@ _20, tmp227
 541              	.LVL26:
 542              	@ mini3d/3dmath.c:52: 			m.m[1][2] = l.m[0][2] * r.m[1][0] + l.m[1][2] * r.m[1][1] + l.m[2][2] * r.
  52:mini3d/3dmath.c **** 			m.m[2][2] = l.m[0][2] * r.m[2][0] + l.m[1][2] * r.m[2][1] + l.m[2][2] * r.m[2][2];
 543              		.loc 1 52 50 view .LVU88
 544 01d2 69EEA80A 		vmul.f32	s1, s19, s17	@ tmp233, m$24, r$m$1$1
 545              	@ mini3d/3dmath.c:43: 			m.m[0][0] = l.m[0][0] * r.m[0][0] + l.m[1][0] * r.m[0][1] + l.m[2][0] * r.
  43:mini3d/3dmath.c **** 			m.m[1][0] = l.m[0][0] * r.m[1][0] + l.m[1][0] * r.m[1][1] + l.m[2][0] * r.m[1][2];
 546              		.loc 1 43 62 view .LVU89
 547 01d6 ADEEA51A 		vfma.f32	s2, s27, s11	@ _15, m$28, r$m$0$2
 548              	@ mini3d/3dmath.c:47: 			m.m[0][1] = l.m[0][1] * r.m[0][0] + l.m[1][1] * r.m[0][1] + l.m[2][1] * r.
  47:mini3d/3dmath.c **** 			m.m[1][1] = l.m[0][1] * r.m[1][0] + l.m[1][1] * r.m[1][1] + l.m[2][1] * r.m[1][2];
 549              		.loc 1 47 62 view .LVU90
 550 01da ADEE253A 		vfma.f32	s6, s26, s11	@ _30, m$32, r$m$0$2
 551              	@ mini3d/3dmath.c:52: 			m.m[1][2] = l.m[0][2] * r.m[1][0] + l.m[1][2] * r.m[1][1] + l.m[2][2] * r.
  52:mini3d/3dmath.c **** 			m.m[2][2] = l.m[0][2] * r.m[2][0] + l.m[1][2] * r.m[2][1] + l.m[2][2] * r.m[2][2];
 552              		.loc 1 52 38 view .LVU91
 553 01de EEEE240A 		vfma.f32	s1, s28, s9	@ tmp233, m$12, r$m$1$0
 554              	@ mini3d/3dmath.c:51: 			m.m[0][2] = l.m[0][2] * r.m[0][0] + l.m[1][2] * r.m[0][1] + l.m[2][2] * r.
  51:mini3d/3dmath.c **** 			m.m[1][2] = l.m[0][2] * r.m[1][0] + l.m[1][2] * r.m[1][1] + l.m[2][2] * r.m[1][2];
 555              		.loc 1 51 62 view .LVU92
 556 01e2 ECEEA53A 		vfma.f32	s7, s25, s11	@ _45, m$36, r$m$0$2
 557              	@ mini3d/3dmath.c:45: 			m.m[2][0] = l.m[0][0] * r.m[2][0] + l.m[1][0] * r.m[2][1] + l.m[2][0] * r.
  45:mini3d/3dmath.c **** 
 558              		.loc 1 45 62 view .LVU93
 559 01e6 EDEEA61A 		vfma.f32	s3, s27, s13	@ _25, m$28, r$m$2$2
 560              	@ mini3d/3dmath.c:49: 			m.m[2][1] = l.m[0][1] * r.m[2][0] + l.m[1][1] * r.m[2][1] + l.m[2][1] * r.
  49:mini3d/3dmath.c **** 
 561              		.loc 1 49 62 view .LVU94
 562 01ea ADEE262A 		vfma.f32	s4, s26, s13	@ _40, m$32, r$m$2$2
 563              	@ mini3d/3dmath.c:53: 			m.m[2][2] = l.m[0][2] * r.m[2][0] + l.m[1][2] * r.m[2][1] + l.m[2][2] * r.
  53:mini3d/3dmath.c **** 		}
 564              		.loc 1 53 62 view .LVU95
 565 01ee ECEEA62A 		vfma.f32	s5, s25, s13	@ _55, m$36, r$m$2$2
 566              	@ mini3d/3dmath.c:44: 			m.m[1][0] = l.m[0][0] * r.m[1][0] + l.m[1][0] * r.m[1][1] + l.m[2][0] * r.
  44:mini3d/3dmath.c **** 			m.m[2][0] = l.m[0][0] * r.m[2][0] + l.m[1][0] * r.m[2][1] + l.m[2][0] * r.m[2][2];
 567              		.loc 1 44 62 view .LVU96
 568 01f2 EDEE86AA 		vfma.f32	s21, s27, s12	@ _22, m$28, r$m$1$2
 569              	@ mini3d/3dmath.c:52: 			m.m[1][2] = l.m[0][2] * r.m[1][0] + l.m[1][2] * r.m[1][1] + l.m[2][2] * r.
  52:mini3d/3dmath.c **** 			m.m[2][2] = l.m[0][2] * r.m[2][0] + l.m[1][2] * r.m[2][1] + l.m[2][2] * r.m[2][2];
 570              		.loc 1 52 38 view .LVU97
 571 01f6 F0EE609A 		vmov.f32	s19, s1	@ _50, tmp233
 572              	.LVL27:
 573              	@ mini3d/3dmath.c:48: 			m.m[1][1] = l.m[0][1] * r.m[1][0] + l.m[1][1] * r.m[1][1] + l.m[2][1] * r.
  48:mini3d/3dmath.c **** 			m.m[2][1] = l.m[0][1] * r.m[2][0] + l.m[1][1] * r.m[2][1] + l.m[2][1] * r.m[2][2];
 574              		.loc 1 48 62 view .LVU98
 575 01fa ADEE06AA 		vfma.f32	s20, s26, s12	@ _37, m$32, r$m$1$2
 576              	@ mini3d/3dmath.c:43: 			m.m[0][0] = l.m[0][0] * r.m[0][0] + l.m[1][0] * r.m[0][1] + l.m[2][0] * r.
  43:mini3d/3dmath.c **** 			m.m[1][0] = l.m[0][0] * r.m[1][0] + l.m[1][0] * r.m[1][1] + l.m[2][0] * r.m[1][2];
ARM GAS  /var/folders/cs/83z6p2tj4w57s6p2rt8nwfp00000gn/T//ccot36Fs.s 			page 13


 577              		.loc 1 43 62 view .LVU99
 578 01fe B0EE41FA 		vmov.f32	s30, s2	@ _17, _15
 579              	.LVL28:
  44:mini3d/3dmath.c **** 			m.m[2][0] = l.m[0][0] * r.m[2][0] + l.m[1][0] * r.m[2][1] + l.m[2][0] * r.m[2][2];
 580              		.loc 1 44 4 is_stmt 1 view .LVU100
  45:mini3d/3dmath.c **** 
 581              		.loc 1 45 4 view .LVU101
 582              	@ mini3d/3dmath.c:52: 			m.m[1][2] = l.m[0][2] * r.m[1][0] + l.m[1][2] * r.m[1][1] + l.m[2][2] * r.
  52:mini3d/3dmath.c **** 			m.m[2][2] = l.m[0][2] * r.m[2][0] + l.m[1][2] * r.m[2][1] + l.m[2][2] * r.m[2][2];
 583              		.loc 1 52 62 is_stmt 0 view .LVU102
 584 0202 ECEE869A 		vfma.f32	s19, s25, s12	@ _52, m$36, r$m$1$2
 585              	@ mini3d/3dmath.c:47: 			m.m[0][1] = l.m[0][1] * r.m[0][0] + l.m[1][1] * r.m[0][1] + l.m[2][1] * r.
  47:mini3d/3dmath.c **** 			m.m[1][1] = l.m[0][1] * r.m[1][0] + l.m[1][1] * r.m[1][1] + l.m[2][1] * r.m[1][2];
 586              		.loc 1 47 62 view .LVU103
 587 0206 F0EE43EA 		vmov.f32	s29, s6	@ _32, _30
 588              	.LVL29:
 589              	@ mini3d/3dmath.c:51: 			m.m[0][2] = l.m[0][2] * r.m[0][0] + l.m[1][2] * r.m[0][1] + l.m[2][2] * r.
  51:mini3d/3dmath.c **** 			m.m[1][2] = l.m[0][2] * r.m[1][0] + l.m[1][2] * r.m[1][1] + l.m[2][2] * r.m[1][2];
 590              		.loc 1 51 62 view .LVU104
 591 020a B0EE63EA 		vmov.f32	s28, s7	@ _47, _45
 592              	.LVL30:
 593              	@ mini3d/3dmath.c:45: 			m.m[2][0] = l.m[0][0] * r.m[2][0] + l.m[1][0] * r.m[2][1] + l.m[2][0] * r.
  45:mini3d/3dmath.c **** 
 594              		.loc 1 45 62 view .LVU105
 595 020e F0EE61DA 		vmov.f32	s27, s3	@ m$28, _25
 596              	.LVL31:
  47:mini3d/3dmath.c **** 			m.m[1][1] = l.m[0][1] * r.m[1][0] + l.m[1][1] * r.m[1][1] + l.m[2][1] * r.m[1][2];
 597              		.loc 1 47 4 is_stmt 1 view .LVU106
  48:mini3d/3dmath.c **** 			m.m[2][1] = l.m[0][1] * r.m[2][0] + l.m[1][1] * r.m[2][1] + l.m[2][1] * r.m[2][2];
 598              		.loc 1 48 4 view .LVU107
  49:mini3d/3dmath.c **** 
 599              		.loc 1 49 4 view .LVU108
 600              	@ mini3d/3dmath.c:49: 			m.m[2][1] = l.m[0][1] * r.m[2][0] + l.m[1][1] * r.m[2][1] + l.m[2][1] * r.
  49:mini3d/3dmath.c **** 
 601              		.loc 1 49 62 is_stmt 0 view .LVU109
 602 0212 B0EE42DA 		vmov.f32	s26, s4	@ m$32, _40
  51:mini3d/3dmath.c **** 			m.m[1][2] = l.m[0][2] * r.m[1][0] + l.m[1][2] * r.m[1][1] + l.m[2][2] * r.m[1][2];
 603              		.loc 1 51 4 is_stmt 1 view .LVU110
 604              	.LVL32:
  52:mini3d/3dmath.c **** 			m.m[2][2] = l.m[0][2] * r.m[2][0] + l.m[1][2] * r.m[2][1] + l.m[2][2] * r.m[2][2];
 605              		.loc 1 52 4 view .LVU111
  53:mini3d/3dmath.c **** 		}
 606              		.loc 1 53 4 view .LVU112
 607              	@ mini3d/3dmath.c:53: 			m.m[2][2] = l.m[0][2] * r.m[2][0] + l.m[1][2] * r.m[2][1] + l.m[2][2] * r.
  53:mini3d/3dmath.c **** 		}
 608              		.loc 1 53 62 is_stmt 0 view .LVU113
 609 0216 F0EE62CA 		vmov.f32	s25, s5	@ m$36, _55
 610 021a 7AE7     		b	.L9		@
 611              	.LVL33:
 612              	.L12:
  31:mini3d/3dmath.c **** 		else
 613              		.loc 1 31 4 is_stmt 1 view .LVU114
 614              	@ mini3d/3dmath.c:31: 			m = identityMatrix;
  31:mini3d/3dmath.c **** 		else
 615              		.loc 1 31 6 is_stmt 0 view .LVU115
 616 021c DFF844C0 		ldr	ip, .L14	@ tmp203,
 617 0220 2646     		mov	r6, r4	@ .result_ptr, .result_ptr
ARM GAS  /var/folders/cs/83z6p2tj4w57s6p2rt8nwfp00000gn/T//ccot36Fs.s 			page 14


 618 0222 6746     		mov	r7, ip	@ tmp205, tmp203
 619 0224 9CF80050 		ldrb	r5, [ip]	@ zero_extendqisi2	@ identityMatrix, identityMatrix
 620 0228 9CED01FA 		vldr.32	s30, [ip, #4]	@ m$4, MEM[(struct  *)&identityMatrix + 4B]
 621              	.LVL34:
  31:mini3d/3dmath.c **** 		else
 622              		.loc 1 31 6 view .LVU116
 623 022c 45F34005 		sbfx	r5, r5, #1, #1	@ tmp211, identityMatrix,,
 624 0230 DCED02EA 		vldr.32	s29, [ip, #8]	@ m$8, MEM[(struct  *)&identityMatrix + 8B]
 625              	.LVL35:
  31:mini3d/3dmath.c **** 		else
 626              		.loc 1 31 6 view .LVU117
 627 0234 9CED03EA 		vldr.32	s28, [ip, #12]	@ m$12, MEM[(struct  *)&identityMatrix + 12B]
 628              	.LVL36:
  31:mini3d/3dmath.c **** 		else
 629              		.loc 1 31 6 view .LVU118
 630 0238 DCED04AA 		vldr.32	s21, [ip, #16]	@ m$16, MEM[(struct  *)&identityMatrix + 16B]
 631              	.LVL37:
  31:mini3d/3dmath.c **** 		else
 632              		.loc 1 31 6 view .LVU119
 633 023c 9CED05AA 		vldr.32	s20, [ip, #20]	@ m$20, MEM[(struct  *)&identityMatrix + 20B]
 634              	.LVL38:
  31:mini3d/3dmath.c **** 		else
 635              		.loc 1 31 6 view .LVU120
 636 0240 0FCF     		ldmia	r7!, {r0, r1, r2, r3}	@ tmp205,,,,
 637              	.LVL39:
  31:mini3d/3dmath.c **** 		else
 638              		.loc 1 31 6 view .LVU121
 639 0242 0FC6     		stmia	r6!, {r0, r1, r2, r3}	@ .result_ptr,,,,
 640 0244 0FCF     		ldmia	r7!, {r0, r1, r2, r3}	@ tmp205,,,,
 641 0246 0FC6     		stmia	r6!, {r0, r1, r2, r3}	@ .result_ptr,,,,
 642 0248 0FCF     		ldmia	r7!, {r0, r1, r2, r3}	@ tmp205,,,,
 643 024a 3F68     		ldr	r7, [r7]	@ identityMatrix, identityMatrix
 644 024c 0FC6     		stmia	r6!, {r0, r1, r2, r3}	@ .result_ptr,,,,
 645 024e 6BB2     		sxtb	r3, r5	@ m$inverting, tmp211
 646              	.LVL40:
  31:mini3d/3dmath.c **** 		else
 647              		.loc 1 31 6 view .LVU122
 648 0250 3760     		str	r7, [r6]	@ identityMatrix, <retval>
 649 0252 DCED069A 		vldr.32	s19, [ip, #24]	@ m$24, MEM[(struct  *)&identityMatrix + 24B]
 650              	.LVL41:
  31:mini3d/3dmath.c **** 		else
 651              		.loc 1 31 6 view .LVU123
 652 0256 DCED07DA 		vldr.32	s27, [ip, #28]	@ m$28, MEM[(struct  *)&identityMatrix + 28B]
 653              	.LVL42:
  31:mini3d/3dmath.c **** 		else
 654              		.loc 1 31 6 view .LVU124
 655 025a 9CED08DA 		vldr.32	s26, [ip, #32]	@ m$32, MEM[(struct  *)&identityMatrix + 32B]
 656 025e DCED09CA 		vldr.32	s25, [ip, #36]	@ m$36, MEM[(struct  *)&identityMatrix + 36B]
  31:mini3d/3dmath.c **** 		else
 657              		.loc 1 31 6 view .LVU125
 658 0262 4DE7     		b	.L7		@
 659              	.L15:
 660              		.align	2
 661              	.L14:
 662 0264 00000000 		.word	.LANCHOR0
 663              		.cfi_endproc
 664              	.LFE14:
ARM GAS  /var/folders/cs/83z6p2tj4w57s6p2rt8nwfp00000gn/T//ccot36Fs.s 			page 15


 665              		.size	Matrix3D_multiply, .-Matrix3D_multiply
 666              		.section	.text.Matrix3D_apply,"ax",%progbits
 667              		.align	1
 668              		.p2align 4,,15
 669              		.global	Matrix3D_apply
 670              		.syntax unified
 671              		.thumb
 672              		.thumb_func
 673              		.fpu fpv5-sp-d16
 674              		.type	Matrix3D_apply, %function
 675              	Matrix3D_apply:
 676              	.LFB15:
  65:mini3d/3dmath.c **** 
  66:mini3d/3dmath.c **** Point3D Matrix3D_apply(Matrix3D m, Point3D p)
  67:mini3d/3dmath.c **** {
 677              		.loc 1 67 1 is_stmt 1 view -0
 678              		.cfi_startproc
 679              		@ args = 52, pretend = 16, frame = 48
 680              		@ frame_needed = 0, uses_anonymous_args = 0
 681              		@ link register save eliminated.
 682 0000 84B0     		sub	sp, sp, #16	@,,
 683              	.LCFI11:
 684              		.cfi_def_cfa_offset 16
 685 0002 8CB0     		sub	sp, sp, #48	@,,
 686              	.LCFI12:
 687              		.cfi_def_cfa_offset 64
 688              	@ mini3d/3dmath.c:67: {
 689              		.loc 1 67 1 is_stmt 0 view .LVU127
 690 0004 0DF1300C 		add	ip, sp, #48	@ tmp175,,
 691 0008 8CE80F00 		stm	ip, {r0, r1, r2, r3}	@ tmp175,,,,
 692              	@ mini3d/3dmath.c:68: 	if ( m.isIdentity )
  68:mini3d/3dmath.c **** 	if ( m.isIdentity )
 693              		.loc 1 68 7 view .LVU128
 694 000c 9DF83030 		ldrb	r3, [sp, #48]	@ zero_extendqisi2	@ m, m
 695 0010 DDED165A 		vldr.32	s11, [sp, #88]	@ m$dx, MEM[(struct  *)&m + 40B]
 696              	@ mini3d/3dmath.c:68: 	if ( m.isIdentity )
 697              		.loc 1 68 5 view .LVU129
 698 0014 DB07     		lsls	r3, r3, #31	@, m,
 699 0016 9DED176A 		vldr.32	s12, [sp, #92]	@ m$dy, MEM[(struct  *)&m + 44B]
 700 001a DDED186A 		vldr.32	s13, [sp, #96]	@ m$dz, MEM[(struct  *)&m + 48B]
 701              	.LVL43:
 702              		.loc 1 68 2 is_stmt 1 view .LVU130
 703              	@ mini3d/3dmath.c:68: 	if ( m.isIdentity )
 704              		.loc 1 68 5 is_stmt 0 view .LVU131
 705 001e 38D4     		bmi	.L20		@,
  69:mini3d/3dmath.c **** 		return Point3DMake(p.x + m.dx, p.y + m.dy, p.z + m.dz);
  70:mini3d/3dmath.c **** 
  71:mini3d/3dmath.c **** 	float x = p.x * m.m[0][0] + p.y * m.m[0][1] + p.z * m.m[0][2] + m.dx;
 706              		.loc 1 71 2 is_stmt 1 view .LVU132
 707              	@ mini3d/3dmath.c:73: 	float z = p.x * m.m[2][0] + p.y * m.m[2][1] + p.z * m.m[2][2] + m.dz;
  72:mini3d/3dmath.c **** 	float y = p.x * m.m[1][0] + p.y * m.m[1][1] + p.z * m.m[1][2] + m.dy;
  73:mini3d/3dmath.c **** 	float z = p.x * m.m[2][0] + p.y * m.m[2][1] + p.z * m.m[2][2] + m.dz;
 708              		.loc 1 73 34 is_stmt 0 view .LVU133
 709 0020 9DED145A 		vldr.32	s10, [sp, #80]	@ m.m, m.m
 710              	@ mini3d/3dmath.c:71: 	float x = p.x * m.m[0][0] + p.y * m.m[0][1] + p.z * m.m[0][2] + m.dx;
  71:mini3d/3dmath.c **** 	float y = p.x * m.m[1][0] + p.y * m.m[1][1] + p.z * m.m[1][2] + m.dy;
 711              		.loc 1 71 34 view .LVU134
ARM GAS  /var/folders/cs/83z6p2tj4w57s6p2rt8nwfp00000gn/T//ccot36Fs.s 			page 16


 712 0024 9DED0E7A 		vldr.32	s14, [sp, #56]	@ m.m, m.m
 713              	@ mini3d/3dmath.c:72: 	float y = p.x * m.m[1][0] + p.y * m.m[1][1] + p.z * m.m[1][2] + m.dy;
  72:mini3d/3dmath.c **** 	float y = p.x * m.m[1][0] + p.y * m.m[1][1] + p.z * m.m[1][2] + m.dy;
 714              		.loc 1 72 34 view .LVU135
 715 0028 DDED117A 		vldr.32	s15, [sp, #68]	@ m.m, m.m
 716              	@ mini3d/3dmath.c:71: 	float x = p.x * m.m[0][0] + p.y * m.m[0][1] + p.z * m.m[0][2] + m.dx;
  71:mini3d/3dmath.c **** 	float y = p.x * m.m[1][0] + p.y * m.m[1][1] + p.z * m.m[1][2] + m.dy;
 717              		.loc 1 71 34 view .LVU136
 718 002c 20EE877A 		vmul.f32	s14, s1, s14	@ tmp156, p, m.m
 719              	@ mini3d/3dmath.c:71: 	float x = p.x * m.m[0][0] + p.y * m.m[0][1] + p.z * m.m[0][2] + m.dx;
  71:mini3d/3dmath.c **** 	float y = p.x * m.m[1][0] + p.y * m.m[1][1] + p.z * m.m[1][2] + m.dy;
 720              		.loc 1 71 28 view .LVU137
 721 0030 9DED0D4A 		vldr.32	s8, [sp, #52]	@ m.m, m.m
 722              	@ mini3d/3dmath.c:72: 	float y = p.x * m.m[1][0] + p.y * m.m[1][1] + p.z * m.m[1][2] + m.dy;
  72:mini3d/3dmath.c **** 	float y = p.x * m.m[1][0] + p.y * m.m[1][1] + p.z * m.m[1][2] + m.dy;
 723              		.loc 1 72 34 view .LVU138
 724 0034 60EEA77A 		vmul.f32	s15, s1, s15	@ tmp160, p, m.m
 725              	@ mini3d/3dmath.c:72: 	float y = p.x * m.m[1][0] + p.y * m.m[1][1] + p.z * m.m[1][2] + m.dy;
  72:mini3d/3dmath.c **** 	float y = p.x * m.m[1][0] + p.y * m.m[1][1] + p.z * m.m[1][2] + m.dy;
 726              		.loc 1 72 28 view .LVU139
 727 0038 DDED104A 		vldr.32	s9, [sp, #64]	@ m.m, m.m
 728              	@ mini3d/3dmath.c:73: 	float z = p.x * m.m[2][0] + p.y * m.m[2][1] + p.z * m.m[2][2] + m.dz;
 729              		.loc 1 73 34 view .LVU140
 730 003c 60EE850A 		vmul.f32	s1, s1, s10	@ tmp164, p, m.m
 731              	.LVL44:
 732              	@ mini3d/3dmath.c:73: 	float z = p.x * m.m[2][0] + p.y * m.m[2][1] + p.z * m.m[2][2] + m.dz;
 733              		.loc 1 73 28 view .LVU141
 734 0040 9DED135A 		vldr.32	s10, [sp, #76]	@ m.m, m.m
 735              	@ mini3d/3dmath.c:71: 	float x = p.x * m.m[0][0] + p.y * m.m[0][1] + p.z * m.m[0][2] + m.dx;
  71:mini3d/3dmath.c **** 	float y = p.x * m.m[1][0] + p.y * m.m[1][1] + p.z * m.m[1][2] + m.dy;
 736              		.loc 1 71 28 view .LVU142
 737 0044 A4EE007A 		vfma.f32	s14, s8, s0	@ _10, m.m, p
 738              	@ mini3d/3dmath.c:71: 	float x = p.x * m.m[0][0] + p.y * m.m[0][1] + p.z * m.m[0][2] + m.dx;
  71:mini3d/3dmath.c **** 	float y = p.x * m.m[1][0] + p.y * m.m[1][1] + p.z * m.m[1][2] + m.dy;
 739              		.loc 1 71 46 view .LVU143
 740 0048 9DED0F4A 		vldr.32	s8, [sp, #60]	@ m.m, m.m
 741              	@ mini3d/3dmath.c:72: 	float y = p.x * m.m[1][0] + p.y * m.m[1][1] + p.z * m.m[1][2] + m.dy;
  72:mini3d/3dmath.c **** 	float y = p.x * m.m[1][0] + p.y * m.m[1][1] + p.z * m.m[1][2] + m.dy;
 742              		.loc 1 72 28 view .LVU144
 743 004c E4EE807A 		vfma.f32	s15, s9, s0	@ _18, m.m, p
 744              	@ mini3d/3dmath.c:72: 	float y = p.x * m.m[1][0] + p.y * m.m[1][1] + p.z * m.m[1][2] + m.dy;
  72:mini3d/3dmath.c **** 	float y = p.x * m.m[1][0] + p.y * m.m[1][1] + p.z * m.m[1][2] + m.dy;
 745              		.loc 1 72 46 view .LVU145
 746 0050 DDED124A 		vldr.32	s9, [sp, #72]	@ m.m, m.m
 747              	@ mini3d/3dmath.c:73: 	float z = p.x * m.m[2][0] + p.y * m.m[2][1] + p.z * m.m[2][2] + m.dz;
 748              		.loc 1 73 28 view .LVU146
 749 0054 E5EE000A 		vfma.f32	s1, s10, s0	@ _26, m.m, p
 750              	@ mini3d/3dmath.c:73: 	float z = p.x * m.m[2][0] + p.y * m.m[2][1] + p.z * m.m[2][2] + m.dz;
 751              		.loc 1 73 46 view .LVU147
 752 0058 9DED155A 		vldr.32	s10, [sp, #84]	@ m.m, m.m
 753              	@ mini3d/3dmath.c:71: 	float x = p.x * m.m[0][0] + p.y * m.m[0][1] + p.z * m.m[0][2] + m.dx;
  71:mini3d/3dmath.c **** 	float y = p.x * m.m[1][0] + p.y * m.m[1][1] + p.z * m.m[1][2] + m.dy;
 754              		.loc 1 71 46 view .LVU148
 755 005c A4EE017A 		vfma.f32	s14, s8, s2	@ _13, m.m, p
 756              	@ mini3d/3dmath.c:72: 	float y = p.x * m.m[1][0] + p.y * m.m[1][1] + p.z * m.m[1][2] + m.dy;
  72:mini3d/3dmath.c **** 	float y = p.x * m.m[1][0] + p.y * m.m[1][1] + p.z * m.m[1][2] + m.dy;
 757              		.loc 1 72 46 view .LVU149
ARM GAS  /var/folders/cs/83z6p2tj4w57s6p2rt8nwfp00000gn/T//ccot36Fs.s 			page 17


 758 0060 E4EE817A 		vfma.f32	s15, s9, s2	@ _21, m.m, p
 759              	@ mini3d/3dmath.c:73: 	float z = p.x * m.m[2][0] + p.y * m.m[2][1] + p.z * m.m[2][2] + m.dz;
 760              		.loc 1 73 46 view .LVU150
 761 0064 E5EE010A 		vfma.f32	s1, s10, s2	@ _29, m.m, p
 762              	@ mini3d/3dmath.c:71: 	float x = p.x * m.m[0][0] + p.y * m.m[0][1] + p.z * m.m[0][2] + m.dx;
  71:mini3d/3dmath.c **** 	float y = p.x * m.m[1][0] + p.y * m.m[1][1] + p.z * m.m[1][2] + m.dy;
 763              		.loc 1 71 8 view .LVU151
 764 0068 37EE257A 		vadd.f32	s14, s14, s11	@ x, _13, m$dx
 765              	.LVL45:
  72:mini3d/3dmath.c **** 	float y = p.x * m.m[1][0] + p.y * m.m[1][1] + p.z * m.m[1][2] + m.dy;
 766              		.loc 1 72 2 is_stmt 1 view .LVU152
 767              	@ mini3d/3dmath.c:72: 	float y = p.x * m.m[1][0] + p.y * m.m[1][1] + p.z * m.m[1][2] + m.dy;
  72:mini3d/3dmath.c **** 	float y = p.x * m.m[1][0] + p.y * m.m[1][1] + p.z * m.m[1][2] + m.dy;
 768              		.loc 1 72 8 is_stmt 0 view .LVU153
 769 006c 77EE867A 		vadd.f32	s15, s15, s12	@ y, _21, m$dy
 770              	.LVL46:
 771              		.loc 1 73 2 is_stmt 1 view .LVU154
  74:mini3d/3dmath.c **** 	
  75:mini3d/3dmath.c **** 	return Point3DMake(x, y, z);
 772              		.loc 1 75 2 view .LVU155
 773              	.LBB20:
 774              	.LBI20:
 775              		.file 2 "mini3d/3dmath.h"
   1:mini3d/3dmath.h **** //
   2:mini3d/3dmath.h **** //  pd3d.h
   3:mini3d/3dmath.h **** //  Playdate Simulator
   4:mini3d/3dmath.h **** //
   5:mini3d/3dmath.h **** //  Created by Dave Hayden on 8/25/15.
   6:mini3d/3dmath.h **** //  Copyright (c) 2015 Panic, Inc. All rights reserved.
   7:mini3d/3dmath.h **** //
   8:mini3d/3dmath.h **** 
   9:mini3d/3dmath.h **** #ifndef __Playdate_Simulator__pd3d__
  10:mini3d/3dmath.h **** #define __Playdate_Simulator__pd3d__
  11:mini3d/3dmath.h **** 
  12:mini3d/3dmath.h **** #include <stdio.h>
  13:mini3d/3dmath.h **** #include <stdint.h>
  14:mini3d/3dmath.h **** #include <math.h>
  15:mini3d/3dmath.h **** 
  16:mini3d/3dmath.h **** #if TARGET_PLAYDATE
  17:mini3d/3dmath.h **** static inline float _lib3d_sqrtf(float x)
  18:mini3d/3dmath.h **** {
  19:mini3d/3dmath.h **** 	float result;
  20:mini3d/3dmath.h **** 	asm ("vsqrt.f32 %0, %1" : "=t"(result) : "t"(x));
  21:mini3d/3dmath.h **** 	return result;
  22:mini3d/3dmath.h **** }
  23:mini3d/3dmath.h **** #define sqrtf(f) _lib3d_sqrtf(f)
  24:mini3d/3dmath.h **** #endif
  25:mini3d/3dmath.h **** 
  26:mini3d/3dmath.h **** typedef struct
  27:mini3d/3dmath.h **** {
  28:mini3d/3dmath.h **** 	float x;
  29:mini3d/3dmath.h **** 	float y;
  30:mini3d/3dmath.h **** 	float z;
  31:mini3d/3dmath.h **** } Point3D;
  32:mini3d/3dmath.h **** 
  33:mini3d/3dmath.h **** static inline Point3D Point3DMake(float x, float y, float z)
 776              		.loc 2 33 23 view .LVU156
ARM GAS  /var/folders/cs/83z6p2tj4w57s6p2rt8nwfp00000gn/T//ccot36Fs.s 			page 18


 777              	.LBB21:
  34:mini3d/3dmath.h **** {
  35:mini3d/3dmath.h **** 	return (Point3D){ .x = x, .y = y, .z = z };
 778              		.loc 2 35 2 view .LVU157
 779              	.LBE21:
 780              	.LBE20:
 781              	@ mini3d/3dmath.c:73: 	float z = p.x * m.m[2][0] + p.y * m.m[2][1] + p.z * m.m[2][2] + m.dz;
  73:mini3d/3dmath.c **** 	
 782              		.loc 1 73 8 is_stmt 0 view .LVU158
 783 0070 70EEA60A 		vadd.f32	s1, s1, s13	@ z, _29, m$dz
 784              	.LVL47:
  73:mini3d/3dmath.c **** 	
 785              		.loc 1 73 8 view .LVU159
 786 0074 8DED097A 		vstr.32	s14, [sp, #36]	@ x, MEM[(struct  *)&D.7436]
 787 0078 CDED0A7A 		vstr.32	s15, [sp, #40]	@ y, MEM[(struct  *)&D.7436 + 4B]
 788 007c CDED0B0A 		vstr.32	s1, [sp, #44]	@ z, MEM[(struct  *)&D.7436 + 8B]
 789              	.LVL48:
 790              	.L18:
 791              	@ mini3d/3dmath.c:76: }
  76:mini3d/3dmath.c **** }
 792              		.loc 1 76 1 view .LVU160
 793 0080 9DED090A 		vldr.32	s0, [sp, #36]	@, D.7436
 794 0084 DDED0A0A 		vldr.32	s1, [sp, #40]	@, D.7436
 795 0088 9DED0B1A 		vldr.32	s2, [sp, #44]	@, D.7436
 796 008c 0CB0     		add	sp, sp, #48	@,,
 797              	.LCFI13:
 798              		.cfi_remember_state
 799              		.cfi_def_cfa_offset 16
 800              		@ sp needed	@
 801 008e 04B0     		add	sp, sp, #16	@,,
 802              	.LCFI14:
 803              		.cfi_def_cfa_offset 0
 804 0090 7047     		bx	lr	@
 805              	.LVL49:
 806              	.L20:
 807              	.LCFI15:
 808              		.cfi_restore_state
  69:mini3d/3dmath.c **** 
 809              		.loc 1 69 3 is_stmt 1 view .LVU161
 810              		.loc 2 35 2 view .LVU162
 811              	@ mini3d/3dmath.c:69: 		return Point3DMake(p.x + m.dx, p.y + m.dy, p.z + m.dz);
  69:mini3d/3dmath.c **** 
 812              		.loc 1 69 10 is_stmt 0 view .LVU163
 813 0092 35EE800A 		vadd.f32	s0, s11, s0	@ tmp153, m$dx, p
 814              	.LVL50:
  69:mini3d/3dmath.c **** 
 815              		.loc 1 69 10 view .LVU164
 816 0096 76EE200A 		vadd.f32	s1, s12, s1	@ tmp154, m$dy, p
 817              	.LVL51:
  69:mini3d/3dmath.c **** 
 818              		.loc 1 69 10 view .LVU165
 819 009a 36EE811A 		vadd.f32	s2, s13, s2	@ tmp155, m$dz, p
 820              	.LVL52:
  69:mini3d/3dmath.c **** 
 821              		.loc 1 69 10 view .LVU166
 822 009e 8DED090A 		vstr.32	s0, [sp, #36]	@ tmp153, MEM[(struct  *)&D.7436]
 823 00a2 CDED0A0A 		vstr.32	s1, [sp, #40]	@ tmp154, MEM[(struct  *)&D.7436 + 4B]
ARM GAS  /var/folders/cs/83z6p2tj4w57s6p2rt8nwfp00000gn/T//ccot36Fs.s 			page 19


 824 00a6 8DED0B1A 		vstr.32	s2, [sp, #44]	@ tmp155, MEM[(struct  *)&D.7436 + 8B]
 825              	.LVL53:
  69:mini3d/3dmath.c **** 
 826              		.loc 1 69 10 view .LVU167
 827 00aa E9E7     		b	.L18		@
 828              		.cfi_endproc
 829              	.LFE15:
 830              		.size	Matrix3D_apply, .-Matrix3D_apply
 831              		.section	.text.Vector3D_normalize,"ax",%progbits
 832              		.align	1
 833              		.p2align 4,,15
 834              		.global	Vector3D_normalize
 835              		.syntax unified
 836              		.thumb
 837              		.thumb_func
 838              		.fpu fpv5-sp-d16
 839              		.type	Vector3D_normalize, %function
 840              	Vector3D_normalize:
 841              	.LFB16:
  77:mini3d/3dmath.c **** 
  78:mini3d/3dmath.c **** Vector3D Vector3D_normalize(Vector3D v)
  79:mini3d/3dmath.c **** {
 842              		.loc 1 79 1 is_stmt 1 view -0
 843              		.cfi_startproc
 844              		@ args = 0, pretend = 0, frame = 48
 845              		@ frame_needed = 0, uses_anonymous_args = 0
 846              		@ link register save eliminated.
 847              	.LVL54:
  80:mini3d/3dmath.c **** 	float d = sqrtf(v.dx * v.dx + v.dy * v.dy + v.dz * v.dz);
 848              		.loc 1 80 2 view .LVU169
 849              	@ mini3d/3dmath.c:80: 	float d = sqrtf(v.dx * v.dx + v.dy * v.dy + v.dz * v.dz);
 850              		.loc 1 80 12 is_stmt 0 view .LVU170
 851 0000 60EEA07A 		vmul.f32	s15, s1, s1	@ tmp126, v, v
 852              	@ mini3d/3dmath.c:79: {
  79:mini3d/3dmath.c **** 	float d = sqrtf(v.dx * v.dx + v.dy * v.dy + v.dz * v.dz);
 853              		.loc 1 79 1 view .LVU171
 854 0004 8CB0     		sub	sp, sp, #48	@,,
 855              	.LCFI16:
 856              		.cfi_def_cfa_offset 48
 857              	@ mini3d/3dmath.c:80: 	float d = sqrtf(v.dx * v.dx + v.dy * v.dy + v.dz * v.dz);
 858              		.loc 1 80 12 view .LVU172
 859 0006 E0EE007A 		vfma.f32	s15, s0, s0	@ _3, v, v
 860 000a E1EE017A 		vfma.f32	s15, s2, s2	@ _5, v, v
 861              	.LVL55:
 862              	.LBB22:
 863              	.LBI22:
  17:mini3d/3dmath.h **** {
 864              		.loc 2 17 21 is_stmt 1 view .LVU173
 865              	.LBB23:
  19:mini3d/3dmath.h **** 	asm ("vsqrt.f32 %0, %1" : "=t"(result) : "t"(x));
 866              		.loc 2 19 2 view .LVU174
  20:mini3d/3dmath.h **** 	return result;
 867              		.loc 2 20 2 view .LVU175
 868              		.syntax unified
 869              	@ 20 "mini3d/3dmath.h" 1
 870 000e F1EEE77A 		vsqrt.f32 s15, s15	@ result, _5
 871              	@ 0 "" 2
ARM GAS  /var/folders/cs/83z6p2tj4w57s6p2rt8nwfp00000gn/T//ccot36Fs.s 			page 20


 872              	.LVL56:
  21:mini3d/3dmath.h **** }
 873              		.loc 2 21 2 view .LVU176
  21:mini3d/3dmath.h **** }
 874              		.loc 2 21 2 is_stmt 0 view .LVU177
 875              		.thumb
 876              		.syntax unified
 877              	.LBE23:
 878              	.LBE22:
  81:mini3d/3dmath.c **** 	
  82:mini3d/3dmath.c **** 	return Vector3DMake(v.dx/d, v.dy/d, v.dz/d);
 879              		.loc 1 82 2 is_stmt 1 view .LVU178
  36:mini3d/3dmath.h **** }
  37:mini3d/3dmath.h **** 
  38:mini3d/3dmath.h **** static inline int Point3D_equals(Point3D a, Point3D b)
  39:mini3d/3dmath.h **** {
  40:mini3d/3dmath.h **** 	return (a.x == b.x) && (a.y == b.y) && (a.z == b.z);
  41:mini3d/3dmath.h **** }
  42:mini3d/3dmath.h **** 
  43:mini3d/3dmath.h **** typedef struct
  44:mini3d/3dmath.h **** {
  45:mini3d/3dmath.h **** 	float dx;
  46:mini3d/3dmath.h **** 	float dy;
  47:mini3d/3dmath.h **** 	float dz;
  48:mini3d/3dmath.h **** } Vector3D;
  49:mini3d/3dmath.h **** 
  50:mini3d/3dmath.h **** static inline Vector3D Vector3DMake(float dx, float dy, float dz)
  51:mini3d/3dmath.h **** {
  52:mini3d/3dmath.h **** 	return (Vector3D){ .dx = dx, .dy = dy, .dz = dz };
 880              		.loc 2 52 2 view .LVU179
 881              	@ mini3d/3dmath.c:83: }
  83:mini3d/3dmath.c **** }
 882              		.loc 1 83 1 is_stmt 0 view .LVU180
 883 0012 80EE270A 		vdiv.f32	s0, s0, s15	@, v, result
 884              	.LVL57:
 885              		.loc 1 83 1 view .LVU181
 886 0016 C0EEA70A 		vdiv.f32	s1, s1, s15	@, v, result
 887              	.LVL58:
 888              		.loc 1 83 1 view .LVU182
 889 001a 81EE271A 		vdiv.f32	s2, s2, s15	@, v, result
 890              	.LVL59:
 891              		.loc 1 83 1 view .LVU183
 892 001e 0CB0     		add	sp, sp, #48	@,,
 893              	.LCFI17:
 894              		.cfi_def_cfa_offset 0
 895              		@ sp needed	@
 896 0020 7047     		bx	lr	@
 897              		.cfi_endproc
 898              	.LFE16:
 899              		.size	Vector3D_normalize, .-Vector3D_normalize
 900 0022 00BF     		.section	.text.pnormal,"ax",%progbits
 901              		.align	1
 902              		.p2align 4,,15
 903              		.global	pnormal
 904              		.syntax unified
 905              		.thumb
 906              		.thumb_func
ARM GAS  /var/folders/cs/83z6p2tj4w57s6p2rt8nwfp00000gn/T//ccot36Fs.s 			page 21


 907              		.fpu fpv5-sp-d16
 908              		.type	pnormal, %function
 909              	pnormal:
 910              	.LVL60:
 911              	.LFB17:
  84:mini3d/3dmath.c **** 
  85:mini3d/3dmath.c **** Vector3D pnormal(Point3D* p1, Point3D* p2, Point3D* p3)
  86:mini3d/3dmath.c **** {
 912              		.loc 1 86 1 is_stmt 1 view -0
 913              		.cfi_startproc
 914              		@ args = 0, pretend = 0, frame = 32
 915              		@ frame_needed = 0, uses_anonymous_args = 0
 916              		@ link register save eliminated.
  87:mini3d/3dmath.c **** 	Vector3D v = Vector3DCross(Vector3DMake(p2->x - p1->x, p2->y - p1->y, p2->z - p1->z),
 917              		.loc 1 87 2 view .LVU185
 918              	@ mini3d/3dmath.c:87: 	Vector3D v = Vector3DCross(Vector3DMake(p2->x - p1->x, p2->y - p1->y, p2->z 
 919              		.loc 1 87 52 is_stmt 0 view .LVU186
 920 0000 90ED001A 		vldr.32	s2, [r0]	@ _2, p1_18(D)->x
 921              	@ mini3d/3dmath.c:86: {
  86:mini3d/3dmath.c **** 	Vector3D v = Vector3DCross(Vector3DMake(p2->x - p1->x, p2->y - p1->y, p2->z - p1->z),
 922              		.loc 1 86 1 view .LVU187
 923 0004 88B0     		sub	sp, sp, #32	@,,
 924              	.LCFI18:
 925              		.cfi_def_cfa_offset 32
 926              	@ mini3d/3dmath.c:87: 	Vector3D v = Vector3DCross(Vector3DMake(p2->x - p1->x, p2->y - p1->y, p2->z 
 927              		.loc 1 87 82 view .LVU188
 928 0006 D0ED025A 		vldr.32	s11, [r0, #8]	@ _8, p1_18(D)->z
 929              	@ mini3d/3dmath.c:87: 	Vector3D v = Vector3DCross(Vector3DMake(p2->x - p1->x, p2->y - p1->y, p2->z 
 930              		.loc 1 87 15 view .LVU189
 931 000a D1ED006A 		vldr.32	s13, [r1]	@ p2_17(D)->x, p2_17(D)->x
 932 000e 92ED026A 		vldr.32	s12, [r2, #8]	@ p3_19(D)->z, p3_19(D)->z
 933 0012 76EEC16A 		vsub.f32	s13, s13, s2	@ _3, p2_17(D)->x, _2
 934              	@ mini3d/3dmath.c:87: 	Vector3D v = Vector3DCross(Vector3DMake(p2->x - p1->x, p2->y - p1->y, p2->z 
 935              		.loc 1 87 67 view .LVU190
 936 0016 90ED015A 		vldr.32	s10, [r0, #4]	@ _5, p1_18(D)->y
 937              	@ mini3d/3dmath.c:87: 	Vector3D v = Vector3DCross(Vector3DMake(p2->x - p1->x, p2->y - p1->y, p2->z 
 938              		.loc 1 87 15 view .LVU191
 939 001a 36EE656A 		vsub.f32	s12, s12, s11	@ _15, p3_19(D)->z, _8
 940 001e D2ED007A 		vldr.32	s15, [r2]	@ p3_19(D)->x, p3_19(D)->x
 941 0022 91ED020A 		vldr.32	s0, [r1, #8]	@ p2_17(D)->z, p2_17(D)->z
 942 0026 92ED017A 		vldr.32	s14, [r2, #4]	@ p3_19(D)->y, p3_19(D)->y
 943 002a 77EEC17A 		vsub.f32	s15, s15, s2	@ _11, p3_19(D)->x, _2
 944 002e 30EE650A 		vsub.f32	s0, s0, s11	@ _9, p2_17(D)->z, _8
 945              	.LVL61:
 946              		.loc 1 87 15 view .LVU192
 947 0032 D1ED015A 		vldr.32	s11, [r1, #4]	@ p2_17(D)->y, p2_17(D)->y
 948 0036 37EE457A 		vsub.f32	s14, s14, s10	@ _13, p3_19(D)->y, _5
 949              	.LBB24:
 950              	.LBB25:
 951              	@ mini3d/3dmath.h:57: 	return (Vector3D){ .dx = a.dy * b.dz - a.dz * b.dy, .dy = a.dz * b.dx - a.dx
  53:mini3d/3dmath.h **** }
  54:mini3d/3dmath.h **** 
  55:mini3d/3dmath.h **** static inline Vector3D Vector3DCross(Vector3D a, Vector3D b)
  56:mini3d/3dmath.h **** {
  57:mini3d/3dmath.h **** 	return (Vector3D){ .dx = a.dy * b.dz - a.dz * b.dy, .dy = a.dz * b.dx - a.dx * b.dz, .dz = a.dx * 
 952              		.loc 2 57 72 view .LVU193
 953 003a 66EE660A 		vnmul.f32	s1, s12, s13	@ tmp156, _15, _3
ARM GAS  /var/folders/cs/83z6p2tj4w57s6p2rt8nwfp00000gn/T//ccot36Fs.s 			page 22


 954              	.LBE25:
 955              	.LBE24:
 956              	@ mini3d/3dmath.c:87: 	Vector3D v = Vector3DCross(Vector3DMake(p2->x - p1->x, p2->y - p1->y, p2->z 
 957              		.loc 1 87 15 view .LVU194
 958 003e 75EEC55A 		vsub.f32	s11, s11, s10	@ _6, p2_17(D)->y, _5
 959              	.LVL62:
  52:mini3d/3dmath.h **** }
 960              		.loc 2 52 2 is_stmt 1 view .LVU195
  52:mini3d/3dmath.h **** }
 961              		.loc 2 52 2 view .LVU196
 962              	.LBB27:
 963              	.LBI24:
  55:mini3d/3dmath.h **** {
 964              		.loc 2 55 24 view .LVU197
 965              	.LBB26:
 966              		.loc 2 57 2 view .LVU198
 967              	@ mini3d/3dmath.h:57: 	return (Vector3D){ .dx = a.dy * b.dz - a.dz * b.dy, .dy = a.dz * b.dx - a.dx
 968              		.loc 2 57 72 is_stmt 0 view .LVU199
 969 0042 E0EE270A 		vfma.f32	s1, s0, s15	@ _34, _9, _11
 970              	@ mini3d/3dmath.h:57: 	return (Vector3D){ .dx = a.dy * b.dz - a.dz * b.dy, .dy = a.dz * b.dx - a.dx
 971              		.loc 2 57 39 view .LVU200
 972 0046 27EE400A 		vnmul.f32	s0, s14, s0	@ tmp154, _13, _9
 973              	.LVL63:
 974              	@ mini3d/3dmath.h:57: 	return (Vector3D){ .dx = a.dy * b.dz - a.dz * b.dy, .dy = a.dz * b.dx - a.dx
 975              		.loc 2 57 105 view .LVU201
 976 004a 67EEE57A 		vnmul.f32	s15, s15, s11	@ tmp158, _11, _6
 977              	.LVL64:
 978              	@ mini3d/3dmath.h:57: 	return (Vector3D){ .dx = a.dy * b.dz - a.dz * b.dy, .dy = a.dz * b.dx - a.dx
 979              		.loc 2 57 39 view .LVU202
 980 004e A5EE860A 		vfma.f32	s0, s11, s12	@ _31, _6, _15
 981              	@ mini3d/3dmath.h:57: 	return (Vector3D){ .dx = a.dy * b.dz - a.dz * b.dy, .dy = a.dz * b.dx - a.dx
 982              		.loc 2 57 105 view .LVU203
 983 0052 E6EE877A 		vfma.f32	s15, s13, s14	@ _37, _3, _13
 984              	.LVL65:
 985              		.loc 2 57 105 view .LVU204
 986              	.LBE26:
 987              	.LBE27:
  88:mini3d/3dmath.c **** 							   Vector3DMake(p3->x - p1->x, p3->y - p1->y, p3->z - p1->z));
  89:mini3d/3dmath.c **** 	
  90:mini3d/3dmath.c **** 	return Vector3D_normalize(v);
 988              		.loc 1 90 2 is_stmt 1 view .LVU205
 989              	.LBB28:
 990              	.LBI28:
  78:mini3d/3dmath.c **** {
 991              		.loc 1 78 10 view .LVU206
 992              	.LBB29:
  80:mini3d/3dmath.c **** 	
 993              		.loc 1 80 2 view .LVU207
 994              	@ mini3d/3dmath.c:80: 	float d = sqrtf(v.dx * v.dx + v.dy * v.dy + v.dz * v.dz);
  80:mini3d/3dmath.c **** 	
 995              		.loc 1 80 12 is_stmt 0 view .LVU208
 996 0056 20EEA01A 		vmul.f32	s2, s1, s1	@ tmp159, _34, _34
 997 005a A0EE001A 		vfma.f32	s2, s0, s0	@ _22, _31, _31
 998 005e A7EEA71A 		vfma.f32	s2, s15, s15	@ _24, _37, _37
 999              	.LVL66:
 1000              	.LBB30:
 1001              	.LBI30:
ARM GAS  /var/folders/cs/83z6p2tj4w57s6p2rt8nwfp00000gn/T//ccot36Fs.s 			page 23


  17:mini3d/3dmath.h **** {
 1002              		.loc 2 17 21 is_stmt 1 view .LVU209
 1003              	.LBB31:
  19:mini3d/3dmath.h **** 	asm ("vsqrt.f32 %0, %1" : "=t"(result) : "t"(x));
 1004              		.loc 2 19 2 view .LVU210
  20:mini3d/3dmath.h **** 	return result;
 1005              		.loc 2 20 2 view .LVU211
 1006              		.syntax unified
 1007              	@ 20 "mini3d/3dmath.h" 1
 1008 0062 B1EEC11A 		vsqrt.f32 s2, s2	@ result, _24
 1009              	@ 0 "" 2
 1010              	.LVL67:
  21:mini3d/3dmath.h **** }
 1011              		.loc 2 21 2 view .LVU212
  21:mini3d/3dmath.h **** }
 1012              		.loc 2 21 2 is_stmt 0 view .LVU213
 1013              		.thumb
 1014              		.syntax unified
 1015              	.LBE31:
 1016              	.LBE30:
  82:mini3d/3dmath.c **** }
 1017              		.loc 1 82 2 is_stmt 1 view .LVU214
  82:mini3d/3dmath.c **** }
 1018              		.loc 1 82 2 is_stmt 0 view .LVU215
 1019              	.LBE29:
 1020              	.LBE28:
  52:mini3d/3dmath.h **** }
 1021              		.loc 2 52 2 is_stmt 1 view .LVU216
 1022              	@ mini3d/3dmath.c:91: }
  91:mini3d/3dmath.c **** }
 1023              		.loc 1 91 1 is_stmt 0 view .LVU217
 1024 0066 80EE010A 		vdiv.f32	s0, s0, s2	@, _31, result
 1025 006a C0EE810A 		vdiv.f32	s1, s1, s2	@, _34, result
 1026 006e 87EE811A 		vdiv.f32	s2, s15, s2	@, _37, result
 1027              	.LVL68:
 1028              		.loc 1 91 1 view .LVU218
 1029 0072 08B0     		add	sp, sp, #32	@,,
 1030              	.LCFI19:
 1031              		.cfi_def_cfa_offset 0
 1032              		@ sp needed	@
 1033 0074 7047     		bx	lr	@
 1034              		.cfi_endproc
 1035              	.LFE17:
 1036              		.size	pnormal, .-pnormal
 1037 0076 00BF     		.section	.text.Matrix3D_getDeterminant,"ax",%progbits
 1038              		.align	1
 1039              		.p2align 4,,15
 1040              		.global	Matrix3D_getDeterminant
 1041              		.syntax unified
 1042              		.thumb
 1043              		.thumb_func
 1044              		.fpu fpv5-sp-d16
 1045              		.type	Matrix3D_getDeterminant, %function
 1046              	Matrix3D_getDeterminant:
 1047              	.LVL69:
 1048              	.LFB18:
  92:mini3d/3dmath.c **** 
ARM GAS  /var/folders/cs/83z6p2tj4w57s6p2rt8nwfp00000gn/T//ccot36Fs.s 			page 24


  93:mini3d/3dmath.c **** float Matrix3D_getDeterminant(Matrix3D* m)
  94:mini3d/3dmath.c **** {
 1049              		.loc 1 94 1 is_stmt 1 view -0
 1050              		.cfi_startproc
 1051              		@ args = 0, pretend = 0, frame = 0
 1052              		@ frame_needed = 0, uses_anonymous_args = 0
 1053              		@ link register save eliminated.
  95:mini3d/3dmath.c **** 	return m->m[0][0] * m->m[1][1] * m->m[2][2]
 1054              		.loc 1 95 2 view .LVU220
 1055              	@ mini3d/3dmath.c:96: 		 + m->m[0][1] * m->m[1][2] * m->m[2][0]
  96:mini3d/3dmath.c **** 		 + m->m[0][1] * m->m[1][2] * m->m[2][0]
 1056              		.loc 1 96 13 is_stmt 0 view .LVU221
 1057 0000 90ED027A 		vldr.32	s14, [r0, #8]	@ _6, m_27(D)->m
 1058              	@ mini3d/3dmath.c:96: 		 + m->m[0][1] * m->m[1][2] * m->m[2][0]
 1059              		.loc 1 96 26 view .LVU222
 1060 0004 90ED066A 		vldr.32	s12, [r0, #24]	@ _7, m_27(D)->m
 1061              	@ mini3d/3dmath.c:96: 		 + m->m[0][1] * m->m[1][2] * m->m[2][0]
 1062              		.loc 1 96 39 view .LVU223
 1063 0008 D0ED073A 		vldr.32	s7, [r0, #28]	@ _9, m_27(D)->m
 1064              	@ mini3d/3dmath.c:96: 		 + m->m[0][1] * m->m[1][2] * m->m[2][0]
 1065              		.loc 1 96 17 view .LVU224
 1066 000c 27EE060A 		vmul.f32	s0, s14, s12	@ tmp136, _6, _7
 1067              	@ mini3d/3dmath.c:95: 	return m->m[0][0] * m->m[1][1] * m->m[2][2]
  95:mini3d/3dmath.c **** 	return m->m[0][0] * m->m[1][1] * m->m[2][2]
 1068              		.loc 1 95 16 view .LVU225
 1069 0010 D0ED017A 		vldr.32	s15, [r0, #4]	@ _1, m_27(D)->m
 1070              	@ mini3d/3dmath.c:95: 	return m->m[0][0] * m->m[1][1] * m->m[2][2]
  95:mini3d/3dmath.c **** 	return m->m[0][0] * m->m[1][1] * m->m[2][2]
 1071              		.loc 1 95 29 view .LVU226
 1072 0014 D0ED056A 		vldr.32	s13, [r0, #20]	@ _2, m_27(D)->m
 1073              	@ mini3d/3dmath.c:95: 	return m->m[0][0] * m->m[1][1] * m->m[2][2]
  95:mini3d/3dmath.c **** 	return m->m[0][0] * m->m[1][1] * m->m[2][2]
 1074              		.loc 1 95 42 view .LVU227
 1075 0018 D0ED095A 		vldr.32	s11, [r0, #36]	@ _4, m_27(D)->m
 1076              	@ mini3d/3dmath.c:95: 	return m->m[0][0] * m->m[1][1] * m->m[2][2]
  95:mini3d/3dmath.c **** 	return m->m[0][0] * m->m[1][1] * m->m[2][2]
 1077              		.loc 1 95 20 view .LVU228
 1078 001c 27EEA63A 		vmul.f32	s6, s15, s13	@ tmp135, _1, _2
 1079              	@ mini3d/3dmath.c:97: 		 + m->m[0][2] * m->m[1][0] * m->m[2][1]
  97:mini3d/3dmath.c **** 		 + m->m[0][2] * m->m[1][0] * m->m[2][1]
 1080              		.loc 1 97 13 view .LVU229
 1081 0020 90ED035A 		vldr.32	s10, [r0, #12]	@ _12, m_27(D)->m
 1082              	@ mini3d/3dmath.c:96: 		 + m->m[0][1] * m->m[1][2] * m->m[2][0]
  96:mini3d/3dmath.c **** 		 + m->m[0][1] * m->m[1][2] * m->m[2][0]
 1083              		.loc 1 96 30 view .LVU230
 1084 0024 20EE230A 		vmul.f32	s0, s0, s7	@ tmp137, tmp136, _9
 1085              	@ mini3d/3dmath.c:97: 		 + m->m[0][2] * m->m[1][0] * m->m[2][1]
 1086              		.loc 1 97 26 view .LVU231
 1087 0028 90ED044A 		vldr.32	s8, [r0, #16]	@ _13, m_27(D)->m
 1088              	@ mini3d/3dmath.c:98: 		 - m->m[2][0] * m->m[1][1] * m->m[0][2]
  98:mini3d/3dmath.c **** 		 - m->m[2][0] * m->m[1][1] * m->m[0][2]
 1089              		.loc 1 98 17 view .LVU232
 1090 002c 66EEA36A 		vmul.f32	s13, s13, s7	@ tmp140, _2, _9
 1091              	@ mini3d/3dmath.c:97: 		 + m->m[0][2] * m->m[1][0] * m->m[2][1]
  97:mini3d/3dmath.c **** 		 + m->m[0][2] * m->m[1][0] * m->m[2][1]
 1092              		.loc 1 97 39 view .LVU233
 1093 0030 D0ED084A 		vldr.32	s9, [r0, #32]	@ _15, m_27(D)->m
ARM GAS  /var/folders/cs/83z6p2tj4w57s6p2rt8nwfp00000gn/T//ccot36Fs.s 			page 25


 1094              	@ mini3d/3dmath.c:97: 		 + m->m[0][2] * m->m[1][0] * m->m[2][1]
  97:mini3d/3dmath.c **** 		 + m->m[0][2] * m->m[1][0] * m->m[2][1]
 1095              		.loc 1 97 17 view .LVU234
 1096 0034 65EE043A 		vmul.f32	s7, s10, s8	@ tmp138, _12, _13
 1097              	@ mini3d/3dmath.c:96: 		 + m->m[0][1] * m->m[1][2] * m->m[2][0]
  96:mini3d/3dmath.c **** 		 + m->m[0][1] * m->m[1][2] * m->m[2][0]
 1098              		.loc 1 96 4 view .LVU235
 1099 0038 A3EE250A 		vfma.f32	s0, s6, s11	@ _11, tmp135, _4
 1100              	@ mini3d/3dmath.c:99: 		 - m->m[1][0] * m->m[0][1] * m->m[2][2]
  99:mini3d/3dmath.c **** 		 - m->m[1][0] * m->m[0][1] * m->m[2][2]
 1101              		.loc 1 99 17 view .LVU236
 1102 003c 27EE047A 		vmul.f32	s14, s14, s8	@ tmp142, _6, _13
 1103              	@ mini3d/3dmath.c:100: 		 - m->m[0][0] * m->m[2][1] * m->m[1][2];
 100:mini3d/3dmath.c **** 		 - m->m[0][0] * m->m[2][1] * m->m[1][2];
 1104              		.loc 1 100 17 view .LVU237
 1105 0040 67EEA47A 		vmul.f32	s15, s15, s9	@ tmp144, _1, _15
 1106              	@ mini3d/3dmath.c:97: 		 + m->m[0][2] * m->m[1][0] * m->m[2][1]
  97:mini3d/3dmath.c **** 		 - m->m[2][0] * m->m[1][1] * m->m[0][2]
 1107              		.loc 1 97 4 view .LVU238
 1108 0044 A3EEA40A 		vfma.f32	s0, s7, s9	@ _17, tmp138, _15
 1109              	@ mini3d/3dmath.c:98: 		 - m->m[2][0] * m->m[1][1] * m->m[0][2]
  98:mini3d/3dmath.c **** 		 - m->m[1][0] * m->m[0][1] * m->m[2][2]
 1110              		.loc 1 98 4 view .LVU239
 1111 0048 A5EE660A 		vfms.f32	s0, s10, s13	@ _20, _12, tmp140
 1112              	@ mini3d/3dmath.c:99: 		 - m->m[1][0] * m->m[0][1] * m->m[2][2]
  99:mini3d/3dmath.c **** 		 - m->m[0][0] * m->m[2][1] * m->m[1][2];
 1113              		.loc 1 99 4 view .LVU240
 1114 004c A5EEC70A 		vfms.f32	s0, s11, s14	@ _23, _4, tmp142
 1115              	@ mini3d/3dmath.c:101: }
 101:mini3d/3dmath.c **** }
 1116              		.loc 1 101 1 view .LVU241
 1117 0050 A6EE670A 		vfms.f32	s0, s12, s15	@, _7, tmp144
 1118 0054 7047     		bx	lr	@
 1119              		.cfi_endproc
 1120              	.LFE18:
 1121              		.size	Matrix3D_getDeterminant, .-Matrix3D_getDeterminant
 1122              		.global	identityMatrix
 1123 0056 00BF     		.section	.data.identityMatrix,"aw"
 1124              		.align	2
 1125              		.set	.LANCHOR0,. + 0
 1126              		.type	identityMatrix, %object
 1127              		.size	identityMatrix, 52
 1128              	identityMatrix:
 1129              	@ isIdentity:
 1130              	@ inverting:
 1131              	@ m:
 1132 0000 01       		.byte	1
 1133 0001 000000   		.space	3
 1134 0004 0000803F 		.word	1065353216
 1135 0008 00000000 		.word	0
 1136 000c 00000000 		.word	0
 1137 0010 00000000 		.word	0
 1138 0014 0000803F 		.word	1065353216
 1139 0018 00000000 		.word	0
 1140 001c 00000000 		.word	0
 1141 0020 00000000 		.word	0
 1142 0024 0000803F 		.word	1065353216
ARM GAS  /var/folders/cs/83z6p2tj4w57s6p2rt8nwfp00000gn/T//ccot36Fs.s 			page 26


 1143              	@ dx:
 1144 0028 00000000 		.word	0
 1145              	@ dy:
 1146 002c 00000000 		.word	0
 1147              	@ dz:
 1148 0030 00000000 		.word	0
 1149              		.text
 1150              	.Letext0:
 1151              		.file 3 "/usr/local/playdate/gcc-arm-none-eabi-9-2019-q4-major/arm-none-eabi/include/sys/lock.h"
 1152              		.file 4 "/usr/local/playdate/gcc-arm-none-eabi-9-2019-q4-major/arm-none-eabi/include/sys/_types.h"
 1153              		.file 5 "/usr/local/playdate/gcc-arm-none-eabi-9-2019-q4-major/lib/gcc/arm-none-eabi/9.2.1/include
 1154              		.file 6 "/usr/local/playdate/gcc-arm-none-eabi-9-2019-q4-major/arm-none-eabi/include/sys/reent.h"
 1155              		.file 7 "/usr/local/playdate/gcc-arm-none-eabi-9-2019-q4-major/arm-none-eabi/include/math.h"
 1156              		.file 8 "<built-in>"