ARM GAS  /var/folders/cs/83z6p2tj4w57s6p2rt8nwfp00000gn/T//ccYNfdJn.s 			page 1


   1              		.cpu cortex-m7
   2              		.eabi_attribute 27, 1	@ Tag_ABI_HardFP_use
   3              		.eabi_attribute 28, 1	@ Tag_ABI_VFP_args
   4              		.eabi_attribute 20, 1	@ Tag_ABI_FP_denormal
   5              		.eabi_attribute 21, 1	@ Tag_ABI_FP_exceptions
   6              		.eabi_attribute 23, 3	@ Tag_ABI_FP_number_model
   7              		.eabi_attribute 24, 1	@ Tag_ABI_align8_needed
   8              		.eabi_attribute 25, 1	@ Tag_ABI_align8_preserved
   9              		.eabi_attribute 26, 1	@ Tag_ABI_enum_size
  10              		.eabi_attribute 30, 2	@ Tag_ABI_optimization_goals
  11              		.eabi_attribute 34, 1	@ Tag_CPU_unaligned_access
  12              		.eabi_attribute 18, 4	@ Tag_ABI_PCS_wchar_t
  13              		.file	"luaglue.c"
  14              	@ GNU C17 (GNU Tools for Arm Embedded Processors 9-2019-q4-major) version 9.2.1 20191025 (release) 
  15              	@	compiled by GNU C version 4.2.1 Compatible Apple LLVM 9.0.0 (clang-900.0.39.2), GMP version 6.1.0
  16              	
  17              	@ GGC heuristics: --param ggc-min-expand=100 --param ggc-min-heapsize=131072
  18              	@ options passed:  -I . -I .
  19              	@ -I /Users/orllewin/Developer/PlaydateSDK-2.0.0/C_API -I mini3d
  20              	@ -imultilib thumb/v7e-m+fp/hard
  21              	@ -iprefix /usr/local/playdate/gcc-arm-none-eabi-9-2019-q4-major/bin/../lib/gcc/arm-none-eabi/9.2.1
  22              	@ -isysroot /usr/local/playdate/gcc-arm-none-eabi-9-2019-q4-major/bin/../arm-none-eabi
  23              	@ -MD build/luaglue.d -MF build/dep/luaglue.o.d -MP -MQ build/luaglue.o
  24              	@ -D__USES_INITFINI__ -D __FPU_USED=1 -D TARGET_PLAYDATE=1
  25              	@ -D TARGET_EXTENSION=1 luaglue.c -mthumb -mcpu=cortex-m7 -mfloat-abi=hard
  26              	@ -mfpu=fpv5-sp-d16 -mword-relocations -march=armv7e-m+fpv5
  27              	@ -auxbase-strip build/luaglue.o -g3 -gdwarf-2 -O2 -Wall -Wno-unused
  28              	@ -Wstrict-prototypes -Wno-unknown-pragmas -Wdouble-promotion
  29              	@ -falign-functions=16 -fomit-frame-pointer -fverbose-asm -fno-common
  30              	@ -ffunction-sections -fdata-sections
  31              	@ options enabled:  -faggressive-loop-optimizations -falign-functions
  32              	@ -falign-jumps -falign-labels -falign-loops -fassume-phsa -fauto-inc-dec
  33              	@ -fbranch-count-reg -fcaller-saves -fcombine-stack-adjustments
  34              	@ -fcompare-elim -fcprop-registers -fcrossjumping -fcse-follow-jumps
  35              	@ -fdata-sections -fdefer-pop -fdelete-null-pointer-checks -fdevirtualize
  36              	@ -fdevirtualize-speculatively -fdwarf2-cfi-asm -fearly-inlining
  37              	@ -feliminate-unused-debug-types -fexpensive-optimizations
  38              	@ -fforward-propagate -ffp-int-builtin-inexact -ffunction-cse
  39              	@ -ffunction-sections -fgcse -fgcse-lm -fgnu-runtime -fgnu-unique
  40              	@ -fguess-branch-probability -fhoist-adjacent-loads -fident -fif-conversion
  41              	@ -fif-conversion2 -findirect-inlining -finline -finline-atomics
  42              	@ -finline-functions-called-once -finline-small-functions -fipa-bit-cp
  43              	@ -fipa-cp -fipa-icf -fipa-icf-functions -fipa-icf-variables -fipa-profile
  44              	@ -fipa-pure-const -fipa-ra -fipa-reference -fipa-reference-addressable
  45              	@ -fipa-sra -fipa-stack-alignment -fipa-vrp -fira-hoist-pressure
  46              	@ -fira-share-save-slots -fira-share-spill-slots
  47              	@ -fisolate-erroneous-paths-dereference -fivopts -fkeep-static-consts
  48              	@ -fleading-underscore -flifetime-dse -flra-remat -flto-odr-type-merging
  49              	@ -fmath-errno -fmerge-constants -fmerge-debug-strings
  50              	@ -fmove-loop-invariants -fomit-frame-pointer -foptimize-sibling-calls
  51              	@ -foptimize-strlen -fpartial-inlining -fpeephole -fpeephole2 -fplt
  52              	@ -fprefetch-loop-arrays -freg-struct-return -freorder-blocks
  53              	@ -freorder-functions -frerun-cse-after-loop
  54              	@ -fsched-critical-path-heuristic -fsched-dep-count-heuristic
  55              	@ -fsched-group-heuristic -fsched-interblock -fsched-last-insn-heuristic
  56              	@ -fsched-pressure -fsched-rank-heuristic -fsched-spec
  57              	@ -fsched-spec-insn-heuristic -fsched-stalled-insns-dep -fschedule-insns
ARM GAS  /var/folders/cs/83z6p2tj4w57s6p2rt8nwfp00000gn/T//ccYNfdJn.s 			page 2


  58              	@ -fschedule-insns2 -fsection-anchors -fsemantic-interposition
  59              	@ -fshow-column -fshrink-wrap -fshrink-wrap-separate -fsigned-zeros
  60              	@ -fsplit-ivs-in-unroller -fsplit-wide-types -fssa-backprop -fssa-phiopt
  61              	@ -fstdarg-opt -fstore-merging -fstrict-aliasing
  62              	@ -fstrict-volatile-bitfields -fsync-libcalls -fthread-jumps
  63              	@ -ftoplevel-reorder -ftrapping-math -ftree-bit-ccp -ftree-builtin-call-dce
  64              	@ -ftree-ccp -ftree-ch -ftree-coalesce-vars -ftree-copy-prop -ftree-cselim
  65              	@ -ftree-dce -ftree-dominator-opts -ftree-dse -ftree-forwprop -ftree-fre
  66              	@ -ftree-loop-if-convert -ftree-loop-im -ftree-loop-ivcanon
  67              	@ -ftree-loop-optimize -ftree-parallelize-loops= -ftree-phiprop -ftree-pre
  68              	@ -ftree-pta -ftree-reassoc -ftree-scev-cprop -ftree-sink -ftree-slsr
  69              	@ -ftree-sra -ftree-switch-conversion -ftree-tail-merge -ftree-ter
  70              	@ -ftree-vrp -funit-at-a-time -fvar-tracking -fvar-tracking-assignments
  71              	@ -fverbose-asm -fzero-initialized-in-bss -masm-syntax-unified -mbe32
  72              	@ -mlittle-endian -mpic-data-is-text-relative -msched-prolog -mthumb
  73              	@ -munaligned-access -mvectorize-with-neon-quad -mword-relocations
  74              	
  75              		.text
  76              	.Ltext0:
  77              		.cfi_sections	.debug_frame
  78              		.section	.text.node_gc,"ax",%progbits
  79              		.align	1
  80              		.p2align 4,,15
  81              		.arch armv7e-m
  82              		.syntax unified
  83              		.thumb
  84              		.thumb_func
  85              		.fpu fpv5-sp-d16
  86              		.type	node_gc, %function
  87              	node_gc:
  88              	.LVL0:
  89              	.LFB41:
  90              		.file 1 "luaglue.c"
   1:luaglue.c     **** //
   2:luaglue.c     **** //  3d-glue.c
   3:luaglue.c     **** //  Extension
   4:luaglue.c     **** //
   5:luaglue.c     **** //  Created by Dave Hayden on 9/19/15.
   6:luaglue.c     **** //  Copyright © 2015 Panic, Inc. All rights reserved.
   7:luaglue.c     **** //
   8:luaglue.c     **** 
   9:luaglue.c     **** #include <math.h>
  10:luaglue.c     **** #include "luaglue.h"
  11:luaglue.c     **** #include "mini3d.h"
  12:luaglue.c     **** #include "3dmath.h"
  13:luaglue.c     **** #include "shape.h"
  14:luaglue.c     **** #include "scene.h"
  15:luaglue.c     **** 
  16:luaglue.c     **** static PlaydateAPI* pd = NULL;
  17:luaglue.c     **** 
  18:luaglue.c     **** static void* get3DObj(int n, char* type)
  19:luaglue.c     **** {
  20:luaglue.c     **** 	void* obj = pd->lua->getArgObject(n, type, NULL);
  21:luaglue.c     **** 	
  22:luaglue.c     **** 	if ( obj == NULL )
  23:luaglue.c     **** 		pd->system->error("object of type %s not found at stack position %i", type, n);
  24:luaglue.c     **** 	
ARM GAS  /var/folders/cs/83z6p2tj4w57s6p2rt8nwfp00000gn/T//ccYNfdJn.s 			page 3


  25:luaglue.c     **** 	return obj;
  26:luaglue.c     **** }
  27:luaglue.c     **** 
  28:luaglue.c     **** static Scene3D* getScene(int n)			{ return get3DObj(n, "lib3d.scene"); }
  29:luaglue.c     **** static Scene3DNode* getSceneNode(int n)	{ return get3DObj(n, "lib3d.scenenode"); }
  30:luaglue.c     **** static Shape3D* getShape(int n)			{ return get3DObj(n, "lib3d.shape"); }
  31:luaglue.c     **** static Point3D* getPoint(int n)			{ return get3DObj(n, "lib3d.point"); }
  32:luaglue.c     **** static Matrix3D* getMatrix(int n)		{ return get3DObj(n, "lib3d.matrix"); }
  33:luaglue.c     **** 
  34:luaglue.c     **** /// Scene
  35:luaglue.c     **** 
  36:luaglue.c     **** static int scene_new(lua_State* L)
  37:luaglue.c     **** {
  38:luaglue.c     **** 	Scene3D* scene = m3d_malloc(sizeof(Scene3D));
  39:luaglue.c     **** 	Scene3D_init(scene);
  40:luaglue.c     **** 	pd->lua->pushObject(scene, "lib3d.scene", 0);
  41:luaglue.c     **** 	return 1;
  42:luaglue.c     **** }
  43:luaglue.c     **** 
  44:luaglue.c     **** static int scene_gc(lua_State* L)
  45:luaglue.c     **** {
  46:luaglue.c     **** 	Scene3D* scene = getScene(1);
  47:luaglue.c     **** 	Scene3D_deinit(scene);
  48:luaglue.c     **** 	m3d_free(scene);
  49:luaglue.c     **** 	return 0;
  50:luaglue.c     **** }
  51:luaglue.c     **** 
  52:luaglue.c     **** static int scene_getRoot(lua_State* L)
  53:luaglue.c     **** {
  54:luaglue.c     **** 	Scene3D* scene = getScene(1);
  55:luaglue.c     **** 	pd->lua->pushObject(Scene3D_getRootNode(scene), "lib3d.scenenode", 0);
  56:luaglue.c     **** 	return 1;
  57:luaglue.c     **** }
  58:luaglue.c     **** 
  59:luaglue.c     **** static int scene_draw(lua_State* L)
  60:luaglue.c     **** {
  61:luaglue.c     **** 	Scene3D* scene = getScene(1);
  62:luaglue.c     **** 	
  63:luaglue.c     **** 	Scene3D_draw(scene, pd->graphics->getFrame(), LCD_ROWSIZE);
  64:luaglue.c     **** 	pd->graphics->markUpdatedRows(0, LCD_ROWS-1); // XXX
  65:luaglue.c     **** 	
  66:luaglue.c     **** 	return 0;
  67:luaglue.c     **** }
  68:luaglue.c     **** 
  69:luaglue.c     **** static int scene_drawNode(lua_State* L)
  70:luaglue.c     **** {
  71:luaglue.c     **** 	Scene3D* scene = getScene(1);
  72:luaglue.c     **** 	Scene3DNode* node = getSceneNode(2);
  73:luaglue.c     **** 
  74:luaglue.c     **** 	Scene3D_drawNode(scene, node, pd->graphics->getFrame(), LCD_ROWSIZE);
  75:luaglue.c     **** 	pd->graphics->markUpdatedRows(0, LCD_ROWS-1); // XXX
  76:luaglue.c     **** 	
  77:luaglue.c     **** 	return 0;
  78:luaglue.c     **** }
  79:luaglue.c     **** 
  80:luaglue.c     **** static int scene_setLight(lua_State* L)
  81:luaglue.c     **** {
ARM GAS  /var/folders/cs/83z6p2tj4w57s6p2rt8nwfp00000gn/T//ccYNfdJn.s 			page 4


  82:luaglue.c     **** 	Scene3D* scene = getScene(1);
  83:luaglue.c     **** 	float x = pd->lua->getArgFloat(2);
  84:luaglue.c     **** 	float y = pd->lua->getArgFloat(3);
  85:luaglue.c     **** 	float z = pd->lua->getArgFloat(4);
  86:luaglue.c     **** 	
  87:luaglue.c     **** 	Scene3D_setGlobalLight(scene, Vector3DMake(x, y, z));
  88:luaglue.c     **** 	
  89:luaglue.c     **** 	return 0;
  90:luaglue.c     **** }
  91:luaglue.c     **** 
  92:luaglue.c     **** static int scene_setCenter(lua_State* L)
  93:luaglue.c     **** {
  94:luaglue.c     **** 	Scene3D* scene = getScene(1);
  95:luaglue.c     **** 	float x = pd->lua->getArgFloat(2);
  96:luaglue.c     **** 	float y = pd->lua->getArgFloat(3);
  97:luaglue.c     **** 
  98:luaglue.c     **** 	Scene3D_setCenter(scene, x, y);
  99:luaglue.c     **** 	
 100:luaglue.c     **** 	return 0;
 101:luaglue.c     **** }
 102:luaglue.c     **** 
 103:luaglue.c     **** static Point3D cameraOrigin = { .x = 0, .y = 0, .z = -1 };
 104:luaglue.c     **** static Point3D cameraLookat = { .x = 0, .y = 0, .z = 0 };
 105:luaglue.c     **** static float cameraScale = 1.0;
 106:luaglue.c     **** static Vector3D cameraUp = { .dx = 0, .dy = -1, .dz = 0 };
 107:luaglue.c     **** 
 108:luaglue.c     **** static int scene_setCameraOrigin(lua_State* L)
 109:luaglue.c     **** {
 110:luaglue.c     **** 	Scene3D* scene = getScene(1);
 111:luaglue.c     **** 	cameraOrigin.x = pd->lua->getArgFloat(2);
 112:luaglue.c     **** 	cameraOrigin.y = pd->lua->getArgFloat(3);
 113:luaglue.c     **** 	cameraOrigin.z = pd->lua->getArgFloat(4);
 114:luaglue.c     **** 
 115:luaglue.c     **** 	Scene3D_setCamera(scene, cameraOrigin, cameraLookat, cameraScale, cameraUp);
 116:luaglue.c     **** 
 117:luaglue.c     **** 	return 0;
 118:luaglue.c     **** }
 119:luaglue.c     **** 
 120:luaglue.c     **** static int scene_setCameraTarget(lua_State* L)
 121:luaglue.c     **** {
 122:luaglue.c     **** 	Scene3D* scene = getScene(1);
 123:luaglue.c     **** 	cameraLookat.x = pd->lua->getArgFloat(2);
 124:luaglue.c     **** 	cameraLookat.y = pd->lua->getArgFloat(3);
 125:luaglue.c     **** 	cameraLookat.z = pd->lua->getArgFloat(4);
 126:luaglue.c     **** 	
 127:luaglue.c     **** 	Scene3D_setCamera(scene, cameraOrigin, cameraLookat, cameraScale, cameraUp);
 128:luaglue.c     **** 	
 129:luaglue.c     **** 	return 0;
 130:luaglue.c     **** }
 131:luaglue.c     **** 
 132:luaglue.c     **** static int scene_setCameraScale(lua_State* L)
 133:luaglue.c     **** {
 134:luaglue.c     **** 	Scene3D* scene = getScene(1);
 135:luaglue.c     **** 	cameraScale = pd->lua->getArgFloat(2);
 136:luaglue.c     **** 	
 137:luaglue.c     **** 	Scene3D_setCamera(scene, cameraOrigin, cameraLookat, cameraScale, cameraUp);
 138:luaglue.c     **** 
ARM GAS  /var/folders/cs/83z6p2tj4w57s6p2rt8nwfp00000gn/T//ccYNfdJn.s 			page 5


 139:luaglue.c     **** 	return 0;
 140:luaglue.c     **** }
 141:luaglue.c     **** 
 142:luaglue.c     **** static int scene_setCameraUp(lua_State* L)
 143:luaglue.c     **** {
 144:luaglue.c     **** 	Scene3D* scene = getScene(1);
 145:luaglue.c     **** 	cameraUp.dx = pd->lua->getArgFloat(2);
 146:luaglue.c     **** 	cameraUp.dy = pd->lua->getArgFloat(3);
 147:luaglue.c     **** 	cameraUp.dz = pd->lua->getArgFloat(4);
 148:luaglue.c     **** 	
 149:luaglue.c     **** 	Scene3D_setCamera(scene, cameraOrigin, cameraLookat, cameraScale, cameraUp);
 150:luaglue.c     **** 	
 151:luaglue.c     **** 	return 0;
 152:luaglue.c     **** }
 153:luaglue.c     **** 
 154:luaglue.c     **** static const lua_reg lib3DScene[] =
 155:luaglue.c     **** {
 156:luaglue.c     **** 	{ "__gc",			scene_gc },
 157:luaglue.c     **** 	{ "new",			scene_new },
 158:luaglue.c     **** 	{ "draw",			scene_draw },
 159:luaglue.c     **** 	{ "drawNode",		scene_drawNode },
 160:luaglue.c     **** 	{ "getRootNode",	scene_getRoot },
 161:luaglue.c     **** 	{ "setLight",		scene_setLight },
 162:luaglue.c     **** 	{ "setCenter",		scene_setCenter },
 163:luaglue.c     **** 	{ "setCameraOrigin",	scene_setCameraOrigin },
 164:luaglue.c     **** 	{ "setCameraScale",		scene_setCameraScale },
 165:luaglue.c     **** 	{ "setCameraTarget",	scene_setCameraTarget },
 166:luaglue.c     **** 	{ "setCameraUp",		scene_setCameraUp },
 167:luaglue.c     **** 	{ NULL,				NULL }
 168:luaglue.c     **** };
 169:luaglue.c     **** 
 170:luaglue.c     **** 
 171:luaglue.c     **** /// Node
 172:luaglue.c     **** 
 173:luaglue.c     **** static int node_gc(lua_State* L)
 174:luaglue.c     **** {
  91              		.loc 1 174 1 view -0
  92              		.cfi_startproc
  93              		@ args = 0, pretend = 0, frame = 0
  94              		@ frame_needed = 0, uses_anonymous_args = 0
  95              		@ link register save eliminated.
 175:luaglue.c     **** 	// XXX - release shapes
 176:luaglue.c     **** 	return 0;
  96              		.loc 1 176 2 view .LVU1
  97              	@ luaglue.c:177: }
 177:luaglue.c     **** }
  98              		.loc 1 177 1 is_stmt 0 view .LVU2
  99 0000 0020     		movs	r0, #0	@,
 100              	.LVL1:
 101              		.loc 1 177 1 view .LVU3
 102 0002 7047     		bx	lr	@
 103              		.cfi_endproc
 104              	.LFE41:
 105              		.size	node_gc, .-node_gc
 106              		.section	.rodata.point_new.str1.4,"aMS",%progbits,1
 107              		.align	2
 108              	.LC0:
ARM GAS  /var/folders/cs/83z6p2tj4w57s6p2rt8nwfp00000gn/T//ccYNfdJn.s 			page 6


 109 0000 6C696233 		.ascii	"lib3d.point\000"
 109      642E706F 
 109      696E7400 
 110              		.section	.text.point_new,"ax",%progbits
 111              		.align	1
 112              		.p2align 4,,15
 113              		.syntax unified
 114              		.thumb
 115              		.thumb_func
 116              		.fpu fpv5-sp-d16
 117              		.type	point_new, %function
 118              	point_new:
 119              	.LVL2:
 120              	.LFB58:
 178:luaglue.c     **** 
 179:luaglue.c     **** static int node_addShape(lua_State* L)
 180:luaglue.c     **** {
 181:luaglue.c     **** 	Scene3DNode* node = getSceneNode(1);
 182:luaglue.c     **** 	Shape3D* shape = getShape(2);
 183:luaglue.c     **** 	
 184:luaglue.c     **** 	Matrix3D* m = pd->lua->getArgObject(3, "lib3d.matrix", NULL);
 185:luaglue.c     **** 	
 186:luaglue.c     **** 	if ( m != NULL )
 187:luaglue.c     **** 		Scene3DNode_addShapeWithTransform(node, shape, *m);
 188:luaglue.c     **** 
 189:luaglue.c     **** 	else if ( pd->lua->getArgCount() > 2 )
 190:luaglue.c     **** 	{
 191:luaglue.c     **** 		Vector3D v = { 0, 0, 0 };
 192:luaglue.c     **** 		v.dx = pd->lua->getArgFloat(3);
 193:luaglue.c     **** 		v.dy = pd->lua->getArgFloat(4);
 194:luaglue.c     **** 		v.dz = pd->lua->getArgFloat(5);
 195:luaglue.c     **** 	
 196:luaglue.c     **** 		Scene3DNode_addShapeWithOffset(node, shape, v);
 197:luaglue.c     **** 	}
 198:luaglue.c     **** 	else
 199:luaglue.c     **** 		Scene3DNode_addShape(node, shape);
 200:luaglue.c     **** 
 201:luaglue.c     **** 	//pd->lua->retainObject(shapeobj);
 202:luaglue.c     **** 	
 203:luaglue.c     **** 	return 0;
 204:luaglue.c     **** }
 205:luaglue.c     **** 
 206:luaglue.c     **** static int node_makeChildNode(lua_State* L)
 207:luaglue.c     **** {
 208:luaglue.c     **** 	Scene3DNode* node = getSceneNode(1);
 209:luaglue.c     **** 	Scene3DNode* scene = Scene3DNode_newChild(node);
 210:luaglue.c     **** 
 211:luaglue.c     **** 	pd->lua->pushObject(scene, "lib3d.scenenode", 0);
 212:luaglue.c     **** 
 213:luaglue.c     **** 	return 1;
 214:luaglue.c     **** }
 215:luaglue.c     **** 
 216:luaglue.c     **** static int node_setTransform(lua_State* L)
 217:luaglue.c     **** {
 218:luaglue.c     **** 	Scene3DNode* node = getSceneNode(1);
 219:luaglue.c     **** 	Matrix3D* xform = getMatrix(2);
 220:luaglue.c     **** 	
ARM GAS  /var/folders/cs/83z6p2tj4w57s6p2rt8nwfp00000gn/T//ccYNfdJn.s 			page 7


 221:luaglue.c     **** 	Scene3DNode_setTransform(node, xform);
 222:luaglue.c     **** 	
 223:luaglue.c     **** 	return 0;
 224:luaglue.c     **** }
 225:luaglue.c     **** 
 226:luaglue.c     **** static int node_addTransform(lua_State* L)
 227:luaglue.c     **** {
 228:luaglue.c     **** 	Scene3DNode* node = getSceneNode(1);
 229:luaglue.c     **** 	Matrix3D* xform = getMatrix(2);
 230:luaglue.c     **** 	
 231:luaglue.c     **** 	Scene3DNode_addTransform(node, xform);
 232:luaglue.c     **** 	
 233:luaglue.c     **** 	return 0;
 234:luaglue.c     **** }
 235:luaglue.c     **** 
 236:luaglue.c     **** static int node_translateBy(lua_State* L)
 237:luaglue.c     **** {
 238:luaglue.c     **** 	Scene3DNode* node = getSceneNode(1);
 239:luaglue.c     **** 	
 240:luaglue.c     **** 	Matrix3D xform = identityMatrix;
 241:luaglue.c     **** 	xform.dx = pd->lua->getArgFloat(2);
 242:luaglue.c     **** 	xform.dy = pd->lua->getArgFloat(3);
 243:luaglue.c     **** 	xform.dz = pd->lua->getArgFloat(4);
 244:luaglue.c     **** 	
 245:luaglue.c     **** 	Scene3DNode_addTransform(node, &xform);
 246:luaglue.c     **** 	
 247:luaglue.c     **** 	return 0;
 248:luaglue.c     **** }
 249:luaglue.c     **** 
 250:luaglue.c     **** static int node_scaleBy(lua_State* L)
 251:luaglue.c     **** {
 252:luaglue.c     **** 	Scene3DNode* node = getSceneNode(1);
 253:luaglue.c     **** 	Matrix3D xform = node->transform;
 254:luaglue.c     **** 	float sx, sy, sz;
 255:luaglue.c     **** 	
 256:luaglue.c     **** 	if ( pd->lua->getArgCount() > 2 )
 257:luaglue.c     **** 	{
 258:luaglue.c     **** 		sx = pd->lua->getArgFloat(2);
 259:luaglue.c     **** 		sy = pd->lua->getArgFloat(3);
 260:luaglue.c     **** 		sz = pd->lua->getArgFloat(4);
 261:luaglue.c     **** 	}
 262:luaglue.c     **** 	else
 263:luaglue.c     **** 		sx = sy = sz = pd->lua->getArgFloat(2);
 264:luaglue.c     **** 	
 265:luaglue.c     **** 	xform.isIdentity = 0;
 266:luaglue.c     **** 	
 267:luaglue.c     **** 	xform.m[0][0] *= sx;
 268:luaglue.c     **** 	xform.m[1][0] *= sx;
 269:luaglue.c     **** 	xform.m[2][0] *= sx;
 270:luaglue.c     **** 	
 271:luaglue.c     **** 	xform.m[0][1] *= sy;
 272:luaglue.c     **** 	xform.m[1][1] *= sy;
 273:luaglue.c     **** 	xform.m[2][1] *= sy;
 274:luaglue.c     **** 	
 275:luaglue.c     **** 	xform.m[0][2] *= sz;
 276:luaglue.c     **** 	xform.m[1][2] *= sz;
 277:luaglue.c     **** 	xform.m[2][2] *= sz;
ARM GAS  /var/folders/cs/83z6p2tj4w57s6p2rt8nwfp00000gn/T//ccYNfdJn.s 			page 8


 278:luaglue.c     **** 	
 279:luaglue.c     **** 	xform.dx *= sx;
 280:luaglue.c     **** 	xform.dy *= sy;
 281:luaglue.c     **** 	xform.dz *= sz;
 282:luaglue.c     **** 	
 283:luaglue.c     **** 	xform.inverting = (sx * sy * sz < 0);
 284:luaglue.c     **** 
 285:luaglue.c     **** 	Scene3DNode_setTransform(node, &xform);
 286:luaglue.c     **** 	
 287:luaglue.c     **** 	return 0;
 288:luaglue.c     **** }
 289:luaglue.c     **** 
 290:luaglue.c     **** static int node_setColorBias(lua_State* L)
 291:luaglue.c     **** {
 292:luaglue.c     **** 	Scene3DNode* node = getSceneNode(1);
 293:luaglue.c     **** 	
 294:luaglue.c     **** 	Scene3DNode_setColorBias(node, pd->lua->getArgFloat(2));
 295:luaglue.c     **** 	
 296:luaglue.c     **** 	return 0;
 297:luaglue.c     **** }
 298:luaglue.c     **** 
 299:luaglue.c     **** static int node_setFilled(lua_State* L)
 300:luaglue.c     **** {
 301:luaglue.c     **** 	Scene3DNode* node = getSceneNode(1);
 302:luaglue.c     **** 	int flag = pd->lua->getArgBool(2);
 303:luaglue.c     **** 	
 304:luaglue.c     **** 	RenderStyle style = Scene3DNode_getRenderStyle(node);
 305:luaglue.c     **** 	
 306:luaglue.c     **** 	if ( flag )
 307:luaglue.c     **** 		style |= kRenderFilled;
 308:luaglue.c     **** 	else
 309:luaglue.c     **** 		style &= ~kRenderFilled;
 310:luaglue.c     **** 	
 311:luaglue.c     **** 	Scene3DNode_setRenderStyle(node, style);
 312:luaglue.c     **** 	
 313:luaglue.c     **** 	return 0;
 314:luaglue.c     **** }
 315:luaglue.c     **** 
 316:luaglue.c     **** static int node_setWireframeMode(lua_State* L)
 317:luaglue.c     **** {
 318:luaglue.c     **** 	Scene3DNode* node = getSceneNode(1);
 319:luaglue.c     **** 	int mode = pd->lua->getArgInt(2);
 320:luaglue.c     **** 	
 321:luaglue.c     **** 	RenderStyle style = Scene3DNode_getRenderStyle(node);
 322:luaglue.c     **** 	
 323:luaglue.c     **** 	if ( mode > 0 )
 324:luaglue.c     **** 	{
 325:luaglue.c     **** 		style |= kRenderWireframe;
 326:luaglue.c     **** 
 327:luaglue.c     **** 		if ( mode == 1 )
 328:luaglue.c     **** 			style &= ~kRenderWireframeBack;
 329:luaglue.c     **** 		else
 330:luaglue.c     **** 			style |= kRenderWireframeBack;
 331:luaglue.c     **** 	}
 332:luaglue.c     **** 	else
 333:luaglue.c     **** 		style &= ~kRenderWireframe;
 334:luaglue.c     **** 
ARM GAS  /var/folders/cs/83z6p2tj4w57s6p2rt8nwfp00000gn/T//ccYNfdJn.s 			page 9


 335:luaglue.c     **** 	Scene3DNode_setRenderStyle(node, style);
 336:luaglue.c     **** 	
 337:luaglue.c     **** 	return 0;
 338:luaglue.c     **** }
 339:luaglue.c     **** 
 340:luaglue.c     **** static int node_setWireframeColor(lua_State* L)
 341:luaglue.c     **** {
 342:luaglue.c     **** 	Scene3DNode* node = getSceneNode(1);
 343:luaglue.c     **** 	int color = pd->lua->getArgInt(2);
 344:luaglue.c     **** 
 345:luaglue.c     **** 	RenderStyle style = Scene3DNode_getRenderStyle(node);
 346:luaglue.c     **** 
 347:luaglue.c     **** 	if ( color )
 348:luaglue.c     **** 		style |= kRenderWireframeWhite;
 349:luaglue.c     **** 	else
 350:luaglue.c     **** 		style &= ~kRenderWireframeWhite;
 351:luaglue.c     **** 	
 352:luaglue.c     **** 	Scene3DNode_setRenderStyle(node, style);
 353:luaglue.c     **** 	
 354:luaglue.c     **** 	return 0;
 355:luaglue.c     **** }
 356:luaglue.c     **** 
 357:luaglue.c     **** static int node_setVisible(lua_State* L)
 358:luaglue.c     **** {
 359:luaglue.c     **** 	Scene3DNode* node = getSceneNode(1);
 360:luaglue.c     **** 
 361:luaglue.c     **** 	Scene3DNode_setVisible(node, pd->lua->getArgBool(2));
 362:luaglue.c     **** 	
 363:luaglue.c     **** 	return 0;
 364:luaglue.c     **** }
 365:luaglue.c     **** 
 366:luaglue.c     **** static const lua_reg lib3DNode[] =
 367:luaglue.c     **** {
 368:luaglue.c     **** 	{ "__gc",			node_gc },
 369:luaglue.c     **** 	{ "addChildNode",	node_makeChildNode },
 370:luaglue.c     **** 	{ "addShape",		node_addShape },
 371:luaglue.c     **** 	{ "addTransform",	node_addTransform },
 372:luaglue.c     **** 	{ "setTransform",	node_setTransform },
 373:luaglue.c     **** 	{ "translateBy",	node_translateBy },
 374:luaglue.c     **** 	{ "scaleBy",		node_scaleBy },
 375:luaglue.c     **** 	{ "setColorBias",	node_setColorBias },
 376:luaglue.c     **** 	{ "setFilled",		node_setFilled },
 377:luaglue.c     **** 	{ "setWireframeMode",	node_setWireframeMode },
 378:luaglue.c     **** 	{ "setWireframeColor",	node_setWireframeColor },
 379:luaglue.c     **** 	{ "setVisible",		node_setVisible },
 380:luaglue.c     **** 	{ NULL,			NULL }
 381:luaglue.c     **** };
 382:luaglue.c     **** 
 383:luaglue.c     **** 
 384:luaglue.c     **** /// Shape
 385:luaglue.c     **** 
 386:luaglue.c     **** static int shape_new(lua_State* L)
 387:luaglue.c     **** {
 388:luaglue.c     **** 	Shape3D* shape = m3d_malloc(sizeof(Shape3D));
 389:luaglue.c     **** 	Shape3D_init(shape);
 390:luaglue.c     **** 	Shape3D_retain(shape);
 391:luaglue.c     **** 	pd->lua->pushObject(shape, "lib3d.shape", 0);
ARM GAS  /var/folders/cs/83z6p2tj4w57s6p2rt8nwfp00000gn/T//ccYNfdJn.s 			page 10


 392:luaglue.c     **** 	return 1;
 393:luaglue.c     **** }
 394:luaglue.c     **** 
 395:luaglue.c     **** static int shape_gc(lua_State* L)
 396:luaglue.c     **** {
 397:luaglue.c     **** 	Shape3D* shape = getShape(1);
 398:luaglue.c     **** 	Shape3D_release(shape);
 399:luaglue.c     **** 	return 0;
 400:luaglue.c     **** }
 401:luaglue.c     **** 
 402:luaglue.c     **** static int shape_addFace(lua_State* L)
 403:luaglue.c     **** {
 404:luaglue.c     **** 	Shape3D* shape = getShape(1);
 405:luaglue.c     **** 	Point3D* a = getPoint(2);
 406:luaglue.c     **** 	Point3D* b = getPoint(3);
 407:luaglue.c     **** 	Point3D* c = getPoint(4);
 408:luaglue.c     **** 
 409:luaglue.c     **** 	Point3D* d = NULL;
 410:luaglue.c     **** 	const char* type;
 411:luaglue.c     **** 	float color = 0;
 412:luaglue.c     **** 	
 413:luaglue.c     **** 	if ( pd->lua->getArgType(5, &type) == kTypeObject && strcmp(type, "lib3d.point") == 0 )
 414:luaglue.c     **** 	{
 415:luaglue.c     **** 		d = getPoint(5);
 416:luaglue.c     **** 		color = pd->lua->getArgFloat(6);
 417:luaglue.c     **** 	}
 418:luaglue.c     **** 	else
 419:luaglue.c     **** 		color = pd->lua->getArgFloat(5);
 420:luaglue.c     **** 	
 421:luaglue.c     **** 	Shape3D_addFace(shape, a, b, c, d, color);
 422:luaglue.c     **** 
 423:luaglue.c     **** 	return 0;
 424:luaglue.c     **** }
 425:luaglue.c     **** 
 426:luaglue.c     **** static int shape_setClosed(lua_State* L)
 427:luaglue.c     **** {
 428:luaglue.c     **** 	Shape3D_setClosed(getShape(1), pd->lua->getArgBool(2));
 429:luaglue.c     **** 	return 0;
 430:luaglue.c     **** }
 431:luaglue.c     **** 
 432:luaglue.c     **** #if ENABLE_ORDERING_TABLE
 433:luaglue.c     **** static int shape_setOrderTableSize(lua_State* L)
 434:luaglue.c     **** {
 435:luaglue.c     **** 	Shape3D_setOrderTableSize(getShape(1), pd->lua->getArgInt(2));
 436:luaglue.c     **** 	return 0;
 437:luaglue.c     **** }
 438:luaglue.c     **** #endif
 439:luaglue.c     **** 
 440:luaglue.c     **** static const lua_reg lib3DShape[] =
 441:luaglue.c     **** {
 442:luaglue.c     **** 	{ "new",			shape_new },
 443:luaglue.c     **** 	{ "__gc",			shape_gc },
 444:luaglue.c     **** 	{ "addFace",		shape_addFace },
 445:luaglue.c     **** 	{ "setClosed", 		shape_setClosed },
 446:luaglue.c     **** #if ENABLE_ORDERING_TABLE
 447:luaglue.c     **** 	{ "setOrderTableSize", shape_setOrderTableSize, },
 448:luaglue.c     **** #endif
ARM GAS  /var/folders/cs/83z6p2tj4w57s6p2rt8nwfp00000gn/T//ccYNfdJn.s 			page 11


 449:luaglue.c     **** 	{ NULL,				NULL }
 450:luaglue.c     **** };
 451:luaglue.c     **** 
 452:luaglue.c     **** 
 453:luaglue.c     **** /// Point
 454:luaglue.c     **** 
 455:luaglue.c     **** static int point_new(lua_State* L)
 456:luaglue.c     **** {
 121              		.loc 1 456 1 is_stmt 1 view -0
 122              		.cfi_startproc
 123              		@ args = 0, pretend = 0, frame = 0
 124              		@ frame_needed = 0, uses_anonymous_args = 0
 457:luaglue.c     **** 	Point3D* p = m3d_malloc(sizeof(Point3D));
 125              		.loc 1 457 2 view .LVU5
 126              	@ luaglue.c:456: {
 456:luaglue.c     **** 	Point3D* p = m3d_malloc(sizeof(Point3D));
 127              		.loc 1 456 1 is_stmt 0 view .LVU6
 128 0000 38B5     		push	{r3, r4, r5, lr}	@
 129              	.LCFI0:
 130              		.cfi_def_cfa_offset 16
 131              		.cfi_offset 3, -16
 132              		.cfi_offset 4, -12
 133              		.cfi_offset 5, -8
 134              		.cfi_offset 14, -4
 135              	@ luaglue.c:457: 	Point3D* p = m3d_malloc(sizeof(Point3D));
 136              		.loc 1 457 15 view .LVU7
 137 0002 124B     		ldr	r3, .L5	@ tmp129,
 138 0004 0C21     		movs	r1, #12	@,
 139              	@ luaglue.c:458: 	p->x = pd->lua->getArgFloat(1);
 458:luaglue.c     **** 	p->x = pd->lua->getArgFloat(1);
 140              		.loc 1 458 11 view .LVU8
 141 0006 124D     		ldr	r5, .L5+4	@ tmp131,
 142              	@ luaglue.c:457: 	Point3D* p = m3d_malloc(sizeof(Point3D));
 457:luaglue.c     **** 	Point3D* p = m3d_malloc(sizeof(Point3D));
 143              		.loc 1 457 15 view .LVU9
 144 0008 0020     		movs	r0, #0	@,
 145              	.LVL3:
 457:luaglue.c     **** 	Point3D* p = m3d_malloc(sizeof(Point3D));
 146              		.loc 1 457 15 view .LVU10
 147 000a 1B68     		ldr	r3, [r3]	@ m3d_realloc, m3d_realloc
 148 000c 9847     		blx	r3		@ m3d_realloc
 149              	.LVL4:
 150              	@ luaglue.c:458: 	p->x = pd->lua->getArgFloat(1);
 151              		.loc 1 458 11 view .LVU11
 152 000e 2B68     		ldr	r3, [r5]	@ pd, pd
 153              	@ luaglue.c:457: 	Point3D* p = m3d_malloc(sizeof(Point3D));
 457:luaglue.c     **** 	Point3D* p = m3d_malloc(sizeof(Point3D));
 154              		.loc 1 457 15 view .LVU12
 155 0010 0446     		mov	r4, r0	@ tmp149,
 156              	@ luaglue.c:458: 	p->x = pd->lua->getArgFloat(1);
 157              		.loc 1 458 9 view .LVU13
 158 0012 0120     		movs	r0, #1	@,
 159              	.LVL5:
 160              		.loc 1 458 2 is_stmt 1 view .LVU14
 161              	@ luaglue.c:458: 	p->x = pd->lua->getArgFloat(1);
 162              		.loc 1 458 16 is_stmt 0 view .LVU15
 163 0014 9B69     		ldr	r3, [r3, #24]	@ pd.57_2->lua, pd.57_2->lua
ARM GAS  /var/folders/cs/83z6p2tj4w57s6p2rt8nwfp00000gn/T//ccYNfdJn.s 			page 12


 164              	@ luaglue.c:458: 	p->x = pd->lua->getArgFloat(1);
 165              		.loc 1 458 9 view .LVU16
 166 0016 DB6A     		ldr	r3, [r3, #44]	@ _3->getArgFloat, _3->getArgFloat
 167 0018 9847     		blx	r3		@ _3->getArgFloat
 168              	.LVL6:
 169              	@ luaglue.c:459: 	p->y = pd->lua->getArgFloat(2);
 459:luaglue.c     **** 	p->y = pd->lua->getArgFloat(2);
 170              		.loc 1 459 11 view .LVU17
 171 001a 2B68     		ldr	r3, [r5]	@ pd, pd
 172              	@ luaglue.c:459: 	p->y = pd->lua->getArgFloat(2);
 173              		.loc 1 459 9 view .LVU18
 174 001c 0220     		movs	r0, #2	@,
 175              	@ luaglue.c:458: 	p->x = pd->lua->getArgFloat(1);
 458:luaglue.c     **** 	p->x = pd->lua->getArgFloat(1);
 176              		.loc 1 458 7 view .LVU19
 177 001e 84ED000A 		vstr.32	s0, [r4]	@ tmp150, p_19->x
 178              		.loc 1 459 2 is_stmt 1 view .LVU20
 179              	@ luaglue.c:459: 	p->y = pd->lua->getArgFloat(2);
 180              		.loc 1 459 16 is_stmt 0 view .LVU21
 181 0022 9B69     		ldr	r3, [r3, #24]	@ pd.58_6->lua, pd.58_6->lua
 182              	@ luaglue.c:459: 	p->y = pd->lua->getArgFloat(2);
 183              		.loc 1 459 9 view .LVU22
 184 0024 DB6A     		ldr	r3, [r3, #44]	@ _7->getArgFloat, _7->getArgFloat
 185 0026 9847     		blx	r3		@ _7->getArgFloat
 186              	.LVL7:
 187              	@ luaglue.c:460: 	p->z = pd->lua->getArgFloat(3);
 460:luaglue.c     **** 	p->z = pd->lua->getArgFloat(3);
 188              		.loc 1 460 11 view .LVU23
 189 0028 2B68     		ldr	r3, [r5]	@ pd, pd
 190              	@ luaglue.c:460: 	p->z = pd->lua->getArgFloat(3);
 191              		.loc 1 460 9 view .LVU24
 192 002a 0320     		movs	r0, #3	@,
 193              	@ luaglue.c:459: 	p->y = pd->lua->getArgFloat(2);
 459:luaglue.c     **** 	p->y = pd->lua->getArgFloat(2);
 194              		.loc 1 459 7 view .LVU25
 195 002c 84ED010A 		vstr.32	s0, [r4, #4]	@ tmp151, p_19->y
 196              		.loc 1 460 2 is_stmt 1 view .LVU26
 197              	@ luaglue.c:460: 	p->z = pd->lua->getArgFloat(3);
 198              		.loc 1 460 16 is_stmt 0 view .LVU27
 199 0030 9B69     		ldr	r3, [r3, #24]	@ pd.59_10->lua, pd.59_10->lua
 200              	@ luaglue.c:460: 	p->z = pd->lua->getArgFloat(3);
 201              		.loc 1 460 9 view .LVU28
 202 0032 DB6A     		ldr	r3, [r3, #44]	@ _11->getArgFloat, _11->getArgFloat
 203 0034 9847     		blx	r3		@ _11->getArgFloat
 204              	.LVL8:
 205              	@ luaglue.c:461: 	pd->lua->pushObject(p, "lib3d.point", 0);
 461:luaglue.c     **** 	pd->lua->pushObject(p, "lib3d.point", 0);
 206              		.loc 1 461 4 view .LVU29
 207 0036 2B68     		ldr	r3, [r5]	@ pd, pd
 208              	@ luaglue.c:461: 	pd->lua->pushObject(p, "lib3d.point", 0);
 209              		.loc 1 461 2 view .LVU30
 210 0038 2046     		mov	r0, r4	@, p
 211 003a 0022     		movs	r2, #0	@,
 212              	@ luaglue.c:461: 	pd->lua->pushObject(p, "lib3d.point", 0);
 213              		.loc 1 461 9 view .LVU31
 214 003c 9B69     		ldr	r3, [r3, #24]	@ pd.60_14->lua, pd.60_14->lua
 215              	@ luaglue.c:461: 	pd->lua->pushObject(p, "lib3d.point", 0);
ARM GAS  /var/folders/cs/83z6p2tj4w57s6p2rt8nwfp00000gn/T//ccYNfdJn.s 			page 13


 216              		.loc 1 461 2 view .LVU32
 217 003e 0549     		ldr	r1, .L5+8	@,
 218 0040 5B6E     		ldr	r3, [r3, #100]	@ _15->pushObject, _15->pushObject
 219              	@ luaglue.c:460: 	p->z = pd->lua->getArgFloat(3);
 460:luaglue.c     **** 	p->z = pd->lua->getArgFloat(3);
 220              		.loc 1 460 7 view .LVU33
 221 0042 84ED020A 		vstr.32	s0, [r4, #8]	@ tmp152, p_19->z
 222              		.loc 1 461 2 is_stmt 1 view .LVU34
 223 0046 9847     		blx	r3		@ _15->pushObject
 224              	.LVL9:
 462:luaglue.c     **** 	return 1;
 225              		.loc 1 462 2 view .LVU35
 226              	@ luaglue.c:463: }
 463:luaglue.c     **** }
 227              		.loc 1 463 1 is_stmt 0 view .LVU36
 228 0048 0120     		movs	r0, #1	@,
 229 004a 38BD     		pop	{r3, r4, r5, pc}	@
 230              	.LVL10:
 231              	.L6:
 232              		.loc 1 463 1 view .LVU37
 233              		.align	2
 234              	.L5:
 235 004c 00000000 		.word	m3d_realloc
 236 0050 00000000 		.word	.LANCHOR0
 237 0054 00000000 		.word	.LC0
 238              		.cfi_endproc
 239              	.LFE58:
 240              		.size	point_new, .-point_new
 241              		.section	.rodata.matrix_newRotation.str1.4,"aMS",%progbits,1
 242              		.align	2
 243              	.LC1:
 244 0000 6C696233 		.ascii	"lib3d.matrix\000"
 244      642E6D61 
 244      74726978 
 244      00
 245              		.section	.text.matrix_newRotation,"ax",%progbits
 246              		.align	1
 247              		.p2align 4,,15
 248              		.syntax unified
 249              		.thumb
 250              		.thumb_func
 251              		.fpu fpv5-sp-d16
 252              		.type	matrix_newRotation, %function
 253              	matrix_newRotation:
 254              	.LVL11:
 255              	.LFB66:
 464:luaglue.c     **** 
 465:luaglue.c     **** static int point_gc(lua_State* L)
 466:luaglue.c     **** {
 467:luaglue.c     **** 	Point3D* p = getPoint(1);
 468:luaglue.c     **** 	m3d_free(p);
 469:luaglue.c     **** 	return 0;
 470:luaglue.c     **** }
 471:luaglue.c     **** 
 472:luaglue.c     **** static int point_index(lua_State* L)
 473:luaglue.c     **** {
 474:luaglue.c     **** 	Point3D* p = getPoint(1);
ARM GAS  /var/folders/cs/83z6p2tj4w57s6p2rt8nwfp00000gn/T//ccYNfdJn.s 			page 14


 475:luaglue.c     **** 	const char* arg = pd->lua->getArgString(2);
 476:luaglue.c     **** 	
 477:luaglue.c     **** 	if ( strcmp(arg, "x") == 0 )
 478:luaglue.c     **** 		pd->lua->pushFloat(p->x);
 479:luaglue.c     **** 	else if ( strcmp(arg, "y") == 0 )
 480:luaglue.c     **** 		pd->lua->pushFloat(p->y);
 481:luaglue.c     **** 	else if ( strcmp(arg, "z") == 0 )
 482:luaglue.c     **** 		pd->lua->pushFloat(p->z);
 483:luaglue.c     **** 	else
 484:luaglue.c     **** 		pd->lua->pushNil();
 485:luaglue.c     **** 	
 486:luaglue.c     **** 	return 1;
 487:luaglue.c     **** }
 488:luaglue.c     **** 
 489:luaglue.c     **** static int point_newindex(lua_State* L)
 490:luaglue.c     **** {
 491:luaglue.c     **** 	Point3D* p = getPoint(1);
 492:luaglue.c     **** 	const char* arg = pd->lua->getArgString(2);
 493:luaglue.c     **** 	
 494:luaglue.c     **** 	if ( strcmp(arg, "x") == 0 )
 495:luaglue.c     **** 		p->x = pd->lua->getArgFloat(3);
 496:luaglue.c     **** 	else if ( strcmp(arg, "y") == 0 )
 497:luaglue.c     **** 		p->y = pd->lua->getArgFloat(3);
 498:luaglue.c     **** 	else if ( strcmp(arg, "z") == 0 )
 499:luaglue.c     **** 		p->z = pd->lua->getArgFloat(3);
 500:luaglue.c     **** 	
 501:luaglue.c     **** 	return 0;
 502:luaglue.c     **** }
 503:luaglue.c     **** 
 504:luaglue.c     **** static int point_mul(lua_State* L)
 505:luaglue.c     **** {
 506:luaglue.c     **** 	Point3D* p = getPoint(1);
 507:luaglue.c     **** 	Matrix3D* m = getMatrix(2);
 508:luaglue.c     **** 
 509:luaglue.c     **** 	Point3D* p2 = m3d_malloc(sizeof(Point3D));
 510:luaglue.c     **** 	*p2 = Matrix3D_apply(*m, *p);
 511:luaglue.c     **** 	pd->lua->pushObject(p2, "lib3d.point", 0);
 512:luaglue.c     **** 	return 1;
 513:luaglue.c     **** }
 514:luaglue.c     **** 
 515:luaglue.c     **** static const lua_reg lib3DPoint[] =
 516:luaglue.c     **** {
 517:luaglue.c     **** 	{ "new",			point_new },
 518:luaglue.c     **** 	{ "__gc", 			point_gc },
 519:luaglue.c     **** 	{ "__index",		point_index },
 520:luaglue.c     **** 	{ "__newindex",		point_newindex },
 521:luaglue.c     **** 	{ "__mul",			point_mul },
 522:luaglue.c     **** 	{ NULL,				NULL }
 523:luaglue.c     **** };
 524:luaglue.c     **** 
 525:luaglue.c     **** 
 526:luaglue.c     **** /// Matrix
 527:luaglue.c     **** 
 528:luaglue.c     **** static int matrix_gc(lua_State* L)
 529:luaglue.c     **** {
 530:luaglue.c     **** 	Matrix3D* m = getMatrix(1);
 531:luaglue.c     **** 	m3d_free(m);
ARM GAS  /var/folders/cs/83z6p2tj4w57s6p2rt8nwfp00000gn/T//ccYNfdJn.s 			page 15


 532:luaglue.c     **** 	return 0;
 533:luaglue.c     **** }
 534:luaglue.c     **** 
 535:luaglue.c     **** static int matrix_mul(lua_State* L)
 536:luaglue.c     **** {
 537:luaglue.c     **** 	Matrix3D* l = getMatrix(1);
 538:luaglue.c     **** 	Matrix3D* r = getMatrix(2);
 539:luaglue.c     **** 	Matrix3D* m = m3d_malloc(sizeof(Matrix3D));
 540:luaglue.c     **** 
 541:luaglue.c     **** 	*m = Matrix3D_multiply(*l, *r);
 542:luaglue.c     **** 	
 543:luaglue.c     **** 	pd->lua->pushObject(m, "lib3d.matrix", 0);
 544:luaglue.c     **** 	return 1;
 545:luaglue.c     **** }
 546:luaglue.c     **** 
 547:luaglue.c     **** static int matrix_new(lua_State* L)
 548:luaglue.c     **** {
 549:luaglue.c     **** 	Matrix3D* p = m3d_malloc(sizeof(Matrix3D));
 550:luaglue.c     **** 	
 551:luaglue.c     **** 	p->isIdentity = 0;
 552:luaglue.c     **** 	p->m[0][0] = pd->lua->getArgFloat(1);
 553:luaglue.c     **** 	p->m[0][1] = pd->lua->getArgFloat(2);
 554:luaglue.c     **** 	p->m[0][2] = pd->lua->getArgFloat(3);
 555:luaglue.c     **** 	p->m[1][0] = pd->lua->getArgFloat(4);
 556:luaglue.c     **** 	p->m[1][1] = pd->lua->getArgFloat(5);
 557:luaglue.c     **** 	p->m[1][2] = pd->lua->getArgFloat(6);
 558:luaglue.c     **** 	p->m[2][0] = pd->lua->getArgFloat(7);
 559:luaglue.c     **** 	p->m[2][1] = pd->lua->getArgFloat(8);
 560:luaglue.c     **** 	p->m[2][2] = pd->lua->getArgFloat(9);
 561:luaglue.c     **** 	p->dx = pd->lua->getArgFloat(10);
 562:luaglue.c     **** 	p->dy = pd->lua->getArgFloat(11);
 563:luaglue.c     **** 	p->dz = pd->lua->getArgFloat(12);
 564:luaglue.c     **** 
 565:luaglue.c     **** 	p->inverting = Matrix3D_getDeterminant(p) < 0;
 566:luaglue.c     **** 	
 567:luaglue.c     **** 	pd->lua->pushObject(p, "lib3d.matrix", 0);
 568:luaglue.c     **** 	return 1;
 569:luaglue.c     **** }
 570:luaglue.c     **** 
 571:luaglue.c     **** static int matrix_newRotation(lua_State* L)
 572:luaglue.c     **** {
 256              		.loc 1 572 1 is_stmt 1 view -0
 257              		.cfi_startproc
 258              		@ args = 0, pretend = 0, frame = 0
 259              		@ frame_needed = 0, uses_anonymous_args = 0
 573:luaglue.c     **** 	Matrix3D* p = m3d_malloc(sizeof(Matrix3D));
 260              		.loc 1 573 2 view .LVU39
 261              	@ luaglue.c:572: {
 572:luaglue.c     **** 	Matrix3D* p = m3d_malloc(sizeof(Matrix3D));
 262              		.loc 1 572 1 is_stmt 0 view .LVU40
 263 0000 38B5     		push	{r3, r4, r5, lr}	@
 264              	.LCFI1:
 265              		.cfi_def_cfa_offset 16
 266              		.cfi_offset 3, -16
 267              		.cfi_offset 4, -12
 268              		.cfi_offset 5, -8
 269              		.cfi_offset 14, -4
ARM GAS  /var/folders/cs/83z6p2tj4w57s6p2rt8nwfp00000gn/T//ccYNfdJn.s 			page 16


 270              	@ luaglue.c:573: 	Matrix3D* p = m3d_malloc(sizeof(Matrix3D));
 271              		.loc 1 573 16 view .LVU41
 272 0002 4D4B     		ldr	r3, .L9	@ tmp169,
 273 0004 3421     		movs	r1, #52	@,
 274              	@ luaglue.c:578: 	float angle = pd->lua->getArgFloat(1);
 574:luaglue.c     **** 
 575:luaglue.c     **** #undef M_PI
 576:luaglue.c     **** #define M_PI 3.14159265358979323846f
 577:luaglue.c     **** 
 578:luaglue.c     **** 	float angle = pd->lua->getArgFloat(1);
 275              		.loc 1 578 18 view .LVU42
 276 0006 4D4D     		ldr	r5, .L9+4	@ tmp171,
 277              	@ luaglue.c:573: 	Matrix3D* p = m3d_malloc(sizeof(Matrix3D));
 573:luaglue.c     **** 
 278              		.loc 1 573 16 view .LVU43
 279 0008 0020     		movs	r0, #0	@,
 280              	.LVL12:
 573:luaglue.c     **** 
 281              		.loc 1 573 16 view .LVU44
 282 000a 1B68     		ldr	r3, [r3]	@ m3d_realloc, m3d_realloc
 283              	@ luaglue.c:572: {
 572:luaglue.c     **** 	Matrix3D* p = m3d_malloc(sizeof(Matrix3D));
 284              		.loc 1 572 1 view .LVU45
 285 000c 2DED048B 		vpush.64	{d8, d9}	@
 286              	.LCFI2:
 287              		.cfi_def_cfa_offset 32
 288              		.cfi_offset 80, -32
 289              		.cfi_offset 81, -28
 290              		.cfi_offset 82, -24
 291              		.cfi_offset 83, -20
 292              	@ luaglue.c:573: 	Matrix3D* p = m3d_malloc(sizeof(Matrix3D));
 573:luaglue.c     **** 
 293              		.loc 1 573 16 view .LVU46
 294 0010 9847     		blx	r3		@ m3d_realloc
 295              	.LVL13:
 296              	@ luaglue.c:578: 	float angle = pd->lua->getArgFloat(1);
 297              		.loc 1 578 18 view .LVU47
 298 0012 2B68     		ldr	r3, [r5]	@ pd, pd
 299              	@ luaglue.c:573: 	Matrix3D* p = m3d_malloc(sizeof(Matrix3D));
 573:luaglue.c     **** 
 300              		.loc 1 573 16 view .LVU48
 301 0014 0446     		mov	r4, r0	@ tmp214,
 302              	@ luaglue.c:578: 	float angle = pd->lua->getArgFloat(1);
 303              		.loc 1 578 16 view .LVU49
 304 0016 0120     		movs	r0, #1	@,
 305              	.LVL14:
 306              		.loc 1 578 2 is_stmt 1 view .LVU50
 307              	@ luaglue.c:578: 	float angle = pd->lua->getArgFloat(1);
 308              		.loc 1 578 23 is_stmt 0 view .LVU51
 309 0018 9B69     		ldr	r3, [r3, #24]	@ pd.22_2->lua, pd.22_2->lua
 310              	@ luaglue.c:578: 	float angle = pd->lua->getArgFloat(1);
 311              		.loc 1 578 16 view .LVU52
 312 001a DB6A     		ldr	r3, [r3, #44]	@ _3->getArgFloat, _3->getArgFloat
 313 001c 9847     		blx	r3		@ _3->getArgFloat
 314              	.LVL15:
 579:luaglue.c     **** 	float c = cosf(angle * M_PI / 180);
 315              		.loc 1 579 2 is_stmt 1 view .LVU53
ARM GAS  /var/folders/cs/83z6p2tj4w57s6p2rt8nwfp00000gn/T//ccYNfdJn.s 			page 17


 316              	@ luaglue.c:579: 	float c = cosf(angle * M_PI / 180);
 317              		.loc 1 579 23 is_stmt 0 view .LVU54
 318 001e 9FED487A 		vldr.32	s14, .L9+8	@ tmp176,
 319              	@ luaglue.c:579: 	float c = cosf(angle * M_PI / 180);
 320              		.loc 1 579 12 view .LVU55
 321 0022 DFED487A 		vldr.32	s15, .L9+12	@ tmp177,
 322              	@ luaglue.c:579: 	float c = cosf(angle * M_PI / 180);
 323              		.loc 1 579 23 view .LVU56
 324 0026 20EE070A 		vmul.f32	s0, s0, s14	@ tmp175, tmp215, tmp176
 325              	.LVL16:
 326              	@ luaglue.c:579: 	float c = cosf(angle * M_PI / 180);
 327              		.loc 1 579 12 view .LVU57
 328 002a 80EE278A 		vdiv.f32	s16, s0, s15	@ _6, tmp175, tmp177
 329 002e B0EE480A 		vmov.f32	s0, s16	@, _6
 330 0032 FFF7FEFF 		bl	cosf		@
 331              	.LVL17:
 332 0036 F0EE408A 		vmov.f32	s17, s0	@ tmp216,
 333              	@ luaglue.c:580: 	float s = sinf(angle * M_PI / 180);
 580:luaglue.c     **** 	float s = sinf(angle * M_PI / 180);
 334              		.loc 1 580 12 view .LVU58
 335 003a B0EE480A 		vmov.f32	s0, s16	@, _6
 336              	.LVL18:
 337              		.loc 1 580 2 is_stmt 1 view .LVU59
 338              	@ luaglue.c:580: 	float s = sinf(angle * M_PI / 180);
 339              		.loc 1 580 12 is_stmt 0 view .LVU60
 340 003e FFF7FEFF 		bl	sinf		@
 341              	.LVL19:
 342              	@ luaglue.c:581: 	float x = pd->lua->getArgFloat(2);
 581:luaglue.c     **** 	float x = pd->lua->getArgFloat(2);
 343              		.loc 1 581 14 view .LVU61
 344 0042 2B68     		ldr	r3, [r5]	@ pd, pd
 345              	@ luaglue.c:581: 	float x = pd->lua->getArgFloat(2);
 346              		.loc 1 581 12 view .LVU62
 347 0044 0220     		movs	r0, #2	@,
 348              	@ luaglue.c:580: 	float s = sinf(angle * M_PI / 180);
 580:luaglue.c     **** 	float s = sinf(angle * M_PI / 180);
 349              		.loc 1 580 12 view .LVU63
 350 0046 B0EE408A 		vmov.f32	s16, s0	@ s, tmp217
 351              	.LVL20:
 352              		.loc 1 581 2 is_stmt 1 view .LVU64
 353              	@ luaglue.c:581: 	float x = pd->lua->getArgFloat(2);
 354              		.loc 1 581 19 is_stmt 0 view .LVU65
 355 004a 9B69     		ldr	r3, [r3, #24]	@ pd.23_7->lua, pd.23_7->lua
 356              	@ luaglue.c:581: 	float x = pd->lua->getArgFloat(2);
 357              		.loc 1 581 12 view .LVU66
 358 004c DB6A     		ldr	r3, [r3, #44]	@ _8->getArgFloat, _8->getArgFloat
 359 004e 9847     		blx	r3		@ _8->getArgFloat
 360              	.LVL21:
 361              	@ luaglue.c:582: 	float y = pd->lua->getArgFloat(3);
 582:luaglue.c     **** 	float y = pd->lua->getArgFloat(3);
 362              		.loc 1 582 14 view .LVU67
 363 0050 2B68     		ldr	r3, [r5]	@ pd, pd
 364              	@ luaglue.c:582: 	float y = pd->lua->getArgFloat(3);
 365              		.loc 1 582 12 view .LVU68
 366 0052 0320     		movs	r0, #3	@,
 367              	@ luaglue.c:581: 	float x = pd->lua->getArgFloat(2);
 581:luaglue.c     **** 	float x = pd->lua->getArgFloat(2);
ARM GAS  /var/folders/cs/83z6p2tj4w57s6p2rt8nwfp00000gn/T//ccYNfdJn.s 			page 18


 368              		.loc 1 581 12 view .LVU69
 369 0054 F0EE409A 		vmov.f32	s19, s0	@ x, tmp218
 370              	.LVL22:
 371              		.loc 1 582 2 is_stmt 1 view .LVU70
 372              	@ luaglue.c:582: 	float y = pd->lua->getArgFloat(3);
 373              		.loc 1 582 19 is_stmt 0 view .LVU71
 374 0058 9B69     		ldr	r3, [r3, #24]	@ pd.24_10->lua, pd.24_10->lua
 375              	@ luaglue.c:582: 	float y = pd->lua->getArgFloat(3);
 376              		.loc 1 582 12 view .LVU72
 377 005a DB6A     		ldr	r3, [r3, #44]	@ _11->getArgFloat, _11->getArgFloat
 378 005c 9847     		blx	r3		@ _11->getArgFloat
 379              	.LVL23:
 380              	@ luaglue.c:583: 	float z = pd->lua->getArgFloat(4);
 583:luaglue.c     **** 	float z = pd->lua->getArgFloat(4);
 381              		.loc 1 583 14 view .LVU73
 382 005e 2B68     		ldr	r3, [r5]	@ pd, pd
 383              	@ luaglue.c:582: 	float y = pd->lua->getArgFloat(3);
 582:luaglue.c     **** 	float y = pd->lua->getArgFloat(3);
 384              		.loc 1 582 12 view .LVU74
 385 0060 B0EE409A 		vmov.f32	s18, s0	@ y, tmp219
 386              	.LVL24:
 387              		.loc 1 583 2 is_stmt 1 view .LVU75
 388              	@ luaglue.c:583: 	float z = pd->lua->getArgFloat(4);
 389              		.loc 1 583 12 is_stmt 0 view .LVU76
 390 0064 0420     		movs	r0, #4	@,
 391              	@ luaglue.c:583: 	float z = pd->lua->getArgFloat(4);
 392              		.loc 1 583 19 view .LVU77
 393 0066 9B69     		ldr	r3, [r3, #24]	@ pd.25_13->lua, pd.25_13->lua
 394              	@ luaglue.c:583: 	float z = pd->lua->getArgFloat(4);
 395              		.loc 1 583 12 view .LVU78
 396 0068 DB6A     		ldr	r3, [r3, #44]	@ _14->getArgFloat, _14->getArgFloat
 397 006a 9847     		blx	r3		@ _14->getArgFloat
 398              	.LVL25:
 399              	@ luaglue.c:585: 	float d = sqrtf(x * x + y * y + z * z);
 584:luaglue.c     **** 	
 585:luaglue.c     **** 	float d = sqrtf(x * x + y * y + z * z);
 400              		.loc 1 585 12 view .LVU79
 401 006c 29EE097A 		vmul.f32	s14, s18, s18	@ tmp190, y, y
 402              	@ luaglue.c:594: 	p->m[0][0] = c + x * x * (1-c);
 586:luaglue.c     **** 	
 587:luaglue.c     **** 	x /= d;
 588:luaglue.c     **** 	y /= d;
 589:luaglue.c     **** 	z /= d;
 590:luaglue.c     **** 
 591:luaglue.c     **** 	p->isIdentity = 0;
 592:luaglue.c     **** 	p->inverting = 0;
 593:luaglue.c     **** 	
 594:luaglue.c     **** 	p->m[0][0] = c + x * x * (1-c);
 403              		.loc 1 594 29 view .LVU80
 404 0070 F7EE007A 		vmov.f32	s15, #1.0e+0	@ tmp198,
 405              	@ luaglue.c:605: 	pd->lua->pushObject(p, "lib3d.matrix", 0);
 595:luaglue.c     **** 	p->m[0][1] = x * y * (1-c) - z * s;
 596:luaglue.c     **** 	p->m[0][2] = x * z * (1-c) + y * s;
 597:luaglue.c     **** 	p->m[1][0] = y * x * (1-c) + z * s;
 598:luaglue.c     **** 	p->m[1][1] = c + y * y * (1-c);
 599:luaglue.c     **** 	p->m[1][2] = y * z * (1-c) - x * s;
 600:luaglue.c     **** 	p->m[2][0] = z * x * (1-c) - y * s;
ARM GAS  /var/folders/cs/83z6p2tj4w57s6p2rt8nwfp00000gn/T//ccYNfdJn.s 			page 19


 601:luaglue.c     **** 	p->m[2][1] = z * y * (1-c) + x * s;
 602:luaglue.c     **** 	p->m[2][2] = c + z * z * (1-c);
 603:luaglue.c     **** 	p->dx = p->dy = p->dz = 0;
 604:luaglue.c     **** 	
 605:luaglue.c     **** 	pd->lua->pushObject(p, "lib3d.matrix", 0);
 406              		.loc 1 605 4 view .LVU81
 407 0074 2B68     		ldr	r3, [r5]	@ pd, pd
 408              	.LVL26:
 585:luaglue.c     **** 	
 409              		.loc 1 585 2 is_stmt 1 view .LVU82
 410              	@ luaglue.c:594: 	p->m[0][0] = c + x * x * (1-c);
 594:luaglue.c     **** 	p->m[0][1] = x * y * (1-c) - z * s;
 411              		.loc 1 594 17 is_stmt 0 view .LVU83
 412 0076 B0EE684A 		vmov.f32	s8, s17	@ _24, c
 413              	@ luaglue.c:591: 	p->isIdentity = 0;
 591:luaglue.c     **** 	p->inverting = 0;
 414              		.loc 1 591 16 view .LVU84
 415 007a 2178     		ldrb	r1, [r4]	@ zero_extendqisi2	@ MEM[(struct Matrix3D *)p_51], MEM[(struct Matrix3D *)p_51]
 416              	@ luaglue.c:585: 	float d = sqrtf(x * x + y * y + z * z);
 585:luaglue.c     **** 	
 417              		.loc 1 585 12 view .LVU85
 418 007c A9EEA97A 		vfma.f32	s14, s19, s19	@ _18, x, x
 419              	@ luaglue.c:605: 	pd->lua->pushObject(p, "lib3d.matrix", 0);
 420              		.loc 1 605 9 view .LVU86
 421 0080 9D69     		ldr	r5, [r3, #24]	@ pd.26_46->lua, pd.26_46->lua
 422              	@ luaglue.c:594: 	p->m[0][0] = c + x * x * (1-c);
 594:luaglue.c     **** 	p->m[0][1] = x * y * (1-c) - z * s;
 423              		.loc 1 594 29 view .LVU87
 424 0082 77EEE87A 		vsub.f32	s15, s15, s17	@ _22, tmp198, c
 425              	@ luaglue.c:603: 	p->dx = p->dy = p->dz = 0;
 603:luaglue.c     **** 	
 426              		.loc 1 603 24 view .LVU88
 427 0086 0023     		movs	r3, #0	@ tmp205,
 428              	@ luaglue.c:605: 	pd->lua->pushObject(p, "lib3d.matrix", 0);
 429              		.loc 1 605 2 view .LVU89
 430 0088 6D6E     		ldr	r5, [r5, #100]	@ _47->pushObject, _47->pushObject
 431              	@ luaglue.c:591: 	p->isIdentity = 0;
 591:luaglue.c     **** 	p->inverting = 0;
 432              		.loc 1 591 16 view .LVU90
 433 008a 21F00301 		bic	r1, r1, #3	@ tmp194, MEM[(struct Matrix3D *)p_51],
 434              	@ luaglue.c:605: 	pd->lua->pushObject(p, "lib3d.matrix", 0);
 435              		.loc 1 605 2 view .LVU91
 436 008e 2046     		mov	r0, r4	@, p
 437 0090 0022     		movs	r2, #0	@,
 438              	@ luaglue.c:591: 	p->isIdentity = 0;
 591:luaglue.c     **** 	p->inverting = 0;
 439              		.loc 1 591 16 view .LVU92
 440 0092 2170     		strb	r1, [r4]	@ tmp194, MEM[(struct Matrix3D *)p_51]
 441              	@ luaglue.c:603: 	p->dx = p->dy = p->dz = 0;
 603:luaglue.c     **** 	
 442              		.loc 1 603 24 view .LVU93
 443 0094 2363     		str	r3, [r4, #48]	@ float	@ tmp205, p_51->dz
 444              	@ luaglue.c:585: 	float d = sqrtf(x * x + y * y + z * z);
 585:luaglue.c     **** 	
 445              		.loc 1 585 12 view .LVU94
 446 0096 A0EE007A 		vfma.f32	s14, s0, s0	@ _20, z, z
 447              	.LVL27:
ARM GAS  /var/folders/cs/83z6p2tj4w57s6p2rt8nwfp00000gn/T//ccYNfdJn.s 			page 20


 448              	.LBB91:
 449              	.LBI91:
 450              		.file 2 "mini3d/3dmath.h"
   1:mini3d/3dmath.h **** //
   2:mini3d/3dmath.h **** //  pd3d.h
   3:mini3d/3dmath.h **** //  Playdate Simulator
   4:mini3d/3dmath.h **** //
   5:mini3d/3dmath.h **** //  Created by Dave Hayden on 8/25/15.
   6:mini3d/3dmath.h **** //  Copyright (c) 2015 Panic, Inc. All rights reserved.
   7:mini3d/3dmath.h **** //
   8:mini3d/3dmath.h **** 
   9:mini3d/3dmath.h **** #ifndef __Playdate_Simulator__pd3d__
  10:mini3d/3dmath.h **** #define __Playdate_Simulator__pd3d__
  11:mini3d/3dmath.h **** 
  12:mini3d/3dmath.h **** #include <stdio.h>
  13:mini3d/3dmath.h **** #include <stdint.h>
  14:mini3d/3dmath.h **** #include <math.h>
  15:mini3d/3dmath.h **** 
  16:mini3d/3dmath.h **** #if TARGET_PLAYDATE
  17:mini3d/3dmath.h **** static inline float _lib3d_sqrtf(float x)
 451              		.loc 2 17 21 is_stmt 1 view .LVU95
 452              	.LBB92:
  18:mini3d/3dmath.h **** {
  19:mini3d/3dmath.h **** 	float result;
 453              		.loc 2 19 2 view .LVU96
  20:mini3d/3dmath.h **** 	asm ("vsqrt.f32 %0, %1" : "=t"(result) : "t"(x));
 454              		.loc 2 20 2 view .LVU97
 455              	.LBE92:
 456              	.LBE91:
 457              	@ luaglue.c:605: 	pd->lua->pushObject(p, "lib3d.matrix", 0);
 458              		.loc 1 605 2 is_stmt 0 view .LVU98
 459 009a 2B49     		ldr	r1, .L9+16	@,
 460              	.LBB94:
 461              	.LBB93:
 462              	@ mini3d/3dmath.h:20: 	asm ("vsqrt.f32 %0, %1" : "=t"(result) : "t"(x));
 463              		.loc 2 20 2 view .LVU99
 464              		.syntax unified
 465              	@ 20 "mini3d/3dmath.h" 1
 466 009c B1EEC77A 		vsqrt.f32 s14, s14	@ result, _20
 467              	@ 0 "" 2
 468              	.LVL28:
  21:mini3d/3dmath.h **** 	return result;
 469              		.loc 2 21 2 is_stmt 1 view .LVU100
 470              		.loc 2 21 2 is_stmt 0 view .LVU101
 471              		.thumb
 472              		.syntax unified
 473              	.LBE93:
 474              	.LBE94:
 587:luaglue.c     **** 	y /= d;
 475              		.loc 1 587 2 is_stmt 1 view .LVU102
 476              	@ luaglue.c:587: 	x /= d;
 587:luaglue.c     **** 	y /= d;
 477              		.loc 1 587 4 is_stmt 0 view .LVU103
 478 00a0 89EE876A 		vdiv.f32	s12, s19, s14	@ x, x, result
 479              	.LVL29:
 588:luaglue.c     **** 	z /= d;
 480              		.loc 1 588 2 is_stmt 1 view .LVU104
ARM GAS  /var/folders/cs/83z6p2tj4w57s6p2rt8nwfp00000gn/T//ccYNfdJn.s 			page 21


 481              	@ luaglue.c:603: 	p->dx = p->dy = p->dz = 0;
 603:luaglue.c     **** 	
 482              		.loc 1 603 16 is_stmt 0 view .LVU105
 483 00a4 E362     		str	r3, [r4, #44]	@ float	@ tmp205, p_51->dy
 484              	@ luaglue.c:603: 	p->dx = p->dy = p->dz = 0;
 603:luaglue.c     **** 	
 485              		.loc 1 603 8 view .LVU106
 486 00a6 A362     		str	r3, [r4, #40]	@ float	@ tmp205, p_51->dx
 487              	@ luaglue.c:588: 	y /= d;
 588:luaglue.c     **** 	z /= d;
 488              		.loc 1 588 4 view .LVU107
 489 00a8 C9EE076A 		vdiv.f32	s13, s18, s14	@ y, y, result
 490              	.LVL30:
 589:luaglue.c     **** 
 491              		.loc 1 589 2 is_stmt 1 view .LVU108
 492              	@ luaglue.c:589: 	z /= d;
 589:luaglue.c     **** 
 493              		.loc 1 589 4 is_stmt 0 view .LVU109
 494 00ac C0EE075A 		vdiv.f32	s11, s0, s14	@ z, z, result
 495              	.LVL31:
 591:luaglue.c     **** 	p->inverting = 0;
 496              		.loc 1 591 2 is_stmt 1 view .LVU110
 592:luaglue.c     **** 	
 497              		.loc 1 592 2 view .LVU111
 594:luaglue.c     **** 	p->m[0][1] = x * y * (1-c) - z * s;
 498              		.loc 1 594 2 view .LVU112
 499              	@ luaglue.c:594: 	p->m[0][0] = c + x * x * (1-c);
 594:luaglue.c     **** 	p->m[0][1] = x * y * (1-c) - z * s;
 500              		.loc 1 594 21 is_stmt 0 view .LVU113
 501 00b0 26EE065A 		vmul.f32	s10, s12, s12	@ tmp199, x, x
 502              	@ luaglue.c:599: 	p->m[1][2] = y * z * (1-c) - x * s;
 599:luaglue.c     **** 	p->m[2][0] = z * x * (1-c) - y * s;
 503              		.loc 1 599 33 view .LVU114
 504 00b4 28EE067A 		vmul.f32	s14, s16, s12	@ _39, s, x
 505              	.LVL32:
 506              	@ luaglue.c:594: 	p->m[0][0] = c + x * x * (1-c);
 594:luaglue.c     **** 	p->m[0][1] = x * y * (1-c) - z * s;
 507              		.loc 1 594 17 view .LVU115
 508 00b8 A5EE274A 		vfma.f32	s8, s10, s15	@ _24, tmp199, _22
 509              	@ luaglue.c:596: 	p->m[0][2] = x * z * (1-c) + y * s;
 596:luaglue.c     **** 	p->m[1][0] = y * x * (1-c) + z * s;
 510              		.loc 1 596 33 view .LVU116
 511 00bc 28EE265A 		vmul.f32	s10, s16, s13	@ _31, s, y
 512              	@ luaglue.c:595: 	p->m[0][1] = x * y * (1-c) - z * s;
 595:luaglue.c     **** 	p->m[0][2] = x * z * (1-c) + y * s;
 513              		.loc 1 595 17 view .LVU117
 514 00c0 66EE264A 		vmul.f32	s9, s12, s13	@ _25, x, y
 515              	@ luaglue.c:598: 	p->m[1][1] = c + y * y * (1-c);
 598:luaglue.c     **** 	p->m[1][2] = y * z * (1-c) - x * s;
 516              		.loc 1 598 21 view .LVU118
 517 00c4 26EEA63A 		vmul.f32	s6, s13, s13	@ tmp201, y, y
 518              	@ luaglue.c:594: 	p->m[0][0] = c + x * x * (1-c);
 594:luaglue.c     **** 	p->m[0][1] = x * y * (1-c) - z * s;
 519              		.loc 1 594 13 view .LVU119
 520 00c8 84ED014A 		vstr.32	s8, [r4, #4]	@ _24, p_51->m
 595:luaglue.c     **** 	p->m[0][2] = x * z * (1-c) + y * s;
 521              		.loc 1 595 2 is_stmt 1 view .LVU120
ARM GAS  /var/folders/cs/83z6p2tj4w57s6p2rt8nwfp00000gn/T//ccYNfdJn.s 			page 22


 522              	@ luaglue.c:596: 	p->m[0][2] = x * z * (1-c) + y * s;
 596:luaglue.c     **** 	p->m[1][0] = y * x * (1-c) + z * s;
 523              		.loc 1 596 29 is_stmt 0 view .LVU121
 524 00cc B0EE454A 		vmov.f32	s8, s10	@ _32, _31
 525              	@ luaglue.c:595: 	p->m[0][1] = x * y * (1-c) - z * s;
 595:luaglue.c     **** 	p->m[0][2] = x * z * (1-c) + y * s;
 526              		.loc 1 595 33 view .LVU122
 527 00d0 28EE258A 		vmul.f32	s16, s16, s11	@ _27, s, z
 528              	.LVL33:
 529              	@ luaglue.c:596: 	p->m[0][2] = x * z * (1-c) + y * s;
 596:luaglue.c     **** 	p->m[1][0] = y * x * (1-c) + z * s;
 530              		.loc 1 596 17 view .LVU123
 531 00d4 26EE256A 		vmul.f32	s12, s12, s11	@ _29, x, z
 532              	.LVL34:
 533              	@ luaglue.c:599: 	p->m[1][2] = y * z * (1-c) - x * s;
 599:luaglue.c     **** 	p->m[2][0] = z * x * (1-c) - y * s;
 534              		.loc 1 599 17 view .LVU124
 535 00d8 66EEA56A 		vmul.f32	s13, s13, s11	@ _37, y, z
 536              	.LVL35:
 537              	@ luaglue.c:595: 	p->m[0][1] = x * y * (1-c) - z * s;
 595:luaglue.c     **** 	p->m[0][2] = x * z * (1-c) + y * s;
 538              		.loc 1 595 29 view .LVU125
 539 00dc F0EE483A 		vmov.f32	s7, s16	@ _28, _27
 540              	@ luaglue.c:596: 	p->m[0][2] = x * z * (1-c) + y * s;
 596:luaglue.c     **** 	p->m[1][0] = y * x * (1-c) + z * s;
 541              		.loc 1 596 29 view .LVU126
 542 00e0 A7EE864A 		vfma.f32	s8, s15, s12	@ _32, _22, _29
 543              	@ luaglue.c:597: 	p->m[1][0] = y * x * (1-c) + z * s;
 597:luaglue.c     **** 	p->m[1][1] = c + y * y * (1-c);
 544              		.loc 1 597 29 view .LVU127
 545 00e4 A7EEA48A 		vfma.f32	s16, s15, s9	@ _33, _22, _25
 546              	@ luaglue.c:595: 	p->m[0][1] = x * y * (1-c) - z * s;
 595:luaglue.c     **** 	p->m[0][2] = x * z * (1-c) + y * s;
 547              		.loc 1 595 29 view .LVU128
 548 00e8 D7EEA43A 		vfnms.f32	s7, s15, s9	@ _28, _22, _25
 549              	@ luaglue.c:600: 	p->m[2][0] = z * x * (1-c) - y * s;
 600:luaglue.c     **** 	p->m[2][1] = z * y * (1-c) + x * s;
 550              		.loc 1 600 29 view .LVU129
 551 00ec 97EE865A 		vfnms.f32	s10, s15, s12	@ _41, _22, _29
 552              	@ luaglue.c:602: 	p->m[2][2] = c + z * z * (1-c);
 602:luaglue.c     **** 	p->dx = p->dy = p->dz = 0;
 553              		.loc 1 602 21 view .LVU130
 554 00f0 65EEA55A 		vmul.f32	s11, s11, s11	@ tmp204, z, z
 555              	.LVL36:
 556              	@ luaglue.c:598: 	p->m[1][1] = c + y * y * (1-c);
 598:luaglue.c     **** 	p->m[1][2] = y * z * (1-c) - x * s;
 557              		.loc 1 598 17 view .LVU131
 558 00f4 F0EE684A 		vmov.f32	s9, s17	@ _36, c
 559              	@ luaglue.c:599: 	p->m[1][2] = y * z * (1-c) - x * s;
 599:luaglue.c     **** 	p->m[2][0] = z * x * (1-c) - y * s;
 560              		.loc 1 599 29 view .LVU132
 561 00f8 B0EE476A 		vmov.f32	s12, s14	@ _40, _39
 562              	@ luaglue.c:596: 	p->m[0][2] = x * z * (1-c) + y * s;
 596:luaglue.c     **** 	p->m[1][0] = y * x * (1-c) + z * s;
 563              		.loc 1 596 13 view .LVU133
 564 00fc 84ED034A 		vstr.32	s8, [r4, #12]	@ _32, p_51->m
 565              	@ luaglue.c:602: 	p->m[2][2] = c + z * z * (1-c);
ARM GAS  /var/folders/cs/83z6p2tj4w57s6p2rt8nwfp00000gn/T//ccYNfdJn.s 			page 23


 602:luaglue.c     **** 	p->dx = p->dy = p->dz = 0;
 566              		.loc 1 602 17 view .LVU134
 567 0100 E7EEA58A 		vfma.f32	s17, s15, s11	@ _45, _22, tmp204
 568              	.LVL37:
 569              	@ luaglue.c:597: 	p->m[1][0] = y * x * (1-c) + z * s;
 597:luaglue.c     **** 	p->m[1][1] = c + y * y * (1-c);
 570              		.loc 1 597 13 view .LVU135
 571 0104 84ED048A 		vstr.32	s16, [r4, #16]	@ _33, p_51->m
 572              	@ luaglue.c:598: 	p->m[1][1] = c + y * y * (1-c);
 598:luaglue.c     **** 	p->m[1][2] = y * z * (1-c) - x * s;
 573              		.loc 1 598 17 view .LVU136
 574 0108 E7EE834A 		vfma.f32	s9, s15, s6	@ _36, _22, tmp201
 575              	.LVL38:
 576              	@ luaglue.c:595: 	p->m[0][1] = x * y * (1-c) - z * s;
 595:luaglue.c     **** 	p->m[0][2] = x * z * (1-c) + y * s;
 577              		.loc 1 595 13 view .LVU137
 578 010c C4ED023A 		vstr.32	s7, [r4, #8]	@ _28, p_51->m
 596:luaglue.c     **** 	p->m[1][0] = y * x * (1-c) + z * s;
 579              		.loc 1 596 2 is_stmt 1 view .LVU138
 597:luaglue.c     **** 	p->m[1][1] = c + y * y * (1-c);
 580              		.loc 1 597 2 view .LVU139
 598:luaglue.c     **** 	p->m[1][2] = y * z * (1-c) - x * s;
 581              		.loc 1 598 2 view .LVU140
 582              	@ luaglue.c:599: 	p->m[1][2] = y * z * (1-c) - x * s;
 599:luaglue.c     **** 	p->m[2][0] = z * x * (1-c) - y * s;
 583              		.loc 1 599 29 is_stmt 0 view .LVU141
 584 0110 97EEA66A 		vfnms.f32	s12, s15, s13	@ _40, _22, _37
 585              	@ luaglue.c:600: 	p->m[2][0] = z * x * (1-c) - y * s;
 600:luaglue.c     **** 	p->m[2][1] = z * y * (1-c) + x * s;
 586              		.loc 1 600 13 view .LVU142
 587 0114 84ED075A 		vstr.32	s10, [r4, #28]	@ _41, p_51->m
 588              	@ luaglue.c:601: 	p->m[2][1] = z * y * (1-c) + x * s;
 601:luaglue.c     **** 	p->m[2][2] = c + z * z * (1-c);
 589              		.loc 1 601 29 view .LVU143
 590 0118 A7EEA67A 		vfma.f32	s14, s15, s13	@ _42, _22, _37
 591              	@ luaglue.c:602: 	p->m[2][2] = c + z * z * (1-c);
 602:luaglue.c     **** 	p->dx = p->dy = p->dz = 0;
 592              		.loc 1 602 13 view .LVU144
 593 011c C4ED098A 		vstr.32	s17, [r4, #36]	@ _45, p_51->m
 594              	@ luaglue.c:598: 	p->m[1][1] = c + y * y * (1-c);
 598:luaglue.c     **** 	p->m[1][2] = y * z * (1-c) - x * s;
 595              		.loc 1 598 13 view .LVU145
 596 0120 C4ED054A 		vstr.32	s9, [r4, #20]	@ _36, p_51->m
 599:luaglue.c     **** 	p->m[2][0] = z * x * (1-c) - y * s;
 597              		.loc 1 599 2 is_stmt 1 view .LVU146
 598              	@ luaglue.c:599: 	p->m[1][2] = y * z * (1-c) - x * s;
 599:luaglue.c     **** 	p->m[2][0] = z * x * (1-c) - y * s;
 599              		.loc 1 599 13 is_stmt 0 view .LVU147
 600 0124 84ED066A 		vstr.32	s12, [r4, #24]	@ _40, p_51->m
 600:luaglue.c     **** 	p->m[2][1] = z * y * (1-c) + x * s;
 601              		.loc 1 600 2 is_stmt 1 view .LVU148
 601:luaglue.c     **** 	p->m[2][2] = c + z * z * (1-c);
 602              		.loc 1 601 2 view .LVU149
 603              	@ luaglue.c:601: 	p->m[2][1] = z * y * (1-c) + x * s;
 601:luaglue.c     **** 	p->m[2][2] = c + z * z * (1-c);
 604              		.loc 1 601 13 is_stmt 0 view .LVU150
 605 0128 84ED087A 		vstr.32	s14, [r4, #32]	@ _42, p_51->m
ARM GAS  /var/folders/cs/83z6p2tj4w57s6p2rt8nwfp00000gn/T//ccYNfdJn.s 			page 24


 602:luaglue.c     **** 	p->dx = p->dy = p->dz = 0;
 606              		.loc 1 602 2 is_stmt 1 view .LVU151
 603:luaglue.c     **** 	
 607              		.loc 1 603 2 view .LVU152
 608              		.loc 1 605 2 view .LVU153
 609 012c A847     		blx	r5		@ _47->pushObject
 610              	.LVL39:
 606:luaglue.c     **** 	return 1;
 611              		.loc 1 606 2 view .LVU154
 612              	@ luaglue.c:607: }
 607:luaglue.c     **** }
 613              		.loc 1 607 1 is_stmt 0 view .LVU155
 614 012e 0120     		movs	r0, #1	@,
 615 0130 BDEC048B 		vldm	sp!, {d8-d9}	@,
 616              	.LCFI3:
 617              		.cfi_restore 82
 618              		.cfi_restore 83
 619              		.cfi_restore 80
 620              		.cfi_restore 81
 621              		.cfi_def_cfa_offset 16
 622              		.loc 1 607 1 view .LVU156
 623 0134 38BD     		pop	{r3, r4, r5, pc}	@
 624              	.LVL40:
 625              	.L10:
 626              		.loc 1 607 1 view .LVU157
 627 0136 00BF     		.align	2
 628              	.L9:
 629 0138 00000000 		.word	m3d_realloc
 630 013c 00000000 		.word	.LANCHOR0
 631 0140 DB0F4940 		.word	1078530011
 632 0144 00003443 		.word	1127481344
 633 0148 00000000 		.word	.LC1
 634              		.cfi_endproc
 635              	.LFE66:
 636              		.size	matrix_newRotation, .-matrix_newRotation
 637              		.section	.text.matrix_new,"ax",%progbits
 638              		.align	1
 639              		.p2align 4,,15
 640              		.syntax unified
 641              		.thumb
 642              		.thumb_func
 643              		.fpu fpv5-sp-d16
 644              		.type	matrix_new, %function
 645              	matrix_new:
 646              	.LVL41:
 647              	.LFB65:
 548:luaglue.c     **** 	Matrix3D* p = m3d_malloc(sizeof(Matrix3D));
 648              		.loc 1 548 1 is_stmt 1 view -0
 649              		.cfi_startproc
 650              		@ args = 0, pretend = 0, frame = 0
 651              		@ frame_needed = 0, uses_anonymous_args = 0
 549:luaglue.c     **** 	
 652              		.loc 1 549 2 view .LVU159
 653              	@ luaglue.c:549: 	Matrix3D* p = m3d_malloc(sizeof(Matrix3D));
 549:luaglue.c     **** 	
 654              		.loc 1 549 16 is_stmt 0 view .LVU160
 655 0000 3B4B     		ldr	r3, .L13	@ tmp168,
ARM GAS  /var/folders/cs/83z6p2tj4w57s6p2rt8nwfp00000gn/T//ccYNfdJn.s 			page 25


 656 0002 3421     		movs	r1, #52	@,
 657 0004 0020     		movs	r0, #0	@,
 658              	.LVL42:
 549:luaglue.c     **** 	
 659              		.loc 1 549 16 view .LVU161
 660 0006 1B68     		ldr	r3, [r3]	@ m3d_realloc, m3d_realloc
 661              	@ luaglue.c:548: {
 548:luaglue.c     **** 	Matrix3D* p = m3d_malloc(sizeof(Matrix3D));
 662              		.loc 1 548 1 view .LVU162
 663 0008 70B5     		push	{r4, r5, r6, lr}	@
 664              	.LCFI4:
 665              		.cfi_def_cfa_offset 16
 666              		.cfi_offset 4, -16
 667              		.cfi_offset 5, -12
 668              		.cfi_offset 6, -8
 669              		.cfi_offset 14, -4
 670              	@ luaglue.c:552: 	p->m[0][0] = pd->lua->getArgFloat(1);
 552:luaglue.c     **** 	p->m[0][1] = pd->lua->getArgFloat(2);
 671              		.loc 1 552 17 view .LVU163
 672 000a 3A4D     		ldr	r5, .L13+4	@ tmp172,
 673              	@ luaglue.c:549: 	Matrix3D* p = m3d_malloc(sizeof(Matrix3D));
 549:luaglue.c     **** 	
 674              		.loc 1 549 16 view .LVU164
 675 000c 9847     		blx	r3		@ m3d_realloc
 676              	.LVL43:
 677 000e 0446     		mov	r4, r0	@ tmp231,
 678              	@ luaglue.c:552: 	p->m[0][0] = pd->lua->getArgFloat(1);
 552:luaglue.c     **** 	p->m[0][1] = pd->lua->getArgFloat(2);
 679              		.loc 1 552 15 view .LVU165
 680 0010 0120     		movs	r0, #1	@,
 681              	.LVL44:
 551:luaglue.c     **** 	p->m[0][0] = pd->lua->getArgFloat(1);
 682              		.loc 1 551 2 is_stmt 1 view .LVU166
 683              	@ luaglue.c:552: 	p->m[0][0] = pd->lua->getArgFloat(1);
 552:luaglue.c     **** 	p->m[0][1] = pd->lua->getArgFloat(2);
 684              		.loc 1 552 17 is_stmt 0 view .LVU167
 685 0012 2B68     		ldr	r3, [r5]	@ pd, pd
 686              	@ luaglue.c:552: 	p->m[0][0] = pd->lua->getArgFloat(1);
 552:luaglue.c     **** 	p->m[0][1] = pd->lua->getArgFloat(2);
 687              		.loc 1 552 22 view .LVU168
 688 0014 9A69     		ldr	r2, [r3, #24]	@ pd.28_2->lua, pd.28_2->lua
 689              	@ luaglue.c:551: 	p->isIdentity = 0;
 551:luaglue.c     **** 	p->m[0][0] = pd->lua->getArgFloat(1);
 690              		.loc 1 551 16 view .LVU169
 691 0016 2378     		ldrb	r3, [r4]	@ zero_extendqisi2	@, p_58->isIdentity
 692              	@ luaglue.c:552: 	p->m[0][0] = pd->lua->getArgFloat(1);
 552:luaglue.c     **** 	p->m[0][1] = pd->lua->getArgFloat(2);
 693              		.loc 1 552 15 view .LVU170
 694 0018 D26A     		ldr	r2, [r2, #44]	@ _3->getArgFloat, _3->getArgFloat
 695              	@ luaglue.c:551: 	p->isIdentity = 0;
 551:luaglue.c     **** 	p->m[0][0] = pd->lua->getArgFloat(1);
 696              		.loc 1 551 16 view .LVU171
 697 001a 6FF30003 		bfc	r3, #0, #1	@ p_58->isIdentity,,
 698 001e 2370     		strb	r3, [r4]	@ p_58->isIdentity, p_58->isIdentity
 552:luaglue.c     **** 	p->m[0][1] = pd->lua->getArgFloat(2);
 699              		.loc 1 552 2 is_stmt 1 view .LVU172
 700              	@ luaglue.c:552: 	p->m[0][0] = pd->lua->getArgFloat(1);
ARM GAS  /var/folders/cs/83z6p2tj4w57s6p2rt8nwfp00000gn/T//ccYNfdJn.s 			page 26


 552:luaglue.c     **** 	p->m[0][1] = pd->lua->getArgFloat(2);
 701              		.loc 1 552 15 is_stmt 0 view .LVU173
 702 0020 9047     		blx	r2		@ _3->getArgFloat
 703              	.LVL45:
 704              	@ luaglue.c:553: 	p->m[0][1] = pd->lua->getArgFloat(2);
 553:luaglue.c     **** 	p->m[0][2] = pd->lua->getArgFloat(3);
 705              		.loc 1 553 17 view .LVU174
 706 0022 2B68     		ldr	r3, [r5]	@ pd, pd
 707              	@ luaglue.c:553: 	p->m[0][1] = pd->lua->getArgFloat(2);
 553:luaglue.c     **** 	p->m[0][2] = pd->lua->getArgFloat(3);
 708              		.loc 1 553 15 view .LVU175
 709 0024 0220     		movs	r0, #2	@,
 710              	@ luaglue.c:552: 	p->m[0][0] = pd->lua->getArgFloat(1);
 552:luaglue.c     **** 	p->m[0][1] = pd->lua->getArgFloat(2);
 711              		.loc 1 552 13 view .LVU176
 712 0026 84ED010A 		vstr.32	s0, [r4, #4]	@ tmp232, p_58->m
 553:luaglue.c     **** 	p->m[0][2] = pd->lua->getArgFloat(3);
 713              		.loc 1 553 2 is_stmt 1 view .LVU177
 714              	@ luaglue.c:553: 	p->m[0][1] = pd->lua->getArgFloat(2);
 553:luaglue.c     **** 	p->m[0][2] = pd->lua->getArgFloat(3);
 715              		.loc 1 553 22 is_stmt 0 view .LVU178
 716 002a 9B69     		ldr	r3, [r3, #24]	@ pd.29_6->lua, pd.29_6->lua
 717              	@ luaglue.c:553: 	p->m[0][1] = pd->lua->getArgFloat(2);
 553:luaglue.c     **** 	p->m[0][2] = pd->lua->getArgFloat(3);
 718              		.loc 1 553 15 view .LVU179
 719 002c DB6A     		ldr	r3, [r3, #44]	@ _7->getArgFloat, _7->getArgFloat
 720 002e 9847     		blx	r3		@ _7->getArgFloat
 721              	.LVL46:
 722              	@ luaglue.c:554: 	p->m[0][2] = pd->lua->getArgFloat(3);
 554:luaglue.c     **** 	p->m[1][0] = pd->lua->getArgFloat(4);
 723              		.loc 1 554 17 view .LVU180
 724 0030 2B68     		ldr	r3, [r5]	@ pd, pd
 725              	@ luaglue.c:554: 	p->m[0][2] = pd->lua->getArgFloat(3);
 554:luaglue.c     **** 	p->m[1][0] = pd->lua->getArgFloat(4);
 726              		.loc 1 554 15 view .LVU181
 727 0032 0320     		movs	r0, #3	@,
 728              	@ luaglue.c:553: 	p->m[0][1] = pd->lua->getArgFloat(2);
 553:luaglue.c     **** 	p->m[0][2] = pd->lua->getArgFloat(3);
 729              		.loc 1 553 13 view .LVU182
 730 0034 84ED020A 		vstr.32	s0, [r4, #8]	@ tmp233, p_58->m
 554:luaglue.c     **** 	p->m[1][0] = pd->lua->getArgFloat(4);
 731              		.loc 1 554 2 is_stmt 1 view .LVU183
 732              	@ luaglue.c:554: 	p->m[0][2] = pd->lua->getArgFloat(3);
 554:luaglue.c     **** 	p->m[1][0] = pd->lua->getArgFloat(4);
 733              		.loc 1 554 22 is_stmt 0 view .LVU184
 734 0038 9B69     		ldr	r3, [r3, #24]	@ pd.30_10->lua, pd.30_10->lua
 735              	@ luaglue.c:554: 	p->m[0][2] = pd->lua->getArgFloat(3);
 554:luaglue.c     **** 	p->m[1][0] = pd->lua->getArgFloat(4);
 736              		.loc 1 554 15 view .LVU185
 737 003a DB6A     		ldr	r3, [r3, #44]	@ _11->getArgFloat, _11->getArgFloat
 738 003c 9847     		blx	r3		@ _11->getArgFloat
 739              	.LVL47:
 740              	@ luaglue.c:555: 	p->m[1][0] = pd->lua->getArgFloat(4);
 555:luaglue.c     **** 	p->m[1][1] = pd->lua->getArgFloat(5);
 741              		.loc 1 555 17 view .LVU186
 742 003e 2B68     		ldr	r3, [r5]	@ pd, pd
 743              	@ luaglue.c:555: 	p->m[1][0] = pd->lua->getArgFloat(4);
ARM GAS  /var/folders/cs/83z6p2tj4w57s6p2rt8nwfp00000gn/T//ccYNfdJn.s 			page 27


 555:luaglue.c     **** 	p->m[1][1] = pd->lua->getArgFloat(5);
 744              		.loc 1 555 15 view .LVU187
 745 0040 0420     		movs	r0, #4	@,
 746              	@ luaglue.c:554: 	p->m[0][2] = pd->lua->getArgFloat(3);
 554:luaglue.c     **** 	p->m[1][0] = pd->lua->getArgFloat(4);
 747              		.loc 1 554 13 view .LVU188
 748 0042 84ED030A 		vstr.32	s0, [r4, #12]	@ tmp234, p_58->m
 555:luaglue.c     **** 	p->m[1][1] = pd->lua->getArgFloat(5);
 749              		.loc 1 555 2 is_stmt 1 view .LVU189
 750              	@ luaglue.c:555: 	p->m[1][0] = pd->lua->getArgFloat(4);
 555:luaglue.c     **** 	p->m[1][1] = pd->lua->getArgFloat(5);
 751              		.loc 1 555 22 is_stmt 0 view .LVU190
 752 0046 9B69     		ldr	r3, [r3, #24]	@ pd.31_14->lua, pd.31_14->lua
 753              	@ luaglue.c:555: 	p->m[1][0] = pd->lua->getArgFloat(4);
 555:luaglue.c     **** 	p->m[1][1] = pd->lua->getArgFloat(5);
 754              		.loc 1 555 15 view .LVU191
 755 0048 DB6A     		ldr	r3, [r3, #44]	@ _15->getArgFloat, _15->getArgFloat
 756 004a 9847     		blx	r3		@ _15->getArgFloat
 757              	.LVL48:
 758              	@ luaglue.c:556: 	p->m[1][1] = pd->lua->getArgFloat(5);
 556:luaglue.c     **** 	p->m[1][2] = pd->lua->getArgFloat(6);
 759              		.loc 1 556 17 view .LVU192
 760 004c 2B68     		ldr	r3, [r5]	@ pd, pd
 761              	@ luaglue.c:556: 	p->m[1][1] = pd->lua->getArgFloat(5);
 556:luaglue.c     **** 	p->m[1][2] = pd->lua->getArgFloat(6);
 762              		.loc 1 556 15 view .LVU193
 763 004e 0520     		movs	r0, #5	@,
 764              	@ luaglue.c:555: 	p->m[1][0] = pd->lua->getArgFloat(4);
 555:luaglue.c     **** 	p->m[1][1] = pd->lua->getArgFloat(5);
 765              		.loc 1 555 13 view .LVU194
 766 0050 84ED040A 		vstr.32	s0, [r4, #16]	@ tmp235, p_58->m
 556:luaglue.c     **** 	p->m[1][2] = pd->lua->getArgFloat(6);
 767              		.loc 1 556 2 is_stmt 1 view .LVU195
 768              	@ luaglue.c:556: 	p->m[1][1] = pd->lua->getArgFloat(5);
 556:luaglue.c     **** 	p->m[1][2] = pd->lua->getArgFloat(6);
 769              		.loc 1 556 22 is_stmt 0 view .LVU196
 770 0054 9B69     		ldr	r3, [r3, #24]	@ pd.32_18->lua, pd.32_18->lua
 771              	@ luaglue.c:556: 	p->m[1][1] = pd->lua->getArgFloat(5);
 556:luaglue.c     **** 	p->m[1][2] = pd->lua->getArgFloat(6);
 772              		.loc 1 556 15 view .LVU197
 773 0056 DB6A     		ldr	r3, [r3, #44]	@ _19->getArgFloat, _19->getArgFloat
 774 0058 9847     		blx	r3		@ _19->getArgFloat
 775              	.LVL49:
 776              	@ luaglue.c:557: 	p->m[1][2] = pd->lua->getArgFloat(6);
 557:luaglue.c     **** 	p->m[2][0] = pd->lua->getArgFloat(7);
 777              		.loc 1 557 17 view .LVU198
 778 005a 2B68     		ldr	r3, [r5]	@ pd, pd
 779              	@ luaglue.c:557: 	p->m[1][2] = pd->lua->getArgFloat(6);
 557:luaglue.c     **** 	p->m[2][0] = pd->lua->getArgFloat(7);
 780              		.loc 1 557 15 view .LVU199
 781 005c 0620     		movs	r0, #6	@,
 782              	@ luaglue.c:556: 	p->m[1][1] = pd->lua->getArgFloat(5);
 556:luaglue.c     **** 	p->m[1][2] = pd->lua->getArgFloat(6);
 783              		.loc 1 556 13 view .LVU200
 784 005e 84ED050A 		vstr.32	s0, [r4, #20]	@ tmp236, p_58->m
 557:luaglue.c     **** 	p->m[2][0] = pd->lua->getArgFloat(7);
 785              		.loc 1 557 2 is_stmt 1 view .LVU201
ARM GAS  /var/folders/cs/83z6p2tj4w57s6p2rt8nwfp00000gn/T//ccYNfdJn.s 			page 28


 786              	@ luaglue.c:557: 	p->m[1][2] = pd->lua->getArgFloat(6);
 557:luaglue.c     **** 	p->m[2][0] = pd->lua->getArgFloat(7);
 787              		.loc 1 557 22 is_stmt 0 view .LVU202
 788 0062 9B69     		ldr	r3, [r3, #24]	@ pd.33_22->lua, pd.33_22->lua
 789              	@ luaglue.c:557: 	p->m[1][2] = pd->lua->getArgFloat(6);
 557:luaglue.c     **** 	p->m[2][0] = pd->lua->getArgFloat(7);
 790              		.loc 1 557 15 view .LVU203
 791 0064 DB6A     		ldr	r3, [r3, #44]	@ _23->getArgFloat, _23->getArgFloat
 792 0066 9847     		blx	r3		@ _23->getArgFloat
 793              	.LVL50:
 794              	@ luaglue.c:558: 	p->m[2][0] = pd->lua->getArgFloat(7);
 558:luaglue.c     **** 	p->m[2][1] = pd->lua->getArgFloat(8);
 795              		.loc 1 558 17 view .LVU204
 796 0068 2B68     		ldr	r3, [r5]	@ pd, pd
 797              	@ luaglue.c:558: 	p->m[2][0] = pd->lua->getArgFloat(7);
 558:luaglue.c     **** 	p->m[2][1] = pd->lua->getArgFloat(8);
 798              		.loc 1 558 15 view .LVU205
 799 006a 0720     		movs	r0, #7	@,
 800              	@ luaglue.c:557: 	p->m[1][2] = pd->lua->getArgFloat(6);
 557:luaglue.c     **** 	p->m[2][0] = pd->lua->getArgFloat(7);
 801              		.loc 1 557 13 view .LVU206
 802 006c 84ED060A 		vstr.32	s0, [r4, #24]	@ tmp237, p_58->m
 558:luaglue.c     **** 	p->m[2][1] = pd->lua->getArgFloat(8);
 803              		.loc 1 558 2 is_stmt 1 view .LVU207
 804              	@ luaglue.c:558: 	p->m[2][0] = pd->lua->getArgFloat(7);
 558:luaglue.c     **** 	p->m[2][1] = pd->lua->getArgFloat(8);
 805              		.loc 1 558 22 is_stmt 0 view .LVU208
 806 0070 9B69     		ldr	r3, [r3, #24]	@ pd.34_26->lua, pd.34_26->lua
 807              	@ luaglue.c:558: 	p->m[2][0] = pd->lua->getArgFloat(7);
 558:luaglue.c     **** 	p->m[2][1] = pd->lua->getArgFloat(8);
 808              		.loc 1 558 15 view .LVU209
 809 0072 DB6A     		ldr	r3, [r3, #44]	@ _27->getArgFloat, _27->getArgFloat
 810 0074 9847     		blx	r3		@ _27->getArgFloat
 811              	.LVL51:
 812              	@ luaglue.c:559: 	p->m[2][1] = pd->lua->getArgFloat(8);
 559:luaglue.c     **** 	p->m[2][2] = pd->lua->getArgFloat(9);
 813              		.loc 1 559 17 view .LVU210
 814 0076 2B68     		ldr	r3, [r5]	@ pd, pd
 815              	@ luaglue.c:559: 	p->m[2][1] = pd->lua->getArgFloat(8);
 559:luaglue.c     **** 	p->m[2][2] = pd->lua->getArgFloat(9);
 816              		.loc 1 559 15 view .LVU211
 817 0078 0820     		movs	r0, #8	@,
 818              	@ luaglue.c:558: 	p->m[2][0] = pd->lua->getArgFloat(7);
 558:luaglue.c     **** 	p->m[2][1] = pd->lua->getArgFloat(8);
 819              		.loc 1 558 13 view .LVU212
 820 007a 84ED070A 		vstr.32	s0, [r4, #28]	@ tmp238, p_58->m
 559:luaglue.c     **** 	p->m[2][2] = pd->lua->getArgFloat(9);
 821              		.loc 1 559 2 is_stmt 1 view .LVU213
 822              	@ luaglue.c:559: 	p->m[2][1] = pd->lua->getArgFloat(8);
 559:luaglue.c     **** 	p->m[2][2] = pd->lua->getArgFloat(9);
 823              		.loc 1 559 22 is_stmt 0 view .LVU214
 824 007e 9B69     		ldr	r3, [r3, #24]	@ pd.35_30->lua, pd.35_30->lua
 825              	@ luaglue.c:559: 	p->m[2][1] = pd->lua->getArgFloat(8);
 559:luaglue.c     **** 	p->m[2][2] = pd->lua->getArgFloat(9);
 826              		.loc 1 559 15 view .LVU215
 827 0080 DB6A     		ldr	r3, [r3, #44]	@ _31->getArgFloat, _31->getArgFloat
 828 0082 9847     		blx	r3		@ _31->getArgFloat
ARM GAS  /var/folders/cs/83z6p2tj4w57s6p2rt8nwfp00000gn/T//ccYNfdJn.s 			page 29


 829              	.LVL52:
 830              	@ luaglue.c:560: 	p->m[2][2] = pd->lua->getArgFloat(9);
 560:luaglue.c     **** 	p->dx = pd->lua->getArgFloat(10);
 831              		.loc 1 560 17 view .LVU216
 832 0084 2B68     		ldr	r3, [r5]	@ pd, pd
 833              	@ luaglue.c:560: 	p->m[2][2] = pd->lua->getArgFloat(9);
 560:luaglue.c     **** 	p->dx = pd->lua->getArgFloat(10);
 834              		.loc 1 560 15 view .LVU217
 835 0086 0920     		movs	r0, #9	@,
 836              	@ luaglue.c:559: 	p->m[2][1] = pd->lua->getArgFloat(8);
 559:luaglue.c     **** 	p->m[2][2] = pd->lua->getArgFloat(9);
 837              		.loc 1 559 13 view .LVU218
 838 0088 84ED080A 		vstr.32	s0, [r4, #32]	@ tmp239, p_58->m
 560:luaglue.c     **** 	p->dx = pd->lua->getArgFloat(10);
 839              		.loc 1 560 2 is_stmt 1 view .LVU219
 840              	@ luaglue.c:560: 	p->m[2][2] = pd->lua->getArgFloat(9);
 560:luaglue.c     **** 	p->dx = pd->lua->getArgFloat(10);
 841              		.loc 1 560 22 is_stmt 0 view .LVU220
 842 008c 9B69     		ldr	r3, [r3, #24]	@ pd.36_34->lua, pd.36_34->lua
 843              	@ luaglue.c:560: 	p->m[2][2] = pd->lua->getArgFloat(9);
 560:luaglue.c     **** 	p->dx = pd->lua->getArgFloat(10);
 844              		.loc 1 560 15 view .LVU221
 845 008e DB6A     		ldr	r3, [r3, #44]	@ _35->getArgFloat, _35->getArgFloat
 846 0090 9847     		blx	r3		@ _35->getArgFloat
 847              	.LVL53:
 848              	@ luaglue.c:561: 	p->dx = pd->lua->getArgFloat(10);
 561:luaglue.c     **** 	p->dy = pd->lua->getArgFloat(11);
 849              		.loc 1 561 12 view .LVU222
 850 0092 2B68     		ldr	r3, [r5]	@ pd, pd
 851              	@ luaglue.c:561: 	p->dx = pd->lua->getArgFloat(10);
 561:luaglue.c     **** 	p->dy = pd->lua->getArgFloat(11);
 852              		.loc 1 561 10 view .LVU223
 853 0094 0A20     		movs	r0, #10	@,
 854              	@ luaglue.c:560: 	p->m[2][2] = pd->lua->getArgFloat(9);
 560:luaglue.c     **** 	p->dx = pd->lua->getArgFloat(10);
 855              		.loc 1 560 13 view .LVU224
 856 0096 84ED090A 		vstr.32	s0, [r4, #36]	@ tmp240, p_58->m
 561:luaglue.c     **** 	p->dy = pd->lua->getArgFloat(11);
 857              		.loc 1 561 2 is_stmt 1 view .LVU225
 858              	@ luaglue.c:561: 	p->dx = pd->lua->getArgFloat(10);
 561:luaglue.c     **** 	p->dy = pd->lua->getArgFloat(11);
 859              		.loc 1 561 17 is_stmt 0 view .LVU226
 860 009a 9B69     		ldr	r3, [r3, #24]	@ pd.37_38->lua, pd.37_38->lua
 861              	@ luaglue.c:561: 	p->dx = pd->lua->getArgFloat(10);
 561:luaglue.c     **** 	p->dy = pd->lua->getArgFloat(11);
 862              		.loc 1 561 10 view .LVU227
 863 009c DB6A     		ldr	r3, [r3, #44]	@ _39->getArgFloat, _39->getArgFloat
 864 009e 9847     		blx	r3		@ _39->getArgFloat
 865              	.LVL54:
 866              	@ luaglue.c:562: 	p->dy = pd->lua->getArgFloat(11);
 562:luaglue.c     **** 	p->dz = pd->lua->getArgFloat(12);
 867              		.loc 1 562 12 view .LVU228
 868 00a0 2B68     		ldr	r3, [r5]	@ pd, pd
 869              	@ luaglue.c:562: 	p->dy = pd->lua->getArgFloat(11);
 562:luaglue.c     **** 	p->dz = pd->lua->getArgFloat(12);
 870              		.loc 1 562 10 view .LVU229
 871 00a2 0B20     		movs	r0, #11	@,
ARM GAS  /var/folders/cs/83z6p2tj4w57s6p2rt8nwfp00000gn/T//ccYNfdJn.s 			page 30


 872              	@ luaglue.c:561: 	p->dx = pd->lua->getArgFloat(10);
 561:luaglue.c     **** 	p->dy = pd->lua->getArgFloat(11);
 873              		.loc 1 561 8 view .LVU230
 874 00a4 84ED0A0A 		vstr.32	s0, [r4, #40]	@ tmp241, p_58->dx
 562:luaglue.c     **** 	p->dz = pd->lua->getArgFloat(12);
 875              		.loc 1 562 2 is_stmt 1 view .LVU231
 876              	@ luaglue.c:562: 	p->dy = pd->lua->getArgFloat(11);
 562:luaglue.c     **** 	p->dz = pd->lua->getArgFloat(12);
 877              		.loc 1 562 17 is_stmt 0 view .LVU232
 878 00a8 9B69     		ldr	r3, [r3, #24]	@ pd.38_42->lua, pd.38_42->lua
 879              	@ luaglue.c:562: 	p->dy = pd->lua->getArgFloat(11);
 562:luaglue.c     **** 	p->dz = pd->lua->getArgFloat(12);
 880              		.loc 1 562 10 view .LVU233
 881 00aa DB6A     		ldr	r3, [r3, #44]	@ _43->getArgFloat, _43->getArgFloat
 882 00ac 9847     		blx	r3		@ _43->getArgFloat
 883              	.LVL55:
 884              	@ luaglue.c:563: 	p->dz = pd->lua->getArgFloat(12);
 563:luaglue.c     **** 
 885              		.loc 1 563 12 view .LVU234
 886 00ae 2B68     		ldr	r3, [r5]	@ pd, pd
 887              	@ luaglue.c:563: 	p->dz = pd->lua->getArgFloat(12);
 563:luaglue.c     **** 
 888              		.loc 1 563 10 view .LVU235
 889 00b0 0C20     		movs	r0, #12	@,
 890              	@ luaglue.c:562: 	p->dy = pd->lua->getArgFloat(11);
 562:luaglue.c     **** 	p->dz = pd->lua->getArgFloat(12);
 891              		.loc 1 562 8 view .LVU236
 892 00b2 84ED0B0A 		vstr.32	s0, [r4, #44]	@ tmp242, p_58->dy
 563:luaglue.c     **** 
 893              		.loc 1 563 2 is_stmt 1 view .LVU237
 894              	@ luaglue.c:563: 	p->dz = pd->lua->getArgFloat(12);
 563:luaglue.c     **** 
 895              		.loc 1 563 17 is_stmt 0 view .LVU238
 896 00b6 9B69     		ldr	r3, [r3, #24]	@ pd.39_46->lua, pd.39_46->lua
 897              	@ luaglue.c:563: 	p->dz = pd->lua->getArgFloat(12);
 563:luaglue.c     **** 
 898              		.loc 1 563 10 view .LVU239
 899 00b8 DB6A     		ldr	r3, [r3, #44]	@ _47->getArgFloat, _47->getArgFloat
 900 00ba 9847     		blx	r3		@ _47->getArgFloat
 901              	.LVL56:
 902              	@ luaglue.c:565: 	p->inverting = Matrix3D_getDeterminant(p) < 0;
 565:luaglue.c     **** 	
 903              		.loc 1 565 17 view .LVU240
 904 00bc 2046     		mov	r0, r4	@, p
 905              	@ luaglue.c:563: 	p->dz = pd->lua->getArgFloat(12);
 563:luaglue.c     **** 
 906              		.loc 1 563 8 view .LVU241
 907 00be 84ED0C0A 		vstr.32	s0, [r4, #48]	@ tmp243, p_58->dz
 565:luaglue.c     **** 	
 908              		.loc 1 565 2 is_stmt 1 view .LVU242
 909              	@ luaglue.c:565: 	p->inverting = Matrix3D_getDeterminant(p) < 0;
 565:luaglue.c     **** 	
 910              		.loc 1 565 17 is_stmt 0 view .LVU243
 911 00c2 FFF7FEFF 		bl	Matrix3D_getDeterminant		@
 912              	.LVL57:
 913              	@ luaglue.c:565: 	p->inverting = Matrix3D_getDeterminant(p) < 0;
 565:luaglue.c     **** 	
ARM GAS  /var/folders/cs/83z6p2tj4w57s6p2rt8nwfp00000gn/T//ccYNfdJn.s 			page 31


 914              		.loc 1 565 44 view .LVU244
 915 00c6 B5EEC00A 		vcmpe.f32	s0, #0	@ tmp244
 916              	@ luaglue.c:567: 	pd->lua->pushObject(p, "lib3d.matrix", 0);
 567:luaglue.c     **** 	return 1;
 917              		.loc 1 567 4 view .LVU245
 918 00ca 2A68     		ldr	r2, [r5]	@ pd, pd
 919              	@ luaglue.c:567: 	pd->lua->pushObject(p, "lib3d.matrix", 0);
 567:luaglue.c     **** 	return 1;
 920              		.loc 1 567 2 view .LVU246
 921 00cc 2046     		mov	r0, r4	@, p
 922              	@ luaglue.c:565: 	p->inverting = Matrix3D_getDeterminant(p) < 0;
 565:luaglue.c     **** 	
 923              		.loc 1 565 15 view .LVU247
 924 00ce 2378     		ldrb	r3, [r4]	@ zero_extendqisi2	@, p_58->inverting
 925              	@ luaglue.c:565: 	p->inverting = Matrix3D_getDeterminant(p) < 0;
 565:luaglue.c     **** 	
 926              		.loc 1 565 44 view .LVU248
 927 00d0 F1EE10FA 		vmrs	APSR_nzcv, FPSCR
 928              	@ luaglue.c:567: 	pd->lua->pushObject(p, "lib3d.matrix", 0);
 567:luaglue.c     **** 	return 1;
 929              		.loc 1 567 9 view .LVU249
 930 00d4 9169     		ldr	r1, [r2, #24]	@ pd.40_53->lua, pd.40_53->lua
 931              	@ luaglue.c:567: 	pd->lua->pushObject(p, "lib3d.matrix", 0);
 567:luaglue.c     **** 	return 1;
 932              		.loc 1 567 2 view .LVU250
 933 00d6 4FF00002 		mov	r2, #0	@,
 934 00da 4D6E     		ldr	r5, [r1, #100]	@ _54->pushObject, _54->pushObject
 935              	@ luaglue.c:565: 	p->inverting = Matrix3D_getDeterminant(p) < 0;
 565:luaglue.c     **** 	
 936              		.loc 1 565 44 view .LVU251
 937 00dc 4CBF     		ite	mi
 938 00de 0126     		movmi	r6, #1	@ tmp221,
 939 00e0 1646     		movpl	r6, r2	@ tmp221,
 940              	@ luaglue.c:567: 	pd->lua->pushObject(p, "lib3d.matrix", 0);
 567:luaglue.c     **** 	return 1;
 941              		.loc 1 567 2 view .LVU252
 942 00e2 0549     		ldr	r1, .L13+8	@,
 943              	@ luaglue.c:565: 	p->inverting = Matrix3D_getDeterminant(p) < 0;
 565:luaglue.c     **** 	
 944              		.loc 1 565 15 view .LVU253
 945 00e4 66F34103 		bfi	r3, r6, #1, #1	@ p_58->inverting, tmp221,,
 946 00e8 2370     		strb	r3, [r4]	@ p_58->inverting, p_58->inverting
 567:luaglue.c     **** 	return 1;
 947              		.loc 1 567 2 is_stmt 1 view .LVU254
 948 00ea A847     		blx	r5		@ _54->pushObject
 949              	.LVL58:
 568:luaglue.c     **** }
 950              		.loc 1 568 2 view .LVU255
 951              	@ luaglue.c:569: }
 569:luaglue.c     **** 
 952              		.loc 1 569 1 is_stmt 0 view .LVU256
 953 00ec 0120     		movs	r0, #1	@,
 954 00ee 70BD     		pop	{r4, r5, r6, pc}	@
 955              	.LVL59:
 956              	.L14:
 569:luaglue.c     **** 
 957              		.loc 1 569 1 view .LVU257
ARM GAS  /var/folders/cs/83z6p2tj4w57s6p2rt8nwfp00000gn/T//ccYNfdJn.s 			page 32


 958              		.align	2
 959              	.L13:
 960 00f0 00000000 		.word	m3d_realloc
 961 00f4 00000000 		.word	.LANCHOR0
 962 00f8 00000000 		.word	.LC1
 963              		.cfi_endproc
 964              	.LFE65:
 965              		.size	matrix_new, .-matrix_new
 966              		.section	.rodata.shape_new.str1.4,"aMS",%progbits,1
 967              		.align	2
 968              	.LC2:
 969 0000 6C696233 		.ascii	"lib3d.shape\000"
 969      642E7368 
 969      61706500 
 970              		.section	.text.shape_new,"ax",%progbits
 971              		.align	1
 972              		.p2align 4,,15
 973              		.syntax unified
 974              		.thumb
 975              		.thumb_func
 976              		.fpu fpv5-sp-d16
 977              		.type	shape_new, %function
 978              	shape_new:
 979              	.LVL60:
 980              	.LFB53:
 387:luaglue.c     **** 	Shape3D* shape = m3d_malloc(sizeof(Shape3D));
 981              		.loc 1 387 1 is_stmt 1 view -0
 982              		.cfi_startproc
 983              		@ args = 0, pretend = 0, frame = 0
 984              		@ frame_needed = 0, uses_anonymous_args = 0
 388:luaglue.c     **** 	Shape3D_init(shape);
 985              		.loc 1 388 2 view .LVU259
 986              	@ luaglue.c:388: 	Shape3D* shape = m3d_malloc(sizeof(Shape3D));
 388:luaglue.c     **** 	Shape3D_init(shape);
 987              		.loc 1 388 19 is_stmt 0 view .LVU260
 988 0000 0A4B     		ldr	r3, .L17	@ tmp117,
 989 0002 2C21     		movs	r1, #44	@,
 990 0004 0020     		movs	r0, #0	@,
 991              	.LVL61:
 388:luaglue.c     **** 	Shape3D_init(shape);
 992              		.loc 1 388 19 view .LVU261
 993 0006 1B68     		ldr	r3, [r3]	@ m3d_realloc, m3d_realloc
 994              	@ luaglue.c:387: {
 387:luaglue.c     **** 	Shape3D* shape = m3d_malloc(sizeof(Shape3D));
 995              		.loc 1 387 1 view .LVU262
 996 0008 10B5     		push	{r4, lr}	@
 997              	.LCFI5:
 998              		.cfi_def_cfa_offset 8
 999              		.cfi_offset 4, -8
 1000              		.cfi_offset 14, -4
 1001              	@ luaglue.c:388: 	Shape3D* shape = m3d_malloc(sizeof(Shape3D));
 388:luaglue.c     **** 	Shape3D_init(shape);
 1002              		.loc 1 388 19 view .LVU263
 1003 000a 9847     		blx	r3		@ m3d_realloc
 1004              	.LVL62:
 1005 000c 0446     		mov	r4, r0	@ shape, tmp125
 1006              	.LVL63:
ARM GAS  /var/folders/cs/83z6p2tj4w57s6p2rt8nwfp00000gn/T//ccYNfdJn.s 			page 33


 389:luaglue.c     **** 	Shape3D_retain(shape);
 1007              		.loc 1 389 2 is_stmt 1 view .LVU264
 1008 000e FFF7FEFF 		bl	Shape3D_init		@
 1009              	.LVL64:
 390:luaglue.c     **** 	pd->lua->pushObject(shape, "lib3d.shape", 0);
 1010              		.loc 1 390 2 view .LVU265
 1011 0012 2046     		mov	r0, r4	@, shape
 1012 0014 FFF7FEFF 		bl	Shape3D_retain		@
 1013              	.LVL65:
 391:luaglue.c     **** 	return 1;
 1014              		.loc 1 391 2 view .LVU266
 1015              	@ luaglue.c:391: 	pd->lua->pushObject(shape, "lib3d.shape", 0);
 391:luaglue.c     **** 	return 1;
 1016              		.loc 1 391 4 is_stmt 0 view .LVU267
 1017 0018 054B     		ldr	r3, .L17+4	@ tmp120,
 1018              	@ luaglue.c:391: 	pd->lua->pushObject(shape, "lib3d.shape", 0);
 391:luaglue.c     **** 	return 1;
 1019              		.loc 1 391 2 view .LVU268
 1020 001a 2046     		mov	r0, r4	@, shape
 1021 001c 0022     		movs	r2, #0	@,
 1022              	@ luaglue.c:391: 	pd->lua->pushObject(shape, "lib3d.shape", 0);
 391:luaglue.c     **** 	return 1;
 1023              		.loc 1 391 4 view .LVU269
 1024 001e 1B68     		ldr	r3, [r3]	@ pd, pd
 1025              	@ luaglue.c:391: 	pd->lua->pushObject(shape, "lib3d.shape", 0);
 391:luaglue.c     **** 	return 1;
 1026              		.loc 1 391 2 view .LVU270
 1027 0020 0449     		ldr	r1, .L17+8	@,
 1028              	@ luaglue.c:391: 	pd->lua->pushObject(shape, "lib3d.shape", 0);
 391:luaglue.c     **** 	return 1;
 1029              		.loc 1 391 9 view .LVU271
 1030 0022 9B69     		ldr	r3, [r3, #24]	@ pd.68_2->lua, pd.68_2->lua
 1031              	@ luaglue.c:391: 	pd->lua->pushObject(shape, "lib3d.shape", 0);
 391:luaglue.c     **** 	return 1;
 1032              		.loc 1 391 2 view .LVU272
 1033 0024 5B6E     		ldr	r3, [r3, #100]	@ _3->pushObject, _3->pushObject
 1034 0026 9847     		blx	r3		@ _3->pushObject
 1035              	.LVL66:
 392:luaglue.c     **** }
 1036              		.loc 1 392 2 is_stmt 1 view .LVU273
 1037              	@ luaglue.c:393: }
 393:luaglue.c     **** 
 1038              		.loc 1 393 1 is_stmt 0 view .LVU274
 1039 0028 0120     		movs	r0, #1	@,
 1040 002a 10BD     		pop	{r4, pc}	@
 1041              	.LVL67:
 1042              	.L18:
 393:luaglue.c     **** 
 1043              		.loc 1 393 1 view .LVU275
 1044              		.align	2
 1045              	.L17:
 1046 002c 00000000 		.word	m3d_realloc
 1047 0030 00000000 		.word	.LANCHOR0
 1048 0034 00000000 		.word	.LC2
 1049              		.cfi_endproc
 1050              	.LFE53:
 1051              		.size	shape_new, .-shape_new
ARM GAS  /var/folders/cs/83z6p2tj4w57s6p2rt8nwfp00000gn/T//ccYNfdJn.s 			page 34


 1052              		.section	.rodata.scene_new.str1.4,"aMS",%progbits,1
 1053              		.align	2
 1054              	.LC3:
 1055 0000 6C696233 		.ascii	"lib3d.scene\000"
 1055      642E7363 
 1055      656E6500 
 1056              		.section	.text.scene_new,"ax",%progbits
 1057              		.align	1
 1058              		.p2align 4,,15
 1059              		.syntax unified
 1060              		.thumb
 1061              		.thumb_func
 1062              		.fpu fpv5-sp-d16
 1063              		.type	scene_new, %function
 1064              	scene_new:
 1065              	.LVL68:
 1066              	.LFB30:
  37:luaglue.c     **** 	Scene3D* scene = m3d_malloc(sizeof(Scene3D));
 1067              		.loc 1 37 1 is_stmt 1 view -0
 1068              		.cfi_startproc
 1069              		@ args = 0, pretend = 0, frame = 0
 1070              		@ frame_needed = 0, uses_anonymous_args = 0
  38:luaglue.c     **** 	Scene3D_init(scene);
 1071              		.loc 1 38 2 view .LVU277
 1072              	@ luaglue.c:38: 	Scene3D* scene = m3d_malloc(sizeof(Scene3D));
  38:luaglue.c     **** 	Scene3D_init(scene);
 1073              		.loc 1 38 19 is_stmt 0 view .LVU278
 1074 0000 094B     		ldr	r3, .L21	@ tmp117,
 1075 0002 B021     		movs	r1, #176	@,
 1076 0004 0020     		movs	r0, #0	@,
 1077              	.LVL69:
  38:luaglue.c     **** 	Scene3D_init(scene);
 1078              		.loc 1 38 19 view .LVU279
 1079 0006 1B68     		ldr	r3, [r3]	@ m3d_realloc, m3d_realloc
 1080              	@ luaglue.c:37: {
  37:luaglue.c     **** 	Scene3D* scene = m3d_malloc(sizeof(Scene3D));
 1081              		.loc 1 37 1 view .LVU280
 1082 0008 10B5     		push	{r4, lr}	@
 1083              	.LCFI6:
 1084              		.cfi_def_cfa_offset 8
 1085              		.cfi_offset 4, -8
 1086              		.cfi_offset 14, -4
 1087              	@ luaglue.c:38: 	Scene3D* scene = m3d_malloc(sizeof(Scene3D));
  38:luaglue.c     **** 	Scene3D_init(scene);
 1088              		.loc 1 38 19 view .LVU281
 1089 000a 9847     		blx	r3		@ m3d_realloc
 1090              	.LVL70:
 1091 000c 0446     		mov	r4, r0	@ scene, tmp125
 1092              	.LVL71:
  39:luaglue.c     **** 	pd->lua->pushObject(scene, "lib3d.scene", 0);
 1093              		.loc 1 39 2 is_stmt 1 view .LVU282
 1094 000e FFF7FEFF 		bl	Scene3D_init		@
 1095              	.LVL72:
  40:luaglue.c     **** 	return 1;
 1096              		.loc 1 40 2 view .LVU283
 1097              	@ luaglue.c:40: 	pd->lua->pushObject(scene, "lib3d.scene", 0);
  40:luaglue.c     **** 	return 1;
ARM GAS  /var/folders/cs/83z6p2tj4w57s6p2rt8nwfp00000gn/T//ccYNfdJn.s 			page 35


 1098              		.loc 1 40 4 is_stmt 0 view .LVU284
 1099 0012 064B     		ldr	r3, .L21+4	@ tmp120,
 1100              	@ luaglue.c:40: 	pd->lua->pushObject(scene, "lib3d.scene", 0);
  40:luaglue.c     **** 	return 1;
 1101              		.loc 1 40 2 view .LVU285
 1102 0014 0022     		movs	r2, #0	@,
 1103 0016 2046     		mov	r0, r4	@, scene
 1104              	@ luaglue.c:40: 	pd->lua->pushObject(scene, "lib3d.scene", 0);
  40:luaglue.c     **** 	return 1;
 1105              		.loc 1 40 4 view .LVU286
 1106 0018 1B68     		ldr	r3, [r3]	@ pd, pd
 1107              	@ luaglue.c:40: 	pd->lua->pushObject(scene, "lib3d.scene", 0);
  40:luaglue.c     **** 	return 1;
 1108              		.loc 1 40 2 view .LVU287
 1109 001a 0549     		ldr	r1, .L21+8	@,
 1110              	@ luaglue.c:40: 	pd->lua->pushObject(scene, "lib3d.scene", 0);
  40:luaglue.c     **** 	return 1;
 1111              		.loc 1 40 9 view .LVU288
 1112 001c 9B69     		ldr	r3, [r3, #24]	@ pd.113_2->lua, pd.113_2->lua
 1113              	@ luaglue.c:40: 	pd->lua->pushObject(scene, "lib3d.scene", 0);
  40:luaglue.c     **** 	return 1;
 1114              		.loc 1 40 2 view .LVU289
 1115 001e 5B6E     		ldr	r3, [r3, #100]	@ _3->pushObject, _3->pushObject
 1116 0020 9847     		blx	r3		@ _3->pushObject
 1117              	.LVL73:
  41:luaglue.c     **** }
 1118              		.loc 1 41 2 is_stmt 1 view .LVU290
 1119              	@ luaglue.c:42: }
  42:luaglue.c     **** 
 1120              		.loc 1 42 1 is_stmt 0 view .LVU291
 1121 0022 0120     		movs	r0, #1	@,
 1122 0024 10BD     		pop	{r4, pc}	@
 1123              	.LVL74:
 1124              	.L22:
  42:luaglue.c     **** 
 1125              		.loc 1 42 1 view .LVU292
 1126 0026 00BF     		.align	2
 1127              	.L21:
 1128 0028 00000000 		.word	m3d_realloc
 1129 002c 00000000 		.word	.LANCHOR0
 1130 0030 00000000 		.word	.LC3
 1131              		.cfi_endproc
 1132              	.LFE30:
 1133              		.size	scene_new, .-scene_new
 1134              		.section	.rodata.get3DObj.str1.4,"aMS",%progbits,1
 1135              		.align	2
 1136              	.LC4:
 1137 0000 6F626A65 		.ascii	"object of type %s not found at stack position %i\000"
 1137      6374206F 
 1137      66207479 
 1137      70652025 
 1137      73206E6F 
 1138              		.section	.text.get3DObj,"ax",%progbits
 1139              		.align	1
 1140              		.p2align 4,,15
 1141              		.syntax unified
 1142              		.thumb
ARM GAS  /var/folders/cs/83z6p2tj4w57s6p2rt8nwfp00000gn/T//ccYNfdJn.s 			page 36


 1143              		.thumb_func
 1144              		.fpu fpv5-sp-d16
 1145              		.type	get3DObj, %function
 1146              	get3DObj:
 1147              	.LVL75:
 1148              	.LFB24:
  19:luaglue.c     **** 	void* obj = pd->lua->getArgObject(n, type, NULL);
 1149              		.loc 1 19 1 is_stmt 1 view -0
 1150              		.cfi_startproc
 1151              		@ args = 0, pretend = 0, frame = 0
 1152              		@ frame_needed = 0, uses_anonymous_args = 0
  20:luaglue.c     **** 	
 1153              		.loc 1 20 2 view .LVU294
 1154              	@ luaglue.c:19: {
  19:luaglue.c     **** 	void* obj = pd->lua->getArgObject(n, type, NULL);
 1155              		.loc 1 19 1 is_stmt 0 view .LVU295
 1156 0000 F8B5     		push	{r3, r4, r5, r6, r7, lr}	@
 1157              	.LCFI7:
 1158              		.cfi_def_cfa_offset 24
 1159              		.cfi_offset 3, -24
 1160              		.cfi_offset 4, -20
 1161              		.cfi_offset 5, -16
 1162              		.cfi_offset 6, -12
 1163              		.cfi_offset 7, -8
 1164              		.cfi_offset 14, -4
 1165              	@ luaglue.c:20: 	void* obj = pd->lua->getArgObject(n, type, NULL);
  20:luaglue.c     **** 	
 1166              		.loc 1 20 16 view .LVU296
 1167 0002 0A4F     		ldr	r7, .L27	@ tmp119,
 1168              	@ luaglue.c:20: 	void* obj = pd->lua->getArgObject(n, type, NULL);
  20:luaglue.c     **** 	
 1169              		.loc 1 20 14 view .LVU297
 1170 0004 0022     		movs	r2, #0	@,
 1171              	@ luaglue.c:19: {
  19:luaglue.c     **** 	void* obj = pd->lua->getArgObject(n, type, NULL);
 1172              		.loc 1 19 1 view .LVU298
 1173 0006 0646     		mov	r6, r0	@ n, tmp129
 1174 0008 0D46     		mov	r5, r1	@ type, tmp130
 1175              	@ luaglue.c:20: 	void* obj = pd->lua->getArgObject(n, type, NULL);
  20:luaglue.c     **** 	
 1176              		.loc 1 20 16 view .LVU299
 1177 000a 3B68     		ldr	r3, [r7]	@ pd, pd
 1178              	@ luaglue.c:20: 	void* obj = pd->lua->getArgObject(n, type, NULL);
  20:luaglue.c     **** 	
 1179              		.loc 1 20 21 view .LVU300
 1180 000c 9B69     		ldr	r3, [r3, #24]	@ pd.19_1->lua, pd.19_1->lua
 1181              	@ luaglue.c:20: 	void* obj = pd->lua->getArgObject(n, type, NULL);
  20:luaglue.c     **** 	
 1182              		.loc 1 20 14 view .LVU301
 1183 000e 9B6B     		ldr	r3, [r3, #56]	@ _2->getArgObject, _2->getArgObject
 1184 0010 9847     		blx	r3		@ _2->getArgObject
 1185              	.LVL76:
  22:luaglue.c     **** 		pd->system->error("object of type %s not found at stack position %i", type, n);
 1186              		.loc 1 22 2 is_stmt 1 view .LVU302
 1187              	@ luaglue.c:22: 	if ( obj == NULL )
  22:luaglue.c     **** 		pd->system->error("object of type %s not found at stack position %i", type, n);
 1188              		.loc 1 22 5 is_stmt 0 view .LVU303
ARM GAS  /var/folders/cs/83z6p2tj4w57s6p2rt8nwfp00000gn/T//ccYNfdJn.s 			page 37


 1189 0012 0446     		mov	r4, r0	@ <retval>, tmp131
 1190 0014 08B1     		cbz	r0, .L26	@ <retval>,
 1191              	@ luaglue.c:26: }
  26:luaglue.c     **** 
 1192              		.loc 1 26 1 view .LVU304
 1193 0016 2046     		mov	r0, r4	@, <retval>
  26:luaglue.c     **** 
 1194              		.loc 1 26 1 view .LVU305
 1195 0018 F8BD     		pop	{r3, r4, r5, r6, r7, pc}	@
 1196              	.LVL77:
 1197              	.L26:
 1198              	.LBB97:
 1199              	.LBI97:
  18:luaglue.c     **** {
 1200              		.loc 1 18 14 is_stmt 1 view .LVU306
 1201              	.LBB98:
  23:luaglue.c     **** 	
 1202              		.loc 1 23 3 view .LVU307
 1203              	@ luaglue.c:23: 		pd->system->error("object of type %s not found at stack position %i", type, n);
  23:luaglue.c     **** 	
 1204              		.loc 1 23 5 is_stmt 0 view .LVU308
 1205 001a 3B68     		ldr	r3, [r7]	@ pd, pd
 1206              	@ luaglue.c:23: 		pd->system->error("object of type %s not found at stack position %i", type, n);
  23:luaglue.c     **** 	
 1207              		.loc 1 23 3 view .LVU309
 1208 001c 3246     		mov	r2, r6	@, n
 1209 001e 2946     		mov	r1, r5	@, type
 1210 0020 0348     		ldr	r0, .L27+4	@,
 1211              	.LVL78:
 1212              	@ luaglue.c:23: 		pd->system->error("object of type %s not found at stack position %i", type, n);
  23:luaglue.c     **** 	
 1213              		.loc 1 23 13 view .LVU310
 1214 0022 1B68     		ldr	r3, [r3]	@ pd.20_11->system, pd.20_11->system
 1215              	@ luaglue.c:23: 		pd->system->error("object of type %s not found at stack position %i", type, n);
  23:luaglue.c     **** 	
 1216              		.loc 1 23 3 view .LVU311
 1217 0024 DB68     		ldr	r3, [r3, #12]	@ _12->error, _12->error
 1218 0026 9847     		blx	r3		@ _12->error
 1219              	.LVL79:
  23:luaglue.c     **** 	
 1220              		.loc 1 23 3 view .LVU312
 1221              	.LBE98:
 1222              	.LBE97:
  25:luaglue.c     **** }
 1223              		.loc 1 25 2 is_stmt 1 view .LVU313
 1224              	@ luaglue.c:26: }
  26:luaglue.c     **** 
 1225              		.loc 1 26 1 is_stmt 0 view .LVU314
 1226 0028 2046     		mov	r0, r4	@, <retval>
 1227 002a F8BD     		pop	{r3, r4, r5, r6, r7, pc}	@
 1228              	.LVL80:
 1229              	.L28:
  26:luaglue.c     **** 
 1230              		.loc 1 26 1 view .LVU315
 1231              		.align	2
 1232              	.L27:
 1233 002c 00000000 		.word	.LANCHOR0
ARM GAS  /var/folders/cs/83z6p2tj4w57s6p2rt8nwfp00000gn/T//ccYNfdJn.s 			page 38


 1234 0030 00000000 		.word	.LC4
 1235              		.cfi_endproc
 1236              	.LFE24:
 1237              		.size	get3DObj, .-get3DObj
 1238              		.section	.text.point_gc,"ax",%progbits
 1239              		.align	1
 1240              		.p2align 4,,15
 1241              		.syntax unified
 1242              		.thumb
 1243              		.thumb_func
 1244              		.fpu fpv5-sp-d16
 1245              		.type	point_gc, %function
 1246              	point_gc:
 1247              	.LVL81:
 1248              	.LFB59:
 466:luaglue.c     **** 	Point3D* p = getPoint(1);
 1249              		.loc 1 466 1 is_stmt 1 view -0
 1250              		.cfi_startproc
 1251              		@ args = 0, pretend = 0, frame = 0
 1252              		@ frame_needed = 0, uses_anonymous_args = 0
 467:luaglue.c     **** 	m3d_free(p);
 1253              		.loc 1 467 2 view .LVU317
 1254              	.LBB99:
 1255              	.LBI99:
  31:luaglue.c     **** static Matrix3D* getMatrix(int n)		{ return get3DObj(n, "lib3d.matrix"); }
 1256              		.loc 1 31 17 view .LVU318
 1257              	.LBB100:
  31:luaglue.c     **** static Matrix3D* getMatrix(int n)		{ return get3DObj(n, "lib3d.matrix"); }
 1258              		.loc 1 31 37 view .LVU319
 1259              	.LBE100:
 1260              	.LBE99:
 1261              	@ luaglue.c:466: {
 466:luaglue.c     **** 	Point3D* p = getPoint(1);
 1262              		.loc 1 466 1 is_stmt 0 view .LVU320
 1263 0000 08B5     		push	{r3, lr}	@
 1264              	.LCFI8:
 1265              		.cfi_def_cfa_offset 8
 1266              		.cfi_offset 3, -8
 1267              		.cfi_offset 14, -4
 1268              	.LBB102:
 1269              	.LBB101:
 1270              	@ luaglue.c:31: static Point3D* getPoint(int n)			{ return get3DObj(n, "lib3d.point"); }
  31:luaglue.c     **** static Matrix3D* getMatrix(int n)		{ return get3DObj(n, "lib3d.matrix"); }
 1271              		.loc 1 31 44 view .LVU321
 1272 0002 0549     		ldr	r1, .L31	@,
 1273 0004 0120     		movs	r0, #1	@,
 1274              	.LVL82:
  31:luaglue.c     **** static Matrix3D* getMatrix(int n)		{ return get3DObj(n, "lib3d.matrix"); }
 1275              		.loc 1 31 44 view .LVU322
 1276 0006 FFF7FEFF 		bl	get3DObj		@
 1277              	.LVL83:
  31:luaglue.c     **** static Matrix3D* getMatrix(int n)		{ return get3DObj(n, "lib3d.matrix"); }
 1278              		.loc 1 31 44 view .LVU323
 1279              	.LBE101:
 1280              	.LBE102:
 468:luaglue.c     **** 	return 0;
 1281              		.loc 1 468 2 is_stmt 1 view .LVU324
ARM GAS  /var/folders/cs/83z6p2tj4w57s6p2rt8nwfp00000gn/T//ccYNfdJn.s 			page 39


 1282 000a 044B     		ldr	r3, .L31+4	@ tmp115,
 1283 000c 0021     		movs	r1, #0	@,
 1284 000e 1B68     		ldr	r3, [r3]	@ m3d_realloc, m3d_realloc
 1285 0010 9847     		blx	r3		@ m3d_realloc
 1286              	.LVL84:
 469:luaglue.c     **** }
 1287              		.loc 1 469 2 view .LVU325
 1288              	@ luaglue.c:470: }
 470:luaglue.c     **** 
 1289              		.loc 1 470 1 is_stmt 0 view .LVU326
 1290 0012 0020     		movs	r0, #0	@,
 1291 0014 08BD     		pop	{r3, pc}	@
 1292              	.L32:
 1293 0016 00BF     		.align	2
 1294              	.L31:
 1295 0018 00000000 		.word	.LC0
 1296 001c 00000000 		.word	m3d_realloc
 1297              		.cfi_endproc
 1298              	.LFE59:
 1299              		.size	point_gc, .-point_gc
 1300              		.section	.text.matrix_gc,"ax",%progbits
 1301              		.align	1
 1302              		.p2align 4,,15
 1303              		.syntax unified
 1304              		.thumb
 1305              		.thumb_func
 1306              		.fpu fpv5-sp-d16
 1307              		.type	matrix_gc, %function
 1308              	matrix_gc:
 1309              	.LVL85:
 1310              	.LFB63:
 529:luaglue.c     **** 	Matrix3D* m = getMatrix(1);
 1311              		.loc 1 529 1 is_stmt 1 view -0
 1312              		.cfi_startproc
 1313              		@ args = 0, pretend = 0, frame = 0
 1314              		@ frame_needed = 0, uses_anonymous_args = 0
 530:luaglue.c     **** 	m3d_free(m);
 1315              		.loc 1 530 2 view .LVU328
 1316              	.LBB103:
 1317              	.LBI103:
  32:luaglue.c     **** 
 1318              		.loc 1 32 18 view .LVU329
 1319              	.LBB104:
  32:luaglue.c     **** 
 1320              		.loc 1 32 38 view .LVU330
 1321              	.LBE104:
 1322              	.LBE103:
 1323              	@ luaglue.c:529: {
 529:luaglue.c     **** 	Matrix3D* m = getMatrix(1);
 1324              		.loc 1 529 1 is_stmt 0 view .LVU331
 1325 0000 08B5     		push	{r3, lr}	@
 1326              	.LCFI9:
 1327              		.cfi_def_cfa_offset 8
 1328              		.cfi_offset 3, -8
 1329              		.cfi_offset 14, -4
 1330              	.LBB106:
 1331              	.LBB105:
ARM GAS  /var/folders/cs/83z6p2tj4w57s6p2rt8nwfp00000gn/T//ccYNfdJn.s 			page 40


 1332              	@ luaglue.c:32: static Matrix3D* getMatrix(int n)		{ return get3DObj(n, "lib3d.matrix"); }
  32:luaglue.c     **** 
 1333              		.loc 1 32 45 view .LVU332
 1334 0002 0549     		ldr	r1, .L35	@,
 1335 0004 0120     		movs	r0, #1	@,
 1336              	.LVL86:
  32:luaglue.c     **** 
 1337              		.loc 1 32 45 view .LVU333
 1338 0006 FFF7FEFF 		bl	get3DObj		@
 1339              	.LVL87:
  32:luaglue.c     **** 
 1340              		.loc 1 32 45 view .LVU334
 1341              	.LBE105:
 1342              	.LBE106:
 531:luaglue.c     **** 	return 0;
 1343              		.loc 1 531 2 is_stmt 1 view .LVU335
 1344 000a 044B     		ldr	r3, .L35+4	@ tmp115,
 1345 000c 0021     		movs	r1, #0	@,
 1346 000e 1B68     		ldr	r3, [r3]	@ m3d_realloc, m3d_realloc
 1347 0010 9847     		blx	r3		@ m3d_realloc
 1348              	.LVL88:
 532:luaglue.c     **** }
 1349              		.loc 1 532 2 view .LVU336
 1350              	@ luaglue.c:533: }
 533:luaglue.c     **** 
 1351              		.loc 1 533 1 is_stmt 0 view .LVU337
 1352 0012 0020     		movs	r0, #0	@,
 1353 0014 08BD     		pop	{r3, pc}	@
 1354              	.L36:
 1355 0016 00BF     		.align	2
 1356              	.L35:
 1357 0018 00000000 		.word	.LC1
 1358 001c 00000000 		.word	m3d_realloc
 1359              		.cfi_endproc
 1360              	.LFE63:
 1361              		.size	matrix_gc, .-matrix_gc
 1362              		.section	.text.matrix_addTranslation,"ax",%progbits
 1363              		.align	1
 1364              		.p2align 4,,15
 1365              		.syntax unified
 1366              		.thumb
 1367              		.thumb_func
 1368              		.fpu fpv5-sp-d16
 1369              		.type	matrix_addTranslation, %function
 1370              	matrix_addTranslation:
 1371              	.LVL89:
 1372              	.LFB67:
 608:luaglue.c     **** 
 609:luaglue.c     **** static int matrix_addTranslation(lua_State* L)
 610:luaglue.c     **** {
 1373              		.loc 1 610 1 is_stmt 1 view -0
 1374              		.cfi_startproc
 1375              		@ args = 0, pretend = 0, frame = 0
 1376              		@ frame_needed = 0, uses_anonymous_args = 0
 611:luaglue.c     **** 	Matrix3D* l = getMatrix(1);
 1377              		.loc 1 611 2 view .LVU339
 1378              	.LBB107:
ARM GAS  /var/folders/cs/83z6p2tj4w57s6p2rt8nwfp00000gn/T//ccYNfdJn.s 			page 41


 1379              	.LBI107:
  32:luaglue.c     **** 
 1380              		.loc 1 32 18 view .LVU340
 1381              	.LBB108:
  32:luaglue.c     **** 
 1382              		.loc 1 32 38 view .LVU341
 1383              	.LBE108:
 1384              	.LBE107:
 1385              	@ luaglue.c:610: {
 610:luaglue.c     **** 	Matrix3D* l = getMatrix(1);
 1386              		.loc 1 610 1 is_stmt 0 view .LVU342
 1387 0000 38B5     		push	{r3, r4, r5, lr}	@
 1388              	.LCFI10:
 1389              		.cfi_def_cfa_offset 16
 1390              		.cfi_offset 3, -16
 1391              		.cfi_offset 4, -12
 1392              		.cfi_offset 5, -8
 1393              		.cfi_offset 14, -4
 1394              	@ luaglue.c:612: 	l->dx += pd->lua->getArgFloat(2);
 612:luaglue.c     **** 	l->dx += pd->lua->getArgFloat(2);
 1395              		.loc 1 612 13 view .LVU343
 1396 0002 144D     		ldr	r5, .L39	@ tmp132,
 1397              	.LBB111:
 1398              	.LBB109:
 1399              	@ luaglue.c:32: static Matrix3D* getMatrix(int n)		{ return get3DObj(n, "lib3d.matrix"); }
  32:luaglue.c     **** 
 1400              		.loc 1 32 45 view .LVU344
 1401 0004 0120     		movs	r0, #1	@,
 1402              	.LVL90:
  32:luaglue.c     **** 
 1403              		.loc 1 32 45 view .LVU345
 1404 0006 1449     		ldr	r1, .L39+4	@,
 1405 0008 FFF7FEFF 		bl	get3DObj		@
 1406              	.LVL91:
 1407              	.LBE109:
 1408              	.LBE111:
 1409              	@ luaglue.c:612: 	l->dx += pd->lua->getArgFloat(2);
 1410              		.loc 1 612 13 view .LVU346
 1411 000c 2B68     		ldr	r3, [r5]	@ pd, pd
 1412              	.LBB112:
 1413              	.LBB110:
 1414              	@ luaglue.c:32: static Matrix3D* getMatrix(int n)		{ return get3DObj(n, "lib3d.matrix"); }
  32:luaglue.c     **** 
 1415              		.loc 1 32 45 view .LVU347
 1416 000e 0446     		mov	r4, r0	@ tmp151,
 1417              	.LBE110:
 1418              	.LBE112:
 1419              	@ luaglue.c:612: 	l->dx += pd->lua->getArgFloat(2);
 1420              		.loc 1 612 11 view .LVU348
 1421 0010 0220     		movs	r0, #2	@,
 1422              	.LVL92:
 1423              		.loc 1 612 2 is_stmt 1 view .LVU349
 1424              	@ luaglue.c:612: 	l->dx += pd->lua->getArgFloat(2);
 1425              		.loc 1 612 18 is_stmt 0 view .LVU350
 1426 0012 9B69     		ldr	r3, [r3, #24]	@ pd.16_1->lua, pd.16_1->lua
 1427              	@ luaglue.c:612: 	l->dx += pd->lua->getArgFloat(2);
 1428              		.loc 1 612 11 view .LVU351
ARM GAS  /var/folders/cs/83z6p2tj4w57s6p2rt8nwfp00000gn/T//ccYNfdJn.s 			page 42


 1429 0014 DB6A     		ldr	r3, [r3, #44]	@ _2->getArgFloat, _2->getArgFloat
 1430 0016 9847     		blx	r3		@ _2->getArgFloat
 1431              	.LVL93:
 1432              	@ luaglue.c:612: 	l->dx += pd->lua->getArgFloat(2);
 1433              		.loc 1 612 8 view .LVU352
 1434 0018 D4ED0A7A 		vldr.32	s15, [r4, #40]	@ _26->dx, _26->dx
 1435              	@ luaglue.c:613: 	l->dy += pd->lua->getArgFloat(3);
 613:luaglue.c     **** 	l->dy += pd->lua->getArgFloat(3);
 1436              		.loc 1 613 13 view .LVU353
 1437 001c 2B68     		ldr	r3, [r5]	@ pd, pd
 1438              	@ luaglue.c:613: 	l->dy += pd->lua->getArgFloat(3);
 1439              		.loc 1 613 11 view .LVU354
 1440 001e 0320     		movs	r0, #3	@,
 1441              	@ luaglue.c:612: 	l->dx += pd->lua->getArgFloat(2);
 612:luaglue.c     **** 	l->dx += pd->lua->getArgFloat(2);
 1442              		.loc 1 612 8 view .LVU355
 1443 0020 37EE800A 		vadd.f32	s0, s15, s0	@ tmp136, _26->dx, tmp152
 1444              	@ luaglue.c:613: 	l->dy += pd->lua->getArgFloat(3);
 1445              		.loc 1 613 18 view .LVU356
 1446 0024 9B69     		ldr	r3, [r3, #24]	@ pd.17_6->lua, pd.17_6->lua
 1447              	@ luaglue.c:612: 	l->dx += pd->lua->getArgFloat(2);
 612:luaglue.c     **** 	l->dx += pd->lua->getArgFloat(2);
 1448              		.loc 1 612 8 view .LVU357
 1449 0026 84ED0A0A 		vstr.32	s0, [r4, #40]	@ tmp136, _26->dx
 1450              		.loc 1 613 2 is_stmt 1 view .LVU358
 1451              	@ luaglue.c:613: 	l->dy += pd->lua->getArgFloat(3);
 1452              		.loc 1 613 11 is_stmt 0 view .LVU359
 1453 002a DB6A     		ldr	r3, [r3, #44]	@ _7->getArgFloat, _7->getArgFloat
 1454 002c 9847     		blx	r3		@ _7->getArgFloat
 1455              	.LVL94:
 1456              	@ luaglue.c:613: 	l->dy += pd->lua->getArgFloat(3);
 1457              		.loc 1 613 8 view .LVU360
 1458 002e D4ED0B7A 		vldr.32	s15, [r4, #44]	@ _26->dy, _26->dy
 1459              	@ luaglue.c:614: 	l->dz += pd->lua->getArgFloat(4);
 614:luaglue.c     **** 	l->dz += pd->lua->getArgFloat(4);
 1460              		.loc 1 614 13 view .LVU361
 1461 0032 2B68     		ldr	r3, [r5]	@ pd, pd
 1462              	@ luaglue.c:614: 	l->dz += pd->lua->getArgFloat(4);
 1463              		.loc 1 614 11 view .LVU362
 1464 0034 0420     		movs	r0, #4	@,
 1465              	@ luaglue.c:613: 	l->dy += pd->lua->getArgFloat(3);
 613:luaglue.c     **** 	l->dy += pd->lua->getArgFloat(3);
 1466              		.loc 1 613 8 view .LVU363
 1467 0036 37EE800A 		vadd.f32	s0, s15, s0	@ tmp142, _26->dy, tmp153
 1468              	@ luaglue.c:614: 	l->dz += pd->lua->getArgFloat(4);
 1469              		.loc 1 614 18 view .LVU364
 1470 003a 9B69     		ldr	r3, [r3, #24]	@ pd.18_11->lua, pd.18_11->lua
 1471              	@ luaglue.c:613: 	l->dy += pd->lua->getArgFloat(3);
 613:luaglue.c     **** 	l->dy += pd->lua->getArgFloat(3);
 1472              		.loc 1 613 8 view .LVU365
 1473 003c 84ED0B0A 		vstr.32	s0, [r4, #44]	@ tmp142, _26->dy
 1474              		.loc 1 614 2 is_stmt 1 view .LVU366
 1475              	@ luaglue.c:614: 	l->dz += pd->lua->getArgFloat(4);
 1476              		.loc 1 614 11 is_stmt 0 view .LVU367
 1477 0040 DB6A     		ldr	r3, [r3, #44]	@ _12->getArgFloat, _12->getArgFloat
 1478 0042 9847     		blx	r3		@ _12->getArgFloat
 1479              	.LVL95:
ARM GAS  /var/folders/cs/83z6p2tj4w57s6p2rt8nwfp00000gn/T//ccYNfdJn.s 			page 43


 1480              	@ luaglue.c:614: 	l->dz += pd->lua->getArgFloat(4);
 1481              		.loc 1 614 8 view .LVU368
 1482 0044 D4ED0C7A 		vldr.32	s15, [r4, #48]	@ _26->dz, _26->dz
 1483              	@ luaglue.c:616: }
 615:luaglue.c     **** 	return 0;
 616:luaglue.c     **** }
 1484              		.loc 1 616 1 view .LVU369
 1485 0048 0020     		movs	r0, #0	@,
 1486              	@ luaglue.c:614: 	l->dz += pd->lua->getArgFloat(4);
 614:luaglue.c     **** 	l->dz += pd->lua->getArgFloat(4);
 1487              		.loc 1 614 8 view .LVU370
 1488 004a 37EE800A 		vadd.f32	s0, s15, s0	@ tmp148, _26->dz, tmp154
 1489 004e 84ED0C0A 		vstr.32	s0, [r4, #48]	@ tmp148, _26->dz
 615:luaglue.c     **** 	return 0;
 1490              		.loc 1 615 2 is_stmt 1 view .LVU371
 1491              	@ luaglue.c:616: }
 1492              		.loc 1 616 1 is_stmt 0 view .LVU372
 1493 0052 38BD     		pop	{r3, r4, r5, pc}	@
 1494              	.LVL96:
 1495              	.L40:
 1496              		.loc 1 616 1 view .LVU373
 1497              		.align	2
 1498              	.L39:
 1499 0054 00000000 		.word	.LANCHOR0
 1500 0058 00000000 		.word	.LC1
 1501              		.cfi_endproc
 1502              	.LFE67:
 1503              		.size	matrix_addTranslation, .-matrix_addTranslation
 1504              		.section	.text.matrix_mul,"ax",%progbits
 1505              		.align	1
 1506              		.p2align 4,,15
 1507              		.syntax unified
 1508              		.thumb
 1509              		.thumb_func
 1510              		.fpu fpv5-sp-d16
 1511              		.type	matrix_mul, %function
 1512              	matrix_mul:
 1513              	.LVL97:
 1514              	.LFB64:
 536:luaglue.c     **** 	Matrix3D* l = getMatrix(1);
 1515              		.loc 1 536 1 is_stmt 1 view -0
 1516              		.cfi_startproc
 1517              		@ args = 0, pretend = 0, frame = 56
 1518              		@ frame_needed = 0, uses_anonymous_args = 0
 537:luaglue.c     **** 	Matrix3D* r = getMatrix(2);
 1519              		.loc 1 537 2 view .LVU375
 1520              	.LBB113:
 1521              	.LBI113:
  32:luaglue.c     **** 
 1522              		.loc 1 32 18 view .LVU376
 1523              	.LBB114:
  32:luaglue.c     **** 
 1524              		.loc 1 32 38 view .LVU377
 1525              	.LBE114:
 1526              	.LBE113:
 1527              	@ luaglue.c:536: {
 536:luaglue.c     **** 	Matrix3D* l = getMatrix(1);
ARM GAS  /var/folders/cs/83z6p2tj4w57s6p2rt8nwfp00000gn/T//ccYNfdJn.s 			page 44


 1528              		.loc 1 536 1 is_stmt 0 view .LVU378
 1529 0000 2DE9F041 		push	{r4, r5, r6, r7, r8, lr}	@
 1530              	.LCFI11:
 1531              		.cfi_def_cfa_offset 24
 1532              		.cfi_offset 4, -24
 1533              		.cfi_offset 5, -20
 1534              		.cfi_offset 6, -16
 1535              		.cfi_offset 7, -12
 1536              		.cfi_offset 8, -8
 1537              		.cfi_offset 14, -4
 1538              	.LBB119:
 1539              	.LBB115:
 1540              	@ luaglue.c:32: static Matrix3D* getMatrix(int n)		{ return get3DObj(n, "lib3d.matrix"); }
  32:luaglue.c     **** 
 1541              		.loc 1 32 45 view .LVU379
 1542 0004 214E     		ldr	r6, .L43	@ tmp119,
 1543              	.LBE115:
 1544              	.LBE119:
 1545              	@ luaglue.c:536: {
 536:luaglue.c     **** 	Matrix3D* l = getMatrix(1);
 1546              		.loc 1 536 1 view .LVU380
 1547 0006 A6B0     		sub	sp, sp, #152	@,,
 1548              	.LCFI12:
 1549              		.cfi_def_cfa_offset 176
 1550              	.LBB120:
 1551              	.LBB116:
 1552              	@ luaglue.c:32: static Matrix3D* getMatrix(int n)		{ return get3DObj(n, "lib3d.matrix"); }
  32:luaglue.c     **** 
 1553              		.loc 1 32 45 view .LVU381
 1554 0008 0120     		movs	r0, #1	@,
 1555              	.LVL98:
  32:luaglue.c     **** 
 1556              		.loc 1 32 45 view .LVU382
 1557 000a 3146     		mov	r1, r6	@, tmp119
 1558              	.LBE116:
 1559              	.LBE120:
 1560              	@ luaglue.c:541: 	*m = Matrix3D_multiply(*l, *r);
 541:luaglue.c     **** 	
 1561              		.loc 1 541 7 view .LVU383
 1562 000c 0AAD     		add	r5, sp, #40	@ tmp124,,
 1563              	.LBB121:
 1564              	.LBB117:
 1565              	@ luaglue.c:32: static Matrix3D* getMatrix(int n)		{ return get3DObj(n, "lib3d.matrix"); }
  32:luaglue.c     **** 
 1566              		.loc 1 32 45 view .LVU384
 1567 000e FFF7FEFF 		bl	get3DObj		@
 1568              	.LVL99:
 1569              	.LBE117:
 1570              	.LBE121:
 1571              	.LBB122:
 1572              	.LBB123:
 1573 0012 3146     		mov	r1, r6	@, tmp119
 1574              	.LBE123:
 1575              	.LBE122:
 1576              	.LBB127:
 1577              	.LBB118:
 1578 0014 0746     		mov	r7, r0	@ tmp138,
ARM GAS  /var/folders/cs/83z6p2tj4w57s6p2rt8nwfp00000gn/T//ccYNfdJn.s 			page 45


 1579              	.LBE118:
 1580              	.LBE127:
 1581              	.LBB128:
 1582              	.LBB124:
 1583 0016 0220     		movs	r0, #2	@,
 1584              	.LVL100:
  32:luaglue.c     **** 
 1585              		.loc 1 32 45 view .LVU385
 1586              	.LBE124:
 1587              	.LBE128:
 538:luaglue.c     **** 	Matrix3D* m = m3d_malloc(sizeof(Matrix3D));
 1588              		.loc 1 538 2 is_stmt 1 view .LVU386
 1589              	.LBB129:
 1590              	.LBI122:
  32:luaglue.c     **** 
 1591              		.loc 1 32 18 view .LVU387
 1592              	.LBB125:
  32:luaglue.c     **** 
 1593              		.loc 1 32 38 view .LVU388
 1594              	@ luaglue.c:32: static Matrix3D* getMatrix(int n)		{ return get3DObj(n, "lib3d.matrix"); }
  32:luaglue.c     **** 
 1595              		.loc 1 32 45 is_stmt 0 view .LVU389
 1596 0018 FFF7FEFF 		bl	get3DObj		@
 1597              	.LVL101:
 1598              	.LBE125:
 1599              	.LBE129:
 1600              	@ luaglue.c:539: 	Matrix3D* m = m3d_malloc(sizeof(Matrix3D));
 539:luaglue.c     **** 
 1601              		.loc 1 539 16 view .LVU390
 1602 001c 1C4B     		ldr	r3, .L43+4	@ tmp121,
 1603              	.LBB130:
 1604              	.LBB126:
 1605              	@ luaglue.c:32: static Matrix3D* getMatrix(int n)		{ return get3DObj(n, "lib3d.matrix"); }
  32:luaglue.c     **** 
 1606              		.loc 1 32 45 view .LVU391
 1607 001e 0446     		mov	r4, r0	@ tmp139,
 1608              	.LBE126:
 1609              	.LBE130:
 1610              	@ luaglue.c:539: 	Matrix3D* m = m3d_malloc(sizeof(Matrix3D));
 539:luaglue.c     **** 
 1611              		.loc 1 539 16 view .LVU392
 1612 0020 3421     		movs	r1, #52	@,
 1613 0022 1B68     		ldr	r3, [r3]	@ m3d_realloc, m3d_realloc
 1614 0024 0020     		movs	r0, #0	@,
 1615              	.LVL102:
 539:luaglue.c     **** 
 1616              		.loc 1 539 2 is_stmt 1 view .LVU393
 1617              	@ luaglue.c:539: 	Matrix3D* m = m3d_malloc(sizeof(Matrix3D));
 539:luaglue.c     **** 
 1618              		.loc 1 539 16 is_stmt 0 view .LVU394
 1619 0026 9847     		blx	r3		@ m3d_realloc
 1620              	.LVL103:
 1621 0028 8046     		mov	r8, r0	@ m, tmp140
 1622              	.LVL104:
 541:luaglue.c     **** 	
 1623              		.loc 1 541 2 is_stmt 1 view .LVU395
 1624              	@ luaglue.c:541: 	*m = Matrix3D_multiply(*l, *r);
ARM GAS  /var/folders/cs/83z6p2tj4w57s6p2rt8nwfp00000gn/T//ccYNfdJn.s 			page 46


 541:luaglue.c     **** 	
 1625              		.loc 1 541 7 is_stmt 0 view .LVU396
 1626 002a 07F10C0C 		add	ip, r7, #12	@ tmp128, _11,
 1627 002e 0FCC     		ldmia	r4!, {r0, r1, r2, r3}	@ _10,,,,
 1628              	.LVL105:
 541:luaglue.c     **** 	
 1629              		.loc 1 541 7 view .LVU397
 1630 0030 0FC5     		stmia	r5!, {r0, r1, r2, r3}	@ tmp124,,,,
 1631 0032 0FCC     		ldmia	r4!, {r0, r1, r2, r3}	@ _10,,,,
 1632              	.LVL106:
 541:luaglue.c     **** 	
 1633              		.loc 1 541 7 view .LVU398
 1634 0034 0FC5     		stmia	r5!, {r0, r1, r2, r3}	@ tmp124,,,,
 1635 0036 0FCC     		ldmia	r4!, {r0, r1, r2, r3}	@ _10,,,,
 1636              	.LVL107:
 541:luaglue.c     **** 	
 1637              		.loc 1 541 7 view .LVU399
 1638 0038 0FC5     		stmia	r5!, {r0, r1, r2, r3}	@ tmp124,,,,
 1639 003a 2368     		ldr	r3, [r4]	@ *_10, *_10
 1640 003c 6C46     		mov	r4, sp	@ tmp127,
 1641              	.LVL108:
 541:luaglue.c     **** 	
 1642              		.loc 1 541 7 view .LVU400
 1643 003e 2B60     		str	r3, [r5]	@ *_10,
 1644 0040 4546     		mov	r5, r8	@ m, m
 1645 0042 BCE80F00 		ldmia	ip!, {r0, r1, r2, r3}	@ tmp128,,,,
 1646 0046 0FC4     		stmia	r4!, {r0, r1, r2, r3}	@ tmp127,,,,
 1647 0048 BCE80F00 		ldmia	ip!, {r0, r1, r2, r3}	@ tmp128,,,,
 1648 004c 0FC4     		stmia	r4!, {r0, r1, r2, r3}	@ tmp127,,,,
 1649 004e 9CE80300 		ldm	ip, {r0, r1}	@ tmp128,,
 1650 0052 84E80300 		stm	r4, {r0, r1}	@ tmp127,,
 1651 0056 18AC     		add	r4, sp, #96	@ tmp142,,
 1652 0058 18A8     		add	r0, sp, #96	@ tmp141,,
 1653 005a 97E80E00 		ldm	r7, {r1, r2, r3}	@ _11,,,
 1654 005e FFF7FEFF 		bl	Matrix3D_multiply		@
 1655              	.LVL109:
 1656              	@ luaglue.c:543: 	pd->lua->pushObject(m, "lib3d.matrix", 0);
 543:luaglue.c     **** 	return 1;
 1657              		.loc 1 543 4 view .LVU401
 1658 0062 0C4F     		ldr	r7, .L43+8	@ tmp133,
 1659              	.LVL110:
 1660              	@ luaglue.c:541: 	*m = Matrix3D_multiply(*l, *r);
 541:luaglue.c     **** 	
 1661              		.loc 1 541 7 view .LVU402
 1662 0064 0FCC     		ldmia	r4!, {r0, r1, r2, r3}	@ tmp130,,,,
 1663 0066 0FC5     		stmia	r5!, {r0, r1, r2, r3}	@ m,,,,
 1664 0068 0FCC     		ldmia	r4!, {r0, r1, r2, r3}	@ tmp130,,,,
 1665              	@ luaglue.c:543: 	pd->lua->pushObject(m, "lib3d.matrix", 0);
 543:luaglue.c     **** 	return 1;
 1666              		.loc 1 543 4 view .LVU403
 1667 006a 3F68     		ldr	r7, [r7]	@ pd, pd
 1668              	@ luaglue.c:541: 	*m = Matrix3D_multiply(*l, *r);
 541:luaglue.c     **** 	
 1669              		.loc 1 541 7 view .LVU404
 1670 006c 0FC5     		stmia	r5!, {r0, r1, r2, r3}	@ m,,,,
 1671 006e 0FCC     		ldmia	r4!, {r0, r1, r2, r3}	@ tmp130,,,,
 1672              	@ luaglue.c:543: 	pd->lua->pushObject(m, "lib3d.matrix", 0);
ARM GAS  /var/folders/cs/83z6p2tj4w57s6p2rt8nwfp00000gn/T//ccYNfdJn.s 			page 47


 543:luaglue.c     **** 	return 1;
 1673              		.loc 1 543 9 view .LVU405
 1674 0070 BF69     		ldr	r7, [r7, #24]	@ pd.42_2->lua, pd.42_2->lua
 1675              	@ luaglue.c:541: 	*m = Matrix3D_multiply(*l, *r);
 541:luaglue.c     **** 	
 1676              		.loc 1 541 7 view .LVU406
 1677 0072 0FC5     		stmia	r5!, {r0, r1, r2, r3}	@ m,,,,
 1678 0074 2268     		ldr	r2, [r4]	@ tmp131,
 1679              	@ luaglue.c:543: 	pd->lua->pushObject(m, "lib3d.matrix", 0);
 543:luaglue.c     **** 	return 1;
 1680              		.loc 1 543 2 view .LVU407
 1681 0076 4046     		mov	r0, r8	@, m
 1682 0078 7B6E     		ldr	r3, [r7, #100]	@ _3->pushObject, _3->pushObject
 1683 007a 3146     		mov	r1, r6	@, tmp119
 1684              	@ luaglue.c:541: 	*m = Matrix3D_multiply(*l, *r);
 541:luaglue.c     **** 	
 1685              		.loc 1 541 7 view .LVU408
 1686 007c 2A60     		str	r2, [r5]	@ tmp131, *m_7
 543:luaglue.c     **** 	return 1;
 1687              		.loc 1 543 2 is_stmt 1 view .LVU409
 1688 007e 0022     		movs	r2, #0	@,
 1689 0080 9847     		blx	r3		@ _3->pushObject
 1690              	.LVL111:
 544:luaglue.c     **** }
 1691              		.loc 1 544 2 view .LVU410
 1692              	@ luaglue.c:545: }
 545:luaglue.c     **** 
 1693              		.loc 1 545 1 is_stmt 0 view .LVU411
 1694 0082 0120     		movs	r0, #1	@,
 1695 0084 26B0     		add	sp, sp, #152	@,,
 1696              	.LCFI13:
 1697              		.cfi_def_cfa_offset 24
 1698              		@ sp needed	@
 1699 0086 BDE8F081 		pop	{r4, r5, r6, r7, r8, pc}	@
 1700              	.LVL112:
 1701              	.L44:
 545:luaglue.c     **** 
 1702              		.loc 1 545 1 view .LVU412
 1703 008a 00BF     		.align	2
 1704              	.L43:
 1705 008c 00000000 		.word	.LC1
 1706 0090 00000000 		.word	m3d_realloc
 1707 0094 00000000 		.word	.LANCHOR0
 1708              		.cfi_endproc
 1709              	.LFE64:
 1710              		.size	matrix_mul, .-matrix_mul
 1711              		.section	.text.point_mul,"ax",%progbits
 1712              		.align	1
 1713              		.p2align 4,,15
 1714              		.syntax unified
 1715              		.thumb
 1716              		.thumb_func
 1717              		.fpu fpv5-sp-d16
 1718              		.type	point_mul, %function
 1719              	point_mul:
 1720              	.LVL113:
 1721              	.LFB62:
ARM GAS  /var/folders/cs/83z6p2tj4w57s6p2rt8nwfp00000gn/T//ccYNfdJn.s 			page 48


 505:luaglue.c     **** 	Point3D* p = getPoint(1);
 1722              		.loc 1 505 1 is_stmt 1 view -0
 1723              		.cfi_startproc
 1724              		@ args = 0, pretend = 0, frame = 0
 1725              		@ frame_needed = 0, uses_anonymous_args = 0
 506:luaglue.c     **** 	Matrix3D* m = getMatrix(2);
 1726              		.loc 1 506 2 view .LVU414
 1727              	.LBB131:
 1728              	.LBI131:
  31:luaglue.c     **** static Matrix3D* getMatrix(int n)		{ return get3DObj(n, "lib3d.matrix"); }
 1729              		.loc 1 31 17 view .LVU415
 1730              	.LBB132:
  31:luaglue.c     **** static Matrix3D* getMatrix(int n)		{ return get3DObj(n, "lib3d.matrix"); }
 1731              		.loc 1 31 37 view .LVU416
 1732              	.LBE132:
 1733              	.LBE131:
 1734              	@ luaglue.c:505: {
 505:luaglue.c     **** 	Point3D* p = getPoint(1);
 1735              		.loc 1 505 1 is_stmt 0 view .LVU417
 1736 0000 2DE9F043 		push	{r4, r5, r6, r7, r8, r9, lr}	@
 1737              	.LCFI14:
 1738              		.cfi_def_cfa_offset 28
 1739              		.cfi_offset 4, -28
 1740              		.cfi_offset 5, -24
 1741              		.cfi_offset 6, -20
 1742              		.cfi_offset 7, -16
 1743              		.cfi_offset 8, -12
 1744              		.cfi_offset 9, -8
 1745              		.cfi_offset 14, -4
 1746              	.LBB137:
 1747              	.LBB133:
 1748              	@ luaglue.c:31: static Point3D* getPoint(int n)			{ return get3DObj(n, "lib3d.point"); }
  31:luaglue.c     **** static Matrix3D* getMatrix(int n)		{ return get3DObj(n, "lib3d.matrix"); }
 1749              		.loc 1 31 44 view .LVU418
 1750 0004 DFF87890 		ldr	r9, .L47+12	@ tmp119,
 1751              	.LBE133:
 1752              	.LBE137:
 1753              	@ luaglue.c:505: {
 505:luaglue.c     **** 	Point3D* p = getPoint(1);
 1754              		.loc 1 505 1 view .LVU419
 1755 0008 8BB0     		sub	sp, sp, #44	@,,
 1756              	.LCFI15:
 1757              		.cfi_def_cfa_offset 72
 1758              	.LBB138:
 1759              	.LBB134:
 1760              	@ luaglue.c:31: static Point3D* getPoint(int n)			{ return get3DObj(n, "lib3d.point"); }
  31:luaglue.c     **** static Matrix3D* getMatrix(int n)		{ return get3DObj(n, "lib3d.matrix"); }
 1761              		.loc 1 31 44 view .LVU420
 1762 000a 0120     		movs	r0, #1	@,
 1763              	.LVL114:
  31:luaglue.c     **** static Matrix3D* getMatrix(int n)		{ return get3DObj(n, "lib3d.matrix"); }
 1764              		.loc 1 31 44 view .LVU421
 1765 000c 4946     		mov	r1, r9	@, tmp119
 1766              	.LBE134:
 1767              	.LBE138:
 1768              	@ luaglue.c:510: 	*p2 = Matrix3D_apply(*m, *p);
 510:luaglue.c     **** 	pd->lua->pushObject(p2, "lib3d.point", 0);
ARM GAS  /var/folders/cs/83z6p2tj4w57s6p2rt8nwfp00000gn/T//ccYNfdJn.s 			page 49


 1769              		.loc 1 510 8 view .LVU422
 1770 000e 6C46     		mov	r4, sp	@ tmp126,
 1771              	.LBB139:
 1772              	.LBB135:
 1773              	@ luaglue.c:31: static Point3D* getPoint(int n)			{ return get3DObj(n, "lib3d.point"); }
  31:luaglue.c     **** static Matrix3D* getMatrix(int n)		{ return get3DObj(n, "lib3d.matrix"); }
 1774              		.loc 1 31 44 view .LVU423
 1775 0010 FFF7FEFF 		bl	get3DObj		@
 1776              	.LVL115:
 1777              	.LBE135:
 1778              	.LBE139:
 1779              	.LBB140:
 1780              	.LBB141:
 1781              	@ luaglue.c:32: static Matrix3D* getMatrix(int n)		{ return get3DObj(n, "lib3d.matrix"); }
  32:luaglue.c     **** 
 1782              		.loc 1 32 45 view .LVU424
 1783 0014 1749     		ldr	r1, .L47	@,
 1784              	.LBE141:
 1785              	.LBE140:
 1786              	.LBB144:
 1787              	.LBB136:
 1788              	@ luaglue.c:31: static Point3D* getPoint(int n)			{ return get3DObj(n, "lib3d.point"); }
  31:luaglue.c     **** static Matrix3D* getMatrix(int n)		{ return get3DObj(n, "lib3d.matrix"); }
 1789              		.loc 1 31 44 view .LVU425
 1790 0016 8046     		mov	r8, r0	@ tmp138,
 1791              	.LBE136:
 1792              	.LBE144:
 1793              	.LBB145:
 1794              	.LBB142:
 1795              	@ luaglue.c:32: static Matrix3D* getMatrix(int n)		{ return get3DObj(n, "lib3d.matrix"); }
  32:luaglue.c     **** 
 1796              		.loc 1 32 45 view .LVU426
 1797 0018 0220     		movs	r0, #2	@,
 1798              	.LVL116:
  32:luaglue.c     **** 
 1799              		.loc 1 32 45 view .LVU427
 1800              	.LBE142:
 1801              	.LBE145:
 507:luaglue.c     **** 
 1802              		.loc 1 507 2 is_stmt 1 view .LVU428
 1803              	.LBB146:
 1804              	.LBI140:
  32:luaglue.c     **** 
 1805              		.loc 1 32 18 view .LVU429
 1806              	.LBB143:
  32:luaglue.c     **** 
 1807              		.loc 1 32 38 view .LVU430
 1808              	@ luaglue.c:32: static Matrix3D* getMatrix(int n)		{ return get3DObj(n, "lib3d.matrix"); }
  32:luaglue.c     **** 
 1809              		.loc 1 32 45 is_stmt 0 view .LVU431
 1810 001a FFF7FEFF 		bl	get3DObj		@
 1811              	.LVL117:
 1812 001e 0646     		mov	r6, r0	@ tmp139,
 1813              	.LBE143:
 1814              	.LBE146:
 1815              	@ luaglue.c:509: 	Point3D* p2 = m3d_malloc(sizeof(Point3D));
 509:luaglue.c     **** 	*p2 = Matrix3D_apply(*m, *p);
ARM GAS  /var/folders/cs/83z6p2tj4w57s6p2rt8nwfp00000gn/T//ccYNfdJn.s 			page 50


 1816              		.loc 1 509 16 view .LVU432
 1817 0020 154B     		ldr	r3, .L47+4	@ tmp121,
 1818 0022 0C21     		movs	r1, #12	@,
 1819              	@ luaglue.c:510: 	*p2 = Matrix3D_apply(*m, *p);
 510:luaglue.c     **** 	pd->lua->pushObject(p2, "lib3d.point", 0);
 1820              		.loc 1 510 8 view .LVU433
 1821 0024 06F11005 		add	r5, r6, #16	@ tmp127, _10,
 1822              	@ luaglue.c:509: 	Point3D* p2 = m3d_malloc(sizeof(Point3D));
 509:luaglue.c     **** 	*p2 = Matrix3D_apply(*m, *p);
 1823              		.loc 1 509 16 view .LVU434
 1824 0028 0020     		movs	r0, #0	@,
 1825              	.LVL118:
 509:luaglue.c     **** 	*p2 = Matrix3D_apply(*m, *p);
 1826              		.loc 1 509 2 is_stmt 1 view .LVU435
 1827              	@ luaglue.c:509: 	Point3D* p2 = m3d_malloc(sizeof(Point3D));
 509:luaglue.c     **** 	*p2 = Matrix3D_apply(*m, *p);
 1828              		.loc 1 509 16 is_stmt 0 view .LVU436
 1829 002a 1B68     		ldr	r3, [r3]	@ m3d_realloc, m3d_realloc
 1830 002c 9847     		blx	r3		@ m3d_realloc
 1831              	.LVL119:
 1832 002e 0746     		mov	r7, r0	@ p2, tmp140
 1833              	.LVL120:
 510:luaglue.c     **** 	pd->lua->pushObject(p2, "lib3d.point", 0);
 1834              		.loc 1 510 2 is_stmt 1 view .LVU437
 1835              	@ luaglue.c:510: 	*p2 = Matrix3D_apply(*m, *p);
 510:luaglue.c     **** 	pd->lua->pushObject(p2, "lib3d.point", 0);
 1836              		.loc 1 510 8 is_stmt 0 view .LVU438
 1837 0030 98ED000A 		vldr.32	s0, [r8]	@ *_11, *_11
 1838 0034 D8ED010A 		vldr.32	s1, [r8, #4]	@ *_11, *_11
 1839 0038 98ED021A 		vldr.32	s2, [r8, #8]	@ *_11, *_11
 1840 003c 0FCD     		ldmia	r5!, {r0, r1, r2, r3}	@ tmp127,,,,
 1841              	.LVL121:
 510:luaglue.c     **** 	pd->lua->pushObject(p2, "lib3d.point", 0);
 1842              		.loc 1 510 8 view .LVU439
 1843 003e 0FC4     		stmia	r4!, {r0, r1, r2, r3}	@ tmp126,,,,
 1844 0040 0FCD     		ldmia	r5!, {r0, r1, r2, r3}	@ tmp127,,,,
 1845 0042 0FC4     		stmia	r4!, {r0, r1, r2, r3}	@ tmp126,,,,
 1846 0044 2B68     		ldr	r3, [r5]	@ *_10, *_10
 1847 0046 2360     		str	r3, [r4]	@ *_10,
 1848 0048 96E80F00 		ldm	r6, {r0, r1, r2, r3}	@ _10,,,,
 1849 004c FFF7FEFF 		bl	Matrix3D_apply		@
 1850              	.LVL122:
 1851              	@ luaglue.c:511: 	pd->lua->pushObject(p2, "lib3d.point", 0);
 511:luaglue.c     **** 	return 1;
 1852              		.loc 1 511 4 view .LVU440
 1853 0050 0A4B     		ldr	r3, .L47+8	@ tmp133,
 1854              	@ luaglue.c:511: 	pd->lua->pushObject(p2, "lib3d.point", 0);
 511:luaglue.c     **** 	return 1;
 1855              		.loc 1 511 2 view .LVU441
 1856 0052 4946     		mov	r1, r9	@, tmp119
 1857 0054 3846     		mov	r0, r7	@, p2
 1858              	@ luaglue.c:511: 	pd->lua->pushObject(p2, "lib3d.point", 0);
 511:luaglue.c     **** 	return 1;
 1859              		.loc 1 511 4 view .LVU442
 1860 0056 1B68     		ldr	r3, [r3]	@ pd, pd
 1861              	@ luaglue.c:511: 	pd->lua->pushObject(p2, "lib3d.point", 0);
 511:luaglue.c     **** 	return 1;
ARM GAS  /var/folders/cs/83z6p2tj4w57s6p2rt8nwfp00000gn/T//ccYNfdJn.s 			page 51


 1862              		.loc 1 511 2 view .LVU443
 1863 0058 0022     		movs	r2, #0	@,
 1864              	@ luaglue.c:510: 	*p2 = Matrix3D_apply(*m, *p);
 510:luaglue.c     **** 	pd->lua->pushObject(p2, "lib3d.point", 0);
 1865              		.loc 1 510 8 view .LVU444
 1866 005a 87ED000A 		vstr.32	s0, [r7]	@ tmp141, *p2_7
 1867              	@ luaglue.c:511: 	pd->lua->pushObject(p2, "lib3d.point", 0);
 511:luaglue.c     **** 	return 1;
 1868              		.loc 1 511 9 view .LVU445
 1869 005e 9B69     		ldr	r3, [r3, #24]	@ pd.45_2->lua, pd.45_2->lua
 1870              	@ luaglue.c:510: 	*p2 = Matrix3D_apply(*m, *p);
 510:luaglue.c     **** 	pd->lua->pushObject(p2, "lib3d.point", 0);
 1871              		.loc 1 510 8 view .LVU446
 1872 0060 C7ED010A 		vstr.32	s1, [r7, #4]	@ tmp142, *p2_7
 1873              	@ luaglue.c:511: 	pd->lua->pushObject(p2, "lib3d.point", 0);
 511:luaglue.c     **** 	return 1;
 1874              		.loc 1 511 2 view .LVU447
 1875 0064 5B6E     		ldr	r3, [r3, #100]	@ _3->pushObject, _3->pushObject
 1876              	@ luaglue.c:510: 	*p2 = Matrix3D_apply(*m, *p);
 510:luaglue.c     **** 	pd->lua->pushObject(p2, "lib3d.point", 0);
 1877              		.loc 1 510 8 view .LVU448
 1878 0066 87ED021A 		vstr.32	s2, [r7, #8]	@ tmp143, *p2_7
 511:luaglue.c     **** 	return 1;
 1879              		.loc 1 511 2 is_stmt 1 view .LVU449
 1880 006a 9847     		blx	r3		@ _3->pushObject
 1881              	.LVL123:
 512:luaglue.c     **** }
 1882              		.loc 1 512 2 view .LVU450
 1883              	@ luaglue.c:513: }
 513:luaglue.c     **** 
 1884              		.loc 1 513 1 is_stmt 0 view .LVU451
 1885 006c 0120     		movs	r0, #1	@,
 1886 006e 0BB0     		add	sp, sp, #44	@,,
 1887              	.LCFI16:
 1888              		.cfi_def_cfa_offset 28
 1889              		@ sp needed	@
 1890 0070 BDE8F083 		pop	{r4, r5, r6, r7, r8, r9, pc}	@
 1891              	.LVL124:
 1892              	.L48:
 513:luaglue.c     **** 
 1893              		.loc 1 513 1 view .LVU452
 1894              		.align	2
 1895              	.L47:
 1896 0074 00000000 		.word	.LC1
 1897 0078 00000000 		.word	m3d_realloc
 1898 007c 00000000 		.word	.LANCHOR0
 1899 0080 00000000 		.word	.LC0
 1900              		.cfi_endproc
 1901              	.LFE62:
 1902              		.size	point_mul, .-point_mul
 1903              		.section	.text.point_newindex,"ax",%progbits
 1904              		.align	1
 1905              		.p2align 4,,15
 1906              		.syntax unified
 1907              		.thumb
 1908              		.thumb_func
 1909              		.fpu fpv5-sp-d16
ARM GAS  /var/folders/cs/83z6p2tj4w57s6p2rt8nwfp00000gn/T//ccYNfdJn.s 			page 52


 1910              		.type	point_newindex, %function
 1911              	point_newindex:
 1912              	.LVL125:
 1913              	.LFB61:
 490:luaglue.c     **** 	Point3D* p = getPoint(1);
 1914              		.loc 1 490 1 is_stmt 1 view -0
 1915              		.cfi_startproc
 1916              		@ args = 0, pretend = 0, frame = 0
 1917              		@ frame_needed = 0, uses_anonymous_args = 0
 491:luaglue.c     **** 	const char* arg = pd->lua->getArgString(2);
 1918              		.loc 1 491 2 view .LVU454
 1919              	.LBB147:
 1920              	.LBI147:
  31:luaglue.c     **** static Matrix3D* getMatrix(int n)		{ return get3DObj(n, "lib3d.matrix"); }
 1921              		.loc 1 31 17 view .LVU455
 1922              	.LBB148:
  31:luaglue.c     **** static Matrix3D* getMatrix(int n)		{ return get3DObj(n, "lib3d.matrix"); }
 1923              		.loc 1 31 37 view .LVU456
 1924              	.LBE148:
 1925              	.LBE147:
 1926              	@ luaglue.c:490: {
 490:luaglue.c     **** 	Point3D* p = getPoint(1);
 1927              		.loc 1 490 1 is_stmt 0 view .LVU457
 1928 0000 38B5     		push	{r3, r4, r5, lr}	@
 1929              	.LCFI17:
 1930              		.cfi_def_cfa_offset 16
 1931              		.cfi_offset 3, -16
 1932              		.cfi_offset 4, -12
 1933              		.cfi_offset 5, -8
 1934              		.cfi_offset 14, -4
 1935              	@ luaglue.c:492: 	const char* arg = pd->lua->getArgString(2);
 492:luaglue.c     **** 	
 1936              		.loc 1 492 22 view .LVU458
 1937 0002 1A4C     		ldr	r4, .L57	@ tmp156,
 1938              	.LBB151:
 1939              	.LBB149:
 1940              	@ luaglue.c:31: static Point3D* getPoint(int n)			{ return get3DObj(n, "lib3d.point"); }
  31:luaglue.c     **** static Matrix3D* getMatrix(int n)		{ return get3DObj(n, "lib3d.matrix"); }
 1941              		.loc 1 31 44 view .LVU459
 1942 0004 0120     		movs	r0, #1	@,
 1943              	.LVL126:
  31:luaglue.c     **** static Matrix3D* getMatrix(int n)		{ return get3DObj(n, "lib3d.matrix"); }
 1944              		.loc 1 31 44 view .LVU460
 1945 0006 1A49     		ldr	r1, .L57+4	@,
 1946 0008 FFF7FEFF 		bl	get3DObj		@
 1947              	.LVL127:
 1948              	.LBE149:
 1949              	.LBE151:
 1950              	@ luaglue.c:492: 	const char* arg = pd->lua->getArgString(2);
 492:luaglue.c     **** 	
 1951              		.loc 1 492 22 view .LVU461
 1952 000c 2368     		ldr	r3, [r4]	@ pd, pd
 1953              	.LBB152:
 1954              	.LBB150:
 1955              	@ luaglue.c:31: static Point3D* getPoint(int n)			{ return get3DObj(n, "lib3d.point"); }
  31:luaglue.c     **** static Matrix3D* getMatrix(int n)		{ return get3DObj(n, "lib3d.matrix"); }
 1956              		.loc 1 31 44 view .LVU462
ARM GAS  /var/folders/cs/83z6p2tj4w57s6p2rt8nwfp00000gn/T//ccYNfdJn.s 			page 53


 1957 000e 0546     		mov	r5, r0	@ tmp158,
 1958              	.LBE150:
 1959              	.LBE152:
 1960              	@ luaglue.c:492: 	const char* arg = pd->lua->getArgString(2);
 492:luaglue.c     **** 	
 1961              		.loc 1 492 20 view .LVU463
 1962 0010 0220     		movs	r0, #2	@,
 1963              	.LVL128:
 492:luaglue.c     **** 	
 1964              		.loc 1 492 2 is_stmt 1 view .LVU464
 1965              	@ luaglue.c:492: 	const char* arg = pd->lua->getArgString(2);
 492:luaglue.c     **** 	
 1966              		.loc 1 492 27 is_stmt 0 view .LVU465
 1967 0012 9B69     		ldr	r3, [r3, #24]	@ pd.46_1->lua, pd.46_1->lua
 1968              	@ luaglue.c:492: 	const char* arg = pd->lua->getArgString(2);
 492:luaglue.c     **** 	
 1969              		.loc 1 492 20 view .LVU466
 1970 0014 1B6B     		ldr	r3, [r3, #48]	@ _2->getArgString, _2->getArgString
 1971 0016 9847     		blx	r3		@ _2->getArgString
 1972              	.LVL129:
 494:luaglue.c     **** 		p->x = pd->lua->getArgFloat(3);
 1973              		.loc 1 494 2 is_stmt 1 view .LVU467
 1974              	@ luaglue.c:494: 	if ( strcmp(arg, "x") == 0 )
 494:luaglue.c     **** 		p->x = pd->lua->getArgFloat(3);
 1975              		.loc 1 494 7 is_stmt 0 view .LVU468
 1976 0018 0378     		ldrb	r3, [r0]	@ zero_extendqisi2	@ MEM[(void *)arg_22], MEM[(void *)arg_22]
 1977 001a 782B     		cmp	r3, #120	@ MEM[(void *)arg_22],
 1978 001c 0AD1     		bne	.L51		@,
 1979 001e 4278     		ldrb	r2, [r0, #1]	@ zero_extendqisi2	@ MEM[(void *)arg_22], MEM[(void *)arg_22]
 1980              	@ luaglue.c:494: 	if ( strcmp(arg, "x") == 0 )
 494:luaglue.c     **** 		p->x = pd->lua->getArgFloat(3);
 1981              		.loc 1 494 5 view .LVU469
 1982 0020 42B9     		cbnz	r2, .L51	@ MEM[(void *)arg_22],
 495:luaglue.c     **** 	else if ( strcmp(arg, "y") == 0 )
 1983              		.loc 1 495 3 is_stmt 1 view .LVU470
 1984              	@ luaglue.c:495: 		p->x = pd->lua->getArgFloat(3);
 495:luaglue.c     **** 	else if ( strcmp(arg, "y") == 0 )
 1985              		.loc 1 495 12 is_stmt 0 view .LVU471
 1986 0022 2368     		ldr	r3, [r4]	@ pd, pd
 1987              	@ luaglue.c:495: 		p->x = pd->lua->getArgFloat(3);
 495:luaglue.c     **** 	else if ( strcmp(arg, "y") == 0 )
 1988              		.loc 1 495 10 view .LVU472
 1989 0024 0320     		movs	r0, #3	@,
 1990              	.LVL130:
 1991              	@ luaglue.c:495: 		p->x = pd->lua->getArgFloat(3);
 495:luaglue.c     **** 	else if ( strcmp(arg, "y") == 0 )
 1992              		.loc 1 495 17 view .LVU473
 1993 0026 9B69     		ldr	r3, [r3, #24]	@ pd.47_5->lua, pd.47_5->lua
 1994              	@ luaglue.c:495: 		p->x = pd->lua->getArgFloat(3);
 495:luaglue.c     **** 	else if ( strcmp(arg, "y") == 0 )
 1995              		.loc 1 495 10 view .LVU474
 1996 0028 DB6A     		ldr	r3, [r3, #44]	@ _6->getArgFloat, _6->getArgFloat
 1997 002a 9847     		blx	r3		@ _6->getArgFloat
 1998              	.LVL131:
 1999              	@ luaglue.c:495: 		p->x = pd->lua->getArgFloat(3);
 495:luaglue.c     **** 	else if ( strcmp(arg, "y") == 0 )
 2000              		.loc 1 495 8 view .LVU475
ARM GAS  /var/folders/cs/83z6p2tj4w57s6p2rt8nwfp00000gn/T//ccYNfdJn.s 			page 54


 2001 002c 85ED000A 		vstr.32	s0, [r5]	@ tmp160, _29->x
 2002              	.L52:
 501:luaglue.c     **** }
 2003              		.loc 1 501 2 is_stmt 1 view .LVU476
 2004              	@ luaglue.c:502: }
 502:luaglue.c     **** 
 2005              		.loc 1 502 1 is_stmt 0 view .LVU477
 2006 0030 0020     		movs	r0, #0	@,
 2007 0032 38BD     		pop	{r3, r4, r5, pc}	@
 2008              	.LVL132:
 2009              	.L51:
 496:luaglue.c     **** 		p->y = pd->lua->getArgFloat(3);
 2010              		.loc 1 496 7 is_stmt 1 view .LVU478
 2011              	@ luaglue.c:496: 	else if ( strcmp(arg, "y") == 0 )
 496:luaglue.c     **** 		p->y = pd->lua->getArgFloat(3);
 2012              		.loc 1 496 12 is_stmt 0 view .LVU479
 2013 0034 792B     		cmp	r3, #121	@ MEM[(void *)arg_22],
 2014 0036 0AD1     		bne	.L54		@,
 2015 0038 4278     		ldrb	r2, [r0, #1]	@ zero_extendqisi2	@ MEM[(void *)arg_22], MEM[(void *)arg_22]
 2016              	@ luaglue.c:496: 	else if ( strcmp(arg, "y") == 0 )
 496:luaglue.c     **** 		p->y = pd->lua->getArgFloat(3);
 2017              		.loc 1 496 10 view .LVU480
 2018 003a 42B9     		cbnz	r2, .L54	@ MEM[(void *)arg_22],
 497:luaglue.c     **** 	else if ( strcmp(arg, "z") == 0 )
 2019              		.loc 1 497 3 is_stmt 1 view .LVU481
 2020              	@ luaglue.c:497: 		p->y = pd->lua->getArgFloat(3);
 497:luaglue.c     **** 	else if ( strcmp(arg, "z") == 0 )
 2021              		.loc 1 497 12 is_stmt 0 view .LVU482
 2022 003c 2368     		ldr	r3, [r4]	@ pd, pd
 2023              	@ luaglue.c:497: 		p->y = pd->lua->getArgFloat(3);
 497:luaglue.c     **** 	else if ( strcmp(arg, "z") == 0 )
 2024              		.loc 1 497 10 view .LVU483
 2025 003e 0320     		movs	r0, #3	@,
 2026              	.LVL133:
 2027              	@ luaglue.c:497: 		p->y = pd->lua->getArgFloat(3);
 497:luaglue.c     **** 	else if ( strcmp(arg, "z") == 0 )
 2028              		.loc 1 497 17 view .LVU484
 2029 0040 9B69     		ldr	r3, [r3, #24]	@ pd.48_10->lua, pd.48_10->lua
 2030              	@ luaglue.c:497: 		p->y = pd->lua->getArgFloat(3);
 497:luaglue.c     **** 	else if ( strcmp(arg, "z") == 0 )
 2031              		.loc 1 497 10 view .LVU485
 2032 0042 DB6A     		ldr	r3, [r3, #44]	@ _11->getArgFloat, _11->getArgFloat
 2033 0044 9847     		blx	r3		@ _11->getArgFloat
 2034              	.LVL134:
 2035              	@ luaglue.c:502: }
 502:luaglue.c     **** 
 2036              		.loc 1 502 1 view .LVU486
 2037 0046 0020     		movs	r0, #0	@,
 2038              	@ luaglue.c:497: 		p->y = pd->lua->getArgFloat(3);
 497:luaglue.c     **** 	else if ( strcmp(arg, "z") == 0 )
 2039              		.loc 1 497 8 view .LVU487
 2040 0048 85ED010A 		vstr.32	s0, [r5, #4]	@ tmp161, _29->y
 501:luaglue.c     **** }
 2041              		.loc 1 501 2 is_stmt 1 view .LVU488
 2042              	@ luaglue.c:502: }
 502:luaglue.c     **** 
 2043              		.loc 1 502 1 is_stmt 0 view .LVU489
ARM GAS  /var/folders/cs/83z6p2tj4w57s6p2rt8nwfp00000gn/T//ccYNfdJn.s 			page 55


 2044 004c 38BD     		pop	{r3, r4, r5, pc}	@
 2045              	.LVL135:
 2046              	.L54:
 498:luaglue.c     **** 		p->z = pd->lua->getArgFloat(3);
 2047              		.loc 1 498 7 is_stmt 1 view .LVU490
 2048              	@ luaglue.c:498: 	else if ( strcmp(arg, "z") == 0 )
 498:luaglue.c     **** 		p->z = pd->lua->getArgFloat(3);
 2049              		.loc 1 498 12 is_stmt 0 view .LVU491
 2050 004e 7A2B     		cmp	r3, #122	@ MEM[(void *)arg_22],
 2051 0050 EED1     		bne	.L52		@,
 2052 0052 4378     		ldrb	r3, [r0, #1]	@ zero_extendqisi2	@ MEM[(void *)arg_22], MEM[(void *)arg_22]
 2053              	@ luaglue.c:498: 	else if ( strcmp(arg, "z") == 0 )
 498:luaglue.c     **** 		p->z = pd->lua->getArgFloat(3);
 2054              		.loc 1 498 10 view .LVU492
 2055 0054 002B     		cmp	r3, #0	@ MEM[(void *)arg_22]
 2056 0056 EBD1     		bne	.L52	@
 499:luaglue.c     **** 	
 2057              		.loc 1 499 3 is_stmt 1 view .LVU493
 2058              	@ luaglue.c:499: 		p->z = pd->lua->getArgFloat(3);
 499:luaglue.c     **** 	
 2059              		.loc 1 499 12 is_stmt 0 view .LVU494
 2060 0058 2368     		ldr	r3, [r4]	@ pd, pd
 2061              	@ luaglue.c:499: 		p->z = pd->lua->getArgFloat(3);
 499:luaglue.c     **** 	
 2062              		.loc 1 499 10 view .LVU495
 2063 005a 0320     		movs	r0, #3	@,
 2064              	.LVL136:
 2065              	@ luaglue.c:499: 		p->z = pd->lua->getArgFloat(3);
 499:luaglue.c     **** 	
 2066              		.loc 1 499 17 view .LVU496
 2067 005c 9B69     		ldr	r3, [r3, #24]	@ pd.49_15->lua, pd.49_15->lua
 2068              	@ luaglue.c:499: 		p->z = pd->lua->getArgFloat(3);
 499:luaglue.c     **** 	
 2069              		.loc 1 499 10 view .LVU497
 2070 005e DB6A     		ldr	r3, [r3, #44]	@ _16->getArgFloat, _16->getArgFloat
 2071 0060 9847     		blx	r3		@ _16->getArgFloat
 2072              	.LVL137:
 2073              	@ luaglue.c:502: }
 502:luaglue.c     **** 
 2074              		.loc 1 502 1 view .LVU498
 2075 0062 0020     		movs	r0, #0	@,
 2076              	@ luaglue.c:499: 		p->z = pd->lua->getArgFloat(3);
 499:luaglue.c     **** 	
 2077              		.loc 1 499 8 view .LVU499
 2078 0064 85ED020A 		vstr.32	s0, [r5, #8]	@ tmp162, _29->z
 501:luaglue.c     **** }
 2079              		.loc 1 501 2 is_stmt 1 view .LVU500
 2080              	@ luaglue.c:502: }
 502:luaglue.c     **** 
 2081              		.loc 1 502 1 is_stmt 0 view .LVU501
 2082 0068 38BD     		pop	{r3, r4, r5, pc}	@
 2083              	.LVL138:
 2084              	.L58:
 502:luaglue.c     **** 
 2085              		.loc 1 502 1 view .LVU502
 2086 006a 00BF     		.align	2
 2087              	.L57:
ARM GAS  /var/folders/cs/83z6p2tj4w57s6p2rt8nwfp00000gn/T//ccYNfdJn.s 			page 56


 2088 006c 00000000 		.word	.LANCHOR0
 2089 0070 00000000 		.word	.LC0
 2090              		.cfi_endproc
 2091              	.LFE61:
 2092              		.size	point_newindex, .-point_newindex
 2093              		.section	.text.point_index,"ax",%progbits
 2094              		.align	1
 2095              		.p2align 4,,15
 2096              		.syntax unified
 2097              		.thumb
 2098              		.thumb_func
 2099              		.fpu fpv5-sp-d16
 2100              		.type	point_index, %function
 2101              	point_index:
 2102              	.LVL139:
 2103              	.LFB60:
 473:luaglue.c     **** 	Point3D* p = getPoint(1);
 2104              		.loc 1 473 1 is_stmt 1 view -0
 2105              		.cfi_startproc
 2106              		@ args = 0, pretend = 0, frame = 0
 2107              		@ frame_needed = 0, uses_anonymous_args = 0
 474:luaglue.c     **** 	const char* arg = pd->lua->getArgString(2);
 2108              		.loc 1 474 2 view .LVU504
 2109              	.LBB153:
 2110              	.LBI153:
  31:luaglue.c     **** static Matrix3D* getMatrix(int n)		{ return get3DObj(n, "lib3d.matrix"); }
 2111              		.loc 1 31 17 view .LVU505
 2112              	.LBB154:
  31:luaglue.c     **** static Matrix3D* getMatrix(int n)		{ return get3DObj(n, "lib3d.matrix"); }
 2113              		.loc 1 31 37 view .LVU506
 2114              	.LBE154:
 2115              	.LBE153:
 2116              	@ luaglue.c:473: {
 473:luaglue.c     **** 	Point3D* p = getPoint(1);
 2117              		.loc 1 473 1 is_stmt 0 view .LVU507
 2118 0000 38B5     		push	{r3, r4, r5, lr}	@
 2119              	.LCFI18:
 2120              		.cfi_def_cfa_offset 16
 2121              		.cfi_offset 3, -16
 2122              		.cfi_offset 4, -12
 2123              		.cfi_offset 5, -8
 2124              		.cfi_offset 14, -4
 2125              	@ luaglue.c:475: 	const char* arg = pd->lua->getArgString(2);
 475:luaglue.c     **** 	
 2126              		.loc 1 475 22 view .LVU508
 2127 0002 1B4C     		ldr	r4, .L68	@ tmp166,
 2128              	.LBB157:
 2129              	.LBB155:
 2130              	@ luaglue.c:31: static Point3D* getPoint(int n)			{ return get3DObj(n, "lib3d.point"); }
  31:luaglue.c     **** static Matrix3D* getMatrix(int n)		{ return get3DObj(n, "lib3d.matrix"); }
 2131              		.loc 1 31 44 view .LVU509
 2132 0004 0120     		movs	r0, #1	@,
 2133              	.LVL140:
  31:luaglue.c     **** static Matrix3D* getMatrix(int n)		{ return get3DObj(n, "lib3d.matrix"); }
 2134              		.loc 1 31 44 view .LVU510
 2135 0006 1B49     		ldr	r1, .L68+4	@,
 2136 0008 FFF7FEFF 		bl	get3DObj		@
ARM GAS  /var/folders/cs/83z6p2tj4w57s6p2rt8nwfp00000gn/T//ccYNfdJn.s 			page 57


 2137              	.LVL141:
 2138              	.LBE155:
 2139              	.LBE157:
 2140              	@ luaglue.c:475: 	const char* arg = pd->lua->getArgString(2);
 475:luaglue.c     **** 	
 2141              		.loc 1 475 22 view .LVU511
 2142 000c 2368     		ldr	r3, [r4]	@ pd, pd
 2143              	.LBB158:
 2144              	.LBB156:
 2145              	@ luaglue.c:31: static Point3D* getPoint(int n)			{ return get3DObj(n, "lib3d.point"); }
  31:luaglue.c     **** static Matrix3D* getMatrix(int n)		{ return get3DObj(n, "lib3d.matrix"); }
 2146              		.loc 1 31 44 view .LVU512
 2147 000e 0546     		mov	r5, r0	@ tmp168,
 2148              	.LBE156:
 2149              	.LBE158:
 2150              	@ luaglue.c:475: 	const char* arg = pd->lua->getArgString(2);
 475:luaglue.c     **** 	
 2151              		.loc 1 475 20 view .LVU513
 2152 0010 0220     		movs	r0, #2	@,
 2153              	.LVL142:
 475:luaglue.c     **** 	
 2154              		.loc 1 475 2 is_stmt 1 view .LVU514
 2155              	@ luaglue.c:475: 	const char* arg = pd->lua->getArgString(2);
 475:luaglue.c     **** 	
 2156              		.loc 1 475 27 is_stmt 0 view .LVU515
 2157 0012 9B69     		ldr	r3, [r3, #24]	@ pd.50_1->lua, pd.50_1->lua
 2158              	@ luaglue.c:475: 	const char* arg = pd->lua->getArgString(2);
 475:luaglue.c     **** 	
 2159              		.loc 1 475 20 view .LVU516
 2160 0014 1B6B     		ldr	r3, [r3, #48]	@ _2->getArgString, _2->getArgString
 2161 0016 9847     		blx	r3		@ _2->getArgString
 2162              	.LVL143:
 477:luaglue.c     **** 		pd->lua->pushFloat(p->x);
 2163              		.loc 1 477 2 is_stmt 1 view .LVU517
 2164              	@ luaglue.c:477: 	if ( strcmp(arg, "x") == 0 )
 477:luaglue.c     **** 		pd->lua->pushFloat(p->x);
 2165              		.loc 1 477 7 is_stmt 0 view .LVU518
 2166 0018 0378     		ldrb	r3, [r0]	@ zero_extendqisi2	@ MEM[(void *)arg_25], MEM[(void *)arg_25]
 2167 001a 782B     		cmp	r3, #120	@ MEM[(void *)arg_25],
 2168 001c 09D1     		bne	.L61		@,
 2169 001e 4278     		ldrb	r2, [r0, #1]	@ zero_extendqisi2	@ MEM[(void *)arg_25], MEM[(void *)arg_25]
 2170              	@ luaglue.c:477: 	if ( strcmp(arg, "x") == 0 )
 477:luaglue.c     **** 		pd->lua->pushFloat(p->x);
 2171              		.loc 1 477 5 view .LVU519
 2172 0020 3AB9     		cbnz	r2, .L61	@ MEM[(void *)arg_25],
 478:luaglue.c     **** 	else if ( strcmp(arg, "y") == 0 )
 2173              		.loc 1 478 3 is_stmt 1 view .LVU520
 2174              	@ luaglue.c:478: 		pd->lua->pushFloat(p->x);
 478:luaglue.c     **** 	else if ( strcmp(arg, "y") == 0 )
 2175              		.loc 1 478 5 is_stmt 0 view .LVU521
 2176 0022 2368     		ldr	r3, [r4]	@ pd, pd
 2177              	@ luaglue.c:478: 		pd->lua->pushFloat(p->x);
 478:luaglue.c     **** 	else if ( strcmp(arg, "y") == 0 )
 2178              		.loc 1 478 3 view .LVU522
 2179 0024 95ED000A 		vldr.32	s0, [r5]	@, _30->x
 2180              	@ luaglue.c:478: 		pd->lua->pushFloat(p->x);
 478:luaglue.c     **** 	else if ( strcmp(arg, "y") == 0 )
ARM GAS  /var/folders/cs/83z6p2tj4w57s6p2rt8nwfp00000gn/T//ccYNfdJn.s 			page 58


 2181              		.loc 1 478 10 view .LVU523
 2182 0028 9B69     		ldr	r3, [r3, #24]	@ pd.51_5->lua,
 2183              	@ luaglue.c:478: 		pd->lua->pushFloat(p->x);
 478:luaglue.c     **** 	else if ( strcmp(arg, "y") == 0 )
 2184              		.loc 1 478 3 view .LVU524
 2185 002a 1B6D     		ldr	r3, [r3, #80]	@ _6->pushFloat,
 2186 002c 9847     		blx	r3		@ _6->pushFloat
 2187              	.LVL144:
 486:luaglue.c     **** }
 2188              		.loc 1 486 2 is_stmt 1 view .LVU525
 2189              	@ luaglue.c:487: }
 487:luaglue.c     **** 
 2190              		.loc 1 487 1 is_stmt 0 view .LVU526
 2191 002e 0120     		movs	r0, #1	@,
 2192 0030 38BD     		pop	{r3, r4, r5, pc}	@
 2193              	.LVL145:
 2194              	.L61:
 479:luaglue.c     **** 		pd->lua->pushFloat(p->y);
 2195              		.loc 1 479 7 is_stmt 1 view .LVU527
 2196              	@ luaglue.c:479: 	else if ( strcmp(arg, "y") == 0 )
 479:luaglue.c     **** 		pd->lua->pushFloat(p->y);
 2197              		.loc 1 479 12 is_stmt 0 view .LVU528
 2198 0032 792B     		cmp	r3, #121	@ MEM[(void *)arg_25],
 2199 0034 09D1     		bne	.L64		@,
 2200 0036 4278     		ldrb	r2, [r0, #1]	@ zero_extendqisi2	@ MEM[(void *)arg_25], MEM[(void *)arg_25]
 2201              	@ luaglue.c:479: 	else if ( strcmp(arg, "y") == 0 )
 479:luaglue.c     **** 		pd->lua->pushFloat(p->y);
 2202              		.loc 1 479 10 view .LVU529
 2203 0038 3AB9     		cbnz	r2, .L64	@ MEM[(void *)arg_25],
 480:luaglue.c     **** 	else if ( strcmp(arg, "z") == 0 )
 2204              		.loc 1 480 3 is_stmt 1 view .LVU530
 2205              	@ luaglue.c:480: 		pd->lua->pushFloat(p->y);
 480:luaglue.c     **** 	else if ( strcmp(arg, "z") == 0 )
 2206              		.loc 1 480 5 is_stmt 0 view .LVU531
 2207 003a 2368     		ldr	r3, [r4]	@ pd, pd
 2208              	@ luaglue.c:480: 		pd->lua->pushFloat(p->y);
 480:luaglue.c     **** 	else if ( strcmp(arg, "z") == 0 )
 2209              		.loc 1 480 3 view .LVU532
 2210 003c 95ED010A 		vldr.32	s0, [r5, #4]	@, _30->y
 2211              	@ luaglue.c:480: 		pd->lua->pushFloat(p->y);
 480:luaglue.c     **** 	else if ( strcmp(arg, "z") == 0 )
 2212              		.loc 1 480 10 view .LVU533
 2213 0040 9B69     		ldr	r3, [r3, #24]	@ pd.52_10->lua,
 2214              	@ luaglue.c:480: 		pd->lua->pushFloat(p->y);
 480:luaglue.c     **** 	else if ( strcmp(arg, "z") == 0 )
 2215              		.loc 1 480 3 view .LVU534
 2216 0042 1B6D     		ldr	r3, [r3, #80]	@ _11->pushFloat,
 2217 0044 9847     		blx	r3		@ _11->pushFloat
 2218              	.LVL146:
 486:luaglue.c     **** }
 2219              		.loc 1 486 2 is_stmt 1 view .LVU535
 2220              	@ luaglue.c:487: }
 487:luaglue.c     **** 
 2221              		.loc 1 487 1 is_stmt 0 view .LVU536
 2222 0046 0120     		movs	r0, #1	@,
 2223 0048 38BD     		pop	{r3, r4, r5, pc}	@
 2224              	.LVL147:
ARM GAS  /var/folders/cs/83z6p2tj4w57s6p2rt8nwfp00000gn/T//ccYNfdJn.s 			page 59


 2225              	.L64:
 481:luaglue.c     **** 		pd->lua->pushFloat(p->z);
 2226              		.loc 1 481 7 is_stmt 1 view .LVU537
 2227              	@ luaglue.c:481: 	else if ( strcmp(arg, "z") == 0 )
 481:luaglue.c     **** 		pd->lua->pushFloat(p->z);
 2228              		.loc 1 481 12 is_stmt 0 view .LVU538
 2229 004a 7A2B     		cmp	r3, #122	@ MEM[(void *)arg_25],
 2230 004c 09D1     		bne	.L66		@,
 2231 004e 4378     		ldrb	r3, [r0, #1]	@ zero_extendqisi2	@ MEM[(void *)arg_25], MEM[(void *)arg_25]
 2232              	@ luaglue.c:481: 	else if ( strcmp(arg, "z") == 0 )
 481:luaglue.c     **** 		pd->lua->pushFloat(p->z);
 2233              		.loc 1 481 10 view .LVU539
 2234 0050 3BB9     		cbnz	r3, .L66	@ MEM[(void *)arg_25],
 482:luaglue.c     **** 	else
 2235              		.loc 1 482 3 is_stmt 1 view .LVU540
 2236              	@ luaglue.c:482: 		pd->lua->pushFloat(p->z);
 482:luaglue.c     **** 	else
 2237              		.loc 1 482 5 is_stmt 0 view .LVU541
 2238 0052 2368     		ldr	r3, [r4]	@ pd, pd
 2239              	@ luaglue.c:482: 		pd->lua->pushFloat(p->z);
 482:luaglue.c     **** 	else
 2240              		.loc 1 482 3 view .LVU542
 2241 0054 95ED020A 		vldr.32	s0, [r5, #8]	@, _30->z
 2242              	@ luaglue.c:482: 		pd->lua->pushFloat(p->z);
 482:luaglue.c     **** 	else
 2243              		.loc 1 482 10 view .LVU543
 2244 0058 9B69     		ldr	r3, [r3, #24]	@ pd.53_15->lua,
 2245              	@ luaglue.c:482: 		pd->lua->pushFloat(p->z);
 482:luaglue.c     **** 	else
 2246              		.loc 1 482 3 view .LVU544
 2247 005a 1B6D     		ldr	r3, [r3, #80]	@ _16->pushFloat,
 2248 005c 9847     		blx	r3		@ _16->pushFloat
 2249              	.LVL148:
 486:luaglue.c     **** }
 2250              		.loc 1 486 2 is_stmt 1 view .LVU545
 2251              	@ luaglue.c:487: }
 487:luaglue.c     **** 
 2252              		.loc 1 487 1 is_stmt 0 view .LVU546
 2253 005e 0120     		movs	r0, #1	@,
 2254 0060 38BD     		pop	{r3, r4, r5, pc}	@
 2255              	.LVL149:
 2256              	.L66:
 484:luaglue.c     **** 	
 2257              		.loc 1 484 3 is_stmt 1 view .LVU547
 2258              	@ luaglue.c:484: 		pd->lua->pushNil();
 484:luaglue.c     **** 	
 2259              		.loc 1 484 5 is_stmt 0 view .LVU548
 2260 0062 2368     		ldr	r3, [r4]	@ pd, pd
 2261              	@ luaglue.c:484: 		pd->lua->pushNil();
 484:luaglue.c     **** 	
 2262              		.loc 1 484 10 view .LVU549
 2263 0064 9B69     		ldr	r3, [r3, #24]	@ pd.54_19->lua, pd.54_19->lua
 2264              	@ luaglue.c:484: 		pd->lua->pushNil();
 484:luaglue.c     **** 	
 2265              		.loc 1 484 3 view .LVU550
 2266 0066 5B6C     		ldr	r3, [r3, #68]	@ _20->pushNil, _20->pushNil
 2267 0068 9847     		blx	r3		@ _20->pushNil
ARM GAS  /var/folders/cs/83z6p2tj4w57s6p2rt8nwfp00000gn/T//ccYNfdJn.s 			page 60


 2268              	.LVL150:
 486:luaglue.c     **** }
 2269              		.loc 1 486 2 is_stmt 1 view .LVU551
 2270              	@ luaglue.c:487: }
 487:luaglue.c     **** 
 2271              		.loc 1 487 1 is_stmt 0 view .LVU552
 2272 006a 0120     		movs	r0, #1	@,
 2273 006c 38BD     		pop	{r3, r4, r5, pc}	@
 2274              	.LVL151:
 2275              	.L69:
 487:luaglue.c     **** 
 2276              		.loc 1 487 1 view .LVU553
 2277 006e 00BF     		.align	2
 2278              	.L68:
 2279 0070 00000000 		.word	.LANCHOR0
 2280 0074 00000000 		.word	.LC0
 2281              		.cfi_endproc
 2282              	.LFE60:
 2283              		.size	point_index, .-point_index
 2284              		.section	.text.shape_setOrderTableSize,"ax",%progbits
 2285              		.align	1
 2286              		.p2align 4,,15
 2287              		.syntax unified
 2288              		.thumb
 2289              		.thumb_func
 2290              		.fpu fpv5-sp-d16
 2291              		.type	shape_setOrderTableSize, %function
 2292              	shape_setOrderTableSize:
 2293              	.LVL152:
 2294              	.LFB57:
 434:luaglue.c     **** 	Shape3D_setOrderTableSize(getShape(1), pd->lua->getArgInt(2));
 2295              		.loc 1 434 1 is_stmt 1 view -0
 2296              		.cfi_startproc
 2297              		@ args = 0, pretend = 0, frame = 0
 2298              		@ frame_needed = 0, uses_anonymous_args = 0
 435:luaglue.c     **** 	return 0;
 2299              		.loc 1 435 2 view .LVU555
 2300              	.LBB159:
 2301              	.LBI159:
  30:luaglue.c     **** static Point3D* getPoint(int n)			{ return get3DObj(n, "lib3d.point"); }
 2302              		.loc 1 30 17 view .LVU556
 2303              	.LBB160:
  30:luaglue.c     **** static Point3D* getPoint(int n)			{ return get3DObj(n, "lib3d.point"); }
 2304              		.loc 1 30 37 view .LVU557
 2305              	.LBE160:
 2306              	.LBE159:
 2307              	@ luaglue.c:434: {
 434:luaglue.c     **** 	Shape3D_setOrderTableSize(getShape(1), pd->lua->getArgInt(2));
 2308              		.loc 1 434 1 is_stmt 0 view .LVU558
 2309 0000 10B5     		push	{r4, lr}	@
 2310              	.LCFI19:
 2311              		.cfi_def_cfa_offset 8
 2312              		.cfi_offset 4, -8
 2313              		.cfi_offset 14, -4
 2314              	.LBB163:
 2315              	.LBB161:
 2316              	@ luaglue.c:30: static Shape3D* getShape(int n)			{ return get3DObj(n, "lib3d.shape"); }
ARM GAS  /var/folders/cs/83z6p2tj4w57s6p2rt8nwfp00000gn/T//ccYNfdJn.s 			page 61


  30:luaglue.c     **** static Point3D* getPoint(int n)			{ return get3DObj(n, "lib3d.point"); }
 2317              		.loc 1 30 44 view .LVU559
 2318 0002 0849     		ldr	r1, .L72	@,
 2319 0004 0120     		movs	r0, #1	@,
 2320              	.LVL153:
  30:luaglue.c     **** static Point3D* getPoint(int n)			{ return get3DObj(n, "lib3d.point"); }
 2321              		.loc 1 30 44 view .LVU560
 2322 0006 FFF7FEFF 		bl	get3DObj		@
 2323              	.LVL154:
 2324              	.LBE161:
 2325              	.LBE163:
 2326              	@ luaglue.c:435: 	Shape3D_setOrderTableSize(getShape(1), pd->lua->getArgInt(2));
 435:luaglue.c     **** 	return 0;
 2327              		.loc 1 435 43 view .LVU561
 2328 000a 074B     		ldr	r3, .L72+4	@ tmp118,
 2329              	.LBB164:
 2330              	.LBB162:
 2331              	@ luaglue.c:30: static Shape3D* getShape(int n)			{ return get3DObj(n, "lib3d.shape"); }
  30:luaglue.c     **** static Point3D* getPoint(int n)			{ return get3DObj(n, "lib3d.point"); }
 2332              		.loc 1 30 44 view .LVU562
 2333 000c 0446     		mov	r4, r0	@ tmp123,
 2334              	.LBE162:
 2335              	.LBE164:
 2336              	@ luaglue.c:435: 	Shape3D_setOrderTableSize(getShape(1), pd->lua->getArgInt(2));
 435:luaglue.c     **** 	return 0;
 2337              		.loc 1 435 2 view .LVU563
 2338 000e 0220     		movs	r0, #2	@,
 2339              	.LVL155:
 2340              	@ luaglue.c:435: 	Shape3D_setOrderTableSize(getShape(1), pd->lua->getArgInt(2));
 435:luaglue.c     **** 	return 0;
 2341              		.loc 1 435 43 view .LVU564
 2342 0010 1B68     		ldr	r3, [r3]	@ pd, pd
 2343              	@ luaglue.c:435: 	Shape3D_setOrderTableSize(getShape(1), pd->lua->getArgInt(2));
 435:luaglue.c     **** 	return 0;
 2344              		.loc 1 435 48 view .LVU565
 2345 0012 9B69     		ldr	r3, [r3, #24]	@ pd.61_1->lua, pd.61_1->lua
 2346              	@ luaglue.c:435: 	Shape3D_setOrderTableSize(getShape(1), pd->lua->getArgInt(2));
 435:luaglue.c     **** 	return 0;
 2347              		.loc 1 435 2 view .LVU566
 2348 0014 9B6A     		ldr	r3, [r3, #40]	@ _2->getArgInt, _2->getArgInt
 2349 0016 9847     		blx	r3		@ _2->getArgInt
 2350              	.LVL156:
 2351 0018 0146     		mov	r1, r0	@ tmp124,
 2352 001a 2046     		mov	r0, r4	@, _8
 2353 001c FFF7FEFF 		bl	Shape3D_setOrderTableSize		@
 2354              	.LVL157:
 436:luaglue.c     **** }
 2355              		.loc 1 436 2 is_stmt 1 view .LVU567
 2356              	@ luaglue.c:437: }
 437:luaglue.c     **** #endif
 2357              		.loc 1 437 1 is_stmt 0 view .LVU568
 2358 0020 0020     		movs	r0, #0	@,
 2359 0022 10BD     		pop	{r4, pc}	@
 2360              	.L73:
 2361              		.align	2
 2362              	.L72:
 2363 0024 00000000 		.word	.LC2
ARM GAS  /var/folders/cs/83z6p2tj4w57s6p2rt8nwfp00000gn/T//ccYNfdJn.s 			page 62


 2364 0028 00000000 		.word	.LANCHOR0
 2365              		.cfi_endproc
 2366              	.LFE57:
 2367              		.size	shape_setOrderTableSize, .-shape_setOrderTableSize
 2368              		.section	.text.shape_setClosed,"ax",%progbits
 2369              		.align	1
 2370              		.p2align 4,,15
 2371              		.syntax unified
 2372              		.thumb
 2373              		.thumb_func
 2374              		.fpu fpv5-sp-d16
 2375              		.type	shape_setClosed, %function
 2376              	shape_setClosed:
 2377              	.LVL158:
 2378              	.LFB56:
 427:luaglue.c     **** 	Shape3D_setClosed(getShape(1), pd->lua->getArgBool(2));
 2379              		.loc 1 427 1 is_stmt 1 view -0
 2380              		.cfi_startproc
 2381              		@ args = 0, pretend = 0, frame = 0
 2382              		@ frame_needed = 0, uses_anonymous_args = 0
 428:luaglue.c     **** 	return 0;
 2383              		.loc 1 428 2 view .LVU570
 2384              	.LBB165:
 2385              	.LBI165:
  30:luaglue.c     **** static Point3D* getPoint(int n)			{ return get3DObj(n, "lib3d.point"); }
 2386              		.loc 1 30 17 view .LVU571
 2387              	.LBB166:
  30:luaglue.c     **** static Point3D* getPoint(int n)			{ return get3DObj(n, "lib3d.point"); }
 2388              		.loc 1 30 37 view .LVU572
 2389              	.LBE166:
 2390              	.LBE165:
 2391              	@ luaglue.c:427: {
 427:luaglue.c     **** 	Shape3D_setClosed(getShape(1), pd->lua->getArgBool(2));
 2392              		.loc 1 427 1 is_stmt 0 view .LVU573
 2393 0000 10B5     		push	{r4, lr}	@
 2394              	.LCFI20:
 2395              		.cfi_def_cfa_offset 8
 2396              		.cfi_offset 4, -8
 2397              		.cfi_offset 14, -4
 2398              	.LBB169:
 2399              	.LBB167:
 2400              	@ luaglue.c:30: static Shape3D* getShape(int n)			{ return get3DObj(n, "lib3d.shape"); }
  30:luaglue.c     **** static Point3D* getPoint(int n)			{ return get3DObj(n, "lib3d.point"); }
 2401              		.loc 1 30 44 view .LVU574
 2402 0002 0849     		ldr	r1, .L76	@,
 2403 0004 0120     		movs	r0, #1	@,
 2404              	.LVL159:
  30:luaglue.c     **** static Point3D* getPoint(int n)			{ return get3DObj(n, "lib3d.point"); }
 2405              		.loc 1 30 44 view .LVU575
 2406 0006 FFF7FEFF 		bl	get3DObj		@
 2407              	.LVL160:
 2408              	.LBE167:
 2409              	.LBE169:
 2410              	@ luaglue.c:428: 	Shape3D_setClosed(getShape(1), pd->lua->getArgBool(2));
 428:luaglue.c     **** 	return 0;
 2411              		.loc 1 428 35 view .LVU576
 2412 000a 074B     		ldr	r3, .L76+4	@ tmp118,
ARM GAS  /var/folders/cs/83z6p2tj4w57s6p2rt8nwfp00000gn/T//ccYNfdJn.s 			page 63


 2413              	.LBB170:
 2414              	.LBB168:
 2415              	@ luaglue.c:30: static Shape3D* getShape(int n)			{ return get3DObj(n, "lib3d.shape"); }
  30:luaglue.c     **** static Point3D* getPoint(int n)			{ return get3DObj(n, "lib3d.point"); }
 2416              		.loc 1 30 44 view .LVU577
 2417 000c 0446     		mov	r4, r0	@ tmp123,
 2418              	.LBE168:
 2419              	.LBE170:
 2420              	@ luaglue.c:428: 	Shape3D_setClosed(getShape(1), pd->lua->getArgBool(2));
 428:luaglue.c     **** 	return 0;
 2421              		.loc 1 428 2 view .LVU578
 2422 000e 0220     		movs	r0, #2	@,
 2423              	.LVL161:
 2424              	@ luaglue.c:428: 	Shape3D_setClosed(getShape(1), pd->lua->getArgBool(2));
 428:luaglue.c     **** 	return 0;
 2425              		.loc 1 428 35 view .LVU579
 2426 0010 1B68     		ldr	r3, [r3]	@ pd, pd
 2427              	@ luaglue.c:428: 	Shape3D_setClosed(getShape(1), pd->lua->getArgBool(2));
 428:luaglue.c     **** 	return 0;
 2428              		.loc 1 428 40 view .LVU580
 2429 0012 9B69     		ldr	r3, [r3, #24]	@ pd.62_1->lua, pd.62_1->lua
 2430              	@ luaglue.c:428: 	Shape3D_setClosed(getShape(1), pd->lua->getArgBool(2));
 428:luaglue.c     **** 	return 0;
 2431              		.loc 1 428 2 view .LVU581
 2432 0014 5B6A     		ldr	r3, [r3, #36]	@ _2->getArgBool, _2->getArgBool
 2433 0016 9847     		blx	r3		@ _2->getArgBool
 2434              	.LVL162:
 2435 0018 0146     		mov	r1, r0	@ tmp124,
 2436 001a 2046     		mov	r0, r4	@, _8
 2437 001c FFF7FEFF 		bl	Shape3D_setClosed		@
 2438              	.LVL163:
 429:luaglue.c     **** }
 2439              		.loc 1 429 2 is_stmt 1 view .LVU582
 2440              	@ luaglue.c:430: }
 430:luaglue.c     **** 
 2441              		.loc 1 430 1 is_stmt 0 view .LVU583
 2442 0020 0020     		movs	r0, #0	@,
 2443 0022 10BD     		pop	{r4, pc}	@
 2444              	.L77:
 2445              		.align	2
 2446              	.L76:
 2447 0024 00000000 		.word	.LC2
 2448 0028 00000000 		.word	.LANCHOR0
 2449              		.cfi_endproc
 2450              	.LFE56:
 2451              		.size	shape_setClosed, .-shape_setClosed
 2452              		.section	.text.shape_addFace,"ax",%progbits
 2453              		.align	1
 2454              		.p2align 4,,15
 2455              		.syntax unified
 2456              		.thumb
 2457              		.thumb_func
 2458              		.fpu fpv5-sp-d16
 2459              		.type	shape_addFace, %function
 2460              	shape_addFace:
 2461              	.LVL164:
 2462              	.LFB55:
ARM GAS  /var/folders/cs/83z6p2tj4w57s6p2rt8nwfp00000gn/T//ccYNfdJn.s 			page 64


 403:luaglue.c     **** 	Shape3D* shape = getShape(1);
 2463              		.loc 1 403 1 is_stmt 1 view -0
 2464              		.cfi_startproc
 2465              		@ args = 0, pretend = 0, frame = 8
 2466              		@ frame_needed = 0, uses_anonymous_args = 0
 404:luaglue.c     **** 	Point3D* a = getPoint(2);
 2467              		.loc 1 404 2 view .LVU585
 2468              	.LBB171:
 2469              	.LBI171:
  30:luaglue.c     **** static Point3D* getPoint(int n)			{ return get3DObj(n, "lib3d.point"); }
 2470              		.loc 1 30 17 view .LVU586
 2471              	.LBB172:
  30:luaglue.c     **** static Point3D* getPoint(int n)			{ return get3DObj(n, "lib3d.point"); }
 2472              		.loc 1 30 37 view .LVU587
 2473              	.LBE172:
 2474              	.LBE171:
 2475              	@ luaglue.c:403: {
 403:luaglue.c     **** 	Shape3D* shape = getShape(1);
 2476              		.loc 1 403 1 is_stmt 0 view .LVU588
 2477 0000 2DE9F041 		push	{r4, r5, r6, r7, r8, lr}	@
 2478              	.LCFI21:
 2479              		.cfi_def_cfa_offset 24
 2480              		.cfi_offset 4, -24
 2481              		.cfi_offset 5, -20
 2482              		.cfi_offset 6, -16
 2483              		.cfi_offset 7, -12
 2484              		.cfi_offset 8, -8
 2485              		.cfi_offset 14, -4
 2486              	.LBB177:
 2487              	.LBB173:
 2488              	@ luaglue.c:30: static Shape3D* getShape(int n)			{ return get3DObj(n, "lib3d.shape"); }
  30:luaglue.c     **** static Point3D* getPoint(int n)			{ return get3DObj(n, "lib3d.point"); }
 2489              		.loc 1 30 44 view .LVU589
 2490 0004 2349     		ldr	r1, .L83	@,
 2491              	.LBE173:
 2492              	.LBE177:
 2493              	@ luaglue.c:403: {
 403:luaglue.c     **** 	Shape3D* shape = getShape(1);
 2494              		.loc 1 403 1 view .LVU590
 2495 0006 84B0     		sub	sp, sp, #16	@,,
 2496              	.LCFI22:
 2497              		.cfi_def_cfa_offset 40
 2498              	.LBB178:
 2499              	.LBB174:
 2500              	@ luaglue.c:30: static Shape3D* getShape(int n)			{ return get3DObj(n, "lib3d.shape"); }
  30:luaglue.c     **** static Point3D* getPoint(int n)			{ return get3DObj(n, "lib3d.point"); }
 2501              		.loc 1 30 44 view .LVU591
 2502 0008 0120     		movs	r0, #1	@,
 2503              	.LVL165:
  30:luaglue.c     **** static Point3D* getPoint(int n)			{ return get3DObj(n, "lib3d.point"); }
 2504              		.loc 1 30 44 view .LVU592
 2505              	.LBE174:
 2506              	.LBE178:
 2507              	@ luaglue.c:413: 	if ( pd->lua->getArgType(5, &type) == kTypeObject && strcmp(type, "lib3d.point") 
 413:luaglue.c     **** 	{
 2508              		.loc 1 413 9 view .LVU593
 2509 000a DFF89080 		ldr	r8, .L83+8	@ tmp153,
ARM GAS  /var/folders/cs/83z6p2tj4w57s6p2rt8nwfp00000gn/T//ccYNfdJn.s 			page 65


 2510              	.LBB179:
 2511              	.LBB175:
 2512              	@ luaglue.c:30: static Shape3D* getShape(int n)			{ return get3DObj(n, "lib3d.shape"); }
  30:luaglue.c     **** static Point3D* getPoint(int n)			{ return get3DObj(n, "lib3d.point"); }
 2513              		.loc 1 30 44 view .LVU594
 2514 000e FFF7FEFF 		bl	get3DObj		@
 2515              	.LVL166:
 2516              	.LBE175:
 2517              	.LBE179:
 2518              	.LBB180:
 2519              	.LBB181:
 2520              	@ luaglue.c:31: static Point3D* getPoint(int n)			{ return get3DObj(n, "lib3d.point"); }
  31:luaglue.c     **** static Matrix3D* getMatrix(int n)		{ return get3DObj(n, "lib3d.matrix"); }
 2521              		.loc 1 31 44 view .LVU595
 2522 0012 2149     		ldr	r1, .L83+4	@,
 2523              	.LBE181:
 2524              	.LBE180:
 2525              	.LBB185:
 2526              	.LBB176:
 2527              	@ luaglue.c:30: static Shape3D* getShape(int n)			{ return get3DObj(n, "lib3d.shape"); }
  30:luaglue.c     **** static Point3D* getPoint(int n)			{ return get3DObj(n, "lib3d.point"); }
 2528              		.loc 1 30 44 view .LVU596
 2529 0014 0446     		mov	r4, r0	@ tmp154,
 2530              	.LBE176:
 2531              	.LBE185:
 2532              	.LBB186:
 2533              	.LBB182:
 2534              	@ luaglue.c:31: static Point3D* getPoint(int n)			{ return get3DObj(n, "lib3d.point"); }
  31:luaglue.c     **** static Matrix3D* getMatrix(int n)		{ return get3DObj(n, "lib3d.matrix"); }
 2535              		.loc 1 31 44 view .LVU597
 2536 0016 0220     		movs	r0, #2	@,
 2537              	.LVL167:
  31:luaglue.c     **** static Matrix3D* getMatrix(int n)		{ return get3DObj(n, "lib3d.matrix"); }
 2538              		.loc 1 31 44 view .LVU598
 2539              	.LBE182:
 2540              	.LBE186:
 405:luaglue.c     **** 	Point3D* b = getPoint(3);
 2541              		.loc 1 405 2 is_stmt 1 view .LVU599
 2542              	.LBB187:
 2543              	.LBI180:
  31:luaglue.c     **** static Matrix3D* getMatrix(int n)		{ return get3DObj(n, "lib3d.matrix"); }
 2544              		.loc 1 31 17 view .LVU600
 2545              	.LBB183:
  31:luaglue.c     **** static Matrix3D* getMatrix(int n)		{ return get3DObj(n, "lib3d.matrix"); }
 2546              		.loc 1 31 37 view .LVU601
 2547              	@ luaglue.c:31: static Point3D* getPoint(int n)			{ return get3DObj(n, "lib3d.point"); }
  31:luaglue.c     **** static Matrix3D* getMatrix(int n)		{ return get3DObj(n, "lib3d.matrix"); }
 2548              		.loc 1 31 44 is_stmt 0 view .LVU602
 2549 0018 FFF7FEFF 		bl	get3DObj		@
 2550              	.LVL168:
  31:luaglue.c     **** static Matrix3D* getMatrix(int n)		{ return get3DObj(n, "lib3d.matrix"); }
 2551              		.loc 1 31 44 view .LVU603
 2552              	.LBE183:
 2553              	.LBE187:
 2554              	.LBB188:
 2555              	.LBB189:
 2556 001c 1E49     		ldr	r1, .L83+4	@,
ARM GAS  /var/folders/cs/83z6p2tj4w57s6p2rt8nwfp00000gn/T//ccYNfdJn.s 			page 66


 2557              	.LBE189:
 2558              	.LBE188:
 2559              	.LBB192:
 2560              	.LBB184:
 2561 001e 0546     		mov	r5, r0	@ tmp155,
 2562              	.LVL169:
  31:luaglue.c     **** static Matrix3D* getMatrix(int n)		{ return get3DObj(n, "lib3d.matrix"); }
 2563              		.loc 1 31 44 view .LVU604
 2564              	.LBE184:
 2565              	.LBE192:
 406:luaglue.c     **** 	Point3D* c = getPoint(4);
 2566              		.loc 1 406 2 is_stmt 1 view .LVU605
 2567              	.LBB193:
 2568              	.LBI188:
  31:luaglue.c     **** static Matrix3D* getMatrix(int n)		{ return get3DObj(n, "lib3d.matrix"); }
 2569              		.loc 1 31 17 view .LVU606
 2570              	.LBB190:
  31:luaglue.c     **** static Matrix3D* getMatrix(int n)		{ return get3DObj(n, "lib3d.matrix"); }
 2571              		.loc 1 31 37 view .LVU607
 2572              	@ luaglue.c:31: static Point3D* getPoint(int n)			{ return get3DObj(n, "lib3d.point"); }
  31:luaglue.c     **** static Matrix3D* getMatrix(int n)		{ return get3DObj(n, "lib3d.matrix"); }
 2573              		.loc 1 31 44 is_stmt 0 view .LVU608
 2574 0020 0320     		movs	r0, #3	@,
 2575              	.LVL170:
  31:luaglue.c     **** static Matrix3D* getMatrix(int n)		{ return get3DObj(n, "lib3d.matrix"); }
 2576              		.loc 1 31 44 view .LVU609
 2577 0022 FFF7FEFF 		bl	get3DObj		@
 2578              	.LVL171:
 2579              	.LBE190:
 2580              	.LBE193:
 2581              	.LBB194:
 2582              	.LBB195:
 2583 0026 1C49     		ldr	r1, .L83+4	@,
 2584              	.LBE195:
 2585              	.LBE194:
 2586              	.LBB199:
 2587              	.LBB191:
 2588 0028 0646     		mov	r6, r0	@ tmp156,
 2589              	.LBE191:
 2590              	.LBE199:
 2591              	.LBB200:
 2592              	.LBB196:
 2593 002a 0420     		movs	r0, #4	@,
 2594              	.LVL172:
  31:luaglue.c     **** static Matrix3D* getMatrix(int n)		{ return get3DObj(n, "lib3d.matrix"); }
 2595              		.loc 1 31 44 view .LVU610
 2596              	.LBE196:
 2597              	.LBE200:
 407:luaglue.c     **** 
 2598              		.loc 1 407 2 is_stmt 1 view .LVU611
 2599              	.LBB201:
 2600              	.LBI194:
  31:luaglue.c     **** static Matrix3D* getMatrix(int n)		{ return get3DObj(n, "lib3d.matrix"); }
 2601              		.loc 1 31 17 view .LVU612
 2602              	.LBB197:
  31:luaglue.c     **** static Matrix3D* getMatrix(int n)		{ return get3DObj(n, "lib3d.matrix"); }
 2603              		.loc 1 31 37 view .LVU613
ARM GAS  /var/folders/cs/83z6p2tj4w57s6p2rt8nwfp00000gn/T//ccYNfdJn.s 			page 67


 2604              	@ luaglue.c:31: static Point3D* getPoint(int n)			{ return get3DObj(n, "lib3d.point"); }
  31:luaglue.c     **** static Matrix3D* getMatrix(int n)		{ return get3DObj(n, "lib3d.matrix"); }
 2605              		.loc 1 31 44 is_stmt 0 view .LVU614
 2606 002c FFF7FEFF 		bl	get3DObj		@
 2607              	.LVL173:
 2608              	.LBE197:
 2609              	.LBE201:
 2610              	@ luaglue.c:413: 	if ( pd->lua->getArgType(5, &type) == kTypeObject && strcmp(type, "lib3d.point") 
 413:luaglue.c     **** 	{
 2611              		.loc 1 413 9 view .LVU615
 2612 0030 D8F80030 		ldr	r3, [r8]	@ pd, pd
 2613              	.LBB202:
 2614              	.LBB198:
 2615              	@ luaglue.c:31: static Point3D* getPoint(int n)			{ return get3DObj(n, "lib3d.point"); }
  31:luaglue.c     **** static Matrix3D* getMatrix(int n)		{ return get3DObj(n, "lib3d.matrix"); }
 2616              		.loc 1 31 44 view .LVU616
 2617 0034 0746     		mov	r7, r0	@ tmp157,
 2618              	.LBE198:
 2619              	.LBE202:
 2620              	@ luaglue.c:413: 	if ( pd->lua->getArgType(5, &type) == kTypeObject && strcmp(type, "lib3d.point") 
 413:luaglue.c     **** 	{
 2621              		.loc 1 413 7 view .LVU617
 2622 0036 03A9     		add	r1, sp, #12	@,,
 2623              	@ luaglue.c:413: 	if ( pd->lua->getArgType(5, &type) == kTypeObject && strcmp(type, "lib3d.point") 
 413:luaglue.c     **** 	{
 2624              		.loc 1 413 14 view .LVU618
 2625 0038 9A69     		ldr	r2, [r3, #24]	@ pd.63_1->lua, pd.63_1->lua
 2626              	.LVL174:
 409:luaglue.c     **** 	const char* type;
 2627              		.loc 1 409 2 is_stmt 1 view .LVU619
 410:luaglue.c     **** 	float color = 0;
 2628              		.loc 1 410 2 view .LVU620
 411:luaglue.c     **** 	
 2629              		.loc 1 411 2 view .LVU621
 413:luaglue.c     **** 	{
 2630              		.loc 1 413 2 view .LVU622
 2631              	@ luaglue.c:413: 	if ( pd->lua->getArgType(5, &type) == kTypeObject && strcmp(type, "lib3d.point") 
 413:luaglue.c     **** 	{
 2632              		.loc 1 413 7 is_stmt 0 view .LVU623
 2633 003a 0520     		movs	r0, #5	@,
 2634              	.LVL175:
 413:luaglue.c     **** 	{
 2635              		.loc 1 413 7 view .LVU624
 2636 003c D369     		ldr	r3, [r2, #28]	@ _2->getArgType, _2->getArgType
 2637 003e 9847     		blx	r3		@ _2->getArgType
 2638              	.LVL176:
 2639              	@ luaglue.c:413: 	if ( pd->lua->getArgType(5, &type) == kTypeObject && strcmp(type, "lib3d.point") 
 413:luaglue.c     **** 	{
 2640              		.loc 1 413 5 view .LVU625
 2641 0040 0828     		cmp	r0, #8	@ tmp158,
 2642 0042 13D0     		beq	.L82		@,
 2643              	.L79:
 419:luaglue.c     **** 	
 2644              		.loc 1 419 3 is_stmt 1 view .LVU626
 2645              	@ luaglue.c:419: 		color = pd->lua->getArgFloat(5);
 419:luaglue.c     **** 	
 2646              		.loc 1 419 13 is_stmt 0 view .LVU627
ARM GAS  /var/folders/cs/83z6p2tj4w57s6p2rt8nwfp00000gn/T//ccYNfdJn.s 			page 68


 2647 0044 D8F80030 		ldr	r3, [r8]	@ pd, pd
 2648              	@ luaglue.c:419: 		color = pd->lua->getArgFloat(5);
 419:luaglue.c     **** 	
 2649              		.loc 1 419 11 view .LVU628
 2650 0048 0520     		movs	r0, #5	@,
 2651              	@ luaglue.c:409: 	Point3D* d = NULL;
 409:luaglue.c     **** 	const char* type;
 2652              		.loc 1 409 11 view .LVU629
 2653 004a 4FF00008 		mov	r8, #0	@ d,
 2654              	@ luaglue.c:419: 		color = pd->lua->getArgFloat(5);
 419:luaglue.c     **** 	
 2655              		.loc 1 419 18 view .LVU630
 2656 004e 9B69     		ldr	r3, [r3, #24]	@ pd.66_10->lua, pd.66_10->lua
 2657              	@ luaglue.c:419: 		color = pd->lua->getArgFloat(5);
 419:luaglue.c     **** 	
 2658              		.loc 1 419 11 view .LVU631
 2659 0050 DB6A     		ldr	r3, [r3, #44]	@ _11->getArgFloat,
 2660 0052 9847     		blx	r3		@ _11->getArgFloat
 2661              	.LVL177:
 2662              	.L80:
 421:luaglue.c     **** 
 2663              		.loc 1 421 2 is_stmt 1 view .LVU632
 2664 0054 2046     		mov	r0, r4	@, _27
 2665 0056 3B46     		mov	r3, r7	@, _24
 2666 0058 3246     		mov	r2, r6	@, _25
 2667 005a 2946     		mov	r1, r5	@, _26
 2668 005c CDF80080 		str	r8, [sp]	@ d,
 2669 0060 FFF7FEFF 		bl	Shape3D_addFace		@
 2670              	.LVL178:
 423:luaglue.c     **** }
 2671              		.loc 1 423 2 view .LVU633
 2672              	@ luaglue.c:424: }
 424:luaglue.c     **** 
 2673              		.loc 1 424 1 is_stmt 0 view .LVU634
 2674 0064 0020     		movs	r0, #0	@,
 2675 0066 04B0     		add	sp, sp, #16	@,,
 2676              	.LCFI23:
 2677              		.cfi_remember_state
 2678              		.cfi_def_cfa_offset 24
 2679              		@ sp needed	@
 2680 0068 BDE8F081 		pop	{r4, r5, r6, r7, r8, pc}	@
 2681              	.LVL179:
 2682              	.L82:
 2683              	.LCFI24:
 2684              		.cfi_restore_state
 2685              	@ luaglue.c:413: 	if ( pd->lua->getArgType(5, &type) == kTypeObject && strcmp(type, "lib3d.point") 
 413:luaglue.c     **** 	{
 2686              		.loc 1 413 55 discriminator 1 view .LVU635
 2687 006c 0A49     		ldr	r1, .L83+4	@,
 2688 006e 0398     		ldr	r0, [sp, #12]	@, type
 2689 0070 FFF7FEFF 		bl	strcmp		@
 2690              	.LVL180:
 2691              	@ luaglue.c:413: 	if ( pd->lua->getArgType(5, &type) == kTypeObject && strcmp(type, "lib3d.point") 
 413:luaglue.c     **** 	{
 2692              		.loc 1 413 52 discriminator 1 view .LVU636
 2693 0074 0028     		cmp	r0, #0	@ tmp159
 2694 0076 E5D1     		bne	.L79	@
ARM GAS  /var/folders/cs/83z6p2tj4w57s6p2rt8nwfp00000gn/T//ccYNfdJn.s 			page 69


 415:luaglue.c     **** 		color = pd->lua->getArgFloat(6);
 2695              		.loc 1 415 3 is_stmt 1 view .LVU637
 2696              	.LVL181:
 2697              	.LBB203:
 2698              	.LBI203:
  31:luaglue.c     **** static Matrix3D* getMatrix(int n)		{ return get3DObj(n, "lib3d.matrix"); }
 2699              		.loc 1 31 17 view .LVU638
 2700              	.LBB204:
  31:luaglue.c     **** static Matrix3D* getMatrix(int n)		{ return get3DObj(n, "lib3d.matrix"); }
 2701              		.loc 1 31 37 view .LVU639
 2702              	@ luaglue.c:31: static Point3D* getPoint(int n)			{ return get3DObj(n, "lib3d.point"); }
  31:luaglue.c     **** static Matrix3D* getMatrix(int n)		{ return get3DObj(n, "lib3d.matrix"); }
 2703              		.loc 1 31 44 is_stmt 0 view .LVU640
 2704 0078 0749     		ldr	r1, .L83+4	@,
 2705 007a 0520     		movs	r0, #5	@,
 2706 007c FFF7FEFF 		bl	get3DObj		@
 2707              	.LVL182:
 2708              	.LBE204:
 2709              	.LBE203:
 2710              	@ luaglue.c:416: 		color = pd->lua->getArgFloat(6);
 416:luaglue.c     **** 	}
 2711              		.loc 1 416 13 view .LVU641
 2712 0080 D8F80020 		ldr	r2, [r8]	@ pd, pd
 2713              	.LBB207:
 2714              	.LBB205:
 2715              	@ luaglue.c:31: static Point3D* getPoint(int n)			{ return get3DObj(n, "lib3d.point"); }
  31:luaglue.c     **** static Matrix3D* getMatrix(int n)		{ return get3DObj(n, "lib3d.matrix"); }
 2716              		.loc 1 31 44 view .LVU642
 2717 0084 0346     		mov	r3, r0	@ tmp160,
 2718              	.LBE205:
 2719              	.LBE207:
 2720              	@ luaglue.c:416: 		color = pd->lua->getArgFloat(6);
 416:luaglue.c     **** 	}
 2721              		.loc 1 416 11 view .LVU643
 2722 0086 0620     		movs	r0, #6	@,
 2723              	.LBB208:
 2724              	.LBB206:
 2725              	@ luaglue.c:31: static Point3D* getPoint(int n)			{ return get3DObj(n, "lib3d.point"); }
  31:luaglue.c     **** static Matrix3D* getMatrix(int n)		{ return get3DObj(n, "lib3d.matrix"); }
 2726              		.loc 1 31 44 view .LVU644
 2727 0088 9846     		mov	r8, r3	@ d, tmp160
 2728              	.LVL183:
  31:luaglue.c     **** static Matrix3D* getMatrix(int n)		{ return get3DObj(n, "lib3d.matrix"); }
 2729              		.loc 1 31 44 view .LVU645
 2730              	.LBE206:
 2731              	.LBE208:
 416:luaglue.c     **** 	}
 2732              		.loc 1 416 3 is_stmt 1 view .LVU646
 2733              	@ luaglue.c:416: 		color = pd->lua->getArgFloat(6);
 416:luaglue.c     **** 	}
 2734              		.loc 1 416 18 is_stmt 0 view .LVU647
 2735 008a 9369     		ldr	r3, [r2, #24]	@ pd.65_7->lua, pd.65_7->lua
 2736              	.LVL184:
 2737              	@ luaglue.c:416: 		color = pd->lua->getArgFloat(6);
 416:luaglue.c     **** 	}
 2738              		.loc 1 416 11 view .LVU648
 2739 008c DB6A     		ldr	r3, [r3, #44]	@ _8->getArgFloat,
ARM GAS  /var/folders/cs/83z6p2tj4w57s6p2rt8nwfp00000gn/T//ccYNfdJn.s 			page 70


 2740 008e 9847     		blx	r3		@ _8->getArgFloat
 2741              	.LVL185:
 2742              	@ luaglue.c:416: 		color = pd->lua->getArgFloat(6);
 416:luaglue.c     **** 	}
 2743              		.loc 1 416 9 view .LVU649
 2744 0090 E0E7     		b	.L80		@
 2745              	.L84:
 2746 0092 00BF     		.align	2
 2747              	.L83:
 2748 0094 00000000 		.word	.LC2
 2749 0098 00000000 		.word	.LC0
 2750 009c 00000000 		.word	.LANCHOR0
 2751              		.cfi_endproc
 2752              	.LFE55:
 2753              		.size	shape_addFace, .-shape_addFace
 2754              		.section	.text.shape_gc,"ax",%progbits
 2755              		.align	1
 2756              		.p2align 4,,15
 2757              		.syntax unified
 2758              		.thumb
 2759              		.thumb_func
 2760              		.fpu fpv5-sp-d16
 2761              		.type	shape_gc, %function
 2762              	shape_gc:
 2763              	.LVL186:
 2764              	.LFB54:
 396:luaglue.c     **** 	Shape3D* shape = getShape(1);
 2765              		.loc 1 396 1 is_stmt 1 view -0
 2766              		.cfi_startproc
 2767              		@ args = 0, pretend = 0, frame = 0
 2768              		@ frame_needed = 0, uses_anonymous_args = 0
 397:luaglue.c     **** 	Shape3D_release(shape);
 2769              		.loc 1 397 2 view .LVU651
 2770              	.LBB209:
 2771              	.LBI209:
  30:luaglue.c     **** static Point3D* getPoint(int n)			{ return get3DObj(n, "lib3d.point"); }
 2772              		.loc 1 30 17 view .LVU652
 2773              	.LBB210:
  30:luaglue.c     **** static Point3D* getPoint(int n)			{ return get3DObj(n, "lib3d.point"); }
 2774              		.loc 1 30 37 view .LVU653
 2775              	@ luaglue.c:30: static Shape3D* getShape(int n)			{ return get3DObj(n, "lib3d.shape"); }
  30:luaglue.c     **** static Point3D* getPoint(int n)			{ return get3DObj(n, "lib3d.point"); }
 2776              		.loc 1 30 44 is_stmt 0 view .LVU654
 2777 0000 0449     		ldr	r1, .L87	@,
 2778 0002 0120     		movs	r0, #1	@,
 2779              	.LVL187:
  30:luaglue.c     **** static Point3D* getPoint(int n)			{ return get3DObj(n, "lib3d.point"); }
 2780              		.loc 1 30 44 view .LVU655
 2781              	.LBE210:
 2782              	.LBE209:
 2783              	@ luaglue.c:396: {
 396:luaglue.c     **** 	Shape3D* shape = getShape(1);
 2784              		.loc 1 396 1 view .LVU656
 2785 0004 08B5     		push	{r3, lr}	@
 2786              	.LCFI25:
 2787              		.cfi_def_cfa_offset 8
 2788              		.cfi_offset 3, -8
ARM GAS  /var/folders/cs/83z6p2tj4w57s6p2rt8nwfp00000gn/T//ccYNfdJn.s 			page 71


 2789              		.cfi_offset 14, -4
 2790              	.LBB212:
 2791              	.LBB211:
 2792              	@ luaglue.c:30: static Shape3D* getShape(int n)			{ return get3DObj(n, "lib3d.shape"); }
  30:luaglue.c     **** static Point3D* getPoint(int n)			{ return get3DObj(n, "lib3d.point"); }
 2793              		.loc 1 30 44 view .LVU657
 2794 0006 FFF7FEFF 		bl	get3DObj		@
 2795              	.LVL188:
  30:luaglue.c     **** static Point3D* getPoint(int n)			{ return get3DObj(n, "lib3d.point"); }
 2796              		.loc 1 30 44 view .LVU658
 2797              	.LBE211:
 2798              	.LBE212:
 398:luaglue.c     **** 	return 0;
 2799              		.loc 1 398 2 is_stmt 1 view .LVU659
 2800 000a FFF7FEFF 		bl	Shape3D_release		@
 2801              	.LVL189:
 399:luaglue.c     **** }
 2802              		.loc 1 399 2 view .LVU660
 2803              	@ luaglue.c:400: }
 400:luaglue.c     **** 
 2804              		.loc 1 400 1 is_stmt 0 view .LVU661
 2805 000e 0020     		movs	r0, #0	@,
 2806 0010 08BD     		pop	{r3, pc}	@
 2807              	.L88:
 2808 0012 00BF     		.align	2
 2809              	.L87:
 2810 0014 00000000 		.word	.LC2
 2811              		.cfi_endproc
 2812              	.LFE54:
 2813              		.size	shape_gc, .-shape_gc
 2814              		.section	.rodata.node_setVisible.str1.4,"aMS",%progbits,1
 2815              		.align	2
 2816              	.LC5:
 2817 0000 6C696233 		.ascii	"lib3d.scenenode\000"
 2817      642E7363 
 2817      656E656E 
 2817      6F646500 
 2818              		.section	.text.node_setVisible,"ax",%progbits
 2819              		.align	1
 2820              		.p2align 4,,15
 2821              		.syntax unified
 2822              		.thumb
 2823              		.thumb_func
 2824              		.fpu fpv5-sp-d16
 2825              		.type	node_setVisible, %function
 2826              	node_setVisible:
 2827              	.LVL190:
 2828              	.LFB52:
 358:luaglue.c     **** 	Scene3DNode* node = getSceneNode(1);
 2829              		.loc 1 358 1 is_stmt 1 view -0
 2830              		.cfi_startproc
 2831              		@ args = 0, pretend = 0, frame = 0
 2832              		@ frame_needed = 0, uses_anonymous_args = 0
 359:luaglue.c     **** 
 2833              		.loc 1 359 2 view .LVU663
 2834              	.LBB213:
 2835              	.LBI213:
ARM GAS  /var/folders/cs/83z6p2tj4w57s6p2rt8nwfp00000gn/T//ccYNfdJn.s 			page 72


  29:luaglue.c     **** static Shape3D* getShape(int n)			{ return get3DObj(n, "lib3d.shape"); }
 2836              		.loc 1 29 21 view .LVU664
 2837              	.LBB214:
  29:luaglue.c     **** static Shape3D* getShape(int n)			{ return get3DObj(n, "lib3d.shape"); }
 2838              		.loc 1 29 43 view .LVU665
 2839              	.LBE214:
 2840              	.LBE213:
 2841              	@ luaglue.c:358: {
 358:luaglue.c     **** 	Scene3DNode* node = getSceneNode(1);
 2842              		.loc 1 358 1 is_stmt 0 view .LVU666
 2843 0000 10B5     		push	{r4, lr}	@
 2844              	.LCFI26:
 2845              		.cfi_def_cfa_offset 8
 2846              		.cfi_offset 4, -8
 2847              		.cfi_offset 14, -4
 2848              	.LBB217:
 2849              	.LBB215:
 2850              	@ luaglue.c:29: static Scene3DNode* getSceneNode(int n)	{ return get3DObj(n, "lib3d.scenenode"); }
  29:luaglue.c     **** static Shape3D* getShape(int n)			{ return get3DObj(n, "lib3d.shape"); }
 2851              		.loc 1 29 50 view .LVU667
 2852 0002 0849     		ldr	r1, .L91	@,
 2853 0004 0120     		movs	r0, #1	@,
 2854              	.LVL191:
  29:luaglue.c     **** static Shape3D* getShape(int n)			{ return get3DObj(n, "lib3d.shape"); }
 2855              		.loc 1 29 50 view .LVU668
 2856 0006 FFF7FEFF 		bl	get3DObj		@
 2857              	.LVL192:
 2858              	.LBE215:
 2859              	.LBE217:
 2860              	@ luaglue.c:361: 	Scene3DNode_setVisible(node, pd->lua->getArgBool(2));
 361:luaglue.c     **** 	
 2861              		.loc 1 361 33 view .LVU669
 2862 000a 074B     		ldr	r3, .L91+4	@ tmp118,
 2863              	.LBB218:
 2864              	.LBB216:
 2865              	@ luaglue.c:29: static Scene3DNode* getSceneNode(int n)	{ return get3DObj(n, "lib3d.scenenode"); }
  29:luaglue.c     **** static Shape3D* getShape(int n)			{ return get3DObj(n, "lib3d.shape"); }
 2866              		.loc 1 29 50 view .LVU670
 2867 000c 0446     		mov	r4, r0	@ tmp123,
 2868              	.LBE216:
 2869              	.LBE218:
 2870              	@ luaglue.c:361: 	Scene3DNode_setVisible(node, pd->lua->getArgBool(2));
 361:luaglue.c     **** 	
 2871              		.loc 1 361 2 view .LVU671
 2872 000e 0220     		movs	r0, #2	@,
 2873              	.LVL193:
 361:luaglue.c     **** 	
 2874              		.loc 1 361 2 is_stmt 1 view .LVU672
 2875              	@ luaglue.c:361: 	Scene3DNode_setVisible(node, pd->lua->getArgBool(2));
 361:luaglue.c     **** 	
 2876              		.loc 1 361 33 is_stmt 0 view .LVU673
 2877 0010 1B68     		ldr	r3, [r3]	@ pd, pd
 2878              	@ luaglue.c:361: 	Scene3DNode_setVisible(node, pd->lua->getArgBool(2));
 361:luaglue.c     **** 	
 2879              		.loc 1 361 38 view .LVU674
 2880 0012 9B69     		ldr	r3, [r3, #24]	@ pd.69_1->lua, pd.69_1->lua
 2881              	@ luaglue.c:361: 	Scene3DNode_setVisible(node, pd->lua->getArgBool(2));
ARM GAS  /var/folders/cs/83z6p2tj4w57s6p2rt8nwfp00000gn/T//ccYNfdJn.s 			page 73


 361:luaglue.c     **** 	
 2882              		.loc 1 361 2 view .LVU675
 2883 0014 5B6A     		ldr	r3, [r3, #36]	@ _2->getArgBool, _2->getArgBool
 2884 0016 9847     		blx	r3		@ _2->getArgBool
 2885              	.LVL194:
 2886 0018 0146     		mov	r1, r0	@ tmp124,
 2887 001a 2046     		mov	r0, r4	@, _8
 2888 001c FFF7FEFF 		bl	Scene3DNode_setVisible		@
 2889              	.LVL195:
 363:luaglue.c     **** }
 2890              		.loc 1 363 2 is_stmt 1 view .LVU676
 2891              	@ luaglue.c:364: }
 364:luaglue.c     **** 
 2892              		.loc 1 364 1 is_stmt 0 view .LVU677
 2893 0020 0020     		movs	r0, #0	@,
 2894 0022 10BD     		pop	{r4, pc}	@
 2895              	.LVL196:
 2896              	.L92:
 364:luaglue.c     **** 
 2897              		.loc 1 364 1 view .LVU678
 2898              		.align	2
 2899              	.L91:
 2900 0024 00000000 		.word	.LC5
 2901 0028 00000000 		.word	.LANCHOR0
 2902              		.cfi_endproc
 2903              	.LFE52:
 2904              		.size	node_setVisible, .-node_setVisible
 2905              		.section	.text.node_setWireframeColor,"ax",%progbits
 2906              		.align	1
 2907              		.p2align 4,,15
 2908              		.syntax unified
 2909              		.thumb
 2910              		.thumb_func
 2911              		.fpu fpv5-sp-d16
 2912              		.type	node_setWireframeColor, %function
 2913              	node_setWireframeColor:
 2914              	.LVL197:
 2915              	.LFB51:
 341:luaglue.c     **** 	Scene3DNode* node = getSceneNode(1);
 2916              		.loc 1 341 1 is_stmt 1 view -0
 2917              		.cfi_startproc
 2918              		@ args = 0, pretend = 0, frame = 0
 2919              		@ frame_needed = 0, uses_anonymous_args = 0
 342:luaglue.c     **** 	int color = pd->lua->getArgInt(2);
 2920              		.loc 1 342 2 view .LVU680
 2921              	.LBB219:
 2922              	.LBI219:
  29:luaglue.c     **** static Shape3D* getShape(int n)			{ return get3DObj(n, "lib3d.shape"); }
 2923              		.loc 1 29 21 view .LVU681
 2924              	.LBB220:
  29:luaglue.c     **** static Shape3D* getShape(int n)			{ return get3DObj(n, "lib3d.shape"); }
 2925              		.loc 1 29 43 view .LVU682
 2926              	.LBE220:
 2927              	.LBE219:
 2928              	@ luaglue.c:341: {
 341:luaglue.c     **** 	Scene3DNode* node = getSceneNode(1);
 2929              		.loc 1 341 1 is_stmt 0 view .LVU683
ARM GAS  /var/folders/cs/83z6p2tj4w57s6p2rt8nwfp00000gn/T//ccYNfdJn.s 			page 74


 2930 0000 38B5     		push	{r3, r4, r5, lr}	@
 2931              	.LCFI27:
 2932              		.cfi_def_cfa_offset 16
 2933              		.cfi_offset 3, -16
 2934              		.cfi_offset 4, -12
 2935              		.cfi_offset 5, -8
 2936              		.cfi_offset 14, -4
 2937              	.LBB223:
 2938              	.LBB221:
 2939              	@ luaglue.c:29: static Scene3DNode* getSceneNode(int n)	{ return get3DObj(n, "lib3d.scenenode"); }
  29:luaglue.c     **** static Shape3D* getShape(int n)			{ return get3DObj(n, "lib3d.shape"); }
 2940              		.loc 1 29 50 view .LVU684
 2941 0002 0F49     		ldr	r1, .L97	@,
 2942 0004 0120     		movs	r0, #1	@,
 2943              	.LVL198:
  29:luaglue.c     **** static Shape3D* getShape(int n)			{ return get3DObj(n, "lib3d.shape"); }
 2944              		.loc 1 29 50 view .LVU685
 2945 0006 FFF7FEFF 		bl	get3DObj		@
 2946              	.LVL199:
 2947              	.LBE221:
 2948              	.LBE223:
 2949              	@ luaglue.c:343: 	int color = pd->lua->getArgInt(2);
 343:luaglue.c     **** 
 2950              		.loc 1 343 16 view .LVU686
 2951 000a 0E4B     		ldr	r3, .L97+4	@ tmp120,
 2952              	.LBB224:
 2953              	.LBB222:
 2954              	@ luaglue.c:29: static Scene3DNode* getSceneNode(int n)	{ return get3DObj(n, "lib3d.scenenode"); }
  29:luaglue.c     **** static Shape3D* getShape(int n)			{ return get3DObj(n, "lib3d.shape"); }
 2955              		.loc 1 29 50 view .LVU687
 2956 000c 0446     		mov	r4, r0	@ tmp128,
 2957              	.LBE222:
 2958              	.LBE224:
 2959              	@ luaglue.c:343: 	int color = pd->lua->getArgInt(2);
 343:luaglue.c     **** 
 2960              		.loc 1 343 14 view .LVU688
 2961 000e 0220     		movs	r0, #2	@,
 2962              	.LVL200:
 343:luaglue.c     **** 
 2963              		.loc 1 343 2 is_stmt 1 view .LVU689
 2964              	@ luaglue.c:343: 	int color = pd->lua->getArgInt(2);
 343:luaglue.c     **** 
 2965              		.loc 1 343 16 is_stmt 0 view .LVU690
 2966 0010 1B68     		ldr	r3, [r3]	@ pd, pd
 2967              	@ luaglue.c:343: 	int color = pd->lua->getArgInt(2);
 343:luaglue.c     **** 
 2968              		.loc 1 343 21 view .LVU691
 2969 0012 9B69     		ldr	r3, [r3, #24]	@ pd.70_1->lua, pd.70_1->lua
 2970              	@ luaglue.c:343: 	int color = pd->lua->getArgInt(2);
 343:luaglue.c     **** 
 2971              		.loc 1 343 14 view .LVU692
 2972 0014 9B6A     		ldr	r3, [r3, #40]	@ _2->getArgInt, _2->getArgInt
 2973 0016 9847     		blx	r3		@ _2->getArgInt
 2974              	.LVL201:
 2975 0018 0546     		mov	r5, r0	@ tmp129,
 2976              	@ luaglue.c:345: 	RenderStyle style = Scene3DNode_getRenderStyle(node);
 345:luaglue.c     **** 
ARM GAS  /var/folders/cs/83z6p2tj4w57s6p2rt8nwfp00000gn/T//ccYNfdJn.s 			page 75


 2977              		.loc 1 345 22 view .LVU693
 2978 001a 2046     		mov	r0, r4	@, _13
 2979              	.LVL202:
 345:luaglue.c     **** 
 2980              		.loc 1 345 2 is_stmt 1 view .LVU694
 2981              	@ luaglue.c:345: 	RenderStyle style = Scene3DNode_getRenderStyle(node);
 345:luaglue.c     **** 
 2982              		.loc 1 345 22 is_stmt 0 view .LVU695
 2983 001c FFF7FEFF 		bl	Scene3DNode_getRenderStyle		@
 2984              	.LVL203:
 347:luaglue.c     **** 		style |= kRenderWireframeWhite;
 2985              		.loc 1 347 2 is_stmt 1 view .LVU696
 2986              	@ luaglue.c:347: 	if ( color )
 347:luaglue.c     **** 		style |= kRenderWireframeWhite;
 2987              		.loc 1 347 5 is_stmt 0 view .LVU697
 2988 0020 3DB1     		cbz	r5, .L94	@ color,
 348:luaglue.c     **** 	else
 2989              		.loc 1 348 3 is_stmt 1 view .LVU698
 2990              	@ luaglue.c:348: 		style |= kRenderWireframeWhite;
 348:luaglue.c     **** 	else
 2991              		.loc 1 348 9 is_stmt 0 view .LVU699
 2992 0022 40F00801 		orr	r1, r0, #8	@ tmp125, tmp124,
 2993              	@ luaglue.c:352: 	Scene3DNode_setRenderStyle(node, style);
 352:luaglue.c     **** 	
 2994              		.loc 1 352 2 view .LVU700
 2995 0026 2046     		mov	r0, r4	@, _13
 2996              	.LVL204:
 2997              	@ luaglue.c:348: 		style |= kRenderWireframeWhite;
 348:luaglue.c     **** 	else
 2998              		.loc 1 348 9 view .LVU701
 2999 0028 C9B2     		uxtb	r1, r1	@ style, tmp125
 3000              	.LVL205:
 352:luaglue.c     **** 	
 3001              		.loc 1 352 2 is_stmt 1 view .LVU702
 3002 002a FFF7FEFF 		bl	Scene3DNode_setRenderStyle		@
 3003              	.LVL206:
 354:luaglue.c     **** }
 3004              		.loc 1 354 2 view .LVU703
 3005              	@ luaglue.c:355: }
 355:luaglue.c     **** 
 3006              		.loc 1 355 1 is_stmt 0 view .LVU704
 3007 002e 0020     		movs	r0, #0	@,
 3008 0030 38BD     		pop	{r3, r4, r5, pc}	@
 3009              	.LVL207:
 3010              	.L94:
 350:luaglue.c     **** 	
 3011              		.loc 1 350 3 is_stmt 1 view .LVU705
 3012              	@ luaglue.c:350: 		style &= ~kRenderWireframeWhite;
 350:luaglue.c     **** 	
 3013              		.loc 1 350 9 is_stmt 0 view .LVU706
 3014 0032 00F0F701 		and	r1, r0, #247	@ style, tmp124,
 3015              	.LVL208:
 352:luaglue.c     **** 	
 3016              		.loc 1 352 2 is_stmt 1 view .LVU707
 3017 0036 2046     		mov	r0, r4	@, _13
 3018 0038 FFF7FEFF 		bl	Scene3DNode_setRenderStyle		@
 3019              	.LVL209:
ARM GAS  /var/folders/cs/83z6p2tj4w57s6p2rt8nwfp00000gn/T//ccYNfdJn.s 			page 76


 354:luaglue.c     **** }
 3020              		.loc 1 354 2 view .LVU708
 3021              	@ luaglue.c:355: }
 355:luaglue.c     **** 
 3022              		.loc 1 355 1 is_stmt 0 view .LVU709
 3023 003c 0020     		movs	r0, #0	@,
 3024 003e 38BD     		pop	{r3, r4, r5, pc}	@
 3025              	.LVL210:
 3026              	.L98:
 355:luaglue.c     **** 
 3027              		.loc 1 355 1 view .LVU710
 3028              		.align	2
 3029              	.L97:
 3030 0040 00000000 		.word	.LC5
 3031 0044 00000000 		.word	.LANCHOR0
 3032              		.cfi_endproc
 3033              	.LFE51:
 3034              		.size	node_setWireframeColor, .-node_setWireframeColor
 3035              		.section	.text.node_setWireframeMode,"ax",%progbits
 3036              		.align	1
 3037              		.p2align 4,,15
 3038              		.syntax unified
 3039              		.thumb
 3040              		.thumb_func
 3041              		.fpu fpv5-sp-d16
 3042              		.type	node_setWireframeMode, %function
 3043              	node_setWireframeMode:
 3044              	.LVL211:
 3045              	.LFB50:
 317:luaglue.c     **** 	Scene3DNode* node = getSceneNode(1);
 3046              		.loc 1 317 1 is_stmt 1 view -0
 3047              		.cfi_startproc
 3048              		@ args = 0, pretend = 0, frame = 0
 3049              		@ frame_needed = 0, uses_anonymous_args = 0
 318:luaglue.c     **** 	int mode = pd->lua->getArgInt(2);
 3050              		.loc 1 318 2 view .LVU712
 3051              	.LBB225:
 3052              	.LBI225:
  29:luaglue.c     **** static Shape3D* getShape(int n)			{ return get3DObj(n, "lib3d.shape"); }
 3053              		.loc 1 29 21 view .LVU713
 3054              	.LBB226:
  29:luaglue.c     **** static Shape3D* getShape(int n)			{ return get3DObj(n, "lib3d.shape"); }
 3055              		.loc 1 29 43 view .LVU714
 3056              	.LBE226:
 3057              	.LBE225:
 3058              	@ luaglue.c:317: {
 317:luaglue.c     **** 	Scene3DNode* node = getSceneNode(1);
 3059              		.loc 1 317 1 is_stmt 0 view .LVU715
 3060 0000 38B5     		push	{r3, r4, r5, lr}	@
 3061              	.LCFI28:
 3062              		.cfi_def_cfa_offset 16
 3063              		.cfi_offset 3, -16
 3064              		.cfi_offset 4, -12
 3065              		.cfi_offset 5, -8
 3066              		.cfi_offset 14, -4
 3067              	.LBB229:
 3068              	.LBB227:
ARM GAS  /var/folders/cs/83z6p2tj4w57s6p2rt8nwfp00000gn/T//ccYNfdJn.s 			page 77


 3069              	@ luaglue.c:29: static Scene3DNode* getSceneNode(int n)	{ return get3DObj(n, "lib3d.scenenode"); }
  29:luaglue.c     **** static Shape3D* getShape(int n)			{ return get3DObj(n, "lib3d.shape"); }
 3070              		.loc 1 29 50 view .LVU716
 3071 0002 1549     		ldr	r1, .L105	@,
 3072 0004 0120     		movs	r0, #1	@,
 3073              	.LVL212:
  29:luaglue.c     **** static Shape3D* getShape(int n)			{ return get3DObj(n, "lib3d.shape"); }
 3074              		.loc 1 29 50 view .LVU717
 3075 0006 FFF7FEFF 		bl	get3DObj		@
 3076              	.LVL213:
 3077              	.LBE227:
 3078              	.LBE229:
 3079              	@ luaglue.c:319: 	int mode = pd->lua->getArgInt(2);
 319:luaglue.c     **** 	
 3080              		.loc 1 319 15 view .LVU718
 3081 000a 144B     		ldr	r3, .L105+4	@ tmp121,
 3082              	.LBB230:
 3083              	.LBB228:
 3084              	@ luaglue.c:29: static Scene3DNode* getSceneNode(int n)	{ return get3DObj(n, "lib3d.scenenode"); }
  29:luaglue.c     **** static Shape3D* getShape(int n)			{ return get3DObj(n, "lib3d.shape"); }
 3085              		.loc 1 29 50 view .LVU719
 3086 000c 0446     		mov	r4, r0	@ tmp131,
 3087              	.LBE228:
 3088              	.LBE230:
 3089              	@ luaglue.c:319: 	int mode = pd->lua->getArgInt(2);
 319:luaglue.c     **** 	
 3090              		.loc 1 319 13 view .LVU720
 3091 000e 0220     		movs	r0, #2	@,
 3092              	.LVL214:
 319:luaglue.c     **** 	
 3093              		.loc 1 319 2 is_stmt 1 view .LVU721
 3094              	@ luaglue.c:319: 	int mode = pd->lua->getArgInt(2);
 319:luaglue.c     **** 	
 3095              		.loc 1 319 15 is_stmt 0 view .LVU722
 3096 0010 1B68     		ldr	r3, [r3]	@ pd, pd
 3097              	@ luaglue.c:319: 	int mode = pd->lua->getArgInt(2);
 319:luaglue.c     **** 	
 3098              		.loc 1 319 20 view .LVU723
 3099 0012 9B69     		ldr	r3, [r3, #24]	@ pd.71_1->lua, pd.71_1->lua
 3100              	@ luaglue.c:319: 	int mode = pd->lua->getArgInt(2);
 319:luaglue.c     **** 	
 3101              		.loc 1 319 13 view .LVU724
 3102 0014 9B6A     		ldr	r3, [r3, #40]	@ _2->getArgInt, _2->getArgInt
 3103 0016 9847     		blx	r3		@ _2->getArgInt
 3104              	.LVL215:
 3105 0018 0546     		mov	r5, r0	@ tmp132,
 3106              	@ luaglue.c:321: 	RenderStyle style = Scene3DNode_getRenderStyle(node);
 321:luaglue.c     **** 	
 3107              		.loc 1 321 22 view .LVU725
 3108 001a 2046     		mov	r0, r4	@, _14
 3109              	.LVL216:
 321:luaglue.c     **** 	
 3110              		.loc 1 321 2 is_stmt 1 view .LVU726
 3111              	@ luaglue.c:321: 	RenderStyle style = Scene3DNode_getRenderStyle(node);
 321:luaglue.c     **** 	
 3112              		.loc 1 321 22 is_stmt 0 view .LVU727
 3113 001c FFF7FEFF 		bl	Scene3DNode_getRenderStyle		@
ARM GAS  /var/folders/cs/83z6p2tj4w57s6p2rt8nwfp00000gn/T//ccYNfdJn.s 			page 78


 3114              	.LVL217:
 323:luaglue.c     **** 	{
 3115              		.loc 1 323 2 is_stmt 1 view .LVU728
 3116              	@ luaglue.c:323: 	if ( mode > 0 )
 323:luaglue.c     **** 	{
 3117              		.loc 1 323 5 is_stmt 0 view .LVU729
 3118 0020 002D     		cmp	r5, #0	@ mode,
 3119 0022 12DD     		ble	.L100		@,
 325:luaglue.c     **** 
 3120              		.loc 1 325 3 is_stmt 1 view .LVU730
 3121              	.LVL218:
 327:luaglue.c     **** 			style &= ~kRenderWireframeBack;
 3122              		.loc 1 327 3 view .LVU731
 3123              	@ luaglue.c:327: 		if ( mode == 1 )
 327:luaglue.c     **** 			style &= ~kRenderWireframeBack;
 3124              		.loc 1 327 6 is_stmt 0 view .LVU732
 3125 0024 012D     		cmp	r5, #1	@ mode,
 3126 0026 07D0     		beq	.L104		@,
 330:luaglue.c     **** 	}
 3127              		.loc 1 330 4 is_stmt 1 view .LVU733
 3128              	@ luaglue.c:330: 			style |= kRenderWireframeBack;
 330:luaglue.c     **** 	}
 3129              		.loc 1 330 10 is_stmt 0 view .LVU734
 3130 0028 40F00601 		orr	r1, r0, #6	@ tmp128, tmp125,
 3131              	@ luaglue.c:335: 	Scene3DNode_setRenderStyle(node, style);
 335:luaglue.c     **** 	
 3132              		.loc 1 335 2 view .LVU735
 3133 002c 2046     		mov	r0, r4	@, _14
 3134              	@ luaglue.c:330: 			style |= kRenderWireframeBack;
 330:luaglue.c     **** 	}
 3135              		.loc 1 330 10 view .LVU736
 3136 002e C9B2     		uxtb	r1, r1	@ style, tmp128
 3137              	.LVL219:
 335:luaglue.c     **** 	
 3138              		.loc 1 335 2 is_stmt 1 view .LVU737
 3139 0030 FFF7FEFF 		bl	Scene3DNode_setRenderStyle		@
 3140              	.LVL220:
 337:luaglue.c     **** }
 3141              		.loc 1 337 2 view .LVU738
 3142              	@ luaglue.c:338: }
 338:luaglue.c     **** 
 3143              		.loc 1 338 1 is_stmt 0 view .LVU739
 3144 0034 0020     		movs	r0, #0	@,
 3145 0036 38BD     		pop	{r3, r4, r5, pc}	@
 3146              	.LVL221:
 3147              	.L104:
 328:luaglue.c     **** 		else
 3148              		.loc 1 328 4 is_stmt 1 view .LVU740
 3149 0038 00F0FB01 		and	r1, r0, #251	@ _16, tmp125,
 3150              	@ luaglue.c:335: 	Scene3DNode_setRenderStyle(node, style);
 335:luaglue.c     **** 	
 3151              		.loc 1 335 2 is_stmt 0 view .LVU741
 3152 003c 2046     		mov	r0, r4	@, _14
 3153              	@ luaglue.c:328: 			style &= ~kRenderWireframeBack;
 328:luaglue.c     **** 		else
 3154              		.loc 1 328 10 view .LVU742
 3155 003e 41F00201 		orr	r1, r1, #2	@ style, _16,
ARM GAS  /var/folders/cs/83z6p2tj4w57s6p2rt8nwfp00000gn/T//ccYNfdJn.s 			page 79


 3156              	.LVL222:
 335:luaglue.c     **** 	
 3157              		.loc 1 335 2 is_stmt 1 view .LVU743
 3158 0042 FFF7FEFF 		bl	Scene3DNode_setRenderStyle		@
 3159              	.LVL223:
 337:luaglue.c     **** }
 3160              		.loc 1 337 2 view .LVU744
 3161              	@ luaglue.c:338: }
 338:luaglue.c     **** 
 3162              		.loc 1 338 1 is_stmt 0 view .LVU745
 3163 0046 0020     		movs	r0, #0	@,
 3164 0048 38BD     		pop	{r3, r4, r5, pc}	@
 3165              	.LVL224:
 3166              	.L100:
 333:luaglue.c     **** 
 3167              		.loc 1 333 3 is_stmt 1 view .LVU746
 3168              	@ luaglue.c:333: 		style &= ~kRenderWireframe;
 333:luaglue.c     **** 
 3169              		.loc 1 333 9 is_stmt 0 view .LVU747
 3170 004a 00F0FD01 		and	r1, r0, #253	@ style, tmp125,
 3171              	.LVL225:
 335:luaglue.c     **** 	
 3172              		.loc 1 335 2 is_stmt 1 view .LVU748
 3173 004e 2046     		mov	r0, r4	@, _14
 3174 0050 FFF7FEFF 		bl	Scene3DNode_setRenderStyle		@
 3175              	.LVL226:
 337:luaglue.c     **** }
 3176              		.loc 1 337 2 view .LVU749
 3177              	@ luaglue.c:338: }
 338:luaglue.c     **** 
 3178              		.loc 1 338 1 is_stmt 0 view .LVU750
 3179 0054 0020     		movs	r0, #0	@,
 3180 0056 38BD     		pop	{r3, r4, r5, pc}	@
 3181              	.LVL227:
 3182              	.L106:
 338:luaglue.c     **** 
 3183              		.loc 1 338 1 view .LVU751
 3184              		.align	2
 3185              	.L105:
 3186 0058 00000000 		.word	.LC5
 3187 005c 00000000 		.word	.LANCHOR0
 3188              		.cfi_endproc
 3189              	.LFE50:
 3190              		.size	node_setWireframeMode, .-node_setWireframeMode
 3191              		.section	.text.node_setFilled,"ax",%progbits
 3192              		.align	1
 3193              		.p2align 4,,15
 3194              		.syntax unified
 3195              		.thumb
 3196              		.thumb_func
 3197              		.fpu fpv5-sp-d16
 3198              		.type	node_setFilled, %function
 3199              	node_setFilled:
 3200              	.LVL228:
 3201              	.LFB49:
 300:luaglue.c     **** 	Scene3DNode* node = getSceneNode(1);
 3202              		.loc 1 300 1 is_stmt 1 view -0
ARM GAS  /var/folders/cs/83z6p2tj4w57s6p2rt8nwfp00000gn/T//ccYNfdJn.s 			page 80


 3203              		.cfi_startproc
 3204              		@ args = 0, pretend = 0, frame = 0
 3205              		@ frame_needed = 0, uses_anonymous_args = 0
 301:luaglue.c     **** 	int flag = pd->lua->getArgBool(2);
 3206              		.loc 1 301 2 view .LVU753
 3207              	.LBB231:
 3208              	.LBI231:
  29:luaglue.c     **** static Shape3D* getShape(int n)			{ return get3DObj(n, "lib3d.shape"); }
 3209              		.loc 1 29 21 view .LVU754
 3210              	.LBB232:
  29:luaglue.c     **** static Shape3D* getShape(int n)			{ return get3DObj(n, "lib3d.shape"); }
 3211              		.loc 1 29 43 view .LVU755
 3212              	.LBE232:
 3213              	.LBE231:
 3214              	@ luaglue.c:300: {
 300:luaglue.c     **** 	Scene3DNode* node = getSceneNode(1);
 3215              		.loc 1 300 1 is_stmt 0 view .LVU756
 3216 0000 38B5     		push	{r3, r4, r5, lr}	@
 3217              	.LCFI29:
 3218              		.cfi_def_cfa_offset 16
 3219              		.cfi_offset 3, -16
 3220              		.cfi_offset 4, -12
 3221              		.cfi_offset 5, -8
 3222              		.cfi_offset 14, -4
 3223              	.LBB235:
 3224              	.LBB233:
 3225              	@ luaglue.c:29: static Scene3DNode* getSceneNode(int n)	{ return get3DObj(n, "lib3d.scenenode"); }
  29:luaglue.c     **** static Shape3D* getShape(int n)			{ return get3DObj(n, "lib3d.shape"); }
 3226              		.loc 1 29 50 view .LVU757
 3227 0002 0F49     		ldr	r1, .L111	@,
 3228 0004 0120     		movs	r0, #1	@,
 3229              	.LVL229:
  29:luaglue.c     **** static Shape3D* getShape(int n)			{ return get3DObj(n, "lib3d.shape"); }
 3230              		.loc 1 29 50 view .LVU758
 3231 0006 FFF7FEFF 		bl	get3DObj		@
 3232              	.LVL230:
 3233              	.LBE233:
 3234              	.LBE235:
 3235              	@ luaglue.c:302: 	int flag = pd->lua->getArgBool(2);
 302:luaglue.c     **** 	
 3236              		.loc 1 302 15 view .LVU759
 3237 000a 0E4B     		ldr	r3, .L111+4	@ tmp120,
 3238              	.LBB236:
 3239              	.LBB234:
 3240              	@ luaglue.c:29: static Scene3DNode* getSceneNode(int n)	{ return get3DObj(n, "lib3d.scenenode"); }
  29:luaglue.c     **** static Shape3D* getShape(int n)			{ return get3DObj(n, "lib3d.shape"); }
 3241              		.loc 1 29 50 view .LVU760
 3242 000c 0446     		mov	r4, r0	@ tmp128,
 3243              	.LBE234:
 3244              	.LBE236:
 3245              	@ luaglue.c:302: 	int flag = pd->lua->getArgBool(2);
 302:luaglue.c     **** 	
 3246              		.loc 1 302 13 view .LVU761
 3247 000e 0220     		movs	r0, #2	@,
 3248              	.LVL231:
 302:luaglue.c     **** 	
 3249              		.loc 1 302 2 is_stmt 1 view .LVU762
ARM GAS  /var/folders/cs/83z6p2tj4w57s6p2rt8nwfp00000gn/T//ccYNfdJn.s 			page 81


 3250              	@ luaglue.c:302: 	int flag = pd->lua->getArgBool(2);
 302:luaglue.c     **** 	
 3251              		.loc 1 302 15 is_stmt 0 view .LVU763
 3252 0010 1B68     		ldr	r3, [r3]	@ pd, pd
 3253              	@ luaglue.c:302: 	int flag = pd->lua->getArgBool(2);
 302:luaglue.c     **** 	
 3254              		.loc 1 302 20 view .LVU764
 3255 0012 9B69     		ldr	r3, [r3, #24]	@ pd.72_1->lua, pd.72_1->lua
 3256              	@ luaglue.c:302: 	int flag = pd->lua->getArgBool(2);
 302:luaglue.c     **** 	
 3257              		.loc 1 302 13 view .LVU765
 3258 0014 5B6A     		ldr	r3, [r3, #36]	@ _2->getArgBool, _2->getArgBool
 3259 0016 9847     		blx	r3		@ _2->getArgBool
 3260              	.LVL232:
 3261 0018 0546     		mov	r5, r0	@ tmp129,
 3262              	@ luaglue.c:304: 	RenderStyle style = Scene3DNode_getRenderStyle(node);
 304:luaglue.c     **** 	
 3263              		.loc 1 304 22 view .LVU766
 3264 001a 2046     		mov	r0, r4	@, _13
 3265              	.LVL233:
 304:luaglue.c     **** 	
 3266              		.loc 1 304 2 is_stmt 1 view .LVU767
 3267              	@ luaglue.c:304: 	RenderStyle style = Scene3DNode_getRenderStyle(node);
 304:luaglue.c     **** 	
 3268              		.loc 1 304 22 is_stmt 0 view .LVU768
 3269 001c FFF7FEFF 		bl	Scene3DNode_getRenderStyle		@
 3270              	.LVL234:
 306:luaglue.c     **** 		style |= kRenderFilled;
 3271              		.loc 1 306 2 is_stmt 1 view .LVU769
 3272              	@ luaglue.c:306: 	if ( flag )
 306:luaglue.c     **** 		style |= kRenderFilled;
 3273              		.loc 1 306 5 is_stmt 0 view .LVU770
 3274 0020 3DB1     		cbz	r5, .L108	@ flag,
 307:luaglue.c     **** 	else
 3275              		.loc 1 307 3 is_stmt 1 view .LVU771
 3276              	@ luaglue.c:307: 		style |= kRenderFilled;
 307:luaglue.c     **** 	else
 3277              		.loc 1 307 9 is_stmt 0 view .LVU772
 3278 0022 40F00101 		orr	r1, r0, #1	@ tmp125, tmp124,
 3279              	@ luaglue.c:311: 	Scene3DNode_setRenderStyle(node, style);
 311:luaglue.c     **** 	
 3280              		.loc 1 311 2 view .LVU773
 3281 0026 2046     		mov	r0, r4	@, _13
 3282              	.LVL235:
 3283              	@ luaglue.c:307: 		style |= kRenderFilled;
 307:luaglue.c     **** 	else
 3284              		.loc 1 307 9 view .LVU774
 3285 0028 C9B2     		uxtb	r1, r1	@ style, tmp125
 3286              	.LVL236:
 311:luaglue.c     **** 	
 3287              		.loc 1 311 2 is_stmt 1 view .LVU775
 3288 002a FFF7FEFF 		bl	Scene3DNode_setRenderStyle		@
 3289              	.LVL237:
 313:luaglue.c     **** }
 3290              		.loc 1 313 2 view .LVU776
 3291              	@ luaglue.c:314: }
 314:luaglue.c     **** 
ARM GAS  /var/folders/cs/83z6p2tj4w57s6p2rt8nwfp00000gn/T//ccYNfdJn.s 			page 82


 3292              		.loc 1 314 1 is_stmt 0 view .LVU777
 3293 002e 0020     		movs	r0, #0	@,
 3294 0030 38BD     		pop	{r3, r4, r5, pc}	@
 3295              	.LVL238:
 3296              	.L108:
 309:luaglue.c     **** 	
 3297              		.loc 1 309 3 is_stmt 1 view .LVU778
 3298              	@ luaglue.c:309: 		style &= ~kRenderFilled;
 309:luaglue.c     **** 	
 3299              		.loc 1 309 9 is_stmt 0 view .LVU779
 3300 0032 00F0FE01 		and	r1, r0, #254	@ style, tmp124,
 3301              	.LVL239:
 311:luaglue.c     **** 	
 3302              		.loc 1 311 2 is_stmt 1 view .LVU780
 3303 0036 2046     		mov	r0, r4	@, _13
 3304 0038 FFF7FEFF 		bl	Scene3DNode_setRenderStyle		@
 3305              	.LVL240:
 313:luaglue.c     **** }
 3306              		.loc 1 313 2 view .LVU781
 3307              	@ luaglue.c:314: }
 314:luaglue.c     **** 
 3308              		.loc 1 314 1 is_stmt 0 view .LVU782
 3309 003c 0020     		movs	r0, #0	@,
 3310 003e 38BD     		pop	{r3, r4, r5, pc}	@
 3311              	.LVL241:
 3312              	.L112:
 314:luaglue.c     **** 
 3313              		.loc 1 314 1 view .LVU783
 3314              		.align	2
 3315              	.L111:
 3316 0040 00000000 		.word	.LC5
 3317 0044 00000000 		.word	.LANCHOR0
 3318              		.cfi_endproc
 3319              	.LFE49:
 3320              		.size	node_setFilled, .-node_setFilled
 3321              		.section	.text.node_setColorBias,"ax",%progbits
 3322              		.align	1
 3323              		.p2align 4,,15
 3324              		.syntax unified
 3325              		.thumb
 3326              		.thumb_func
 3327              		.fpu fpv5-sp-d16
 3328              		.type	node_setColorBias, %function
 3329              	node_setColorBias:
 3330              	.LVL242:
 3331              	.LFB48:
 291:luaglue.c     **** 	Scene3DNode* node = getSceneNode(1);
 3332              		.loc 1 291 1 is_stmt 1 view -0
 3333              		.cfi_startproc
 3334              		@ args = 0, pretend = 0, frame = 0
 3335              		@ frame_needed = 0, uses_anonymous_args = 0
 292:luaglue.c     **** 	
 3336              		.loc 1 292 2 view .LVU785
 3337              	.LBB237:
 3338              	.LBI237:
  29:luaglue.c     **** static Shape3D* getShape(int n)			{ return get3DObj(n, "lib3d.shape"); }
 3339              		.loc 1 29 21 view .LVU786
ARM GAS  /var/folders/cs/83z6p2tj4w57s6p2rt8nwfp00000gn/T//ccYNfdJn.s 			page 83


 3340              	.LBB238:
  29:luaglue.c     **** static Shape3D* getShape(int n)			{ return get3DObj(n, "lib3d.shape"); }
 3341              		.loc 1 29 43 view .LVU787
 3342              	.LBE238:
 3343              	.LBE237:
 3344              	@ luaglue.c:291: {
 291:luaglue.c     **** 	Scene3DNode* node = getSceneNode(1);
 3345              		.loc 1 291 1 is_stmt 0 view .LVU788
 3346 0000 10B5     		push	{r4, lr}	@
 3347              	.LCFI30:
 3348              		.cfi_def_cfa_offset 8
 3349              		.cfi_offset 4, -8
 3350              		.cfi_offset 14, -4
 3351              	.LBB241:
 3352              	.LBB239:
 3353              	@ luaglue.c:29: static Scene3DNode* getSceneNode(int n)	{ return get3DObj(n, "lib3d.scenenode"); }
  29:luaglue.c     **** static Shape3D* getShape(int n)			{ return get3DObj(n, "lib3d.shape"); }
 3354              		.loc 1 29 50 view .LVU789
 3355 0002 0849     		ldr	r1, .L115	@,
 3356 0004 0120     		movs	r0, #1	@,
 3357              	.LVL243:
  29:luaglue.c     **** static Shape3D* getShape(int n)			{ return get3DObj(n, "lib3d.shape"); }
 3358              		.loc 1 29 50 view .LVU790
 3359 0006 FFF7FEFF 		bl	get3DObj		@
 3360              	.LVL244:
 3361              	.LBE239:
 3362              	.LBE241:
 3363              	@ luaglue.c:294: 	Scene3DNode_setColorBias(node, pd->lua->getArgFloat(2));
 294:luaglue.c     **** 	
 3364              		.loc 1 294 35 view .LVU791
 3365 000a 074B     		ldr	r3, .L115+4	@ tmp118,
 3366              	.LBB242:
 3367              	.LBB240:
 3368              	@ luaglue.c:29: static Scene3DNode* getSceneNode(int n)	{ return get3DObj(n, "lib3d.scenenode"); }
  29:luaglue.c     **** static Shape3D* getShape(int n)			{ return get3DObj(n, "lib3d.shape"); }
 3369              		.loc 1 29 50 view .LVU792
 3370 000c 0446     		mov	r4, r0	@ tmp123,
 3371              	.LBE240:
 3372              	.LBE242:
 3373              	@ luaglue.c:294: 	Scene3DNode_setColorBias(node, pd->lua->getArgFloat(2));
 294:luaglue.c     **** 	
 3374              		.loc 1 294 2 view .LVU793
 3375 000e 0220     		movs	r0, #2	@,
 3376              	.LVL245:
 294:luaglue.c     **** 	
 3377              		.loc 1 294 2 is_stmt 1 view .LVU794
 3378              	@ luaglue.c:294: 	Scene3DNode_setColorBias(node, pd->lua->getArgFloat(2));
 294:luaglue.c     **** 	
 3379              		.loc 1 294 35 is_stmt 0 view .LVU795
 3380 0010 1B68     		ldr	r3, [r3]	@ pd, pd
 3381              	@ luaglue.c:294: 	Scene3DNode_setColorBias(node, pd->lua->getArgFloat(2));
 294:luaglue.c     **** 	
 3382              		.loc 1 294 40 view .LVU796
 3383 0012 9B69     		ldr	r3, [r3, #24]	@ pd.73_1->lua, pd.73_1->lua
 3384              	@ luaglue.c:294: 	Scene3DNode_setColorBias(node, pd->lua->getArgFloat(2));
 294:luaglue.c     **** 	
 3385              		.loc 1 294 2 view .LVU797
ARM GAS  /var/folders/cs/83z6p2tj4w57s6p2rt8nwfp00000gn/T//ccYNfdJn.s 			page 84


 3386 0014 DB6A     		ldr	r3, [r3, #44]	@ _2->getArgFloat, _2->getArgFloat
 3387 0016 9847     		blx	r3		@ _2->getArgFloat
 3388              	.LVL246:
 3389 0018 2046     		mov	r0, r4	@, _8
 3390 001a FFF7FEFF 		bl	Scene3DNode_setColorBias		@
 3391              	.LVL247:
 296:luaglue.c     **** }
 3392              		.loc 1 296 2 is_stmt 1 view .LVU798
 3393              	@ luaglue.c:297: }
 297:luaglue.c     **** 
 3394              		.loc 1 297 1 is_stmt 0 view .LVU799
 3395 001e 0020     		movs	r0, #0	@,
 3396 0020 10BD     		pop	{r4, pc}	@
 3397              	.LVL248:
 3398              	.L116:
 297:luaglue.c     **** 
 3399              		.loc 1 297 1 view .LVU800
 3400 0022 00BF     		.align	2
 3401              	.L115:
 3402 0024 00000000 		.word	.LC5
 3403 0028 00000000 		.word	.LANCHOR0
 3404              		.cfi_endproc
 3405              	.LFE48:
 3406              		.size	node_setColorBias, .-node_setColorBias
 3407              		.section	.text.node_scaleBy,"ax",%progbits
 3408              		.align	1
 3409              		.p2align 4,,15
 3410              		.syntax unified
 3411              		.thumb
 3412              		.thumb_func
 3413              		.fpu fpv5-sp-d16
 3414              		.type	node_scaleBy, %function
 3415              	node_scaleBy:
 3416              	.LVL249:
 3417              	.LFB47:
 251:luaglue.c     **** 	Scene3DNode* node = getSceneNode(1);
 3418              		.loc 1 251 1 is_stmt 1 view -0
 3419              		.cfi_startproc
 3420              		@ args = 0, pretend = 0, frame = 56
 3421              		@ frame_needed = 0, uses_anonymous_args = 0
 252:luaglue.c     **** 	Matrix3D xform = node->transform;
 3422              		.loc 1 252 2 view .LVU802
 3423              	.LBB243:
 3424              	.LBI243:
  29:luaglue.c     **** static Shape3D* getShape(int n)			{ return get3DObj(n, "lib3d.shape"); }
 3425              		.loc 1 29 21 view .LVU803
 3426              	.LBB244:
  29:luaglue.c     **** static Shape3D* getShape(int n)			{ return get3DObj(n, "lib3d.shape"); }
 3427              		.loc 1 29 43 view .LVU804
 3428              	.LBE244:
 3429              	.LBE243:
 3430              	@ luaglue.c:251: {
 251:luaglue.c     **** 	Scene3DNode* node = getSceneNode(1);
 3431              		.loc 1 251 1 is_stmt 0 view .LVU805
 3432 0000 2DE9F041 		push	{r4, r5, r6, r7, r8, lr}	@
 3433              	.LCFI31:
 3434              		.cfi_def_cfa_offset 24
ARM GAS  /var/folders/cs/83z6p2tj4w57s6p2rt8nwfp00000gn/T//ccYNfdJn.s 			page 85


 3435              		.cfi_offset 4, -24
 3436              		.cfi_offset 5, -20
 3437              		.cfi_offset 6, -16
 3438              		.cfi_offset 7, -12
 3439              		.cfi_offset 8, -8
 3440              		.cfi_offset 14, -4
 3441              	.LBB248:
 3442              	.LBB245:
 3443              	@ luaglue.c:29: static Scene3DNode* getSceneNode(int n)	{ return get3DObj(n, "lib3d.scenenode"); }
  29:luaglue.c     **** static Shape3D* getShape(int n)			{ return get3DObj(n, "lib3d.shape"); }
 3444              		.loc 1 29 50 view .LVU806
 3445 0004 4F49     		ldr	r1, .L121	@,
 3446 0006 0120     		movs	r0, #1	@,
 3447              	.LVL250:
  29:luaglue.c     **** static Shape3D* getShape(int n)			{ return get3DObj(n, "lib3d.shape"); }
 3448              		.loc 1 29 50 view .LVU807
 3449              	.LBE245:
 3450              	.LBE248:
 3451              	@ luaglue.c:256: 	if ( pd->lua->getArgCount() > 2 )
 256:luaglue.c     **** 	{
 3452              		.loc 1 256 9 view .LVU808
 3453 0008 DFF83C81 		ldr	r8, .L121+4	@ tmp169,
 3454              	@ luaglue.c:251: {
 251:luaglue.c     **** 	Scene3DNode* node = getSceneNode(1);
 3455              		.loc 1 251 1 view .LVU809
 3456 000c 2DED028B 		vpush.64	{d8}	@
 3457              	.LCFI32:
 3458              		.cfi_def_cfa_offset 32
 3459              		.cfi_offset 80, -32
 3460              		.cfi_offset 81, -28
 3461 0010 8EB0     		sub	sp, sp, #56	@,,
 3462              	.LCFI33:
 3463              		.cfi_def_cfa_offset 88
 3464              	.LBB249:
 3465              	.LBB246:
 3466              	@ luaglue.c:29: static Scene3DNode* getSceneNode(int n)	{ return get3DObj(n, "lib3d.scenenode"); }
  29:luaglue.c     **** static Shape3D* getShape(int n)			{ return get3DObj(n, "lib3d.shape"); }
 3467              		.loc 1 29 50 view .LVU810
 3468 0012 FFF7FEFF 		bl	get3DObj		@
 3469              	.LVL251:
 3470              	.LBE246:
 3471              	.LBE249:
 3472              	@ luaglue.c:253: 	Matrix3D xform = node->transform;
 253:luaglue.c     **** 	float sx, sy, sz;
 3473              		.loc 1 253 11 view .LVU811
 3474 0016 0546     		mov	r5, r0	@ _76, _76
 3475              	.LBB250:
 3476              	.LBB247:
 3477              	@ luaglue.c:29: static Scene3DNode* getSceneNode(int n)	{ return get3DObj(n, "lib3d.scenenode"); }
  29:luaglue.c     **** static Shape3D* getShape(int n)			{ return get3DObj(n, "lib3d.shape"); }
 3478              		.loc 1 29 50 view .LVU812
 3479 0018 0646     		mov	r6, r0	@ _76, tmp230
 3480              	.LVL252:
  29:luaglue.c     **** static Shape3D* getShape(int n)			{ return get3DObj(n, "lib3d.shape"); }
 3481              		.loc 1 29 50 view .LVU813
 3482              	.LBE247:
 3483              	.LBE250:
ARM GAS  /var/folders/cs/83z6p2tj4w57s6p2rt8nwfp00000gn/T//ccYNfdJn.s 			page 86


 253:luaglue.c     **** 	float sx, sy, sz;
 3484              		.loc 1 253 2 is_stmt 1 view .LVU814
 3485              	@ luaglue.c:253: 	Matrix3D xform = node->transform;
 253:luaglue.c     **** 	float sx, sy, sz;
 3486              		.loc 1 253 11 is_stmt 0 view .LVU815
 3487 001a 01AC     		add	r4, sp, #4	@ tmp236,,
 3488              	@ luaglue.c:256: 	if ( pd->lua->getArgCount() > 2 )
 256:luaglue.c     **** 	{
 3489              		.loc 1 256 9 view .LVU816
 3490 001c D8F80070 		ldr	r7, [r8]	@ pd, pd
 3491              	@ luaglue.c:253: 	Matrix3D xform = node->transform;
 253:luaglue.c     **** 	float sx, sy, sz;
 3492              		.loc 1 253 11 view .LVU817
 3493 0020 0FCD     		ldmia	r5!, {r0, r1, r2, r3}	@ _76,,,,
 3494              	.LVL253:
 253:luaglue.c     **** 	float sx, sy, sz;
 3495              		.loc 1 253 11 view .LVU818
 3496 0022 0FC4     		stmia	r4!, {r0, r1, r2, r3}	@ tmp166,,,,
 3497 0024 0FCD     		ldmia	r5!, {r0, r1, r2, r3}	@ _76,,,,
 3498 0026 0FC4     		stmia	r4!, {r0, r1, r2, r3}	@ tmp166,,,,
 3499 0028 0FCD     		ldmia	r5!, {r0, r1, r2, r3}	@ _76,,,,
 3500              	@ luaglue.c:256: 	if ( pd->lua->getArgCount() > 2 )
 256:luaglue.c     **** 	{
 3501              		.loc 1 256 14 view .LVU819
 3502 002a D7F818C0 		ldr	ip, [r7, #24]	@ pd.74_1->lua, pd.74_1->lua
 3503              	@ luaglue.c:253: 	Matrix3D xform = node->transform;
 253:luaglue.c     **** 	float sx, sy, sz;
 3504              		.loc 1 253 11 view .LVU820
 3505 002e 2F68     		ldr	r7, [r5]	@ _76->transform, _76->transform
 3506              	@ luaglue.c:256: 	if ( pd->lua->getArgCount() > 2 )
 256:luaglue.c     **** 	{
 3507              		.loc 1 256 7 view .LVU821
 3508 0030 DCF81850 		ldr	r5, [ip, #24]	@ _2->getArgCount, _2->getArgCount
 3509              	@ luaglue.c:253: 	Matrix3D xform = node->transform;
 253:luaglue.c     **** 	float sx, sy, sz;
 3510              		.loc 1 253 11 view .LVU822
 3511 0034 0FC4     		stmia	r4!, {r0, r1, r2, r3}	@ tmp166,,,,
 3512 0036 2760     		str	r7, [r4]	@ _76->transform, xform
 254:luaglue.c     **** 	
 3513              		.loc 1 254 2 is_stmt 1 view .LVU823
 256:luaglue.c     **** 	{
 3514              		.loc 1 256 2 view .LVU824
 3515              	@ luaglue.c:256: 	if ( pd->lua->getArgCount() > 2 )
 256:luaglue.c     **** 	{
 3516              		.loc 1 256 7 is_stmt 0 view .LVU825
 3517 0038 A847     		blx	r5		@ _2->getArgCount
 3518              	.LVL254:
 3519              	@ luaglue.c:258: 		sx = pd->lua->getArgFloat(2);
 258:luaglue.c     **** 		sy = pd->lua->getArgFloat(3);
 3520              		.loc 1 258 10 view .LVU826
 3521 003a D8F80030 		ldr	r3, [r8]	@ pd, pd
 3522              	@ luaglue.c:256: 	if ( pd->lua->getArgCount() > 2 )
 256:luaglue.c     **** 	{
 3523              		.loc 1 256 5 view .LVU827
 3524 003e 0228     		cmp	r0, #2	@ tmp231,
 3525              	@ luaglue.c:258: 		sx = pd->lua->getArgFloat(2);
 258:luaglue.c     **** 		sy = pd->lua->getArgFloat(3);
ARM GAS  /var/folders/cs/83z6p2tj4w57s6p2rt8nwfp00000gn/T//ccYNfdJn.s 			page 87


 3526              		.loc 1 258 8 view .LVU828
 3527 0040 4FF00200 		mov	r0, #2	@,
 3528              	@ luaglue.c:258: 		sx = pd->lua->getArgFloat(2);
 258:luaglue.c     **** 		sy = pd->lua->getArgFloat(3);
 3529              		.loc 1 258 15 view .LVU829
 3530 0044 9B69     		ldr	r3, [r3, #24]	@ pd.75_5->lua,
 3531              	@ luaglue.c:258: 		sx = pd->lua->getArgFloat(2);
 258:luaglue.c     **** 		sy = pd->lua->getArgFloat(3);
 3532              		.loc 1 258 8 view .LVU830
 3533 0046 DB6A     		ldr	r3, [r3, #44]	@ _6->getArgFloat,
 3534              	@ luaglue.c:256: 	if ( pd->lua->getArgCount() > 2 )
 256:luaglue.c     **** 	{
 3535              		.loc 1 256 5 view .LVU831
 3536 0048 75DD     		ble	.L118		@,
 258:luaglue.c     **** 		sy = pd->lua->getArgFloat(3);
 3537              		.loc 1 258 3 is_stmt 1 view .LVU832
 3538              	@ luaglue.c:258: 		sx = pd->lua->getArgFloat(2);
 258:luaglue.c     **** 		sy = pd->lua->getArgFloat(3);
 3539              		.loc 1 258 8 is_stmt 0 view .LVU833
 3540 004a 9847     		blx	r3		@ _6->getArgFloat
 3541              	.LVL255:
 3542              	@ luaglue.c:259: 		sy = pd->lua->getArgFloat(3);
 259:luaglue.c     **** 		sz = pd->lua->getArgFloat(4);
 3543              		.loc 1 259 10 view .LVU834
 3544 004c D8F80030 		ldr	r3, [r8]	@ pd, pd
 3545              	@ luaglue.c:259: 		sy = pd->lua->getArgFloat(3);
 259:luaglue.c     **** 		sz = pd->lua->getArgFloat(4);
 3546              		.loc 1 259 8 view .LVU835
 3547 0050 0320     		movs	r0, #3	@,
 3548              	@ luaglue.c:258: 		sx = pd->lua->getArgFloat(2);
 258:luaglue.c     **** 		sy = pd->lua->getArgFloat(3);
 3549              		.loc 1 258 8 view .LVU836
 3550 0052 B0EE408A 		vmov.f32	s16, s0	@ sx, tmp232
 3551              	.LVL256:
 259:luaglue.c     **** 		sz = pd->lua->getArgFloat(4);
 3552              		.loc 1 259 3 is_stmt 1 view .LVU837
 3553              	@ luaglue.c:259: 		sy = pd->lua->getArgFloat(3);
 259:luaglue.c     **** 		sz = pd->lua->getArgFloat(4);
 3554              		.loc 1 259 15 is_stmt 0 view .LVU838
 3555 0056 9B69     		ldr	r3, [r3, #24]	@ pd.76_8->lua, pd.76_8->lua
 3556              	@ luaglue.c:259: 		sy = pd->lua->getArgFloat(3);
 259:luaglue.c     **** 		sz = pd->lua->getArgFloat(4);
 3557              		.loc 1 259 8 view .LVU839
 3558 0058 DB6A     		ldr	r3, [r3, #44]	@ _9->getArgFloat, _9->getArgFloat
 3559 005a 9847     		blx	r3		@ _9->getArgFloat
 3560              	.LVL257:
 3561              	@ luaglue.c:260: 		sz = pd->lua->getArgFloat(4);
 260:luaglue.c     **** 	}
 3562              		.loc 1 260 10 view .LVU840
 3563 005c D8F80030 		ldr	r3, [r8]	@ pd, pd
 3564              	@ luaglue.c:260: 		sz = pd->lua->getArgFloat(4);
 260:luaglue.c     **** 	}
 3565              		.loc 1 260 8 view .LVU841
 3566 0060 0420     		movs	r0, #4	@,
 3567              	@ luaglue.c:259: 		sy = pd->lua->getArgFloat(3);
 259:luaglue.c     **** 		sz = pd->lua->getArgFloat(4);
 3568              		.loc 1 259 8 view .LVU842
ARM GAS  /var/folders/cs/83z6p2tj4w57s6p2rt8nwfp00000gn/T//ccYNfdJn.s 			page 88


 3569 0062 F0EE408A 		vmov.f32	s17, s0	@ sy, tmp233
 3570              	.LVL258:
 260:luaglue.c     **** 	}
 3571              		.loc 1 260 3 is_stmt 1 view .LVU843
 3572              	@ luaglue.c:260: 		sz = pd->lua->getArgFloat(4);
 260:luaglue.c     **** 	}
 3573              		.loc 1 260 15 is_stmt 0 view .LVU844
 3574 0066 9B69     		ldr	r3, [r3, #24]	@ pd.77_11->lua, pd.77_11->lua
 3575              	@ luaglue.c:260: 		sz = pd->lua->getArgFloat(4);
 260:luaglue.c     **** 	}
 3576              		.loc 1 260 8 view .LVU845
 3577 0068 DB6A     		ldr	r3, [r3, #44]	@ _12->getArgFloat, _12->getArgFloat
 3578 006a 9847     		blx	r3		@ _12->getArgFloat
 3579              	.LVL259:
 3580              	.L119:
 265:luaglue.c     **** 	
 3581              		.loc 1 265 2 is_stmt 1 view .LVU846
 267:luaglue.c     **** 	xform.m[1][0] *= sx;
 3582              		.loc 1 267 2 view .LVU847
 3583              	@ luaglue.c:283: 	xform.inverting = (sx * sy * sz < 0);
 283:luaglue.c     **** 
 3584              		.loc 1 283 24 is_stmt 0 view .LVU848
 3585 006c 68EE287A 		vmul.f32	s15, s16, s17	@ tmp213, sx, sy
 3586              	@ luaglue.c:265: 	xform.isIdentity = 0;
 265:luaglue.c     **** 	
 3587              		.loc 1 265 19 view .LVU849
 3588 0070 9DF80430 		ldrb	r3, [sp, #4]	@ zero_extendqisi2	@ MEM[(struct  *)&xform], MEM[(struct  *)&xform]
 3589              	@ luaglue.c:267: 	xform.m[0][0] *= sx;
 267:luaglue.c     **** 	xform.m[1][0] *= sx;
 3590              		.loc 1 267 16 view .LVU850
 3591 0074 9DED022A 		vldr.32	s4, [sp, #8]	@ xform.m, xform.m
 3592              	@ luaglue.c:285: 	Scene3DNode_setTransform(node, &xform);
 285:luaglue.c     **** 	
 3593              		.loc 1 285 2 view .LVU851
 3594 0078 3046     		mov	r0, r6	@, _76
 3595              	@ luaglue.c:268: 	xform.m[1][0] *= sx;
 268:luaglue.c     **** 	xform.m[2][0] *= sx;
 3596              		.loc 1 268 16 view .LVU852
 3597 007a DDED052A 		vldr.32	s5, [sp, #20]	@ xform.m, xform.m
 3598              	@ luaglue.c:265: 	xform.isIdentity = 0;
 265:luaglue.c     **** 	
 3599              		.loc 1 265 19 view .LVU853
 3600 007e 23F00303 		bic	r3, r3, #3	@ tmp222, MEM[(struct  *)&xform],
 3601              	@ luaglue.c:283: 	xform.inverting = (sx * sy * sz < 0);
 283:luaglue.c     **** 
 3602              		.loc 1 283 29 view .LVU854
 3603 0082 67EE807A 		vmul.f32	s15, s15, s0	@ tmp214, tmp213, sz
 3604              	@ luaglue.c:269: 	xform.m[2][0] *= sx;
 269:luaglue.c     **** 	
 3605              		.loc 1 269 16 view .LVU855
 3606 0086 9DED083A 		vldr.32	s6, [sp, #32]	@ xform.m, xform.m
 3607              	@ luaglue.c:271: 	xform.m[0][1] *= sy;
 271:luaglue.c     **** 	xform.m[1][1] *= sy;
 3608              		.loc 1 271 16 view .LVU856
 3609 008a DDED033A 		vldr.32	s7, [sp, #12]	@ xform.m, xform.m
 3610              	@ luaglue.c:267: 	xform.m[0][0] *= sx;
 267:luaglue.c     **** 	xform.m[1][0] *= sx;
ARM GAS  /var/folders/cs/83z6p2tj4w57s6p2rt8nwfp00000gn/T//ccYNfdJn.s 			page 89


 3611              		.loc 1 267 16 view .LVU857
 3612 008e 22EE082A 		vmul.f32	s4, s4, s16	@ tmp189, xform.m, sx
 3613              	@ luaglue.c:272: 	xform.m[1][1] *= sy;
 272:luaglue.c     **** 	xform.m[2][1] *= sy;
 3614              		.loc 1 272 16 view .LVU858
 3615 0092 9DED064A 		vldr.32	s8, [sp, #24]	@ xform.m, xform.m
 3616              	@ luaglue.c:268: 	xform.m[1][0] *= sx;
 268:luaglue.c     **** 	xform.m[2][0] *= sx;
 3617              		.loc 1 268 16 view .LVU859
 3618 0096 62EE882A 		vmul.f32	s5, s5, s16	@ tmp191, xform.m, sx
 3619              	@ luaglue.c:283: 	xform.inverting = (sx * sy * sz < 0);
 283:luaglue.c     **** 
 3620              		.loc 1 283 34 view .LVU860
 3621 009a F5EEC07A 		vcmpe.f32	s15, #0	@ tmp214
 3622              	@ luaglue.c:273: 	xform.m[2][1] *= sy;
 273:luaglue.c     **** 	
 3623              		.loc 1 273 16 view .LVU861
 3624 009e DDED094A 		vldr.32	s9, [sp, #36]	@ xform.m, xform.m
 3625              	@ luaglue.c:275: 	xform.m[0][2] *= sz;
 275:luaglue.c     **** 	xform.m[1][2] *= sz;
 3626              		.loc 1 275 16 view .LVU862
 3627 00a2 9DED045A 		vldr.32	s10, [sp, #16]	@ xform.m, xform.m
 3628              	@ luaglue.c:269: 	xform.m[2][0] *= sx;
 269:luaglue.c     **** 	
 3629              		.loc 1 269 16 view .LVU863
 3630 00a6 23EE083A 		vmul.f32	s6, s6, s16	@ tmp193, xform.m, sx
