ARM GAS  /var/folders/cs/83z6p2tj4w57s6p2rt8nwfp00000gn/T//ccDzWS9O.s 			page 1


   1              		.cpu cortex-m7
   2              		.eabi_attribute 27, 1	@ Tag_ABI_HardFP_use
   3              		.eabi_attribute 28, 1	@ Tag_ABI_VFP_args
   4              		.eabi_attribute 20, 1	@ Tag_ABI_FP_denormal
   5              		.eabi_attribute 21, 1	@ Tag_ABI_FP_exceptions
   6              		.eabi_attribute 23, 3	@ Tag_ABI_FP_number_model
   7              		.eabi_attribute 24, 1	@ Tag_ABI_align8_needed
   8              		.eabi_attribute 25, 1	@ Tag_ABI_align8_preserved
   9              		.eabi_attribute 26, 1	@ Tag_ABI_enum_size
  10              		.eabi_attribute 30, 2	@ Tag_ABI_optimization_goals
  11              		.eabi_attribute 34, 1	@ Tag_CPU_unaligned_access
  12              		.eabi_attribute 18, 4	@ Tag_ABI_PCS_wchar_t
  13              		.file	"render.c"
  14              	@ GNU C17 (GNU Tools for Arm Embedded Processors 9-2019-q4-major) version 9.2.1 20191025 (release) 
  15              	@	compiled by GNU C version 4.2.1 Compatible Apple LLVM 9.0.0 (clang-900.0.39.2), GMP version 6.1.0
  16              	
  17              	@ GGC heuristics: --param ggc-min-expand=100 --param ggc-min-heapsize=131072
  18              	@ options passed:  -I . -I . -I /Users/orllewin/Developer/PlaydateSDK/C_API
  19              	@ -I mini3d -imultilib thumb/v7e-m+fp/hard
  20              	@ -iprefix /usr/local/playdate/gcc-arm-none-eabi-9-2019-q4-major/bin/../lib/gcc/arm-none-eabi/9.2.1
  21              	@ -isysroot /usr/local/playdate/gcc-arm-none-eabi-9-2019-q4-major/bin/../arm-none-eabi
  22              	@ -MD build/mini3d/render.d -MF build/dep/render.o.d -MP
  23              	@ -MQ build/mini3d/render.o -D__USES_INITFINI__ -D __FPU_USED=1
  24              	@ -D TARGET_PLAYDATE=1 -D TARGET_EXTENSION=1 mini3d/render.c -mthumb
  25              	@ -mcpu=cortex-m7 -mfloat-abi=hard -mfpu=fpv5-sp-d16 -march=armv7e-m+fpv5
  26              	@ -auxbase-strip build/mini3d/render.o -g -gdwarf-2 -O2 -Wall -Wno-unused
  27              	@ -Wstrict-prototypes -Wno-unknown-pragmas -Wdouble-promotion
  28              	@ -falign-functions=16 -fomit-frame-pointer -fverbose-asm
  29              	@ -ffunction-sections -fdata-sections
  30              	@ options enabled:  -faggressive-loop-optimizations -falign-functions
  31              	@ -falign-jumps -falign-labels -falign-loops -fassume-phsa -fauto-inc-dec
  32              	@ -fbranch-count-reg -fcaller-saves -fcombine-stack-adjustments -fcommon
  33              	@ -fcompare-elim -fcprop-registers -fcrossjumping -fcse-follow-jumps
  34              	@ -fdata-sections -fdefer-pop -fdelete-null-pointer-checks -fdevirtualize
  35              	@ -fdevirtualize-speculatively -fdwarf2-cfi-asm -fearly-inlining
  36              	@ -feliminate-unused-debug-types -fexpensive-optimizations
  37              	@ -fforward-propagate -ffp-int-builtin-inexact -ffunction-cse
  38              	@ -ffunction-sections -fgcse -fgcse-lm -fgnu-runtime -fgnu-unique
  39              	@ -fguess-branch-probability -fhoist-adjacent-loads -fident -fif-conversion
  40              	@ -fif-conversion2 -findirect-inlining -finline -finline-atomics
  41              	@ -finline-functions-called-once -finline-small-functions -fipa-bit-cp
  42              	@ -fipa-cp -fipa-icf -fipa-icf-functions -fipa-icf-variables -fipa-profile
  43              	@ -fipa-pure-const -fipa-ra -fipa-reference -fipa-reference-addressable
  44              	@ -fipa-sra -fipa-stack-alignment -fipa-vrp -fira-hoist-pressure
  45              	@ -fira-share-save-slots -fira-share-spill-slots
  46              	@ -fisolate-erroneous-paths-dereference -fivopts -fkeep-static-consts
  47              	@ -fleading-underscore -flifetime-dse -flra-remat -flto-odr-type-merging
  48              	@ -fmath-errno -fmerge-constants -fmerge-debug-strings
  49              	@ -fmove-loop-invariants -fomit-frame-pointer -foptimize-sibling-calls
  50              	@ -foptimize-strlen -fpartial-inlining -fpeephole -fpeephole2 -fplt
  51              	@ -fprefetch-loop-arrays -freg-struct-return -freorder-blocks
  52              	@ -freorder-functions -frerun-cse-after-loop
  53              	@ -fsched-critical-path-heuristic -fsched-dep-count-heuristic
  54              	@ -fsched-group-heuristic -fsched-interblock -fsched-last-insn-heuristic
  55              	@ -fsched-pressure -fsched-rank-heuristic -fsched-spec
  56              	@ -fsched-spec-insn-heuristic -fsched-stalled-insns-dep -fschedule-insns
  57              	@ -fschedule-insns2 -fsection-anchors -fsemantic-interposition
ARM GAS  /var/folders/cs/83z6p2tj4w57s6p2rt8nwfp00000gn/T//ccDzWS9O.s 			page 2


  58              	@ -fshow-column -fshrink-wrap -fshrink-wrap-separate -fsigned-zeros
  59              	@ -fsplit-ivs-in-unroller -fsplit-wide-types -fssa-backprop -fssa-phiopt
  60              	@ -fstdarg-opt -fstore-merging -fstrict-aliasing
  61              	@ -fstrict-volatile-bitfields -fsync-libcalls -fthread-jumps
  62              	@ -ftoplevel-reorder -ftrapping-math -ftree-bit-ccp -ftree-builtin-call-dce
  63              	@ -ftree-ccp -ftree-ch -ftree-coalesce-vars -ftree-copy-prop -ftree-cselim
  64              	@ -ftree-dce -ftree-dominator-opts -ftree-dse -ftree-forwprop -ftree-fre
  65              	@ -ftree-loop-if-convert -ftree-loop-im -ftree-loop-ivcanon
  66              	@ -ftree-loop-optimize -ftree-parallelize-loops= -ftree-phiprop -ftree-pre
  67              	@ -ftree-pta -ftree-reassoc -ftree-scev-cprop -ftree-sink -ftree-slsr
  68              	@ -ftree-sra -ftree-switch-conversion -ftree-tail-merge -ftree-ter
  69              	@ -ftree-vrp -funit-at-a-time -fvar-tracking -fvar-tracking-assignments
  70              	@ -fverbose-asm -fzero-initialized-in-bss -masm-syntax-unified -mbe32
  71              	@ -mlittle-endian -mpic-data-is-text-relative -msched-prolog -mthumb
  72              	@ -munaligned-access -mvectorize-with-neon-quad
  73              	
  74              		.text
  75              	.Ltext0:
  76              		.cfi_sections	.debug_frame
  77              		.section	.text.drawFragment.part.0,"ax",%progbits
  78              		.align	1
  79              		.p2align 4,,15
  80              		.arch armv7e-m
  81              		.syntax unified
  82              		.thumb
  83              		.thumb_func
  84              		.fpu fpv5-sp-d16
  85              		.type	drawFragment.part.0, %function
  86              	drawFragment.part.0:
  87              	.LVL0:
  88              	.LFB27:
  89              		.file 1 "mini3d/render.c"
   1:mini3d/render.c **** //
   2:mini3d/render.c **** //  render.c
   3:mini3d/render.c **** //  Extension
   4:mini3d/render.c **** //
   5:mini3d/render.c **** //  Created by Dave Hayden on 10/20/15.
   6:mini3d/render.c **** //  Copyright © 2015 Panic, Inc. All rights reserved.
   7:mini3d/render.c **** //
   8:mini3d/render.c **** 
   9:mini3d/render.c **** #include <stdint.h>
  10:mini3d/render.c **** #include <string.h>
  11:mini3d/render.c **** #include "render.h"
  12:mini3d/render.c **** 
  13:mini3d/render.c **** #define LCD_ROWS 240
  14:mini3d/render.c **** #define LCD_COLUMNS 400
  15:mini3d/render.c **** 
  16:mini3d/render.c **** #if !defined(MIN)
  17:mini3d/render.c **** #define MIN(a, b) (((a)<(b))?(a):(b))
  18:mini3d/render.c **** #endif
  19:mini3d/render.c **** 
  20:mini3d/render.c **** #if !defined(MAX)
  21:mini3d/render.c **** #define MAX(a, b) (((a)>(b))?(a):(b))
  22:mini3d/render.c **** #endif
  23:mini3d/render.c **** 
  24:mini3d/render.c **** #if ENABLE_Z_BUFFER
  25:mini3d/render.c **** static uint16_t zbuf[LCD_COLUMNS*LCD_ROWS];
ARM GAS  /var/folders/cs/83z6p2tj4w57s6p2rt8nwfp00000gn/T//ccDzWS9O.s 			page 3


  26:mini3d/render.c **** static float zscale;
  27:mini3d/render.c **** 
  28:mini3d/render.c **** #define Z_BIAS 0
  29:mini3d/render.c **** 
  30:mini3d/render.c **** void resetZBuffer(float zmin)
  31:mini3d/render.c **** {
  32:mini3d/render.c **** 	memset(zbuf, 0, sizeof(zbuf));
  33:mini3d/render.c **** 	zscale = 0xffff * (zmin + Z_BIAS);
  34:mini3d/render.c **** }
  35:mini3d/render.c **** #endif
  36:mini3d/render.c **** 
  37:mini3d/render.c **** static inline uint32_t swap(uint32_t n)
  38:mini3d/render.c **** {
  39:mini3d/render.c **** #if TARGET_PLAYDATE
  40:mini3d/render.c **** 	//return __REV(n);
  41:mini3d/render.c **** 	uint32_t result;
  42:mini3d/render.c **** 	
  43:mini3d/render.c **** 	__asm volatile ("rev %0, %1" : "=l" (result) : "l" (n));
  44:mini3d/render.c **** 	return(result);
  45:mini3d/render.c **** #else
  46:mini3d/render.c **** 	return ((n & 0xff000000) >> 24) | ((n & 0xff0000) >> 8) | ((n & 0xff00) << 8) | (n << 24);
  47:mini3d/render.c **** #endif
  48:mini3d/render.c **** }
  49:mini3d/render.c **** 
  50:mini3d/render.c **** /*
  51:mini3d/render.c **** #if ENABLE_Z_BUFFER
  52:mini3d/render.c **** void getZMask(uint8_t* buffer, int rowstride)
  53:mini3d/render.c **** {
  54:mini3d/render.c **** 	for ( int y = 0; y < LCD_ROWS; ++y )
  55:mini3d/render.c **** 	{
  56:mini3d/render.c **** 		uint32_t* row = (uint32_t*)&buffer[y*rowstride];
  57:mini3d/render.c **** 		uint16_t* zrow = &zbuf[y*LCD_COLUMNS];
  58:mini3d/render.c **** 		uint32_t mask = 0;
  59:mini3d/render.c **** 		int x = 0;
  60:mini3d/render.c **** 		
  61:mini3d/render.c **** 		while ( x < rowstride )
  62:mini3d/render.c **** 		{
  63:mini3d/render.c **** 			if ( zrow[x] < 0xffff )
  64:mini3d/render.c **** 				mask |= 0x80000000 >> (x%32);
  65:mini3d/render.c **** 			
  66:mini3d/render.c **** 			++x;
  67:mini3d/render.c **** 			
  68:mini3d/render.c **** 			if ( x%32 == 0 )
  69:mini3d/render.c **** 			{
  70:mini3d/render.c **** 				*row++ = swap(mask);
  71:mini3d/render.c **** 				mask = 0;
  72:mini3d/render.c **** 			}
  73:mini3d/render.c **** 		}
  74:mini3d/render.c **** 		
  75:mini3d/render.c **** 		if ( x%32 != 0 )
  76:mini3d/render.c **** 			*row++ = swap(mask);
  77:mini3d/render.c **** 	}
  78:mini3d/render.c **** }
  79:mini3d/render.c **** #endif
  80:mini3d/render.c **** */
  81:mini3d/render.c **** 
  82:mini3d/render.c **** static inline void
ARM GAS  /var/folders/cs/83z6p2tj4w57s6p2rt8nwfp00000gn/T//ccDzWS9O.s 			page 4


  83:mini3d/render.c **** _drawMaskPattern(uint32_t* p, uint32_t mask, uint32_t color)
  84:mini3d/render.c **** {
  85:mini3d/render.c **** 	if ( mask == 0xffffffff )
  86:mini3d/render.c **** 		*p = color;
  87:mini3d/render.c **** 	else
  88:mini3d/render.c **** 		*p = (*p & ~mask) | (color & mask);
  89:mini3d/render.c **** }
  90:mini3d/render.c **** 
  91:mini3d/render.c **** static void
  92:mini3d/render.c **** drawFragment(uint32_t* row, int x1, int x2, uint32_t color)
  90              		.loc 1 92 1 view -0
  91              		.cfi_startproc
  92              		@ args = 0, pretend = 0, frame = 0
  93              		@ frame_needed = 0, uses_anonymous_args = 0
  93:mini3d/render.c **** {
  94:mini3d/render.c **** 	if ( x2 < 0 || x1 >= LCD_COLUMNS )
  95:mini3d/render.c **** 		return;
  96:mini3d/render.c **** 	
  97:mini3d/render.c **** 	if ( x1 < 0 )
  94              		.loc 1 97 2 view .LVU1
  95 0000 B2F5C87F 		cmp	r2, #400	@ tmp194,
  96 0004 21EAE171 		bic	r1, r1, r1, asr #31	@ x, tmp193
  97              	.LVL1:
  98:mini3d/render.c **** 		x1 = 0;
  99:mini3d/render.c **** 	
 100:mini3d/render.c **** 	if ( x2 > LCD_COLUMNS )
  98              		.loc 1 100 2 view .LVU2
  99 0008 A8BF     		it	ge
 100 000a 4FF4C872 		movge	r2, #400	@ x2,
 101              	.LVL2:
 101:mini3d/render.c **** 		x2 = LCD_COLUMNS;
 102:mini3d/render.c **** 	
 103:mini3d/render.c **** 	if ( x1 > x2 )
 102              		.loc 1 103 2 view .LVU3
 103              	@ mini3d/render.c:103: 	if ( x1 > x2 )
 104              		.loc 1 103 5 is_stmt 0 view .LVU4
 105 000e 9142     		cmp	r1, r2	@ x, x2
 106 0010 55DC     		bgt	.L32		@,
 104:mini3d/render.c **** 		return;
 105:mini3d/render.c **** 	
 106:mini3d/render.c **** 	// Operate on 32 bits at a time
 107:mini3d/render.c **** 	
 108:mini3d/render.c **** 	int startbit = x1 % 32;
 107              		.loc 1 108 2 is_stmt 1 view .LVU5
 108              	@ mini3d/render.c:108: 	int startbit = x1 % 32;
 109              		.loc 1 108 6 is_stmt 0 view .LVU6
 110 0012 01F01F0C 		and	ip, r1, #31	@ startbit, x,
 111              	.LVL3:
 109:mini3d/render.c **** 	uint32_t startmask = swap((1 << (32 - startbit)) - 1);
 112              		.loc 1 109 2 is_stmt 1 view .LVU7
 113              	@ mini3d/render.c:92: drawFragment(uint32_t* row, int x1, int x2, uint32_t color)
  92:mini3d/render.c **** {
 114              		.loc 1 92 1 is_stmt 0 view .LVU8
 115 0016 2DE9F043 		push	{r4, r5, r6, r7, r8, r9, lr}	@
 116              	.LCFI0:
 117              		.cfi_def_cfa_offset 28
 118              		.cfi_offset 4, -28
ARM GAS  /var/folders/cs/83z6p2tj4w57s6p2rt8nwfp00000gn/T//ccDzWS9O.s 			page 5


 119              		.cfi_offset 5, -24
 120              		.cfi_offset 6, -20
 121              		.cfi_offset 7, -16
 122              		.cfi_offset 8, -12
 123              		.cfi_offset 9, -8
 124              		.cfi_offset 14, -4
 125              	@ mini3d/render.c:109: 	uint32_t startmask = swap((1 << (32 - startbit)) - 1);
 126              		.loc 1 109 31 view .LVU9
 127 001a 0124     		movs	r4, #1	@ tmp161,
 128              	@ mini3d/render.c:109: 	uint32_t startmask = swap((1 << (32 - startbit)) - 1);
 129              		.loc 1 109 38 view .LVU10
 130 001c CCF1200E 		rsb	lr, ip, #32	@ _6, startbit,
 131              	.LVL4:
 132              	.LBB102:
 133              	.LBI102:
  37:mini3d/render.c **** {
 134              		.loc 1 37 24 is_stmt 1 view .LVU11
 135              	.LBB103:
  41:mini3d/render.c **** 	
 136              		.loc 1 41 2 view .LVU12
  43:mini3d/render.c **** 	return(result);
 137              		.loc 1 43 2 view .LVU13
 138              	.LBE103:
 139              	.LBE102:
 140              	@ mini3d/render.c:109: 	uint32_t startmask = swap((1 << (32 - startbit)) - 1);
 141              		.loc 1 109 31 is_stmt 0 view .LVU14
 142 0020 04FA0EF7 		lsl	r7, r4, lr	@ tmp160, tmp161, _6
 143              	@ mini3d/render.c:109: 	uint32_t startmask = swap((1 << (32 - startbit)) - 1);
 144              		.loc 1 109 51 view .LVU15
 145 0024 013F     		subs	r7, r7, #1	@ tmp162, tmp160,
 146              	.LVL5:
 147              	.LBB105:
 148              	.LBB104:
 149              	@ mini3d/render.c:43: 	__asm volatile ("rev %0, %1" : "=l" (result) : "l" (n));
  43:mini3d/render.c **** 	return(result);
 150              		.loc 1 43 2 view .LVU16
 151              		.syntax unified
 152              	@ 43 "mini3d/render.c" 1
 153 0026 3FBA     		rev r7, r7	@ result, tmp162
 154              	@ 0 "" 2
 155              	.LVL6:
  44:mini3d/render.c **** #else
 156              		.loc 1 44 2 is_stmt 1 view .LVU17
  44:mini3d/render.c **** #else
 157              		.loc 1 44 2 is_stmt 0 view .LVU18
 158              		.thumb
 159              		.syntax unified
 160              	.LBE104:
 161              	.LBE105:
 110:mini3d/render.c **** 	int endbit = x2 % 32;
 162              		.loc 1 110 2 is_stmt 1 view .LVU19
 163              	@ mini3d/render.c:110: 	int endbit = x2 % 32;
 164              		.loc 1 110 6 is_stmt 0 view .LVU20
 165 0028 02F01F05 		and	r5, r2, #31	@ endbit, x2,
 166              	.LVL7:
 111:mini3d/render.c **** 	uint32_t endmask = swap(((1 << endbit) - 1) << (32 - endbit));
 167              		.loc 1 111 2 is_stmt 1 view .LVU21
ARM GAS  /var/folders/cs/83z6p2tj4w57s6p2rt8nwfp00000gn/T//ccDzWS9O.s 			page 6


 168              	.LBB106:
 169              	.LBI106:
  37:mini3d/render.c **** {
 170              		.loc 1 37 24 view .LVU22
 171              	.LBB107:
  41:mini3d/render.c **** 	
 172              		.loc 1 41 2 view .LVU23
  43:mini3d/render.c **** 	return(result);
 173              		.loc 1 43 2 view .LVU24
 174              	.LBE107:
 175              	.LBE106:
 176              	@ mini3d/render.c:111: 	uint32_t endmask = swap(((1 << endbit) - 1) << (32 - endbit));
 177              		.loc 1 111 30 is_stmt 0 view .LVU25
 178 002c AC40     		lsls	r4, r4, r5	@ tmp164, tmp161, endbit
 179              	@ mini3d/render.c:111: 	uint32_t endmask = swap(((1 << endbit) - 1) << (32 - endbit));
 180              		.loc 1 111 53 view .LVU26
 181 002e C5F12006 		rsb	r6, r5, #32	@ tmp167, endbit,
 182              	@ mini3d/render.c:111: 	uint32_t endmask = swap(((1 << endbit) - 1) << (32 - endbit));
 183              		.loc 1 111 41 view .LVU27
 184 0032 013C     		subs	r4, r4, #1	@ tmp166, tmp164,
 185              	@ mini3d/render.c:111: 	uint32_t endmask = swap(((1 << endbit) - 1) << (32 - endbit));
 186              		.loc 1 111 46 view .LVU28
 187 0034 04FA06F6 		lsl	r6, r4, r6	@ tmp168, tmp166, tmp167
 188              	.LVL8:
 189              	.LBB110:
 190              	.LBB108:
 191              	@ mini3d/render.c:43: 	__asm volatile ("rev %0, %1" : "=l" (result) : "l" (n));
  43:mini3d/render.c **** 	return(result);
 192              		.loc 1 43 2 view .LVU29
 193              		.syntax unified
 194              	@ 43 "mini3d/render.c" 1
 195 0038 36BA     		rev r6, r6	@ result, tmp168
 196              	@ 0 "" 2
 197              	.LVL9:
  44:mini3d/render.c **** #else
 198              		.loc 1 44 2 is_stmt 1 view .LVU30
  44:mini3d/render.c **** #else
 199              		.loc 1 44 2 is_stmt 0 view .LVU31
 200              		.thumb
 201              		.syntax unified
 202              	.LBE108:
 203              	.LBE110:
 112:mini3d/render.c **** 	
 113:mini3d/render.c **** 	int col = x1 / 32;
 204              		.loc 1 113 2 is_stmt 1 view .LVU32
 205              	@ mini3d/render.c:113: 	int col = x1 / 32;
 206              		.loc 1 113 6 is_stmt 0 view .LVU33
 207 003a 4FEA6118 		asr	r8, r1, #5	@ col, x,
 208              	.LVL10:
 114:mini3d/render.c **** 	uint32_t* p = row + col;
 209              		.loc 1 114 2 is_stmt 1 view .LVU34
 210              	@ mini3d/render.c:116: 	if ( col == x2 / 32 )
 115:mini3d/render.c **** 
 116:mini3d/render.c **** 	if ( col == x2 / 32 )
 211              		.loc 1 116 5 is_stmt 0 view .LVU35
 212 003e B8EB621F 		cmp	r8, r2, asr #5	@ col, x2,
 213              	@ mini3d/render.c:114: 	uint32_t* p = row + col;
ARM GAS  /var/folders/cs/83z6p2tj4w57s6p2rt8nwfp00000gn/T//ccDzWS9O.s 			page 7


 114:mini3d/render.c **** 	uint32_t* p = row + col;
 214              		.loc 1 114 12 view .LVU36
 215 0042 00EB8804 		add	r4, r0, r8, lsl #2	@ p, row, col,
 216              	.LVL11:
 217              		.loc 1 116 2 is_stmt 1 view .LVU37
 218              	@ mini3d/render.c:116: 	if ( col == x2 / 32 )
 219              		.loc 1 116 5 is_stmt 0 view .LVU38
 220 0046 2AD0     		beq	.L37		@,
 221              	.LBB111:
 117:mini3d/render.c **** 	{
 118:mini3d/render.c **** 		uint32_t mask = 0;
 119:mini3d/render.c **** 		
 120:mini3d/render.c **** 		if ( startbit > 0 && endbit > 0 )
 121:mini3d/render.c **** 			mask = startmask & endmask;
 122:mini3d/render.c **** 		else if ( startbit > 0 )
 123:mini3d/render.c **** 			mask = startmask;
 124:mini3d/render.c **** 		else if ( endbit > 0 )
 125:mini3d/render.c **** 			mask = endmask;
 126:mini3d/render.c **** 		
 127:mini3d/render.c **** 		_drawMaskPattern(p, mask, color);
 128:mini3d/render.c **** 	}
 129:mini3d/render.c **** 	else
 130:mini3d/render.c **** 	{
 131:mini3d/render.c **** 		int x = x1;
 222              		.loc 1 131 3 is_stmt 1 view .LVU39
 223              	.LVL12:
 132:mini3d/render.c **** 		
 133:mini3d/render.c **** 		if ( startbit > 0 )
 224              		.loc 1 133 3 view .LVU40
 225              	@ mini3d/render.c:133: 		if ( startbit > 0 )
 226              		.loc 1 133 6 is_stmt 0 view .LVU41
 227 0048 BCF1000F 		cmp	ip, #0	@ startbit
 228 004c 0FD0     		beq	.L8	@
 134:mini3d/render.c **** 		{
 135:mini3d/render.c **** 			_drawMaskPattern(p++, startmask, color);
 229              		.loc 1 135 4 is_stmt 1 view .LVU42
 230              	.LBB112:
 231              	.LBB113:
 232              	@ mini3d/render.c:85: 	if ( mask == 0xffffffff )
  85:mini3d/render.c **** 		*p = color;
 233              		.loc 1 85 5 is_stmt 0 view .LVU43
 234 004e B7F1FF3F 		cmp	r7, #-1	@ result,
 235              	.LBE113:
 236              	.LBE112:
 237              	@ mini3d/render.c:135: 			_drawMaskPattern(p++, startmask, color);
 238              		.loc 1 135 4 view .LVU44
 239 0052 04F10404 		add	r4, r4, #4	@ p, p,
 240              	.LVL13:
 241              	.LBB116:
 242              	.LBI112:
  83:mini3d/render.c **** {
 243              		.loc 1 83 1 is_stmt 1 view .LVU45
 244              	.LBB114:
  85:mini3d/render.c **** 		*p = color;
 245              		.loc 1 85 2 view .LVU46
 246              	@ mini3d/render.c:85: 	if ( mask == 0xffffffff )
  85:mini3d/render.c **** 		*p = color;
ARM GAS  /var/folders/cs/83z6p2tj4w57s6p2rt8nwfp00000gn/T//ccDzWS9O.s 			page 8


 247              		.loc 1 85 5 is_stmt 0 view .LVU47
 248 0056 33D0     		beq	.L15		@,
  88:mini3d/render.c **** }
 249              		.loc 1 88 3 is_stmt 1 view .LVU48
 250              	@ mini3d/render.c:88: 		*p = (*p & ~mask) | (color & mask);
  88:mini3d/render.c **** }
 251              		.loc 1 88 9 is_stmt 0 view .LVU49
 252 0058 50F82890 		ldr	r9, [r0, r8, lsl #2]	@ _36, *p_22
 253              	@ mini3d/render.c:88: 		*p = (*p & ~mask) | (color & mask);
  88:mini3d/render.c **** }
 254              		.loc 1 88 21 view .LVU50
 255 005c 83EA090C 		eor	ip, r3, r9	@ tmp180, color, _36
 256              	.LVL14:
  88:mini3d/render.c **** }
 257              		.loc 1 88 21 view .LVU51
 258 0060 0CEA0707 		and	r7, ip, r7	@ tmp181, tmp180, result
 259              	.LVL15:
  88:mini3d/render.c **** }
 260              		.loc 1 88 21 view .LVU52
 261 0064 87EA0907 		eor	r7, r7, r9	@ _39, tmp181, _36
 262              	.L9:
 263              	.LBE114:
 264              	.LBE116:
 265              	@ mini3d/render.c:136: 			x += (32 - startbit);
 136:mini3d/render.c **** 			x += (32 - startbit);
 266              		.loc 1 136 6 view .LVU53
 267 0068 7144     		add	r1, r1, lr	@ x, _6
 268              	.LVL16:
 269              		.loc 1 136 6 view .LVU54
 270 006a 40F82870 		str	r7, [r0, r8, lsl #2]	@ _39, *p_22
 271              	.LVL17:
 272              		.loc 1 136 4 is_stmt 1 view .LVU55
 273              	.L8:
 137:mini3d/render.c **** 		}
 138:mini3d/render.c **** 		
 139:mini3d/render.c **** 		while ( x + 32 <= x2 )
 274              		.loc 1 139 9 view .LVU56
 275              	@ mini3d/render.c:139: 		while ( x + 32 <= x2 )
 276              		.loc 1 139 18 is_stmt 0 view .LVU57
 277 006e 01F11F00 		add	r0, r1, #31	@ tmp182, x,
 278              	.LVL18:
 279              	@ mini3d/render.c:139: 		while ( x + 32 <= x2 )
 280              		.loc 1 139 9 view .LVU58
 281 0072 8242     		cmp	r2, r0	@ x2, tmp182
 282 0074 2FDD     		ble	.L16		@,
 283 0076 203A     		subs	r2, r2, #32	@ tmp183, x2,
 284              	.LVL19:
 285              		.loc 1 139 9 view .LVU59
 286 0078 521A     		subs	r2, r2, r1	@ tmp184, tmp183, x
 287              	.LVL20:
 288              		.loc 1 139 9 view .LVU60
 289 007a 5209     		lsrs	r2, r2, #5	@ tmp185, tmp184,
 290 007c 0132     		adds	r2, r2, #1	@ tmp186, tmp185,
 291 007e 04EB8202 		add	r2, r4, r2, lsl #2	@ p, p, tmp186,
 292              	.L11:
 140:mini3d/render.c **** 		{
 141:mini3d/render.c **** 			_drawMaskPattern(p++, 0xffffffff, color);
ARM GAS  /var/folders/cs/83z6p2tj4w57s6p2rt8nwfp00000gn/T//ccDzWS9O.s 			page 9


 293              		.loc 1 141 4 is_stmt 1 view .LVU61
 294              	.LVL21:
 295              	.LBB117:
 296              	.LBI117:
  83:mini3d/render.c **** {
 297              		.loc 1 83 1 view .LVU62
 298              	.LBB118:
  85:mini3d/render.c **** 		*p = color;
 299              		.loc 1 85 2 view .LVU63
  86:mini3d/render.c **** 	else
 300              		.loc 1 86 3 view .LVU64
 301              	@ mini3d/render.c:86: 		*p = color;
  86:mini3d/render.c **** 	else
 302              		.loc 1 86 6 is_stmt 0 view .LVU65
 303 0082 44F8043B 		str	r3, [r4], #4	@ color, MEM[base: p_42, offset: 4294967292B]
 304              	.LVL22:
  86:mini3d/render.c **** 	else
 305              		.loc 1 86 6 view .LVU66
 306              	.LBE118:
 307              	.LBE117:
 142:mini3d/render.c **** 			x += 32;
 308              		.loc 1 142 4 is_stmt 1 view .LVU67
 139:mini3d/render.c **** 		{
 309              		.loc 1 139 9 view .LVU68
 310 0086 9442     		cmp	r4, r2	@ p, p
 311 0088 FBD1     		bne	.L11		@,
 312              	.LVL23:
 313              	.L10:
 143:mini3d/render.c **** 		}
 144:mini3d/render.c **** 		
 145:mini3d/render.c **** 		if ( endbit > 0 )
 314              		.loc 1 145 3 view .LVU69
 315              	@ mini3d/render.c:145: 		if ( endbit > 0 )
 316              		.loc 1 145 6 is_stmt 0 view .LVU70
 317 008a 35B1     		cbz	r5, .L1	@ endbit,
 146:mini3d/render.c **** 			_drawMaskPattern(p, endmask, color);
 318              		.loc 1 146 4 is_stmt 1 view .LVU71
 319              	.LVL24:
 320              	.LBB119:
 321              	.LBI119:
  83:mini3d/render.c **** {
 322              		.loc 1 83 1 view .LVU72
 323              	.LBB120:
  85:mini3d/render.c **** 		*p = color;
 324              		.loc 1 85 2 view .LVU73
 325              	@ mini3d/render.c:85: 	if ( mask == 0xffffffff )
  85:mini3d/render.c **** 		*p = color;
 326              		.loc 1 85 5 is_stmt 0 view .LVU74
 327 008c 711C     		adds	r1, r6, #1	@, result,
 328 008e 03D0     		beq	.L35		@,
  88:mini3d/render.c **** }
 329              		.loc 1 88 3 is_stmt 1 view .LVU75
 330              	@ mini3d/render.c:88: 		*p = (*p & ~mask) | (color & mask);
  88:mini3d/render.c **** }
 331              		.loc 1 88 9 is_stmt 0 view .LVU76
 332 0090 1168     		ldr	r1, [r2]	@ _47, *p_72
 333              	@ mini3d/render.c:88: 		*p = (*p & ~mask) | (color & mask);
ARM GAS  /var/folders/cs/83z6p2tj4w57s6p2rt8nwfp00000gn/T//ccDzWS9O.s 			page 10


  88:mini3d/render.c **** }
 334              		.loc 1 88 21 view .LVU77
 335 0092 4B40     		eors	r3, r3, r1	@, tmp188, color, _47
 336              	.LVL25:
  88:mini3d/render.c **** }
 337              		.loc 1 88 21 view .LVU78
 338 0094 3340     		ands	r3, r3, r6	@, tmp189, tmp188, result
 339 0096 4B40     		eors	r3, r3, r1	@, tmp190, tmp189, _47
 340              	.L35:
 341              	@ mini3d/render.c:88: 		*p = (*p & ~mask) | (color & mask);
  88:mini3d/render.c **** }
 342              		.loc 1 88 6 view .LVU79
 343 0098 1360     		str	r3, [r2]	@ tmp190, *p_72
 344              	.LVL26:
 345              	.L1:
  88:mini3d/render.c **** }
 346              		.loc 1 88 6 view .LVU80
 347              	.LBE120:
 348              	.LBE119:
 349              	.LBE111:
 350              	@ mini3d/render.c:148: }
 147:mini3d/render.c **** 	}
 148:mini3d/render.c **** }
 351              		.loc 1 148 1 view .LVU81
 352 009a BDE8F083 		pop	{r4, r5, r6, r7, r8, r9, pc}	@
 353              	.LVL27:
 354              	.L37:
 355              	.LBB122:
 118:mini3d/render.c **** 		
 356              		.loc 1 118 3 is_stmt 1 view .LVU82
 120:mini3d/render.c **** 			mask = startmask & endmask;
 357              		.loc 1 120 3 view .LVU83
 358              	@ mini3d/render.c:120: 		if ( startbit > 0 && endbit > 0 )
 120:mini3d/render.c **** 			mask = startmask & endmask;
 359              		.loc 1 120 6 is_stmt 0 view .LVU84
 360 009e BCF1000F 		cmp	ip, #0	@ startbit
 361 00a2 15D0     		beq	.L30	@
 362 00a4 8DB1     		cbz	r5, .L5	@ endbit,
 121:mini3d/render.c **** 		else if ( startbit > 0 )
 363              		.loc 1 121 4 is_stmt 1 view .LVU85
 364              	@ mini3d/render.c:121: 			mask = startmask & endmask;
 121:mini3d/render.c **** 		else if ( startbit > 0 )
 365              		.loc 1 121 9 is_stmt 0 view .LVU86
 366 00a6 3740     		ands	r7, r7, r6	@, result, result, result
 367              	.LVL28:
 368              	.L6:
 127:mini3d/render.c **** 	}
 369              		.loc 1 127 3 is_stmt 1 view .LVU87
 370              	.LBB123:
 371              	.LBI123:
  83:mini3d/render.c **** {
 372              		.loc 1 83 1 view .LVU88
 373              	.LBB124:
  85:mini3d/render.c **** 		*p = color;
 374              		.loc 1 85 2 view .LVU89
 375              	@ mini3d/render.c:85: 	if ( mask == 0xffffffff )
  85:mini3d/render.c **** 		*p = color;
ARM GAS  /var/folders/cs/83z6p2tj4w57s6p2rt8nwfp00000gn/T//ccDzWS9O.s 			page 11


 376              		.loc 1 85 5 is_stmt 0 view .LVU90
 377 00a8 7A1C     		adds	r2, r7, #1	@, result,
 378              	.LVL29:
  85:mini3d/render.c **** 		*p = color;
 379              		.loc 1 85 5 view .LVU91
 380 00aa 0BD0     		beq	.L38		@,
 381              	.LVL30:
 382              	.L7:
  88:mini3d/render.c **** }
 383              		.loc 1 88 3 is_stmt 1 view .LVU92
 384              	@ mini3d/render.c:88: 		*p = (*p & ~mask) | (color & mask);
  88:mini3d/render.c **** }
 385              		.loc 1 88 9 is_stmt 0 view .LVU93
 386 00ac 50F82820 		ldr	r2, [r0, r8, lsl #2]	@ _30, *p_22
 387              	@ mini3d/render.c:88: 		*p = (*p & ~mask) | (color & mask);
  88:mini3d/render.c **** }
 388              		.loc 1 88 21 view .LVU94
 389 00b0 5340     		eors	r3, r3, r2	@, tmp177, color, _30
 390              	.LVL31:
  88:mini3d/render.c **** }
 391              		.loc 1 88 21 view .LVU95
 392 00b2 1F40     		ands	r7, r7, r3	@, tmp178, result, tmp177
 393 00b4 5740     		eors	r7, r7, r2	@, tmp179, tmp178, _30
 394              	@ mini3d/render.c:88: 		*p = (*p & ~mask) | (color & mask);
  88:mini3d/render.c **** }
 395              		.loc 1 88 6 view .LVU96
 396 00b6 40F82870 		str	r7, [r0, r8, lsl #2]	@ tmp179, *p_22
 397              	.LBE124:
 398              	.LBE123:
 399              	.LBE122:
 400              	@ mini3d/render.c:148: }
 401              		.loc 1 148 1 view .LVU97
 402 00ba BDE8F083 		pop	{r4, r5, r6, r7, r8, r9, pc}	@
 403              	.LVL32:
 404              	.L32:
 405              	.LCFI1:
 406              		.cfi_def_cfa_offset 0
 407              		.cfi_restore 4
 408              		.cfi_restore 5
 409              		.cfi_restore 6
 410              		.cfi_restore 7
 411              		.cfi_restore 8
 412              		.cfi_restore 9
 413              		.cfi_restore 14
 414              		.loc 1 148 1 view .LVU98
 415 00be 7047     		bx	lr	@
 416              	.LVL33:
 417              	.L15:
 418              	.LCFI2:
 419              		.cfi_def_cfa_offset 28
 420              		.cfi_offset 4, -28
 421              		.cfi_offset 5, -24
 422              		.cfi_offset 6, -20
 423              		.cfi_offset 7, -16
 424              		.cfi_offset 8, -12
 425              		.cfi_offset 9, -8
 426              		.cfi_offset 14, -4
ARM GAS  /var/folders/cs/83z6p2tj4w57s6p2rt8nwfp00000gn/T//ccDzWS9O.s 			page 12


 427              	.LBB127:
 428              	.LBB121:
 429              	.LBB115:
 430              	@ mini3d/render.c:86: 		*p = color;
  86:mini3d/render.c **** 	else
 431              		.loc 1 86 6 view .LVU99
 432 00c0 1F46     		mov	r7, r3	@ _39, color
 433              	.LVL34:
  86:mini3d/render.c **** 	else
 434              		.loc 1 86 6 view .LVU100
 435 00c2 D1E7     		b	.L9		@
 436              	.LVL35:
 437              	.L38:
  86:mini3d/render.c **** 	else
 438              		.loc 1 86 6 view .LVU101
 439              	.LBE115:
 440              	.LBE121:
 441              	.LBE127:
 442              	.LBB128:
 443              	.LBB126:
 444              	.LBB125:
  86:mini3d/render.c **** 	else
 445              		.loc 1 86 3 is_stmt 1 view .LVU102
 446              	@ mini3d/render.c:86: 		*p = color;
  86:mini3d/render.c **** 	else
 447              		.loc 1 86 6 is_stmt 0 view .LVU103
 448 00c4 40F82830 		str	r3, [r0, r8, lsl #2]	@ color, *p_22
 449 00c8 E7E7     		b	.L1		@
 450              	.LVL36:
 451              	.L5:
  86:mini3d/render.c **** 	else
 452              		.loc 1 86 6 view .LVU104
 453              	.LBE125:
 454              	.LBE126:
 122:mini3d/render.c **** 			mask = startmask;
 455              		.loc 1 122 8 is_stmt 1 view .LVU105
 456              	@ mini3d/render.c:122: 		else if ( startbit > 0 )
 122:mini3d/render.c **** 			mask = startmask;
 457              		.loc 1 122 11 is_stmt 0 view .LVU106
 458 00ca BCF1000F 		cmp	ip, #0	@ startbit
 459 00ce EBD1     		bne	.L6	@
 460              	.L30:
 124:mini3d/render.c **** 			mask = endmask;
 461              		.loc 1 124 8 is_stmt 1 view .LVU107
 462              	@ mini3d/render.c:124: 		else if ( endbit > 0 )
 124:mini3d/render.c **** 			mask = endmask;
 463              		.loc 1 124 11 is_stmt 0 view .LVU108
 464 00d0 1DB1     		cbz	r5, .L14	@ endbit,
 465              	.LBE128:
 466              	.LBB129:
 467              	.LBB109:
 468              	@ mini3d/render.c:43: 	__asm volatile ("rev %0, %1" : "=l" (result) : "l" (n));
  43:mini3d/render.c **** 	return(result);
 469              		.loc 1 43 2 view .LVU109
 470 00d2 3746     		mov	r7, r6	@ result, result
 471              	.LVL37:
  43:mini3d/render.c **** 	return(result);
ARM GAS  /var/folders/cs/83z6p2tj4w57s6p2rt8nwfp00000gn/T//ccDzWS9O.s 			page 13


 472              		.loc 1 43 2 view .LVU110
 473 00d4 E8E7     		b	.L6		@
 474              	.LVL38:
 475              	.L16:
  43:mini3d/render.c **** 	return(result);
 476              		.loc 1 43 2 view .LVU111
 477              	.LBE109:
 478              	.LBE129:
 479              	.LBB130:
 480              	@ mini3d/render.c:139: 		while ( x + 32 <= x2 )
 139:mini3d/render.c **** 		{
 481              		.loc 1 139 9 view .LVU112
 482 00d6 2246     		mov	r2, r4	@ p, p
 483              	.LVL39:
 139:mini3d/render.c **** 		{
 484              		.loc 1 139 9 view .LVU113
 485 00d8 D7E7     		b	.L10		@
 486              	.LVL40:
 487              	.L14:
 139:mini3d/render.c **** 		{
 488              		.loc 1 139 9 view .LVU114
 489              	.LBE130:
 490              	.LBB131:
 491              	@ mini3d/render.c:118: 		uint32_t mask = 0;
 118:mini3d/render.c **** 		
 492              		.loc 1 118 12 view .LVU115
 493 00da 2F46     		mov	r7, r5	@ result, endbit
 494              	.LVL41:
 118:mini3d/render.c **** 		
 495              		.loc 1 118 12 view .LVU116
 496 00dc E6E7     		b	.L7		@
 497              	.LBE131:
 498              		.cfi_endproc
 499              	.LFE27:
 500              		.size	drawFragment.part.0, .-drawFragment.part.0
 501 00de 00BF     		.section	.text.fillRange,"ax",%progbits
 502              		.align	1
 503              		.p2align 4,,15
 504              		.syntax unified
 505              		.thumb
 506              		.thumb_func
 507              		.fpu fpv5-sp-d16
 508              		.type	fillRange, %function
 509              	fillRange:
 510              	.LVL42:
 511              	.LFB20:
 149:mini3d/render.c **** 
 150:mini3d/render.c **** #if ENABLE_Z_BUFFER
 151:mini3d/render.c **** static void
 152:mini3d/render.c **** drawFragment_zbuf(uint32_t* row, uint16_t* zbrow, int x, int endx, uint32_t z, int32_t dzdx, uint32
 153:mini3d/render.c **** {
 154:mini3d/render.c **** 	if ( endx < 0 || x >= LCD_COLUMNS )
 155:mini3d/render.c **** 		return;
 156:mini3d/render.c **** 	
 157:mini3d/render.c **** 	if ( x < 0 )
 158:mini3d/render.c **** 	{
 159:mini3d/render.c **** 		z += -x * dzdx;
ARM GAS  /var/folders/cs/83z6p2tj4w57s6p2rt8nwfp00000gn/T//ccDzWS9O.s 			page 14


 160:mini3d/render.c **** 		x = 0;
 161:mini3d/render.c **** 	}
 162:mini3d/render.c **** 	
 163:mini3d/render.c **** 	if ( endx > LCD_COLUMNS )
 164:mini3d/render.c **** 		endx = LCD_COLUMNS;
 165:mini3d/render.c **** 
 166:mini3d/render.c **** 	uint32_t mask = 0;
 167:mini3d/render.c **** 	uint32_t* p = row + x/32;
 168:mini3d/render.c **** 
 169:mini3d/render.c **** 	while ( x < endx )
 170:mini3d/render.c **** 	{
 171:mini3d/render.c **** 		uint16_t zi = z >> 16;
 172:mini3d/render.c **** 		
 173:mini3d/render.c **** 		if ( zi > zbrow[x] )
 174:mini3d/render.c **** 		{
 175:mini3d/render.c **** 			mask |= 0x80000000u >> (x%32);
 176:mini3d/render.c **** 			zbrow[x] = zi;
 177:mini3d/render.c **** 		}
 178:mini3d/render.c **** 		
 179:mini3d/render.c **** 		++x;
 180:mini3d/render.c **** 		z += dzdx;
 181:mini3d/render.c **** 		
 182:mini3d/render.c **** 		if ( x % 32 == 0 )
 183:mini3d/render.c **** 		{
 184:mini3d/render.c **** 			_drawMaskPattern(p++, swap(mask), color);
 185:mini3d/render.c **** 			mask = 0;
 186:mini3d/render.c **** 		}
 187:mini3d/render.c **** 	}
 188:mini3d/render.c **** 	
 189:mini3d/render.c **** 	if ( x % 32 != 0 )
 190:mini3d/render.c **** 		_drawMaskPattern(p, swap(mask), color);
 191:mini3d/render.c **** }
 192:mini3d/render.c **** #endif
 193:mini3d/render.c **** 
 194:mini3d/render.c **** static inline int32_t slope(float x1, float y1, float x2, float y2)
 195:mini3d/render.c **** {
 196:mini3d/render.c **** 	float dx = x2-x1;
 197:mini3d/render.c **** 	float dy = y2-y1;
 198:mini3d/render.c **** 	
 199:mini3d/render.c **** 	if ( dy < 1 )
 200:mini3d/render.c **** 		return dx * (1<<16);
 201:mini3d/render.c **** 	else
 202:mini3d/render.c **** 		return dx / dy * (1<<16);
 203:mini3d/render.c **** }
 204:mini3d/render.c **** 
 205:mini3d/render.c **** #if ENABLE_Z_BUFFER
 206:mini3d/render.c **** LCDRowRange
 207:mini3d/render.c **** drawLine_zbuf(uint8_t* bitmap, int rowstride, Point3D* p1, Point3D* p2, int thick, uint8_t pattern[
 208:mini3d/render.c **** {
 209:mini3d/render.c **** 	if ( p1->y > p2->y )
 210:mini3d/render.c **** 	{
 211:mini3d/render.c **** 		Point3D* tmp = p1;
 212:mini3d/render.c **** 		p1 = p2;
 213:mini3d/render.c **** 		p2 = tmp;
 214:mini3d/render.c **** 	}
 215:mini3d/render.c **** 
 216:mini3d/render.c **** 	int y = p1->y;
ARM GAS  /var/folders/cs/83z6p2tj4w57s6p2rt8nwfp00000gn/T//ccDzWS9O.s 			page 15


 217:mini3d/render.c **** 	int endy = p2->y;
 218:mini3d/render.c **** 	
 219:mini3d/render.c **** 	if ( y >= LCD_ROWS || endy < 0 || MIN(p1->x, p2->x) >= LCD_COLUMNS || MAX(p1->x, p2->x) < 0 )
 220:mini3d/render.c **** 		return (LCDRowRange){ 0, 0 };
 221:mini3d/render.c **** 	
 222:mini3d/render.c **** 	int32_t x = p1->x * (1<<16);
 223:mini3d/render.c **** 	int32_t dx = slope(p1->x, p1->y, p2->x, p2->y + 1);
 224:mini3d/render.c **** 	
 225:mini3d/render.c **** 	// move lines a bit forward so they don't get buried in solid geometry
 226:mini3d/render.c **** 	float z1 = zscale / (p1->z + Z_BIAS) + 256;
 227:mini3d/render.c **** 	float z2 = zscale / (p2->z + Z_BIAS) + 256;
 228:mini3d/render.c **** 
 229:mini3d/render.c **** 	if ( z1 > 65535 ) z1 = 65535;
 230:mini3d/render.c **** 	if ( z2 > 65535 ) z2 = 65535;
 231:mini3d/render.c **** 
 232:mini3d/render.c **** 	int32_t dzdy = slope(z1, p1->y, z2, p2->y + 1);
 233:mini3d/render.c **** 	int32_t dzdx = slope(z1, p1->x, z2, p2->x);
 234:mini3d/render.c **** 
 235:mini3d/render.c **** 	uint32_t z = z1 * (1<<16);
 236:mini3d/render.c **** 
 237:mini3d/render.c **** 	if ( y < 0 )
 238:mini3d/render.c **** 	{
 239:mini3d/render.c **** 		x += -y * dx;
 240:mini3d/render.c **** 		z += -y * dzdy;
 241:mini3d/render.c **** 		y = 0;
 242:mini3d/render.c **** 	}
 243:mini3d/render.c **** 	
 244:mini3d/render.c **** 	while ( y <= endy )
 245:mini3d/render.c **** 	{
 246:mini3d/render.c **** 		uint8_t p = pattern[y%8];
 247:mini3d/render.c **** 		uint32_t color = (p<<24) | (p<<16) | (p<<8) | p;
 248:mini3d/render.c **** 		int32_t x1 = (y < endy) ? x+dx : p2->x * (1<<16);
 249:mini3d/render.c **** 
 250:mini3d/render.c **** 		if ( dx < 0 )
 251:mini3d/render.c **** 		{
 252:mini3d/render.c **** 			z += dzdy;
 253:mini3d/render.c **** 			drawFragment_zbuf((uint32_t*)&bitmap[y*rowstride], &zbuf[y*LCD_COLUMNS], x1>>16, (x>>16) + thick
 254:mini3d/render.c **** 		}
 255:mini3d/render.c **** 		else
 256:mini3d/render.c **** 		{
 257:mini3d/render.c **** 			drawFragment_zbuf((uint32_t*)&bitmap[y*rowstride], &zbuf[y*LCD_COLUMNS], x>>16, (x1>>16) + thick
 258:mini3d/render.c **** 			z += dzdy;
 259:mini3d/render.c **** 		}
 260:mini3d/render.c **** 
 261:mini3d/render.c **** 		if ( ++y == LCD_ROWS )
 262:mini3d/render.c **** 			break;
 263:mini3d/render.c **** 		
 264:mini3d/render.c **** 		x = x1;
 265:mini3d/render.c **** 	}
 266:mini3d/render.c **** 	
 267:mini3d/render.c **** 	return (LCDRowRange){ MAX(0, p1->y), MIN(LCD_ROWS, p2->y) };
 268:mini3d/render.c **** }
 269:mini3d/render.c **** #endif
 270:mini3d/render.c **** 
 271:mini3d/render.c **** LCDRowRange
 272:mini3d/render.c **** drawLine(uint8_t* bitmap, int rowstride, Point3D* p1, Point3D* p2, int thick, uint8_t pattern[8])
 273:mini3d/render.c **** {
ARM GAS  /var/folders/cs/83z6p2tj4w57s6p2rt8nwfp00000gn/T//ccDzWS9O.s 			page 16


 274:mini3d/render.c **** 	if ( p1->y > p2->y )
 275:mini3d/render.c **** 	{
 276:mini3d/render.c **** 		Point3D* tmp = p1;
 277:mini3d/render.c **** 		p1 = p2;
 278:mini3d/render.c **** 		p2 = tmp;
 279:mini3d/render.c **** 	}
 280:mini3d/render.c **** 
 281:mini3d/render.c **** 	int y = p1->y;
 282:mini3d/render.c **** 	int endy = p2->y;
 283:mini3d/render.c **** 	
 284:mini3d/render.c **** 	if ( y >= LCD_ROWS || endy < 0 || MIN(p1->x, p2->x) >= LCD_COLUMNS || MAX(p1->x, p2->x) < 0 )
 285:mini3d/render.c **** 		return (LCDRowRange){ 0, 0 };
 286:mini3d/render.c **** 	
 287:mini3d/render.c **** 	int32_t x = p1->x * (1<<16);
 288:mini3d/render.c **** 	int32_t dx = slope(p1->x, p1->y, p2->x, p2->y);
 289:mini3d/render.c **** 	
 290:mini3d/render.c **** 	if ( y < 0 )
 291:mini3d/render.c **** 	{
 292:mini3d/render.c **** 		x += -y * dx;
 293:mini3d/render.c **** 		y = 0;
 294:mini3d/render.c **** 	}
 295:mini3d/render.c **** 
 296:mini3d/render.c **** 	while ( y <= endy )
 297:mini3d/render.c **** 	{
 298:mini3d/render.c **** 		uint8_t p = pattern[y%8];
 299:mini3d/render.c **** 		uint32_t color = (p<<24) | (p<<16) | (p<<8) | p;
 300:mini3d/render.c **** 		int32_t x1 = (y < endy) ? x+dx : p2->x * (1<<16);
 301:mini3d/render.c **** 		
 302:mini3d/render.c **** 		if ( dx < 0 )
 303:mini3d/render.c **** 			drawFragment((uint32_t*)&bitmap[y*rowstride], x1>>16, (x>>16) + thick, color);
 304:mini3d/render.c **** 		else
 305:mini3d/render.c **** 			drawFragment((uint32_t*)&bitmap[y*rowstride], x>>16, (x1>>16) + thick, color);
 306:mini3d/render.c **** 		
 307:mini3d/render.c **** 		if ( ++y == LCD_ROWS )
 308:mini3d/render.c **** 			break;
 309:mini3d/render.c **** 
 310:mini3d/render.c **** 		x = x1;
 311:mini3d/render.c **** 	}
 312:mini3d/render.c **** 	
 313:mini3d/render.c **** 	return (LCDRowRange){ MAX(0, p1->y), MIN(LCD_ROWS, p2->y) };
 314:mini3d/render.c **** }
 315:mini3d/render.c **** 
 316:mini3d/render.c **** static void fillRange(uint8_t* bitmap, int rowstride, int y, int endy, int32_t* x1p, int32_t dx1, i
 317:mini3d/render.c **** {
 512              		.loc 1 317 1 is_stmt 1 view -0
 513              		.cfi_startproc
 514              		@ args = 20, pretend = 0, frame = 16
 515              		@ frame_needed = 0, uses_anonymous_args = 0
 318:mini3d/render.c **** 	int32_t x1 = *x1p, x2 = *x2p;
 516              		.loc 1 318 2 view .LVU118
 517              	@ mini3d/render.c:317: {
 317:mini3d/render.c **** 	int32_t x1 = *x1p, x2 = *x2p;
 518              		.loc 1 317 1 is_stmt 0 view .LVU119
 519 0000 2DE9F04F 		push	{r4, r5, r6, r7, r8, r9, r10, fp, lr}	@
 520              	.LCFI3:
 521              		.cfi_def_cfa_offset 36
 522              		.cfi_offset 4, -36
ARM GAS  /var/folders/cs/83z6p2tj4w57s6p2rt8nwfp00000gn/T//ccDzWS9O.s 			page 17


 523              		.cfi_offset 5, -32
 524              		.cfi_offset 6, -28
 525              		.cfi_offset 7, -24
 526              		.cfi_offset 8, -20
 527              		.cfi_offset 9, -16
 528              		.cfi_offset 10, -12
 529              		.cfi_offset 11, -8
 530              		.cfi_offset 14, -4
 531 0004 85B0     		sub	sp, sp, #20	@,,
 532              	.LCFI4:
 533              		.cfi_def_cfa_offset 56
 534              	@ mini3d/render.c:317: {
 317:mini3d/render.c **** 	int32_t x1 = *x1p, x2 = *x2p;
 535              		.loc 1 317 1 view .LVU120
 536 0006 1446     		mov	r4, r2	@ y, tmp191
 537              	@ mini3d/render.c:320: 	if ( endy < 0 )
 319:mini3d/render.c **** 	
 320:mini3d/render.c **** 	if ( endy < 0 )
 538              		.loc 1 320 5 view .LVU121
 539 0008 B3F10008 		subs	r8, r3, #0	@ endy, tmp192
 540              	@ mini3d/render.c:318: 	int32_t x1 = *x1p, x2 = *x2p;
 318:mini3d/render.c **** 	
 541              		.loc 1 318 10 view .LVU122
 542 000c 0E9A     		ldr	r2, [sp, #56]	@ tmp201, x1p
 543              	.LVL43:
 544              	@ mini3d/render.c:317: {
 317:mini3d/render.c **** 	int32_t x1 = *x1p, x2 = *x2p;
 545              		.loc 1 317 1 view .LVU123
 546 000e DDF83CA0 		ldr	r10, [sp, #60]	@ dx1, dx1
 547              	@ mini3d/render.c:318: 	int32_t x1 = *x1p, x2 = *x2p;
 318:mini3d/render.c **** 	
 548              		.loc 1 318 10 view .LVU124
 549 0012 1268     		ldr	r2, [r2]	@ x1, *x1p_32(D)
 550              	@ mini3d/render.c:317: {
 317:mini3d/render.c **** 	int32_t x1 = *x1p, x2 = *x2p;
 551              		.loc 1 317 1 view .LVU125
 552 0014 DDF844B0 		ldr	fp, [sp, #68]	@ dx2, dx2
 553              	@ mini3d/render.c:318: 	int32_t x1 = *x1p, x2 = *x2p;
 318:mini3d/render.c **** 	
 554              		.loc 1 318 10 view .LVU126
 555 0018 0192     		str	r2, [sp, #4]	@ x1, %sfp
 556              	.LVL44:
 557              	@ mini3d/render.c:318: 	int32_t x1 = *x1p, x2 = *x2p;
 318:mini3d/render.c **** 	
 558              		.loc 1 318 21 view .LVU127
 559 001a 109A     		ldr	r2, [sp, #64]	@ tmp204, x2p
 560              	.LVL45:
 318:mini3d/render.c **** 	
 561              		.loc 1 318 21 view .LVU128
 562 001c 1268     		ldr	r2, [r2]	@ x2, *x2p_34(D)
 563 001e 0292     		str	r2, [sp, #8]	@ x2, %sfp
 564              	.LVL46:
 565              		.loc 1 320 2 is_stmt 1 view .LVU129
 566              	@ mini3d/render.c:320: 	if ( endy < 0 )
 567              		.loc 1 320 5 is_stmt 0 view .LVU130
 568 0020 4CDB     		blt	.L48		@,
 569              	@ mini3d/render.c:328: 	if ( y < 0 )
ARM GAS  /var/folders/cs/83z6p2tj4w57s6p2rt8nwfp00000gn/T//ccDzWS9O.s 			page 18


 321:mini3d/render.c **** 	{
 322:mini3d/render.c **** 		int dy = endy - y;
 323:mini3d/render.c **** 		*x1p = x1 + dy * dx1;
 324:mini3d/render.c **** 		*x2p = x2 + dy * dx2;
 325:mini3d/render.c **** 		return;
 326:mini3d/render.c **** 	}
 327:mini3d/render.c **** 	
 328:mini3d/render.c **** 	if ( y < 0 )
 570              		.loc 1 328 5 view .LVU131
 571 0022 002C     		cmp	r4, #0	@ y,
 572 0024 8946     		mov	r9, r1	@ rowstride, tmp190
 573              		.loc 1 328 2 is_stmt 1 view .LVU132
 574              	@ mini3d/render.c:328: 	if ( y < 0 )
 575              		.loc 1 328 5 is_stmt 0 view .LVU133
 576 0026 3FDB     		blt	.L49		@,
 577              	.LVL47:
 578              	.L42:
 329:mini3d/render.c **** 	{
 330:mini3d/render.c **** 		x1 += -y * dx1;
 331:mini3d/render.c **** 		x2 += -y * dx2;
 332:mini3d/render.c **** 		y = 0;
 333:mini3d/render.c **** 	}
 334:mini3d/render.c **** 	
 335:mini3d/render.c **** 	while ( y < endy )
 579              		.loc 1 335 8 is_stmt 1 view .LVU134
 580 0028 A045     		cmp	r8, r4	@ endy, y
 581 002a 32DD     		ble	.L43		@,
 582 002c 09FB0405 		mla	r5, r9, r4, r0	@ ivtmp.152, rowstride, y, bitmap
 583 0030 0394     		str	r4, [sp, #12]	@ y, %sfp
 584 0032 DDE90167 		ldrd	r6, r7, [sp, #4]	@ x1, x2,,
 585 0036 00E0     		b	.L45		@
 586              	.LVL48:
 587              	.L46:
 588              		.loc 1 335 8 is_stmt 0 view .LVU135
 589 0038 1C46     		mov	r4, r3	@ y, y
 590              	.LVL49:
 591              	.L45:
 592              	.LBB132:
 336:mini3d/render.c **** 	{
 337:mini3d/render.c **** 		uint8_t p = pattern[y%8];
 593              		.loc 1 337 3 is_stmt 1 view .LVU136
 338:mini3d/render.c **** 		uint32_t color = (p<<24) | (p<<16) | (p<<8) | p;
 594              		.loc 1 338 3 view .LVU137
 339:mini3d/render.c **** 		
 340:mini3d/render.c **** 		drawFragment((uint32_t*)&bitmap[y*rowstride], (x1>>16), (x2>>16)+1, color);
 595              		.loc 1 340 3 view .LVU138
 596              	@ mini3d/render.c:340: 		drawFragment((uint32_t*)&bitmap[y*rowstride], (x1>>16), (x2>>16)+1, color)
 597              		.loc 1 340 62 is_stmt 0 view .LVU139
 598 003a 3A14     		asrs	r2, r7, #16	@ tmp170, x2,
 599              	.LBB133:
 600              	.LBB134:
 601 003c 2846     		mov	r0, r5	@, ivtmp.152
 602              	.LBE134:
 603              	.LBE133:
 604              	@ mini3d/render.c:340: 		drawFragment((uint32_t*)&bitmap[y*rowstride], (x1>>16), (x2>>16)+1, color)
 605              		.loc 1 340 52 view .LVU140
 606 003e 3314     		asrs	r3, r6, #16	@ _23, x1,
ARM GAS  /var/folders/cs/83z6p2tj4w57s6p2rt8nwfp00000gn/T//ccDzWS9O.s 			page 19


 607              	.LVL50:
 608              	.LBB139:
 609              	.LBI133:
  92:mini3d/render.c **** {
 610              		.loc 1 92 1 is_stmt 1 view .LVU141
 611              	.LBB135:
  94:mini3d/render.c **** 		return;
 612              		.loc 1 94 2 view .LVU142
 613              	.LBE135:
 614              	.LBE139:
 615              	@ mini3d/render.c:337: 		uint8_t p = pattern[y%8];
 337:mini3d/render.c **** 		uint32_t color = (p<<24) | (p<<16) | (p<<8) | p;
 616              		.loc 1 337 24 is_stmt 0 view .LVU143
 617 0040 04F0070C 		and	ip, r4, #7	@ tmp179, y,
 618              	.LBB140:
 619              	.LBB136:
 620              	@ mini3d/render.c:94: 	if ( x2 < 0 || x1 >= LCD_COLUMNS )
  94:mini3d/render.c **** 		return;
 621              		.loc 1 94 5 view .LVU144
 622 0044 0132     		adds	r2, r2, #1	@ _25, tmp170,
 623              	.LVL51:
  94:mini3d/render.c **** 		return;
 624              		.loc 1 94 5 view .LVU145
 625              	.LBE136:
 626              	.LBE140:
 627              	@ mini3d/render.c:343: 		x2 += dx2;
 341:mini3d/render.c **** 		
 342:mini3d/render.c **** 		x1 += dx1;
 343:mini3d/render.c **** 		x2 += dx2;
 628              		.loc 1 343 6 view .LVU146
 629 0046 5F44     		add	r7, r7, fp	@ x2, dx2
 630              	.LVL52:
 631              	@ mini3d/render.c:342: 		x1 += dx1;
 342:mini3d/render.c **** 		x2 += dx2;
 632              		.loc 1 342 6 view .LVU147
 633 0048 5644     		add	r6, r6, r10	@ x1, dx1
 634              	.LVL53:
 342:mini3d/render.c **** 		x2 += dx2;
 635              		.loc 1 342 6 view .LVU148
 636 004a 4D44     		add	r5, r5, r9	@ ivtmp.152, rowstride
 637              	.LBB141:
 638              	.LBB137:
 639 004c 1946     		mov	r1, r3	@, _23
 640              	@ mini3d/render.c:94: 	if ( x2 < 0 || x1 >= LCD_COLUMNS )
  94:mini3d/render.c **** 		return;
 641              		.loc 1 94 5 view .LVU149
 642 004e 10D4     		bmi	.L44		@,
  94:mini3d/render.c **** 		return;
 643              		.loc 1 94 5 view .LVU150
 644 0050 40F28F1E 		movw	lr, #399	@ tmp223,
 645 0054 7345     		cmp	r3, lr	@ _23, tmp223
 646 0056 0CDC     		bgt	.L44		@,
 647              	.LBE137:
 648              	.LBE141:
 649              	@ mini3d/render.c:338: 		uint32_t color = (p<<24) | (p<<16) | (p<<8) | p;
 338:mini3d/render.c **** 		
 650              		.loc 1 338 22 view .LVU151
ARM GAS  /var/folders/cs/83z6p2tj4w57s6p2rt8nwfp00000gn/T//ccDzWS9O.s 			page 20


 651 0058 129B     		ldr	r3, [sp, #72]	@ tmp224, pattern
 652              	.LVL54:
 338:mini3d/render.c **** 		
 653              		.loc 1 338 22 view .LVU152
 654 005a 13F80CC0 		ldrb	ip, [r3, ip]	@ zero_extendqisi2	@ _12, *_11
 655              	@ mini3d/render.c:338: 		uint32_t color = (p<<24) | (p<<16) | (p<<8) | p;
 338:mini3d/render.c **** 		
 656              		.loc 1 338 32 view .LVU153
 657 005e 4FEA0C43 		lsl	r3, ip, #16	@ tmp181, _12,
 658              	@ mini3d/render.c:338: 		uint32_t color = (p<<24) | (p<<16) | (p<<8) | p;
 338:mini3d/render.c **** 		
 659              		.loc 1 338 28 view .LVU154
 660 0062 43EA0C63 		orr	r3, r3, ip, lsl #24	@ tmp182, tmp181, _12,
 661              	@ mini3d/render.c:338: 		uint32_t color = (p<<24) | (p<<16) | (p<<8) | p;
 338:mini3d/render.c **** 		
 662              		.loc 1 338 47 view .LVU155
 663 0066 43EA0C03 		orr	r3, r3, ip	@ tmp183, tmp182, _12
 664              	.LBB142:
 665              	.LBB138:
 666 006a 43EA0C23 		orr	r3, r3, ip, lsl #8	@, tmp183, _12,
 667 006e FFF7FEFF 		bl	drawFragment.part.0		@
 668              	.LVL55:
 669              	.L44:
 338:mini3d/render.c **** 		
 670              		.loc 1 338 47 view .LVU156
 671              	.LBE138:
 672              	.LBE142:
 342:mini3d/render.c **** 		x2 += dx2;
 673              		.loc 1 342 3 is_stmt 1 view .LVU157
 674              		.loc 1 343 3 view .LVU158
 344:mini3d/render.c **** 		++y;
 675              		.loc 1 344 3 view .LVU159
 676 0072 631C     		adds	r3, r4, #1	@ y, y,
 677              	.LVL56:
 678              		.loc 1 344 3 is_stmt 0 view .LVU160
 679              	.LBE132:
 335:mini3d/render.c **** 	{
 680              		.loc 1 335 8 is_stmt 1 view .LVU161
 681 0074 9845     		cmp	r8, r3	@ endy, y
 682 0076 DFD1     		bne	.L46		@,
 683 0078 019B     		ldr	r3, [sp, #4]	@ x1, %sfp
 684              	.LVL57:
 335:mini3d/render.c **** 	{
 685              		.loc 1 335 8 is_stmt 0 view .LVU162
 686 007a 5344     		add	r3, r3, r10	@ x1, dx1
 687 007c 1A46     		mov	r2, r3	@ _97, x1
 688 007e 039B     		ldr	r3, [sp, #12]	@ _78, %sfp
 689 0080 E41A     		subs	r4, r4, r3	@ _92, y, _78
 690              	.LVL58:
 335:mini3d/render.c **** 	{
 691              		.loc 1 335 8 view .LVU163
 692 0082 029B     		ldr	r3, [sp, #8]	@ x2, %sfp
 693 0084 5B44     		add	r3, r3, fp	@ x2, dx2
 694 0086 04FB0A22 		mla	r2, r4, r10, r2	@ x1, _92, dx1, _97
 695 008a 04FB0B33 		mla	r3, r4, fp, r3	@ x2, _92, dx2, _90
 696 008e 0192     		str	r2, [sp, #4]	@ x1, %sfp
 697 0090 0293     		str	r3, [sp, #8]	@ x2, %sfp
ARM GAS  /var/folders/cs/83z6p2tj4w57s6p2rt8nwfp00000gn/T//ccDzWS9O.s 			page 21


 698              	.LVL59:
 699              	.L43:
 345:mini3d/render.c **** 	}
 346:mini3d/render.c **** 	
 347:mini3d/render.c **** 	*x1p = x1;
 700              		.loc 1 347 2 is_stmt 1 view .LVU164
 701              	@ mini3d/render.c:347: 	*x1p = x1;
 702              		.loc 1 347 7 is_stmt 0 view .LVU165
 703 0092 0E9B     		ldr	r3, [sp, #56]	@ tmp235, x1p
 704 0094 1A46     		mov	r2, r3	@ tmp235, tmp235
 705 0096 019B     		ldr	r3, [sp, #4]	@ x1, %sfp
 706 0098 1360     		str	r3, [r2]	@ x1, *x1p_32(D)
 348:mini3d/render.c **** 	*x2p = x2;
 707              		.loc 1 348 2 is_stmt 1 view .LVU166
 708              	@ mini3d/render.c:348: 	*x2p = x2;
 709              		.loc 1 348 7 is_stmt 0 view .LVU167
 710 009a 109B     		ldr	r3, [sp, #64]	@ tmp238, x2p
 711 009c 1A46     		mov	r2, r3	@ tmp238, tmp238
 712 009e 029B     		ldr	r3, [sp, #8]	@ x2, %sfp
 713 00a0 1360     		str	r3, [r2]	@ x2, *x2p_34(D)
 714              	@ mini3d/render.c:349: }
 349:mini3d/render.c **** }
 715              		.loc 1 349 1 view .LVU168
 716 00a2 05B0     		add	sp, sp, #20	@,,
 717              	.LCFI5:
 718              		.cfi_remember_state
 719              		.cfi_def_cfa_offset 36
 720              		@ sp needed	@
 721 00a4 BDE8F08F 		pop	{r4, r5, r6, r7, r8, r9, r10, fp, pc}	@
 722              	.LVL60:
 723              	.L49:
 724              	.LCFI6:
 725              		.cfi_restore_state
 330:mini3d/render.c **** 		x2 += -y * dx2;
 726              		.loc 1 330 3 is_stmt 1 view .LVU169
 727              	@ mini3d/render.c:330: 		x1 += -y * dx1;
 330:mini3d/render.c **** 		x2 += -y * dx2;
 728              		.loc 1 330 6 is_stmt 0 view .LVU170
 729 00a8 019B     		ldr	r3, [sp, #4]	@ x1, %sfp
 730              	.LVL61:
 330:mini3d/render.c **** 		x2 += -y * dx2;
 731              		.loc 1 330 6 view .LVU171
 732 00aa 04FB1A33 		mls	r3, r4, r10, r3	@ x1, y, dx1, x1
 733 00ae 0193     		str	r3, [sp, #4]	@ x1, %sfp
 734              	.LVL62:
 331:mini3d/render.c **** 		y = 0;
 735              		.loc 1 331 3 is_stmt 1 view .LVU172
 736              	@ mini3d/render.c:331: 		x2 += -y * dx2;
 331:mini3d/render.c **** 		y = 0;
 737              		.loc 1 331 6 is_stmt 0 view .LVU173
 738 00b0 029B     		ldr	r3, [sp, #8]	@ x2, %sfp
 739              	.LVL63:
 331:mini3d/render.c **** 		y = 0;
 740              		.loc 1 331 6 view .LVU174
 741 00b2 04FB1B33 		mls	r3, r4, fp, r3	@ x2, y, dx2, x2
 742              	@ mini3d/render.c:332: 		y = 0;
 332:mini3d/render.c **** 	}
ARM GAS  /var/folders/cs/83z6p2tj4w57s6p2rt8nwfp00000gn/T//ccDzWS9O.s 			page 22


 743              		.loc 1 332 5 view .LVU175
 744 00b6 0024     		movs	r4, #0	@ y,
 745              	.LVL64:
 746              	@ mini3d/render.c:331: 		x2 += -y * dx2;
 331:mini3d/render.c **** 		y = 0;
 747              		.loc 1 331 6 view .LVU176
 748 00b8 0293     		str	r3, [sp, #8]	@ x2, %sfp
 749              	.LVL65:
 332:mini3d/render.c **** 	}
 750              		.loc 1 332 3 is_stmt 1 view .LVU177
 332:mini3d/render.c **** 	}
 751              		.loc 1 332 3 is_stmt 0 view .LVU178
 752 00ba B5E7     		b	.L42		@
 753              	.LVL66:
 754              	.L48:
 755              	.LBB143:
 322:mini3d/render.c **** 		*x1p = x1 + dy * dx1;
 756              		.loc 1 322 3 is_stmt 1 view .LVU179
 757              	@ mini3d/render.c:322: 		int dy = endy - y;
 322:mini3d/render.c **** 		*x1p = x1 + dy * dx1;
 758              		.loc 1 322 7 is_stmt 0 view .LVU180
 759 00bc A8EB0404 		sub	r4, r8, r4	@ dy, endy, y
 760              	.LVL67:
 323:mini3d/render.c **** 		*x2p = x2 + dy * dx2;
 761              		.loc 1 323 3 is_stmt 1 view .LVU181
 762              	@ mini3d/render.c:323: 		*x1p = x1 + dy * dx1;
 323:mini3d/render.c **** 		*x2p = x2 + dy * dx2;
 763              		.loc 1 323 13 is_stmt 0 view .LVU182
 764 00c0 019B     		ldr	r3, [sp, #4]	@ x1, %sfp
 765              	.LVL68:
 323:mini3d/render.c **** 		*x2p = x2 + dy * dx2;
 766              		.loc 1 323 13 view .LVU183
 767 00c2 04FB0A33 		mla	r3, r4, r10, r3	@ tmp164, dy, dx1, x1
 768              	@ mini3d/render.c:324: 		*x2p = x2 + dy * dx2;
 324:mini3d/render.c **** 		return;
 769              		.loc 1 324 13 view .LVU184
 770 00c6 04FB0B24 		mla	r4, r4, fp, r2	@ tmp166, dy, dx2, x2
 771              	.LVL69:
 772              	@ mini3d/render.c:323: 		*x1p = x1 + dy * dx1;
 323:mini3d/render.c **** 		*x2p = x2 + dy * dx2;
 773              		.loc 1 323 8 view .LVU185
 774 00ca 0E9A     		ldr	r2, [sp, #56]	@ tmp211, x1p
 775              	.LVL70:
 323:mini3d/render.c **** 		*x2p = x2 + dy * dx2;
 776              		.loc 1 323 8 view .LVU186
 777 00cc 1360     		str	r3, [r2]	@ tmp164, *x1p_32(D)
 778              	.LVL71:
 324:mini3d/render.c **** 		return;
 779              		.loc 1 324 3 is_stmt 1 view .LVU187
 780              	@ mini3d/render.c:324: 		*x2p = x2 + dy * dx2;
 324:mini3d/render.c **** 		return;
 781              		.loc 1 324 8 is_stmt 0 view .LVU188
 782 00ce 109B     		ldr	r3, [sp, #64]	@ tmp213, x2p
 783 00d0 1C60     		str	r4, [r3]	@ tmp166, *x2p_34(D)
 325:mini3d/render.c **** 	}
 784              		.loc 1 325 3 is_stmt 1 view .LVU189
 785              	.LBE143:
ARM GAS  /var/folders/cs/83z6p2tj4w57s6p2rt8nwfp00000gn/T//ccDzWS9O.s 			page 23


 786              	@ mini3d/render.c:349: }
 787              		.loc 1 349 1 is_stmt 0 view .LVU190
 788 00d2 05B0     		add	sp, sp, #20	@,,
 789              	.LCFI7:
 790              		.cfi_def_cfa_offset 36
 791              		@ sp needed	@
 792 00d4 BDE8F08F 		pop	{r4, r5, r6, r7, r8, r9, r10, fp, pc}	@
 793              		.loc 1 349 1 view .LVU191
 794              		.cfi_endproc
 795              	.LFE20:
 796              		.size	fillRange, .-fillRange
 797              		.section	.text.drawFragment_zbuf.part.0,"ax",%progbits
 798              		.align	1
 799              		.p2align 4,,15
 800              		.syntax unified
 801              		.thumb
 802              		.thumb_func
 803              		.fpu fpv5-sp-d16
 804              		.type	drawFragment_zbuf.part.0, %function
 805              	drawFragment_zbuf.part.0:
 806              	.LVL72:
 807              	.LFB28:
 152:mini3d/render.c **** {
 808              		.loc 1 152 1 is_stmt 1 view -0
 809              		.cfi_startproc
 810              		@ args = 12, pretend = 0, frame = 0
 811              		@ frame_needed = 0, uses_anonymous_args = 0
 157:mini3d/render.c **** 	{
 812              		.loc 1 157 2 view .LVU193
 813              	@ mini3d/render.c:157: 	if ( x < 0 )
 157:mini3d/render.c **** 	{
 814              		.loc 1 157 5 is_stmt 0 view .LVU194
 815 0000 002A     		cmp	r2, #0	@ x
 816              	@ mini3d/render.c:152: drawFragment_zbuf(uint32_t* row, uint16_t* zbrow, int x, int endx, uint32_t 
 152:mini3d/render.c **** {
 817              		.loc 1 152 1 view .LVU195
 818 0002 2DE9F04F 		push	{r4, r5, r6, r7, r8, r9, r10, fp, lr}	@
 819              	.LCFI8:
 820              		.cfi_def_cfa_offset 36
 821              		.cfi_offset 4, -36
 822              		.cfi_offset 5, -32
 823              		.cfi_offset 6, -28
 824              		.cfi_offset 7, -24
 825              		.cfi_offset 8, -20
 826              		.cfi_offset 9, -16
 827              		.cfi_offset 10, -12
 828              		.cfi_offset 11, -8
 829              		.cfi_offset 14, -4
 830              	@ mini3d/render.c:152: drawFragment_zbuf(uint32_t* row, uint16_t* zbrow, int x, int endx, uint32_t 
 152:mini3d/render.c **** {
 831              		.loc 1 152 1 view .LVU196
 832 0006 DDF82CE0 		ldr	lr, [sp, #44]	@ color, color
 833 000a DDE9094C 		ldrd	r4, ip, [sp, #36]	@ z, dzdx,,
 834              	@ mini3d/render.c:157: 	if ( x < 0 )
 157:mini3d/render.c **** 	{
 835              		.loc 1 157 5 view .LVU197
 836 000e 52DB     		blt	.L51		@,
ARM GAS  /var/folders/cs/83z6p2tj4w57s6p2rt8nwfp00000gn/T//ccDzWS9O.s 			page 24


 837 0010 B3F5C87F 		cmp	r3, #400	@ endx,
 838 0014 4FEA6215 		asr	r5, r2, #5	@ tmp156, x,
 839 0018 9146     		mov	r9, r2	@ _89, x
 840 001a A8BF     		it	ge
 841 001c 4FF4C873 		movge	r3, #400	@ endx,
 842              	.LVL73:
 157:mini3d/render.c **** 	{
 843              		.loc 1 157 5 view .LVU198
 844 0020 00EB8500 		add	r0, r0, r5, lsl #2	@ row, row, tmp156,
 845              	.LVL74:
 163:mini3d/render.c **** 		endx = LCD_COLUMNS;
 846              		.loc 1 163 2 is_stmt 1 view .LVU199
 166:mini3d/render.c **** 	uint32_t* p = row + x/32;
 847              		.loc 1 166 2 view .LVU200
 167:mini3d/render.c **** 
 848              		.loc 1 167 2 view .LVU201
 169:mini3d/render.c **** 	{
 849              		.loc 1 169 2 view .LVU202
 169:mini3d/render.c **** 	{
 850              		.loc 1 169 8 view .LVU203
 851 0024 9342     		cmp	r3, r2	@ endx, x
 852 0026 52DD     		ble	.L53		@,
 853              	.LVL75:
 854              	.L67:
 169:mini3d/render.c **** 	{
 855              		.loc 1 169 8 is_stmt 0 view .LVU204
 856 0028 6FF00046 		mvn	r6, #-2147483648	@ tmp161,
 857 002c 8F1E     		subs	r7, r1, #2	@ tmp164, zbrow,
 858              	@ mini3d/render.c:166: 	uint32_t mask = 0;
 166:mini3d/render.c **** 	uint32_t* p = row + x/32;
 859              		.loc 1 166 11 view .LVU205
 860 002e 0025     		movs	r5, #0	@ mask,
 861              	.LBB144:
 862              	@ mini3d/render.c:175: 			mask |= 0x80000000u >> (x%32);
 175:mini3d/render.c **** 			zbrow[x] = zi;
 863              		.loc 1 175 24 view .LVU206
 864 0030 4FF00048 		mov	r8, #-2147483648	@ tmp179,
 865 0034 1644     		add	r6, r6, r2	@ tmp161, x
 866 0036 07EB4307 		add	r7, r7, r3, lsl #1	@ _86, tmp164, endx,
 867 003a 01EB4601 		add	r1, r1, r6, lsl #1	@ ivtmp.163, zbrow, tmp161,
 868              	.LVL76:
 175:mini3d/render.c **** 			zbrow[x] = zi;
 869              		.loc 1 175 24 view .LVU207
 870 003e 0BE0     		b	.L57		@
 871              	.LVL77:
 872              	.L56:
 873              	.LBB145:
 874              	.LBB146:
 875              	@ mini3d/render.c:88: 		*p = (*p & ~mask) | (color & mask);
  88:mini3d/render.c **** }
 876              		.loc 1 88 9 view .LVU208
 877 0040 D0F800A0 		ldr	r10, [r0]	@ _39, *p_76
 878              	@ mini3d/render.c:88: 		*p = (*p & ~mask) | (color & mask);
  88:mini3d/render.c **** }
 879              		.loc 1 88 21 view .LVU209
 880 0044 8EEA0A03 		eor	r3, lr, r10	@ tmp172, color, _39
 881              	.LVL78:
ARM GAS  /var/folders/cs/83z6p2tj4w57s6p2rt8nwfp00000gn/T//ccDzWS9O.s 			page 25


  88:mini3d/render.c **** }
 882              		.loc 1 88 21 view .LVU210
 883 0048 03EA0B03 		and	r3, r3, fp	@ tmp173, tmp172, result
 884 004c 83EA0A03 		eor	r3, r3, r10	@ tmp174, tmp173, _39
 885              	@ mini3d/render.c:88: 		*p = (*p & ~mask) | (color & mask);
  88:mini3d/render.c **** }
 886              		.loc 1 88 6 view .LVU211
 887 0050 0360     		str	r3, [r0]	@ tmp174, *p_76
 888              	.LBE146:
 889              	.LBE145:
 890              	@ mini3d/render.c:184: 			_drawMaskPattern(p++, swap(mask), color);
 184:mini3d/render.c **** 			mask = 0;
 891              		.loc 1 184 4 view .LVU212
 892 0052 3046     		mov	r0, r6	@ row, p
 893              	.LVL79:
 894              	.L55:
 184:mini3d/render.c **** 			mask = 0;
 895              		.loc 1 184 4 view .LVU213
 896              	.LBE144:
 169:mini3d/render.c **** 	{
 897              		.loc 1 169 8 is_stmt 1 view .LVU214
 898 0054 B942     		cmp	r1, r7	@ ivtmp.163, _86
 899 0056 1FD0     		beq	.L58		@,
 900              	.LVL80:
 901              	.L57:
 902              	.LBB161:
 171:mini3d/render.c **** 		
 903              		.loc 1 171 3 view .LVU215
 175:mini3d/render.c **** 			zbrow[x] = zi;
 904              		.loc 1 175 4 view .LVU216
 184:mini3d/render.c **** 			mask = 0;
 905              		.loc 1 184 4 view .LVU217
 906              	@ mini3d/render.c:173: 		if ( zi > zbrow[x] )
 173:mini3d/render.c **** 		{
 907              		.loc 1 173 6 is_stmt 0 view .LVU218
 908 0058 31F8026F 		ldrh	r6, [r1, #2]!	@ MEM[base: _43, offset: 0B], MEM[base: _43, offset: 0B]
 909              	@ mini3d/render.c:175: 			mask |= 0x80000000u >> (x%32);
 175:mini3d/render.c **** 			zbrow[x] = zi;
 910              		.loc 1 175 29 view .LVU219
 911 005c 02F01F03 		and	r3, r2, #31	@ tmp167, x,
 912              	@ mini3d/render.c:171: 		uint16_t zi = z >> 16;
 171:mini3d/render.c **** 		
 913              		.loc 1 171 12 view .LVU220
 914 0060 4FEA1449 		lsr	r9, r4, #16	@ zi, z,
 915              	.LVL81:
 173:mini3d/render.c **** 		{
 916              		.loc 1 173 3 is_stmt 1 view .LVU221
 917              	@ mini3d/render.c:179: 		++x;
 179:mini3d/render.c **** 		z += dzdx;
 918              		.loc 1 179 3 is_stmt 0 view .LVU222
 919 0064 0132     		adds	r2, r2, #1	@ x, x,
 920              	.LVL82:
 921              	@ mini3d/render.c:173: 		if ( zi > zbrow[x] )
 173:mini3d/render.c **** 		{
 922              		.loc 1 173 6 view .LVU223
 923 0066 B6EB144F 		cmp	r6, r4, lsr #16	@ MEM[base: _43, offset: 0B], z,
 924              	@ mini3d/render.c:175: 			mask |= 0x80000000u >> (x%32);
ARM GAS  /var/folders/cs/83z6p2tj4w57s6p2rt8nwfp00000gn/T//ccDzWS9O.s 			page 26


 175:mini3d/render.c **** 			zbrow[x] = zi;
 925              		.loc 1 175 24 view .LVU224
 926 006a 28FA03F3 		lsr	r3, r8, r3	@ tmp168, tmp179, tmp167
 927              	@ mini3d/render.c:180: 		z += dzdx;
 180:mini3d/render.c **** 		
 928              		.loc 1 180 5 view .LVU225
 929 006e 6444     		add	r4, r4, ip	@ z, dzdx
 930              	.LVL83:
 931              	@ mini3d/render.c:184: 			_drawMaskPattern(p++, swap(mask), color);
 184:mini3d/render.c **** 			mask = 0;
 932              		.loc 1 184 4 view .LVU226
 933 0070 00F10406 		add	r6, r0, #4	@ p, row,
 934              	.LVL84:
 935              	@ mini3d/render.c:173: 		if ( zi > zbrow[x] )
 173:mini3d/render.c **** 		{
 936              		.loc 1 173 6 view .LVU227
 937 0074 02D2     		bcs	.L54		@,
 938              	@ mini3d/render.c:175: 			mask |= 0x80000000u >> (x%32);
 175:mini3d/render.c **** 			zbrow[x] = zi;
 939              		.loc 1 175 9 view .LVU228
 940 0076 1D43     		orrs	r5, r5, r3	@, mask, mask, tmp168
 941              	.LVL85:
 176:mini3d/render.c **** 		}
 942              		.loc 1 176 4 is_stmt 1 view .LVU229
 943              	@ mini3d/render.c:176: 			zbrow[x] = zi;
 176:mini3d/render.c **** 		}
 944              		.loc 1 176 13 is_stmt 0 view .LVU230
 945 0078 A1F80090 		strh	r9, [r1]	@ movhi	@ zi, MEM[base: _43, offset: 0B]
 946              	.L54:
 179:mini3d/render.c **** 		z += dzdx;
 947              		.loc 1 179 3 is_stmt 1 view .LVU231
 948              	.LVL86:
 180:mini3d/render.c **** 		
 949              		.loc 1 180 3 view .LVU232
 182:mini3d/render.c **** 		{
 950              		.loc 1 182 3 view .LVU233
 951              	.LBB151:
 952              	.LBI151:
  37:mini3d/render.c **** {
 953              		.loc 1 37 24 view .LVU234
 954              	.LBB152:
  41:mini3d/render.c **** 	
 955              		.loc 1 41 2 view .LVU235
  43:mini3d/render.c **** 	return(result);
 956              		.loc 1 43 2 view .LVU236
 957              	.LBE152:
 958              	.LBE151:
 959              	@ mini3d/render.c:182: 		if ( x % 32 == 0 )
 182:mini3d/render.c **** 		{
 960              		.loc 1 182 6 is_stmt 0 view .LVU237
 961 007c 12F01F09 		ands	r9, r2, #31	@ _33, x,
 962              	.LVL87:
 182:mini3d/render.c **** 		{
 963              		.loc 1 182 6 view .LVU238
 964 0080 E8D1     		bne	.L55		@,
 965              	.LBB155:
 966              	.LBB153:
ARM GAS  /var/folders/cs/83z6p2tj4w57s6p2rt8nwfp00000gn/T//ccDzWS9O.s 			page 27


 967              	@ mini3d/render.c:43: 	__asm volatile ("rev %0, %1" : "=l" (result) : "l" (n));
  43:mini3d/render.c **** 	return(result);
 968              		.loc 1 43 2 view .LVU239
 969              		.syntax unified
 970              	@ 43 "mini3d/render.c" 1
 971 0082 2BBA     		rev r3, r5	@ result, mask
 972              	@ 0 "" 2
 973              		.thumb
 974              		.syntax unified
 975              	.LBE153:
 976              	.LBE155:
 977              	.LBB156:
 978              	.LBB147:
 979              	@ mini3d/render.c:85: 	if ( mask == 0xffffffff )
  85:mini3d/render.c **** 		*p = color;
 980              		.loc 1 85 5 view .LVU240
 981 0084 B3F1FF3F 		cmp	r3, #-1	@ result,
 982              	.LBE147:
 983              	.LBE156:
 984              	.LBB157:
 985              	.LBB154:
 986              	@ mini3d/render.c:43: 	__asm volatile ("rev %0, %1" : "=l" (result) : "l" (n));
  43:mini3d/render.c **** 	return(result);
 987              		.loc 1 43 2 view .LVU241
 988 0088 9B46     		mov	fp, r3	@ result, result
 989              	.LVL88:
  44:mini3d/render.c **** #else
 990              		.loc 1 44 2 is_stmt 1 view .LVU242
  44:mini3d/render.c **** #else
 991              		.loc 1 44 2 is_stmt 0 view .LVU243
 992              	.LBE154:
 993              	.LBE157:
 994              	.LBB158:
 995              	.LBI145:
  83:mini3d/render.c **** {
 996              		.loc 1 83 1 is_stmt 1 view .LVU244
 997              	.LBB148:
  85:mini3d/render.c **** 		*p = color;
 998              		.loc 1 85 2 view .LVU245
  88:mini3d/render.c **** }
 999              		.loc 1 88 3 view .LVU246
 1000              	.LBE148:
 1001              	.LBE158:
 1002              	@ mini3d/render.c:185: 			mask = 0;
 185:mini3d/render.c **** 		}
 1003              		.loc 1 185 9 is_stmt 0 view .LVU247
 1004 008a 4D46     		mov	r5, r9	@ mask, _33
 1005              	.LVL89:
 1006              	.LBB159:
 1007              	.LBB149:
 1008              	@ mini3d/render.c:85: 	if ( mask == 0xffffffff )
  85:mini3d/render.c **** 		*p = color;
 1009              		.loc 1 85 5 view .LVU248
 1010 008c D8D1     		bne	.L56		@,
  86:mini3d/render.c **** 	else
 1011              		.loc 1 86 3 is_stmt 1 view .LVU249
 1012              	.LBE149:
ARM GAS  /var/folders/cs/83z6p2tj4w57s6p2rt8nwfp00000gn/T//ccDzWS9O.s 			page 28


 1013              	.LBE159:
 1014              	.LBE161:
 1015              	@ mini3d/render.c:169: 	while ( x < endx )
 169:mini3d/render.c **** 	{
 1016              		.loc 1 169 8 is_stmt 0 view .LVU250
 1017 008e B942     		cmp	r1, r7	@ ivtmp.163, _86
 1018              	.LBB162:
 1019              	.LBB160:
 1020              	.LBB150:
 1021              	@ mini3d/render.c:86: 		*p = color;
  86:mini3d/render.c **** 	else
 1022              		.loc 1 86 6 view .LVU251
 1023 0090 C0F800E0 		str	lr, [r0]	@ color, *p_76
 1024              	.LBE150:
 1025              	.LBE160:
 1026              	@ mini3d/render.c:184: 			_drawMaskPattern(p++, swap(mask), color);
 184:mini3d/render.c **** 			mask = 0;
 1027              		.loc 1 184 4 view .LVU252
 1028 0094 3046     		mov	r0, r6	@ row, p
 1029              	.LVL90:
 184:mini3d/render.c **** 			mask = 0;
 1030              		.loc 1 184 4 view .LVU253
 1031              	.LBE162:
 169:mini3d/render.c **** 	{
 1032              		.loc 1 169 8 is_stmt 1 view .LVU254
 1033 0096 DFD1     		bne	.L57		@,
 1034              	.LVL91:
 1035              	.L58:
 189:mini3d/render.c **** 		_drawMaskPattern(p, swap(mask), color);
 1036              		.loc 1 189 2 view .LVU255
 1037              	@ mini3d/render.c:189: 	if ( x % 32 != 0 )
 189:mini3d/render.c **** 		_drawMaskPattern(p, swap(mask), color);
 1038              		.loc 1 189 5 is_stmt 0 view .LVU256
 1039 0098 B9F1000F 		cmp	r9, #0	@ _33
 1040 009c 09D0     		beq	.L50	@
 190:mini3d/render.c **** }
 1041              		.loc 1 190 3 is_stmt 1 view .LVU257
 1042              	.LVL92:
 1043              	.LBB163:
 1044              	.LBI163:
  37:mini3d/render.c **** {
 1045              		.loc 1 37 24 view .LVU258
 1046              	.LBB164:
  41:mini3d/render.c **** 	
 1047              		.loc 1 41 2 view .LVU259
  43:mini3d/render.c **** 	return(result);
 1048              		.loc 1 43 2 view .LVU260
 1049              		.syntax unified
 1050              	@ 43 "mini3d/render.c" 1
 1051 009e 2DBA     		rev r5, r5	@ result, mask
 1052              	@ 0 "" 2
 1053              	.LVL93:
  44:mini3d/render.c **** #else
 1054              		.loc 1 44 2 view .LVU261
  44:mini3d/render.c **** #else
 1055              		.loc 1 44 2 is_stmt 0 view .LVU262
 1056              		.thumb
ARM GAS  /var/folders/cs/83z6p2tj4w57s6p2rt8nwfp00000gn/T//ccDzWS9O.s 			page 29


 1057              		.syntax unified
 1058              	.LBE164:
 1059              	.LBE163:
 1060              	.LBB165:
 1061              	.LBI165:
  83:mini3d/render.c **** {
 1062              		.loc 1 83 1 is_stmt 1 view .LVU263
 1063              	.LBB166:
  85:mini3d/render.c **** 		*p = color;
 1064              		.loc 1 85 2 view .LVU264
 1065              	@ mini3d/render.c:85: 	if ( mask == 0xffffffff )
  85:mini3d/render.c **** 		*p = color;
 1066              		.loc 1 85 5 is_stmt 0 view .LVU265
 1067 00a0 6B1C     		adds	r3, r5, #1	@, result,
 1068 00a2 18D0     		beq	.L66		@,
  88:mini3d/render.c **** }
 1069              		.loc 1 88 3 is_stmt 1 view .LVU266
 1070              	@ mini3d/render.c:88: 		*p = (*p & ~mask) | (color & mask);
  88:mini3d/render.c **** }
 1071              		.loc 1 88 9 is_stmt 0 view .LVU267
 1072 00a4 0368     		ldr	r3, [r0]	@ _49, *p_75
 1073              	@ mini3d/render.c:88: 		*p = (*p & ~mask) | (color & mask);
  88:mini3d/render.c **** }
 1074              		.loc 1 88 21 view .LVU268
 1075 00a6 8EEA030E 		eor	lr, lr, r3	@ tmp176, color, _49
 1076              	.LVL94:
  88:mini3d/render.c **** }
 1077              		.loc 1 88 21 view .LVU269
 1078 00aa 0EEA0505 		and	r5, lr, r5	@ tmp177, tmp176, result
 1079              	.LVL95:
  88:mini3d/render.c **** }
 1080              		.loc 1 88 21 view .LVU270
 1081 00ae 5D40     		eors	r5, r5, r3	@, tmp178, tmp177, _49
 1082              	@ mini3d/render.c:88: 		*p = (*p & ~mask) | (color & mask);
  88:mini3d/render.c **** }
 1083              		.loc 1 88 6 view .LVU271
 1084 00b0 0560     		str	r5, [r0]	@ tmp178, *p_75
 1085              	.LVL96:
 1086              	.L50:
  88:mini3d/render.c **** }
 1087              		.loc 1 88 6 view .LVU272
 1088              	.LBE166:
 1089              	.LBE165:
 1090              	@ mini3d/render.c:191: }
 191:mini3d/render.c **** #endif
 1091              		.loc 1 191 1 view .LVU273
 1092 00b2 BDE8F08F 		pop	{r4, r5, r6, r7, r8, r9, r10, fp, pc}	@
 1093              	.LVL97:
 1094              	.L51:
 159:mini3d/render.c **** 		x = 0;
 1095              		.loc 1 159 3 is_stmt 1 view .LVU274
 1096 00b6 B3F5C87F 		cmp	r3, #400	@ endx,
 1097              	@ mini3d/render.c:159: 		z += -x * dzdx;
 159:mini3d/render.c **** 		x = 0;
 1098              		.loc 1 159 5 is_stmt 0 view .LVU275
 1099 00ba 02FB1C44 		mls	r4, r2, ip, r4	@ z, x, dzdx, z
 1100              	.LVL98:
ARM GAS  /var/folders/cs/83z6p2tj4w57s6p2rt8nwfp00000gn/T//ccDzWS9O.s 			page 30


 160:mini3d/render.c **** 	}
 1101              		.loc 1 160 3 is_stmt 1 view .LVU276
 1102              	@ mini3d/render.c:159: 		z += -x * dzdx;
 159:mini3d/render.c **** 		x = 0;
 1103              		.loc 1 159 5 is_stmt 0 view .LVU277
 1104 00be 4FF00002 		mov	r2, #0	@ x,
 1105 00c2 A8BF     		it	ge
 1106 00c4 4FF4C873 		movge	r3, #400	@ endx,
 1107              	.LVL99:
 1108              	@ mini3d/render.c:160: 		x = 0;
 160:mini3d/render.c **** 	}
 1109              		.loc 1 160 5 view .LVU278
 1110 00c8 9146     		mov	r9, r2	@ _89, x
 1111              	.LVL100:
 163:mini3d/render.c **** 		endx = LCD_COLUMNS;
 1112              		.loc 1 163 2 is_stmt 1 view .LVU279
 166:mini3d/render.c **** 	uint32_t* p = row + x/32;
 1113              		.loc 1 166 2 view .LVU280
 167:mini3d/render.c **** 
 1114              		.loc 1 167 2 view .LVU281
 169:mini3d/render.c **** 	{
 1115              		.loc 1 169 2 view .LVU282
 169:mini3d/render.c **** 	{
 1116              		.loc 1 169 8 view .LVU283
 1117 00ca 9342     		cmp	r3, r2	@ endx, x
 1118 00cc ACDC     		bgt	.L67		@,
 1119              	.LVL101:
 1120              	.L53:
 169:mini3d/render.c **** 	{
 1121              		.loc 1 169 8 is_stmt 0 view .LVU284
 1122 00ce 09F01F09 		and	r9, r9, #31	@ _33, _89,
 1123              	@ mini3d/render.c:166: 	uint32_t mask = 0;
 166:mini3d/render.c **** 	uint32_t* p = row + x/32;
 1124              		.loc 1 166 11 view .LVU285
 1125 00d2 0025     		movs	r5, #0	@ mask,
 1126 00d4 E0E7     		b	.L58		@
 1127              	.LVL102:
 1128              	.L66:
 1129              	.LBB168:
 1130              	.LBB167:
  86:mini3d/render.c **** 	else
 1131              		.loc 1 86 3 is_stmt 1 view .LVU286
 1132              	@ mini3d/render.c:86: 		*p = color;
  86:mini3d/render.c **** 	else
 1133              		.loc 1 86 6 is_stmt 0 view .LVU287
 1134 00d6 C0F800E0 		str	lr, [r0]	@ color, *p_75
 1135              	.LBE167:
 1136              	.LBE168:
 1137              	@ mini3d/render.c:191: }
 191:mini3d/render.c **** #endif
 1138              		.loc 1 191 1 view .LVU288
 1139 00da BDE8F08F 		pop	{r4, r5, r6, r7, r8, r9, r10, fp, pc}	@
 191:mini3d/render.c **** #endif
 1140              		.loc 1 191 1 view .LVU289
 1141              		.cfi_endproc
 1142              	.LFE28:
 1143              		.size	drawFragment_zbuf.part.0, .-drawFragment_zbuf.part.0
ARM GAS  /var/folders/cs/83z6p2tj4w57s6p2rt8nwfp00000gn/T//ccDzWS9O.s 			page 31


 1144 00de 00BF     		.section	.text.fillRange_zbuf,"ax",%progbits
 1145              		.align	1
 1146              		.p2align 4,,15
 1147              		.syntax unified
 1148              		.thumb
 1149              		.thumb_func
 1150              		.fpu fpv5-sp-d16
 1151              		.type	fillRange_zbuf, %function
 1152              	fillRange_zbuf:
 1153              	.LVL103:
 1154              	.LFB21:
 350:mini3d/render.c **** 
 351:mini3d/render.c **** #if ENABLE_Z_BUFFER
 352:mini3d/render.c **** static void fillRange_zbuf(uint8_t* bitmap, int rowstride, int y, int endy, int32_t* x1p, int32_t d
 353:mini3d/render.c **** {
 1155              		.loc 1 353 1 is_stmt 1 view -0
 1156              		.cfi_startproc
 1157              		@ args = 32, pretend = 0, frame = 24
 1158              		@ frame_needed = 0, uses_anonymous_args = 0
 354:mini3d/render.c **** 	int32_t x1 = *x1p, x2 = *x2p;
 1159              		.loc 1 354 2 view .LVU291
 1160              	@ mini3d/render.c:353: {
 353:mini3d/render.c **** 	int32_t x1 = *x1p, x2 = *x2p;
 1161              		.loc 1 353 1 is_stmt 0 view .LVU292
 1162 0000 2DE9F04F 		push	{r4, r5, r6, r7, r8, r9, r10, fp, lr}	@
 1163              	.LCFI9:
 1164              		.cfi_def_cfa_offset 36
 1165              		.cfi_offset 4, -36
 1166              		.cfi_offset 5, -32
 1167              		.cfi_offset 6, -28
 1168              		.cfi_offset 7, -24
 1169              		.cfi_offset 8, -20
 1170              		.cfi_offset 9, -16
 1171              		.cfi_offset 10, -12
 1172              		.cfi_offset 11, -8
 1173              		.cfi_offset 14, -4
 1174 0004 8BB0     		sub	sp, sp, #44	@,,
 1175              	.LCFI10:
 1176              		.cfi_def_cfa_offset 80
 1177              	@ mini3d/render.c:353: {
 353:mini3d/render.c **** 	int32_t x1 = *x1p, x2 = *x2p;
 1178              		.loc 1 353 1 view .LVU293
 1179 0006 1446     		mov	r4, r2	@ y, tmp219
 1180              	@ mini3d/render.c:357: 	if ( endy < 0 )
 355:mini3d/render.c **** 	uint32_t z = *zp;
 356:mini3d/render.c **** 	
 357:mini3d/render.c **** 	if ( endy < 0 )
 1181              		.loc 1 357 5 view .LVU294
 1182 0008 B3F1000A 		subs	r10, r3, #0	@ endy, tmp220
 1183              	@ mini3d/render.c:354: 	int32_t x1 = *x1p, x2 = *x2p;
 354:mini3d/render.c **** 	uint32_t z = *zp;
 1184              		.loc 1 354 10 view .LVU295
 1185 000c 149A     		ldr	r2, [sp, #80]	@ tmp229, x1p
 1186              	.LVL104:
 1187              	@ mini3d/render.c:353: {
 353:mini3d/render.c **** 	int32_t x1 = *x1p, x2 = *x2p;
 1188              		.loc 1 353 1 view .LVU296
ARM GAS  /var/folders/cs/83z6p2tj4w57s6p2rt8nwfp00000gn/T//ccDzWS9O.s 			page 32


 1189 000e DDF864B0 		ldr	fp, [sp, #100]	@ dzdy, dzdy
 1190              	@ mini3d/render.c:354: 	int32_t x1 = *x1p, x2 = *x2p;
 354:mini3d/render.c **** 	uint32_t z = *zp;
 1191              		.loc 1 354 10 view .LVU297
 1192 0012 1268     		ldr	r2, [r2]	@ x1, *x1p_42(D)
 1193 0014 0692     		str	r2, [sp, #24]	@ x1, %sfp
 1194              	.LVL105:
 1195              	@ mini3d/render.c:354: 	int32_t x1 = *x1p, x2 = *x2p;
 354:mini3d/render.c **** 	uint32_t z = *zp;
 1196              		.loc 1 354 21 view .LVU298
 1197 0016 169A     		ldr	r2, [sp, #88]	@ tmp232, x2p
 1198              	.LVL106:
 354:mini3d/render.c **** 	uint32_t z = *zp;
 1199              		.loc 1 354 21 view .LVU299
 1200 0018 1268     		ldr	r2, [r2]	@ x2, *x2p_44(D)
 1201 001a 0792     		str	r2, [sp, #28]	@ x2, %sfp
 1202              	.LVL107:
 355:mini3d/render.c **** 	uint32_t z = *zp;
 1203              		.loc 1 355 2 is_stmt 1 view .LVU300
 1204              	@ mini3d/render.c:355: 	uint32_t z = *zp;
 355:mini3d/render.c **** 	uint32_t z = *zp;
 1205              		.loc 1 355 11 is_stmt 0 view .LVU301
 1206 001c 189A     		ldr	r2, [sp, #96]	@ tmp235, zp
 1207              	.LVL108:
 355:mini3d/render.c **** 	uint32_t z = *zp;
 1208              		.loc 1 355 11 view .LVU302
 1209 001e 1268     		ldr	r2, [r2]	@ z, *zp_46(D)
 1210 0020 0892     		str	r2, [sp, #32]	@ z, %sfp
 1211              	.LVL109:
 1212              		.loc 1 357 2 is_stmt 1 view .LVU303
 1213              	@ mini3d/render.c:357: 	if ( endy < 0 )
 1214              		.loc 1 357 5 is_stmt 0 view .LVU304
 1215 0022 73DB     		blt	.L77		@,
 1216              	@ mini3d/render.c:366: 	if ( y < 0 )
 358:mini3d/render.c **** 	{
 359:mini3d/render.c **** 		int dy = endy - y;
 360:mini3d/render.c **** 		*x1p = x1 + dy * dx1;
 361:mini3d/render.c **** 		*x2p = x2 + dy * dx2;
 362:mini3d/render.c **** 		*zp = z + dy * dzdy;
 363:mini3d/render.c **** 		return;
 364:mini3d/render.c **** 	}
 365:mini3d/render.c **** 
 366:mini3d/render.c **** 	if ( y < 0 )
 1217              		.loc 1 366 5 view .LVU305
 1218 0024 002C     		cmp	r4, #0	@ y,
 1219 0026 8946     		mov	r9, r1	@ rowstride, tmp218
 1220              		.loc 1 366 2 is_stmt 1 view .LVU306
 1221              	@ mini3d/render.c:366: 	if ( y < 0 )
 1222              		.loc 1 366 5 is_stmt 0 view .LVU307
 1223 0028 60DB     		blt	.L78		@,
 1224              	.LVL110:
 1225              	.L71:
 367:mini3d/render.c **** 	{
 368:mini3d/render.c **** 		x1 += -y * dx1;
 369:mini3d/render.c **** 		x2 += -y * dx2;
 370:mini3d/render.c **** 		z += -y * dzdy;
 371:mini3d/render.c **** 		y = 0;
ARM GAS  /var/folders/cs/83z6p2tj4w57s6p2rt8nwfp00000gn/T//ccDzWS9O.s 			page 33


 372:mini3d/render.c **** 	}
 373:mini3d/render.c **** 
 374:mini3d/render.c **** 	while ( y < endy )
 1226              		.loc 1 374 8 is_stmt 1 view .LVU308
 1227 002a A245     		cmp	r10, r4	@ endy, y
 1228 002c 4FDD     		ble	.L72		@,
 1229 002e 09FB0405 		mla	r5, r9, r4, r0	@ ivtmp.180, rowstride, y, bitmap
 1230 0032 069E     		ldr	r6, [sp, #24]	@ x1, %sfp
 1231 0034 0994     		str	r4, [sp, #36]	@ y, %sfp
 1232 0036 0595     		str	r5, [sp, #20]	@ ivtmp.180, %sfp
 1233 0038 DDE90778 		ldrd	r7, r8, [sp, #28]	@ x2, z,,
 1234 003c 00E0     		b	.L74		@
 1235              	.LVL111:
 1236              	.L75:
 1237              		.loc 1 374 8 is_stmt 0 view .LVU309
 1238 003e 1C46     		mov	r4, r3	@ y, y
 1239              	.LVL112:
 1240              	.L74:
 1241              	.LBB169:
 375:mini3d/render.c **** 	{
 376:mini3d/render.c **** 		uint8_t p = pattern[y%8];
 1242              		.loc 1 376 3 is_stmt 1 view .LVU310
 377:mini3d/render.c **** 		uint32_t color = (p<<24) | (p<<16) | (p<<8) | p;
 1243              		.loc 1 377 3 view .LVU311
 378:mini3d/render.c **** 		
 379:mini3d/render.c **** 		drawFragment_zbuf((uint32_t*)&bitmap[y*rowstride], &zbuf[y*LCD_COLUMNS], (x1>>16), (x2>>16)+1, z,
 1244              		.loc 1 379 3 view .LVU312
 1245              	@ mini3d/render.c:382: 		x2 += dx2;
 380:mini3d/render.c **** 		
 381:mini3d/render.c **** 		x1 += dx1;
 382:mini3d/render.c **** 		x2 += dx2;
 1246              		.loc 1 382 6 is_stmt 0 view .LVU313
 1247 0040 179A     		ldr	r2, [sp, #92]	@ tmp270, dx2
 1248              	@ mini3d/render.c:379: 		drawFragment_zbuf((uint32_t*)&bitmap[y*rowstride], &zbuf[y*LCD_COLUMNS], (
 379:mini3d/render.c **** 		
 1249              		.loc 1 379 89 view .LVU314
 1250 0042 3B14     		asrs	r3, r7, #16	@ tmp191, x2,
 1251              	@ mini3d/render.c:379: 		drawFragment_zbuf((uint32_t*)&bitmap[y*rowstride], &zbuf[y*LCD_COLUMNS], (
 379:mini3d/render.c **** 		
 1252              		.loc 1 379 79 view .LVU315
 1253 0044 4FEA264C 		asr	ip, r6, #16	@ _31, x1,
 1254              	.LVL113:
 1255              	.LBB170:
 1256              	.LBI170:
 152:mini3d/render.c **** {
 1257              		.loc 1 152 1 is_stmt 1 view .LVU316
 1258              	.LBB171:
 154:mini3d/render.c **** 		return;
 1259              		.loc 1 154 2 view .LVU317
 1260 0048 4FF44871 		mov	r1, #800	@ tmp274,
 1261              	.LBE171:
 1262              	.LBE170:
 1263              	@ mini3d/render.c:382: 		x2 += dx2;
 1264              		.loc 1 382 6 is_stmt 0 view .LVU318
 1265 004c 1744     		add	r7, r7, r2	@ x2, tmp270
 1266              	.LVL114:
 1267              	@ mini3d/render.c:381: 		x1 += dx1;
ARM GAS  /var/folders/cs/83z6p2tj4w57s6p2rt8nwfp00000gn/T//ccDzWS9O.s 			page 34


 381:mini3d/render.c **** 		x2 += dx2;
 1268              		.loc 1 381 6 view .LVU319
 1269 004e 159A     		ldr	r2, [sp, #84]	@ tmp272, dx1
 1270              	.LBB177:
 1271              	.LBB172:
 1272              	@ mini3d/render.c:154: 	if ( endx < 0 || x >= LCD_COLUMNS )
 154:mini3d/render.c **** 		return;
 1273              		.loc 1 154 5 view .LVU320
 1274 0050 0133     		adds	r3, r3, #1	@ _33, tmp191,
 1275              	.LVL115:
 154:mini3d/render.c **** 		return;
 1276              		.loc 1 154 5 view .LVU321
 1277              	.LBE172:
 1278              	.LBE177:
 1279              	@ mini3d/render.c:376: 		uint8_t p = pattern[y%8];
 376:mini3d/render.c **** 		uint32_t color = (p<<24) | (p<<16) | (p<<8) | p;
 1280              		.loc 1 376 24 view .LVU322
 1281 0052 04F0070E 		and	lr, r4, #7	@ tmp200, y,
 1282              	@ mini3d/render.c:381: 		x1 += dx1;
 381:mini3d/render.c **** 		x2 += dx2;
 1283              		.loc 1 381 6 view .LVU323
 1284 0056 1644     		add	r6, r6, r2	@ x1, tmp272
 1285              	.LVL116:
 1286              	.LBB178:
 1287              	.LBB173:
 381:mini3d/render.c **** 		x2 += dx2;
 1288              		.loc 1 381 6 view .LVU324
 1289 0058 374A     		ldr	r2, .L79	@ tmp275,
 1290 005a 01FB0421 		mla	r1, r1, r4, r2	@, tmp274, y, tmp275
 1291 005e 059A     		ldr	r2, [sp, #20]	@ ivtmp.180, %sfp
 1292 0060 1046     		mov	r0, r2	@, ivtmp.180
 1293 0062 4A44     		add	r2, r2, r9	@ ivtmp.180, rowstride
 1294 0064 0592     		str	r2, [sp, #20]	@ ivtmp.180, %sfp
 381:mini3d/render.c **** 		x2 += dx2;
 1295              		.loc 1 381 6 view .LVU325
 1296 0066 6246     		mov	r2, ip	@, _31
 1297              	@ mini3d/render.c:154: 	if ( endx < 0 || x >= LCD_COLUMNS )
 154:mini3d/render.c **** 		return;
 1298              		.loc 1 154 5 view .LVU326
 1299 0068 16D4     		bmi	.L73		@,
 154:mini3d/render.c **** 		return;
 1300              		.loc 1 154 5 view .LVU327
 1301 006a 40F28F15 		movw	r5, #399	@ tmp276,
 1302 006e AC45     		cmp	ip, r5	@ _31, tmp276
 1303 0070 12DC     		bgt	.L73		@,
 1304              	.LBE173:
 1305              	.LBE178:
 1306              	@ mini3d/render.c:377: 		uint32_t color = (p<<24) | (p<<16) | (p<<8) | p;
 377:mini3d/render.c **** 		
 1307              		.loc 1 377 22 view .LVU328
 1308 0072 1B9D     		ldr	r5, [sp, #108]	@ tmp277, pattern
 1309 0074 15F80EE0 		ldrb	lr, [r5, lr]	@ zero_extendqisi2	@ _18, *_17
 1310              	.LBB179:
 1311              	.LBB174:
 1312 0078 1A9D     		ldr	r5, [sp, #104]	@ tmp279, dzdx
 1313              	.LBE174:
 1314              	.LBE179:
ARM GAS  /var/folders/cs/83z6p2tj4w57s6p2rt8nwfp00000gn/T//ccDzWS9O.s 			page 35


 1315              	@ mini3d/render.c:377: 		uint32_t color = (p<<24) | (p<<16) | (p<<8) | p;
 377:mini3d/render.c **** 		
 1316              		.loc 1 377 32 view .LVU329
 1317 007a 4FEA0E4C 		lsl	ip, lr, #16	@ tmp206, _18,
 1318              	.LVL117:
 1319              	.LBB180:
 1320              	.LBB175:
 377:mini3d/render.c **** 		
 1321              		.loc 1 377 32 view .LVU330
 1322 007e CDF80080 		str	r8, [sp]	@ z,
 1323 0082 0195     		str	r5, [sp, #4]	@ tmp279,
 1324              	.LBE175:
 1325              	.LBE180:
 1326              	@ mini3d/render.c:377: 		uint32_t color = (p<<24) | (p<<16) | (p<<8) | p;
 377:mini3d/render.c **** 		
 1327              		.loc 1 377 28 view .LVU331
 1328 0084 4CEA0E6C 		orr	ip, ip, lr, lsl #24	@ tmp207, tmp206, _18,
 1329              	@ mini3d/render.c:377: 		uint32_t color = (p<<24) | (p<<16) | (p<<8) | p;
 377:mini3d/render.c **** 		
 1330              		.loc 1 377 47 view .LVU332
 1331 0088 4CEA0E0C 		orr	ip, ip, lr	@ tmp208, tmp207, _18
 1332 008c 4CEA0E2C 		orr	ip, ip, lr, lsl #8	@ color, tmp208, _18,
 1333              	.LBB181:
 1334              	.LBB176:
 1335 0090 CDF808C0 		str	ip, [sp, #8]	@ color,
 1336 0094 FFF7FEFF 		bl	drawFragment_zbuf.part.0		@
 1337              	.LVL118:
 1338              	.L73:
 377:mini3d/render.c **** 		
 1339              		.loc 1 377 47 view .LVU333
 1340              	.LBE176:
 1341              	.LBE181:
 381:mini3d/render.c **** 		x2 += dx2;
 1342              		.loc 1 381 3 is_stmt 1 view .LVU334
 1343              		.loc 1 382 3 view .LVU335
 383:mini3d/render.c **** 		z += dzdy;
 1344              		.loc 1 383 3 view .LVU336
 1345              	@ mini3d/render.c:384: 		++y;
 384:mini3d/render.c **** 		++y;
 1346              		.loc 1 384 3 is_stmt 0 view .LVU337
 1347 0098 631C     		adds	r3, r4, #1	@ y, y,
 1348              	@ mini3d/render.c:383: 		z += dzdy;
 383:mini3d/render.c **** 		z += dzdy;
 1349              		.loc 1 383 5 view .LVU338
 1350 009a D844     		add	r8, r8, fp	@ z, dzdy
 1351              	.LVL119:
 1352              		.loc 1 384 3 is_stmt 1 view .LVU339
 1353              		.loc 1 384 3 is_stmt 0 view .LVU340
 1354              	.LBE169:
 374:mini3d/render.c **** 	{
 1355              		.loc 1 374 8 is_stmt 1 view .LVU341
 1356 009c 9A45     		cmp	r10, r3	@ endy, y
 1357 009e CED1     		bne	.L75		@,
 1358 00a0 069B     		ldr	r3, [sp, #24]	@ x1, %sfp
 1359              	.LVL120:
 374:mini3d/render.c **** 	{
 1360              		.loc 1 374 8 is_stmt 0 view .LVU342
ARM GAS  /var/folders/cs/83z6p2tj4w57s6p2rt8nwfp00000gn/T//ccDzWS9O.s 			page 36


 1361 00a2 159A     		ldr	r2, [sp, #84]	@ tmp281, dx1
 1362 00a4 1798     		ldr	r0, [sp, #92]	@ tmp286, dx2
 1363 00a6 1344     		add	r3, r3, r2	@ x1, tmp281
 1364 00a8 1946     		mov	r1, r3	@ _123, x1
 1365 00aa 099B     		ldr	r3, [sp, #36]	@ _98, %sfp
 1366 00ac E41A     		subs	r4, r4, r3	@ _119, y, _98
 1367              	.LVL121:
 374:mini3d/render.c **** 	{
 1368              		.loc 1 374 8 view .LVU343
 1369 00ae 079B     		ldr	r3, [sp, #28]	@ x2, %sfp
 1370 00b0 0344     		add	r3, r3, r0	@ x2, tmp286
 1371 00b2 1598     		ldr	r0, [sp, #84]	@ tmp292, dx1
 1372 00b4 1A46     		mov	r2, r3	@ _116, x2
 1373 00b6 04FB0011 		mla	r1, r4, r0, r1	@ x1, _119, tmp292, _123
 1374 00ba 089B     		ldr	r3, [sp, #32]	@ z, %sfp
 1375 00bc 0691     		str	r1, [sp, #24]	@ x1, %sfp
 1376 00be 5B44     		add	r3, r3, fp	@ z, dzdy
 1377 00c0 1799     		ldr	r1, [sp, #92]	@ tmp296, dx2
 1378 00c2 0BFB0433 		mla	r3, fp, r4, r3	@ z, dzdy, _119, _109
 1379 00c6 04FB0122 		mla	r2, r4, r1, r2	@ x2, _119, tmp296, _116
 1380 00ca 0893     		str	r3, [sp, #32]	@ z, %sfp
 1381 00cc 0792     		str	r2, [sp, #28]	@ x2, %sfp
 1382              	.LVL122:
 1383              	.L72:
 385:mini3d/render.c **** 	}
 386:mini3d/render.c **** 	
 387:mini3d/render.c **** 	*x1p = x1;
 1384              		.loc 1 387 2 is_stmt 1 view .LVU344
 1385              	@ mini3d/render.c:387: 	*x1p = x1;
 1386              		.loc 1 387 7 is_stmt 0 view .LVU345
 1387 00ce 149B     		ldr	r3, [sp, #80]	@ tmp301, x1p
 1388 00d0 1A46     		mov	r2, r3	@ tmp301, tmp301
 1389 00d2 069B     		ldr	r3, [sp, #24]	@ x1, %sfp
 1390 00d4 1360     		str	r3, [r2]	@ x1, *x1p_42(D)
 388:mini3d/render.c **** 	*x2p = x2;
 1391              		.loc 1 388 2 is_stmt 1 view .LVU346
 1392              	@ mini3d/render.c:388: 	*x2p = x2;
 1393              		.loc 1 388 7 is_stmt 0 view .LVU347
 1394 00d6 169B     		ldr	r3, [sp, #88]	@ tmp304, x2p
 1395 00d8 1A46     		mov	r2, r3	@ tmp304, tmp304
 1396 00da 079B     		ldr	r3, [sp, #28]	@ x2, %sfp
 1397 00dc 1360     		str	r3, [r2]	@ x2, *x2p_44(D)
 389:mini3d/render.c **** 	*zp = z;
 1398              		.loc 1 389 2 is_stmt 1 view .LVU348
 1399              	@ mini3d/render.c:389: 	*zp = z;
 1400              		.loc 1 389 6 is_stmt 0 view .LVU349
 1401 00de 189B     		ldr	r3, [sp, #96]	@ tmp307, zp
 1402 00e0 1A46     		mov	r2, r3	@ tmp307, tmp307
 1403 00e2 089B     		ldr	r3, [sp, #32]	@ z, %sfp
 1404 00e4 1360     		str	r3, [r2]	@ z, *zp_46(D)
 1405              	@ mini3d/render.c:390: }
 390:mini3d/render.c **** }
 1406              		.loc 1 390 1 view .LVU350
 1407 00e6 0BB0     		add	sp, sp, #44	@,,
 1408              	.LCFI11:
 1409              		.cfi_remember_state
 1410              		.cfi_def_cfa_offset 36
ARM GAS  /var/folders/cs/83z6p2tj4w57s6p2rt8nwfp00000gn/T//ccDzWS9O.s 			page 37


 1411              		@ sp needed	@
 1412 00e8 BDE8F08F 		pop	{r4, r5, r6, r7, r8, r9, r10, fp, pc}	@
 1413              	.LVL123:
 1414              	.L78:
 1415              	.LCFI12:
 1416              		.cfi_restore_state
 368:mini3d/render.c **** 		x2 += -y * dx2;
 1417              		.loc 1 368 3 is_stmt 1 view .LVU351
 1418              	@ mini3d/render.c:368: 		x1 += -y * dx1;
 368:mini3d/render.c **** 		x2 += -y * dx2;
 1419              		.loc 1 368 6 is_stmt 0 view .LVU352
 1420 00ec 069A     		ldr	r2, [sp, #24]	@ x1, %sfp
 1421              	.LVL124:
 368:mini3d/render.c **** 		x2 += -y * dx2;
 1422              		.loc 1 368 6 view .LVU353
 1423 00ee 159B     		ldr	r3, [sp, #84]	@ tmp255, dx1
 1424              	.LVL125:
 368:mini3d/render.c **** 		x2 += -y * dx2;
 1425              		.loc 1 368 6 view .LVU354
 1426 00f0 04FB1323 		mls	r3, r4, r3, r2	@ x1, y, tmp255, x1
 1427              	@ mini3d/render.c:369: 		x2 += -y * dx2;
 369:mini3d/render.c **** 		z += -y * dzdy;
 1428              		.loc 1 369 6 view .LVU355
 1429 00f4 079A     		ldr	r2, [sp, #28]	@ x2, %sfp
 1430              	@ mini3d/render.c:368: 		x1 += -y * dx1;
 368:mini3d/render.c **** 		x2 += -y * dx2;
 1431              		.loc 1 368 6 view .LVU356
 1432 00f6 0693     		str	r3, [sp, #24]	@ x1, %sfp
 1433              	.LVL126:
 369:mini3d/render.c **** 		z += -y * dzdy;
 1434              		.loc 1 369 3 is_stmt 1 view .LVU357
 1435              	@ mini3d/render.c:369: 		x2 += -y * dx2;
 369:mini3d/render.c **** 		z += -y * dzdy;
 1436              		.loc 1 369 6 is_stmt 0 view .LVU358
 1437 00f8 179B     		ldr	r3, [sp, #92]	@ tmp261, dx2
 1438              	.LVL127:
 369:mini3d/render.c **** 		z += -y * dzdy;
 1439              		.loc 1 369 6 view .LVU359
 1440 00fa 04FB1323 		mls	r3, r4, r3, r2	@ x2, y, tmp261, x2
 1441 00fe 0793     		str	r3, [sp, #28]	@ x2, %sfp
 1442              	.LVL128:
 370:mini3d/render.c **** 		y = 0;
 1443              		.loc 1 370 3 is_stmt 1 view .LVU360
 1444              	@ mini3d/render.c:370: 		z += -y * dzdy;
 370:mini3d/render.c **** 		y = 0;
 1445              		.loc 1 370 5 is_stmt 0 view .LVU361
 1446 0100 089B     		ldr	r3, [sp, #32]	@ z, %sfp
 1447              	.LVL129:
 370:mini3d/render.c **** 		y = 0;
 1448              		.loc 1 370 5 view .LVU362
 1449 0102 04FB1B33 		mls	r3, r4, fp, r3	@ z, y, dzdy, z
 1450              	@ mini3d/render.c:371: 		y = 0;
 371:mini3d/render.c **** 	}
 1451              		.loc 1 371 5 view .LVU363
 1452 0106 0024     		movs	r4, #0	@ y,
 1453              	.LVL130:
 1454              	@ mini3d/render.c:370: 		z += -y * dzdy;
ARM GAS  /var/folders/cs/83z6p2tj4w57s6p2rt8nwfp00000gn/T//ccDzWS9O.s 			page 38


 370:mini3d/render.c **** 		y = 0;
 1455              		.loc 1 370 5 view .LVU364
 1456 0108 0893     		str	r3, [sp, #32]	@ z, %sfp
 1457              	.LVL131:
 371:mini3d/render.c **** 	}
 1458              		.loc 1 371 3 is_stmt 1 view .LVU365
 371:mini3d/render.c **** 	}
 1459              		.loc 1 371 3 is_stmt 0 view .LVU366
 1460 010a 8EE7     		b	.L71		@
 1461              	.LVL132:
 1462              	.L77:
 1463              	.LBB182:
 359:mini3d/render.c **** 		*x1p = x1 + dy * dx1;
 1464              		.loc 1 359 3 is_stmt 1 view .LVU367
 1465              	@ mini3d/render.c:359: 		int dy = endy - y;
 359:mini3d/render.c **** 		*x1p = x1 + dy * dx1;
 1466              		.loc 1 359 7 is_stmt 0 view .LVU368
 1467 010c AAEB0404 		sub	r4, r10, r4	@ dy, endy, y
 1468              	.LVL133:
 360:mini3d/render.c **** 		*x2p = x2 + dy * dx2;
 1469              		.loc 1 360 3 is_stmt 1 view .LVU369
 1470              	@ mini3d/render.c:360: 		*x1p = x1 + dy * dx1;
 360:mini3d/render.c **** 		*x2p = x2 + dy * dx2;
 1471              		.loc 1 360 13 is_stmt 0 view .LVU370
 1472 0110 159B     		ldr	r3, [sp, #84]	@ tmp238, dx1
 1473              	.LVL134:
 360:mini3d/render.c **** 		*x2p = x2 + dy * dx2;
 1474              		.loc 1 360 13 view .LVU371
 1475 0112 069A     		ldr	r2, [sp, #24]	@ x1, %sfp
 1476              	.LVL135:
 1477              	@ mini3d/render.c:361: 		*x2p = x2 + dy * dx2;
 361:mini3d/render.c **** 		*zp = z + dy * dzdy;
 1478              		.loc 1 361 13 view .LVU372
 1479 0114 0799     		ldr	r1, [sp, #28]	@ x2, %sfp
 1480              	.LVL136:
 1481              	@ mini3d/render.c:360: 		*x1p = x1 + dy * dx1;
 360:mini3d/render.c **** 		*x2p = x2 + dy * dx2;
 1482              		.loc 1 360 13 view .LVU373
 1483 0116 04FB0322 		mla	r2, r4, r3, r2	@ tmp182, dy, tmp238, x1
 1484              	@ mini3d/render.c:361: 		*x2p = x2 + dy * dx2;
 361:mini3d/render.c **** 		*zp = z + dy * dzdy;
 1485              		.loc 1 361 13 view .LVU374
 1486 011a 179B     		ldr	r3, [sp, #92]	@ tmp242, dx2
 1487 011c 04FB0313 		mla	r3, r4, r3, r1	@ tmp184, dy, tmp242, x2
 1488              	@ mini3d/render.c:362: 		*zp = z + dy * dzdy;
 362:mini3d/render.c **** 		return;
 1489              		.loc 1 362 11 view .LVU375
 1490 0120 0899     		ldr	r1, [sp, #32]	@ z, %sfp
 1491 0122 04FB0B14 		mla	r4, r4, fp, r1	@ tmp186, dy, dzdy, z
 1492              	.LVL137:
 1493              	@ mini3d/render.c:360: 		*x1p = x1 + dy * dx1;
 360:mini3d/render.c **** 		*x2p = x2 + dy * dx2;
 1494              		.loc 1 360 8 view .LVU376
 1495 0126 1499     		ldr	r1, [sp, #80]	@ tmp248, x1p
 1496 0128 0A60     		str	r2, [r1]	@ tmp182, *x1p_42(D)
 1497              	.LVL138:
 361:mini3d/render.c **** 		*zp = z + dy * dzdy;
ARM GAS  /var/folders/cs/83z6p2tj4w57s6p2rt8nwfp00000gn/T//ccDzWS9O.s 			page 39


 1498              		.loc 1 361 3 is_stmt 1 view .LVU377
 1499              	@ mini3d/render.c:361: 		*x2p = x2 + dy * dx2;
 361:mini3d/render.c **** 		*zp = z + dy * dzdy;
 1500              		.loc 1 361 8 is_stmt 0 view .LVU378
 1501 012a 169A     		ldr	r2, [sp, #88]	@ tmp250, x2p
 1502 012c 1360     		str	r3, [r2]	@ tmp184, *x2p_44(D)
 362:mini3d/render.c **** 		return;
 1503              		.loc 1 362 3 is_stmt 1 view .LVU379
 1504              	@ mini3d/render.c:362: 		*zp = z + dy * dzdy;
 362:mini3d/render.c **** 		return;
 1505              		.loc 1 362 7 is_stmt 0 view .LVU380
 1506 012e 189B     		ldr	r3, [sp, #96]	@ tmp252, zp
 1507 0130 1C60     		str	r4, [r3]	@ tmp186, *zp_46(D)
 363:mini3d/render.c **** 	}
 1508              		.loc 1 363 3 is_stmt 1 view .LVU381
 1509              	.LBE182:
 1510              	@ mini3d/render.c:390: }
 1511              		.loc 1 390 1 is_stmt 0 view .LVU382
 1512 0132 0BB0     		add	sp, sp, #44	@,,
 1513              	.LCFI13:
 1514              		.cfi_def_cfa_offset 36
 1515              		@ sp needed	@
 1516 0134 BDE8F08F 		pop	{r4, r5, r6, r7, r8, r9, r10, fp, pc}	@
 1517              	.LVL139:
 1518              	.L80:
 1519              		.loc 1 390 1 view .LVU383
 1520              		.align	2
 1521              	.L79:
 1522 0138 00000000 		.word	zbuf
 1523              		.cfi_endproc
 1524              	.LFE21:
 1525              		.size	fillRange_zbuf, .-fillRange_zbuf
 1526              		.section	.text.resetZBuffer,"ax",%progbits
 1527              		.align	1
 1528              		.p2align 4,,15
 1529              		.global	resetZBuffer
 1530              		.syntax unified
 1531              		.thumb
 1532              		.thumb_func
 1533              		.fpu fpv5-sp-d16
 1534              		.type	resetZBuffer, %function
 1535              	resetZBuffer:
 1536              	.LVL140:
 1537              	.LFB12:
  31:mini3d/render.c **** 	memset(zbuf, 0, sizeof(zbuf));
 1538              		.loc 1 31 1 is_stmt 1 view -0
 1539              		.cfi_startproc
 1540              		@ args = 0, pretend = 0, frame = 0
 1541              		@ frame_needed = 0, uses_anonymous_args = 0
  32:mini3d/render.c **** 	zscale = 0xffff * (zmin + Z_BIAS);
 1542              		.loc 1 32 2 view .LVU385
 1543              	@ mini3d/render.c:31: {
  31:mini3d/render.c **** 	memset(zbuf, 0, sizeof(zbuf));
 1544              		.loc 1 31 1 is_stmt 0 view .LVU386
 1545 0000 08B5     		push	{r3, lr}	@
 1546              	.LCFI14:
 1547              		.cfi_def_cfa_offset 8
ARM GAS  /var/folders/cs/83z6p2tj4w57s6p2rt8nwfp00000gn/T//ccDzWS9O.s 			page 40


 1548              		.cfi_offset 3, -8
 1549              		.cfi_offset 14, -4
 1550              	@ mini3d/render.c:32: 	memset(zbuf, 0, sizeof(zbuf));
  32:mini3d/render.c **** 	zscale = 0xffff * (zmin + Z_BIAS);
 1551              		.loc 1 32 2 view .LVU387
 1552 0002 0B4A     		ldr	r2, .L83	@,
 1553 0004 0021     		movs	r1, #0	@,
 1554 0006 0B48     		ldr	r0, .L83+4	@,
 1555              	@ mini3d/render.c:31: {
  31:mini3d/render.c **** 	memset(zbuf, 0, sizeof(zbuf));
 1556              		.loc 1 31 1 view .LVU388
 1557 0008 2DED028B 		vpush.64	{d8}	@
 1558              	.LCFI15:
 1559              		.cfi_def_cfa_offset 16
 1560              		.cfi_offset 80, -16
 1561              		.cfi_offset 81, -12
 1562              	@ mini3d/render.c:31: {
  31:mini3d/render.c **** 	memset(zbuf, 0, sizeof(zbuf));
 1563              		.loc 1 31 1 view .LVU389
 1564 000c B0EE408A 		vmov.f32	s16, s0	@ zmin, tmp122
 1565              	@ mini3d/render.c:32: 	memset(zbuf, 0, sizeof(zbuf));
  32:mini3d/render.c **** 	zscale = 0xffff * (zmin + Z_BIAS);
 1566              		.loc 1 32 2 view .LVU390
 1567 0010 FFF7FEFF 		bl	memset		@
 1568              	.LVL141:
  33:mini3d/render.c **** }
 1569              		.loc 1 33 2 is_stmt 1 view .LVU391
 1570              	@ mini3d/render.c:33: 	zscale = 0xffff * (zmin + Z_BIAS);
  33:mini3d/render.c **** }
 1571              		.loc 1 33 26 is_stmt 0 view .LVU392
 1572 0014 9FED080A 		vldr.32	s0, .L83+8	@ tmp119,
 1573              	@ mini3d/render.c:33: 	zscale = 0xffff * (zmin + Z_BIAS);
  33:mini3d/render.c **** }
 1574              		.loc 1 33 18 view .LVU393
 1575 0018 DFED087A 		vldr.32	s15, .L83+12	@ tmp121,
 1576              	@ mini3d/render.c:33: 	zscale = 0xffff * (zmin + Z_BIAS);
  33:mini3d/render.c **** }
 1577              		.loc 1 33 26 view .LVU394
 1578 001c 38EE000A 		vadd.f32	s0, s16, s0	@ tmp118, zmin, tmp119
 1579              	@ mini3d/render.c:33: 	zscale = 0xffff * (zmin + Z_BIAS);
  33:mini3d/render.c **** }
 1580              		.loc 1 33 9 view .LVU395
 1581 0020 074B     		ldr	r3, .L83+16	@ tmp117,
 1582              	@ mini3d/render.c:34: }
  34:mini3d/render.c **** #endif
 1583              		.loc 1 34 1 view .LVU396
 1584 0022 BDEC028B 		vldm	sp!, {d8}	@
 1585              	.LCFI16:
 1586              		.cfi_restore 80
 1587              		.cfi_restore 81
 1588              		.cfi_def_cfa_offset 8
 1589              	.LVL142:
 1590              	@ mini3d/render.c:33: 	zscale = 0xffff * (zmin + Z_BIAS);
  33:mini3d/render.c **** }
 1591              		.loc 1 33 18 view .LVU397
 1592 0026 20EE270A 		vmul.f32	s0, s0, s15	@ tmp120, tmp118, tmp121
 1593              	@ mini3d/render.c:33: 	zscale = 0xffff * (zmin + Z_BIAS);
ARM GAS  /var/folders/cs/83z6p2tj4w57s6p2rt8nwfp00000gn/T//ccDzWS9O.s 			page 41


  33:mini3d/render.c **** }
 1594              		.loc 1 33 9 view .LVU398
 1595 002a 83ED000A 		vstr.32	s0, [r3]	@ tmp120, zscale
 1596              	@ mini3d/render.c:34: }
  34:mini3d/render.c **** #endif
 1597              		.loc 1 34 1 view .LVU399
 1598 002e 08BD     		pop	{r3, pc}	@
 1599              	.L84:
 1600              		.align	2
 1601              	.L83:
 1602 0030 00EE0200 		.word	192000
 1603 0034 00000000 		.word	zbuf
 1604 0038 00000000 		.word	0
 1605 003c 00FF7F47 		.word	1199570688
 1606 0040 00000000 		.word	.LANCHOR0
 1607              		.cfi_endproc
 1608              	.LFE12:
 1609              		.size	resetZBuffer, .-resetZBuffer
 1610              		.section	.text.drawLine_zbuf,"ax",%progbits
 1611              		.align	1
 1612              		.p2align 4,,15
 1613              		.global	drawLine_zbuf
 1614              		.syntax unified
 1615              		.thumb
 1616              		.thumb_func
 1617              		.fpu fpv5-sp-d16
 1618              		.type	drawLine_zbuf, %function
 1619              	drawLine_zbuf:
 1620              	.LVL143:
 1621              	.LFB18:
 208:mini3d/render.c **** 	if ( p1->y > p2->y )
 1622              		.loc 1 208 1 is_stmt 1 view -0
 1623              		.cfi_startproc
 1624              		@ args = 8, pretend = 0, frame = 24
 1625              		@ frame_needed = 0, uses_anonymous_args = 0
 1626              	@ mini3d/render.c:209: 	if ( p1->y > p2->y )
 209:mini3d/render.c **** 	{
 1627              		.loc 1 209 9 is_stmt 0 view .LVU401
 1628 0000 92ED017A 		vldr.32	s14, [r2, #4]	@ _1, p1_74(D)->y
 1629              	@ mini3d/render.c:209: 	if ( p1->y > p2->y )
 209:mini3d/render.c **** 	{
 1630              		.loc 1 209 17 view .LVU402
 1631 0004 D3ED017A 		vldr.32	s15, [r3, #4]	@ _2, p2_75(D)->y
 1632              	@ mini3d/render.c:209: 	if ( p1->y > p2->y )
 209:mini3d/render.c **** 	{
 1633              		.loc 1 209 5 view .LVU403
 1634 0008 B4EEE77A 		vcmpe.f32	s14, s15	@ _1, _2
 1635              	@ mini3d/render.c:208: {
 208:mini3d/render.c **** 	if ( p1->y > p2->y )
 1636              		.loc 1 208 1 view .LVU404
 1637 000c 2DE9F04F 		push	{r4, r5, r6, r7, r8, r9, r10, fp, lr}	@
 1638              	.LCFI17:
 1639              		.cfi_def_cfa_offset 36
 1640              		.cfi_offset 4, -36
 1641              		.cfi_offset 5, -32
 1642              		.cfi_offset 6, -28
 1643              		.cfi_offset 7, -24
ARM GAS  /var/folders/cs/83z6p2tj4w57s6p2rt8nwfp00000gn/T//ccDzWS9O.s 			page 42


 1644              		.cfi_offset 8, -20
 1645              		.cfi_offset 9, -16
 1646              		.cfi_offset 10, -12
 1647              		.cfi_offset 11, -8
 1648              		.cfi_offset 14, -4
 1649              	@ mini3d/render.c:209: 	if ( p1->y > p2->y )
 209:mini3d/render.c **** 	{
 1650              		.loc 1 209 5 view .LVU405
 1651 0010 F1EE10FA 		vmrs	APSR_nzcv, FPSCR
 1652              	@ mini3d/render.c:208: {
 208:mini3d/render.c **** 	if ( p1->y > p2->y )
 1653              		.loc 1 208 1 view .LVU406
 1654 0014 8BB0     		sub	sp, sp, #44	@,,
 1655              	.LCFI18:
 1656              		.cfi_def_cfa_offset 80
 1657              	@ mini3d/render.c:208: {
 208:mini3d/render.c **** 	if ( p1->y > p2->y )
 1658              		.loc 1 208 1 view .LVU407
 1659 0016 1746     		mov	r7, r2	@ p1, tmp332
 1660 0018 1E46     		mov	r6, r3	@ p2, tmp333
 209:mini3d/render.c **** 	{
 1661              		.loc 1 209 2 is_stmt 1 view .LVU408
 1662              	@ mini3d/render.c:208: {
 208:mini3d/render.c **** 	if ( p1->y > p2->y )
 1663              		.loc 1 208 1 is_stmt 0 view .LVU409
 1664 001a 8846     		mov	r8, r1	@ rowstride, tmp331
 1665              	@ mini3d/render.c:209: 	if ( p1->y > p2->y )
 209:mini3d/render.c **** 	{
 1666              		.loc 1 209 5 view .LVU410
 1667 001c 07DD     		ble	.L86		@,
 1668 001e F0EE476A 		vmov.f32	s13, s14	@ _1, _1
 1669 0022 3746     		mov	r7, r6	@ p1, p2
 1670 0024 B0EE677A 		vmov.f32	s14, s15	@ _1, _2
 1671 0028 1646     		mov	r6, r2	@ p2, p1
 1672 002a F0EE667A 		vmov.f32	s15, s13	@ _2, _1
 1673              	.L86:
 1674              	.LVL144:
 216:mini3d/render.c **** 	int endy = p2->y;
 1675              		.loc 1 216 2 is_stmt 1 view .LVU411
 1676              	@ mini3d/render.c:216: 	int y = p1->y;
 216:mini3d/render.c **** 	int endy = p2->y;
 1677              		.loc 1 216 6 is_stmt 0 view .LVU412
 1678 002e FDEEC76A 		vcvt.s32.f32	s13, s14	@ y, _1
 1679 0032 16EE904A 		vmov	r4, s13	@ int	@ y, y
 1680              	.LVL145:
 217:mini3d/render.c **** 	
 1681              		.loc 1 217 2 is_stmt 1 view .LVU413
 1682              	@ mini3d/render.c:217: 	int endy = p2->y;
 217:mini3d/render.c **** 	
 1683              		.loc 1 217 6 is_stmt 0 view .LVU414
 1684 0036 FDEEE76A 		vcvt.s32.f32	s13, s15	@ endy, _2
 1685              	@ mini3d/render.c:219: 	if ( y >= LCD_ROWS || endy < 0 || MIN(p1->x, p2->x) >= LCD_COLUMNS || MAX(p
 219:mini3d/render.c **** 		return (LCDRowRange){ 0, 0 };
 1686              		.loc 1 219 5 view .LVU415
 1687 003a EF2C     		cmp	r4, #239	@ y,
 1688              	@ mini3d/render.c:217: 	int endy = p2->y;
 217:mini3d/render.c **** 	
ARM GAS  /var/folders/cs/83z6p2tj4w57s6p2rt8nwfp00000gn/T//ccDzWS9O.s 			page 43


 1689              		.loc 1 217 6 view .LVU416
 1690 003c 16EE901A 		vmov	r1, s13	@ int	@ endy, endy
 1691              	.LVL146:
 219:mini3d/render.c **** 		return (LCDRowRange){ 0, 0 };
 1692              		.loc 1 219 2 is_stmt 1 view .LVU417
 1693              	@ mini3d/render.c:219: 	if ( y >= LCD_ROWS || endy < 0 || MIN(p1->x, p2->x) >= LCD_COLUMNS || MAX(p
 219:mini3d/render.c **** 		return (LCDRowRange){ 0, 0 };
 1694              		.loc 1 219 5 is_stmt 0 view .LVU418
 1695 0040 00F31681 		bgt	.L88		@,
 1696 0044 0029     		cmp	r1, #0	@ endy,
 1697 0046 C0F21381 		blt	.L88		@,
 1698              	@ mini3d/render.c:219: 	if ( y >= LCD_ROWS || endy < 0 || MIN(p1->x, p2->x) >= LCD_COLUMNS || MAX(p
 219:mini3d/render.c **** 		return (LCDRowRange){ 0, 0 };
 1699              		.loc 1 219 36 discriminator 1 view .LVU419
 1700 004a 97ED006A 		vldr.32	s12, [r7]	@ _8, p1_58->x
 1701 004e D6ED006A 		vldr.32	s13, [r6]	@ _9, p2_59->x
 1702              	@ mini3d/render.c:219: 	if ( y >= LCD_ROWS || endy < 0 || MIN(p1->x, p2->x) >= LCD_COLUMNS || MAX(p
 219:mini3d/render.c **** 		return (LCDRowRange){ 0, 0 };
 1703              		.loc 1 219 33 discriminator 1 view .LVU420
 1704 0052 DFEDA55A 		vldr.32	s11, .L145	@ tmp220,
 1705              	@ mini3d/render.c:219: 	if ( y >= LCD_ROWS || endy < 0 || MIN(p1->x, p2->x) >= LCD_COLUMNS || MAX(p
 219:mini3d/render.c **** 		return (LCDRowRange){ 0, 0 };
 1706              		.loc 1 219 5 discriminator 1 view .LVU421
 1707 0056 B4EEE66A 		vcmpe.f32	s12, s13	@ _8, _9
 1708 005a F1EE10FA 		vmrs	APSR_nzcv, FPSCR
 1709 005e 00F10181 		bmi	.L140		@,
 1710              	@ mini3d/render.c:219: 	if ( y >= LCD_ROWS || endy < 0 || MIN(p1->x, p2->x) >= LCD_COLUMNS || MAX(p
 219:mini3d/render.c **** 		return (LCDRowRange){ 0, 0 };
 1711              		.loc 1 219 54 discriminator 3 view .LVU422
 1712 0062 F4EEE56A 		vcmpe.f32	s13, s11	@ _9, tmp221
 1713 0066 F1EE10FA 		vmrs	APSR_nzcv, FPSCR
 1714 006a 80F20181 		bge	.L88		@,
 1715              	.L91:
 1716              	@ mini3d/render.c:219: 	if ( y >= LCD_ROWS || endy < 0 || MIN(p1->x, p2->x) >= LCD_COLUMNS || MAX(p
 219:mini3d/render.c **** 		return (LCDRowRange){ 0, 0 };
 1717              		.loc 1 219 5 discriminator 4 view .LVU423
 1718 006e B4EEE66A 		vcmpe.f32	s12, s13	@ _8, _9
 1719 0072 F1EE10FA 		vmrs	APSR_nzcv, FPSCR
 1720 0076 40F30981 		ble	.L133		@,
 1721              	@ mini3d/render.c:219: 	if ( y >= LCD_ROWS || endy < 0 || MIN(p1->x, p2->x) >= LCD_COLUMNS || MAX(p
 219:mini3d/render.c **** 		return (LCDRowRange){ 0, 0 };
 1722              		.loc 1 219 69 discriminator 5 view .LVU424
 1723 007a B5EEC06A 		vcmpe.f32	s12, #0	@ _8
 1724 007e F1EE10FA 		vmrs	APSR_nzcv, FPSCR
 1725 0082 00F1F580 		bmi	.L88		@,
 1726              	.L94:
 222:mini3d/render.c **** 	int32_t dx = slope(p1->x, p1->y, p2->x, p2->y + 1);
 1727              		.loc 1 222 2 is_stmt 1 view .LVU425
 1728              	@ mini3d/render.c:223: 	int32_t dx = slope(p1->x, p1->y, p2->x, p2->y + 1);
 223:mini3d/render.c **** 	
 1729              		.loc 1 223 15 is_stmt 0 view .LVU426
 1730 0086 F7EE005A 		vmov.f32	s11, #1.0e+0	@ tmp228,
 1731              	@ mini3d/render.c:222: 	int32_t x = p1->x * (1<<16);
 222:mini3d/render.c **** 	int32_t dx = slope(p1->x, p1->y, p2->x, p2->y + 1);
 1732              		.loc 1 222 10 view .LVU427
 1733 008a B0EE465A 		vmov.f32	s10, s12	@ x, _8
 1734              	.LBB183:
ARM GAS  /var/folders/cs/83z6p2tj4w57s6p2rt8nwfp00000gn/T//ccDzWS9O.s 			page 44


 1735              	.LBB184:
 1736              	@ mini3d/render.c:196: 	float dx = x2-x1;
 196:mini3d/render.c **** 	float dy = y2-y1;
 1737              		.loc 1 196 8 view .LVU428
 1738 008e 76EEC66A 		vsub.f32	s13, s13, s12	@ dx, _9, _8
 1739              	.LBE184:
 1740              	.LBE183:
 1741              	@ mini3d/render.c:223: 	int32_t dx = slope(p1->x, p1->y, p2->x, p2->y + 1);
 223:mini3d/render.c **** 	
 1742              		.loc 1 223 15 view .LVU429
 1743 0092 77EEA57A 		vadd.f32	s15, s15, s11	@ tmp227, _2, tmp228
 1744              	@ mini3d/render.c:222: 	int32_t x = p1->x * (1<<16);
 222:mini3d/render.c **** 	int32_t dx = slope(p1->x, p1->y, p2->x, p2->y + 1);
 1745              		.loc 1 222 10 view .LVU430
 1746 0096 BEEEC85A 		vcvt.s32.f32	s10, s10, #16	@ x, x,
 1747              	.LBB188:
 1748              	.LBB185:
 1749              	@ mini3d/render.c:197: 	float dy = y2-y1;
 197:mini3d/render.c **** 	
 1750              		.loc 1 197 8 view .LVU431
 1751 009a 77EEC77A 		vsub.f32	s15, s15, s14	@ dy, tmp227, _1
 1752              	.LBE185:
 1753              	.LBE188:
 1754              	@ mini3d/render.c:222: 	int32_t x = p1->x * (1<<16);
 222:mini3d/render.c **** 	int32_t dx = slope(p1->x, p1->y, p2->x, p2->y + 1);
 1755              		.loc 1 222 10 view .LVU432
 1756 009e 15EE103A 		vmov	r3, s10	@ int	@ x, x
 1757              	.LVL147:
 223:mini3d/render.c **** 	
 1758              		.loc 1 223 2 is_stmt 1 view .LVU433
 1759              	.LBB189:
 1760              	.LBI183:
 194:mini3d/render.c **** {
 1761              		.loc 1 194 23 view .LVU434
 1762              	.LBB186:
 196:mini3d/render.c **** 	float dy = y2-y1;
 1763              		.loc 1 196 2 view .LVU435
 197:mini3d/render.c **** 	
 1764              		.loc 1 197 2 view .LVU436
 199:mini3d/render.c **** 		return dx * (1<<16);
 1765              		.loc 1 199 2 view .LVU437
 1766              	@ mini3d/render.c:199: 	if ( dy < 1 )
 199:mini3d/render.c **** 		return dx * (1<<16);
 1767              		.loc 1 199 5 is_stmt 0 view .LVU438
 1768 00a2 F4EEE57A 		vcmpe.f32	s15, s11	@ dy, tmp228
 1769 00a6 F1EE10FA 		vmrs	APSR_nzcv, FPSCR
 1770 00aa 00F1F680 		bmi	.L141		@,
 202:mini3d/render.c **** }
 1771              		.loc 1 202 3 is_stmt 1 view .LVU439
 1772              	@ mini3d/render.c:202: 		return dx / dy * (1<<16);
 202:mini3d/render.c **** }
 1773              		.loc 1 202 13 is_stmt 0 view .LVU440
 1774 00ae 86EEA77A 		vdiv.f32	s14, s13, s15	@ tmp232, dx, dy
 1775              	@ mini3d/render.c:202: 		return dx / dy * (1<<16);
 202:mini3d/render.c **** }
 1776              		.loc 1 202 18 view .LVU441
 1777 00b2 B0EE476A 		vmov.f32	s12, s14	@ _109, tmp232
ARM GAS  /var/folders/cs/83z6p2tj4w57s6p2rt8nwfp00000gn/T//ccDzWS9O.s 			page 45


 1778              	.LVL148:
 202:mini3d/render.c **** }
 1779              		.loc 1 202 18 view .LVU442
 1780 00b6 BEEEC86A 		vcvt.s32.f32	s12, s12, #16	@ _109, _109,
 1781 00ba 16EE109A 		vmov	r9, s12	@ int	@ _109, _109
 1782              	.L99:
 1783              	.LVL149:
 202:mini3d/render.c **** }
 1784              		.loc 1 202 18 view .LVU443
 1785              	.LBE186:
 1786              	.LBE189:
 226:mini3d/render.c **** 	float z2 = zscale / (p2->z + Z_BIAS) + 256;
 1787              		.loc 1 226 2 is_stmt 1 view .LVU444
 1788              	@ mini3d/render.c:226: 	float z1 = zscale / (p1->z + Z_BIAS) + 256;
 226:mini3d/render.c **** 	float z2 = zscale / (p2->z + Z_BIAS) + 256;
 1789              		.loc 1 226 29 is_stmt 0 view .LVU445
 1790 00be 9FED8B7A 		vldr.32	s14, .L145+4	@ tmp238,
 1791 00c2 97ED026A 		vldr.32	s12, [r7, #8]	@ p1_58->z, p1_58->z
 1792              	@ mini3d/render.c:226: 	float z1 = zscale / (p1->z + Z_BIAS) + 256;
 226:mini3d/render.c **** 	float z2 = zscale / (p2->z + Z_BIAS) + 256;
 1793              		.loc 1 226 20 view .LVU446
 1794 00c6 8A4A     		ldr	r2, .L145+8	@ tmp235,
 1795              	@ mini3d/render.c:226: 	float z1 = zscale / (p1->z + Z_BIAS) + 256;
 226:mini3d/render.c **** 	float z2 = zscale / (p2->z + Z_BIAS) + 256;
 1796              		.loc 1 226 29 view .LVU447
 1797 00c8 36EE076A 		vadd.f32	s12, s12, s14	@ tmp236, p1_58->z, tmp238
 1798              	@ mini3d/render.c:227: 	float z2 = zscale / (p2->z + Z_BIAS) + 256;
 227:mini3d/render.c **** 
 1799              		.loc 1 227 29 view .LVU448
 1800 00cc D6ED025A 		vldr.32	s11, [r6, #8]	@ p2_59->z, p2_59->z
 1801              	@ mini3d/render.c:226: 	float z1 = zscale / (p1->z + Z_BIAS) + 256;
 226:mini3d/render.c **** 	float z2 = zscale / (p2->z + Z_BIAS) + 256;
 1802              		.loc 1 226 20 view .LVU449
 1803 00d0 D2ED004A 		vldr.32	s9, [r2]	@ zscale.0_12, zscale
 1804              	@ mini3d/render.c:227: 	float z2 = zscale / (p2->z + Z_BIAS) + 256;
 227:mini3d/render.c **** 
 1805              		.loc 1 227 29 view .LVU450
 1806 00d4 75EE875A 		vadd.f32	s11, s11, s14	@ tmp241, p2_59->z, tmp238
 1807              	@ mini3d/render.c:226: 	float z1 = zscale / (p1->z + Z_BIAS) + 256;
 226:mini3d/render.c **** 	float z2 = zscale / (p2->z + Z_BIAS) + 256;
 1808              		.loc 1 226 8 view .LVU451
 1809 00d8 9FED865A 		vldr.32	s10, .L145+12	@ tmp240,
 1810              	@ mini3d/render.c:226: 	float z1 = zscale / (p1->z + Z_BIAS) + 256;
 226:mini3d/render.c **** 	float z2 = zscale / (p2->z + Z_BIAS) + 256;
 1811              		.loc 1 226 20 view .LVU452
 1812 00dc 84EE867A 		vdiv.f32	s14, s9, s12	@ tmp239, zscale.0_12, tmp236
 1813              	@ mini3d/render.c:229: 	if ( z1 > 65535 ) z1 = 65535;
 229:mini3d/render.c **** 	if ( z2 > 65535 ) z2 = 65535;
 1814              		.loc 1 229 5 view .LVU453
 1815 00e0 9FED854A 		vldr.32	s8, .L145+16	@ tmp246,
 1816              	@ mini3d/render.c:227: 	float z2 = zscale / (p2->z + Z_BIAS) + 256;
 227:mini3d/render.c **** 
 1817              		.loc 1 227 20 view .LVU454
 1818 00e4 84EEA56A 		vdiv.f32	s12, s9, s11	@ tmp244, zscale.0_12, tmp241
 1819              	@ mini3d/render.c:226: 	float z1 = zscale / (p1->z + Z_BIAS) + 256;
 226:mini3d/render.c **** 	float z2 = zscale / (p2->z + Z_BIAS) + 256;
 1820              		.loc 1 226 8 view .LVU455
ARM GAS  /var/folders/cs/83z6p2tj4w57s6p2rt8nwfp00000gn/T//ccDzWS9O.s 			page 46


 1821 00e8 77EE055A 		vadd.f32	s11, s14, s10	@ z1, tmp239, tmp240
 1822              	.LVL150:
 227:mini3d/render.c **** 
 1823              		.loc 1 227 2 is_stmt 1 view .LVU456
 1824              	@ mini3d/render.c:229: 	if ( z1 > 65535 ) z1 = 65535;
 229:mini3d/render.c **** 	if ( z2 > 65535 ) z2 = 65535;
 1825              		.loc 1 229 5 is_stmt 0 view .LVU457
 1826 00ec F4EEC45A 		vcmpe.f32	s11, s8	@ z1, tmp246
 1827              	@ mini3d/render.c:227: 	float z2 = zscale / (p2->z + Z_BIAS) + 256;
 227:mini3d/render.c **** 
 1828              		.loc 1 227 8 view .LVU458
 1829 00f0 36EE057A 		vadd.f32	s14, s12, s10	@ z2, tmp244, tmp240
 1830              	.LVL151:
 229:mini3d/render.c **** 	if ( z2 > 65535 ) z2 = 65535;
 1831              		.loc 1 229 2 is_stmt 1 view .LVU459
 1832              	@ mini3d/render.c:229: 	if ( z1 > 65535 ) z1 = 65535;
 229:mini3d/render.c **** 	if ( z2 > 65535 ) z2 = 65535;
 1833              		.loc 1 229 5 is_stmt 0 view .LVU460
 1834 00f4 F1EE10FA 		vmrs	APSR_nzcv, FPSCR
 1835 00f8 00F3DF80 		bgt	.L121		@,
 1836 00fc 9FED7F6A 		vldr.32	s12, .L145+20	@ tmp248,
 1837 0100 25EE866A 		vmul.f32	s12, s11, s12	@ tmp247, z1, tmp248
 1838 0104 BCEEC66A 		vcvt.u32.f32	s12, s12	@ z, tmp247
 1839 0108 16EE105A 		vmov	r5, s12	@ int	@ z, z
 1840              	.LVL152:
 1841              	.L100:
 230:mini3d/render.c **** 
 1842              		.loc 1 230 2 is_stmt 1 view .LVU461
 1843              	@ mini3d/render.c:230: 	if ( z2 > 65535 ) z2 = 65535;
 230:mini3d/render.c **** 
 1844              		.loc 1 230 5 is_stmt 0 view .LVU462
 1845 010c 9FED7A6A 		vldr.32	s12, .L145+16	@ tmp249,
 1846              	.LBB190:
 1847              	.LBB191:
 1848              	@ mini3d/render.c:199: 	if ( dy < 1 )
 199:mini3d/render.c **** 		return dx * (1<<16);
 1849              		.loc 1 199 5 view .LVU463
 1850 0110 B7EE005A 		vmov.f32	s10, #1.0e+0	@ tmp250,
 1851              	.LBE191:
 1852              	.LBE190:
 1853              	@ mini3d/render.c:230: 	if ( z2 > 65535 ) z2 = 65535;
 230:mini3d/render.c **** 
 1854              		.loc 1 230 23 view .LVU464
 1855 0114 B4EE467A 		vcmp.f32	s14, s12	@ z2, tmp249
 1856 0118 F1EE10FA 		vmrs	APSR_nzcv, FPSCR
 1857              	.LBB195:
 1858              	.LBB192:
 1859              	@ mini3d/render.c:199: 	if ( dy < 1 )
 199:mini3d/render.c **** 		return dx * (1<<16);
 1860              		.loc 1 199 5 view .LVU465
 1861 011c F4EEC57A 		vcmpe.f32	s15, s10	@ dy, tmp250
 1862              	.LBE192:
 1863              	.LBE195:
 1864              	@ mini3d/render.c:230: 	if ( z2 > 65535 ) z2 = 65535;
 230:mini3d/render.c **** 
 1865              		.loc 1 230 23 view .LVU466
 1866 0120 36FE077A 		vselgt.f32	s14, s12, s14	@, z2, tmp249, z2
ARM GAS  /var/folders/cs/83z6p2tj4w57s6p2rt8nwfp00000gn/T//ccDzWS9O.s 			page 47


 1867              	.LVL153:
 232:mini3d/render.c **** 	int32_t dzdx = slope(z1, p1->x, z2, p2->x);
 1868              		.loc 1 232 2 is_stmt 1 view .LVU467
 1869              	.LBB196:
 1870              	.LBI190:
 194:mini3d/render.c **** {
 1871              		.loc 1 194 23 view .LVU468
 1872              	.LBB193:
 196:mini3d/render.c **** 	float dy = y2-y1;
 1873              		.loc 1 196 2 view .LVU469
 1874              	@ mini3d/render.c:196: 	float dx = x2-x1;
 196:mini3d/render.c **** 	float dy = y2-y1;
 1875              		.loc 1 196 8 is_stmt 0 view .LVU470
 1876 0124 37EE657A 		vsub.f32	s14, s14, s11	@ dx, z2, z1
 1877              	.LVL154:
 197:mini3d/render.c **** 	
 1878              		.loc 1 197 2 is_stmt 1 view .LVU471
 199:mini3d/render.c **** 		return dx * (1<<16);
 1879              		.loc 1 199 2 view .LVU472
 1880              	@ mini3d/render.c:199: 	if ( dy < 1 )
 199:mini3d/render.c **** 		return dx * (1<<16);
 1881              		.loc 1 199 5 is_stmt 0 view .LVU473
 1882 0128 F1EE10FA 		vmrs	APSR_nzcv, FPSCR
 1883 012c 00F1D480 		bmi	.L142		@,
 202:mini3d/render.c **** }
 1884              		.loc 1 202 3 is_stmt 1 view .LVU474
 1885              	@ mini3d/render.c:202: 		return dx / dy * (1<<16);
 202:mini3d/render.c **** }
 1886              		.loc 1 202 13 is_stmt 0 view .LVU475
 1887 0130 87EE276A 		vdiv.f32	s12, s14, s15	@ tmp253, dx, dy
 1888              	@ mini3d/render.c:202: 		return dx / dy * (1<<16);
 202:mini3d/render.c **** }
 1889              		.loc 1 202 18 view .LVU476
 1890 0134 F0EE467A 		vmov.f32	s15, s12	@ _122, tmp253
 1891              	.LVL155:
 202:mini3d/render.c **** }
 1892              		.loc 1 202 18 view .LVU477
 1893 0138 FEEEC87A 		vcvt.s32.f32	s15, s15, #16	@ _122, _122,
 1894 013c CDED057A 		vstr.32	s15, [sp, #20]	@ int	@ _122, %sfp
 1895              	.L105:
 1896              	.LVL156:
 202:mini3d/render.c **** }
 1897              		.loc 1 202 18 view .LVU478
 1898              	.LBE193:
 1899              	.LBE196:
 233:mini3d/render.c **** 
 1900              		.loc 1 233 2 is_stmt 1 view .LVU479
 1901              	.LBB197:
 1902              	.LBI197:
 194:mini3d/render.c **** {
 1903              		.loc 1 194 23 view .LVU480
 1904              	.LBB198:
 196:mini3d/render.c **** 	float dy = y2-y1;
 1905              		.loc 1 196 2 view .LVU481
 197:mini3d/render.c **** 	
 1906              		.loc 1 197 2 view .LVU482
 199:mini3d/render.c **** 		return dx * (1<<16);
ARM GAS  /var/folders/cs/83z6p2tj4w57s6p2rt8nwfp00000gn/T//ccDzWS9O.s 			page 48


 1907              		.loc 1 199 2 view .LVU483
 1908              	@ mini3d/render.c:199: 	if ( dy < 1 )
 199:mini3d/render.c **** 		return dx * (1<<16);
 1909              		.loc 1 199 5 is_stmt 0 view .LVU484
 1910 0140 F7EE007A 		vmov.f32	s15, #1.0e+0	@ tmp256,
 1911 0144 F4EEE76A 		vcmpe.f32	s13, s15	@ dx, tmp256
 1912 0148 F1EE10FA 		vmrs	APSR_nzcv, FPSCR
 1913 014c 00F1BD80 		bmi	.L143		@,
 202:mini3d/render.c **** }
 1914              		.loc 1 202 3 is_stmt 1 view .LVU485
 1915              	@ mini3d/render.c:202: 		return dx / dy * (1<<16);
 202:mini3d/render.c **** }
 1916              		.loc 1 202 13 is_stmt 0 view .LVU486
 1917 0150 C7EE267A 		vdiv.f32	s15, s14, s13	@ tmp259, dx, dx
 1918              	@ mini3d/render.c:202: 		return dx / dy * (1<<16);
 202:mini3d/render.c **** }
 1919              		.loc 1 202 18 view .LVU487
 1920 0154 B0EE677A 		vmov.f32	s14, s15	@ _115, tmp259
 1921              	.LVL157:
 202:mini3d/render.c **** }
 1922              		.loc 1 202 18 view .LVU488
 1923 0158 BEEEC87A 		vcvt.s32.f32	s14, s14, #16	@ _115, _115,
 1924 015c 8DED067A 		vstr.32	s14, [sp, #24]	@ int	@ _115, %sfp
 1925              	.L108:
 1926              	.LVL158:
 202:mini3d/render.c **** }
 1927              		.loc 1 202 18 view .LVU489
 1928              	.LBE198:
 1929              	.LBE197:
 235:mini3d/render.c **** 
 1930              		.loc 1 235 2 is_stmt 1 view .LVU490
 237:mini3d/render.c **** 	{
 1931              		.loc 1 237 2 view .LVU491
 1932              	@ mini3d/render.c:237: 	if ( y < 0 )
 237:mini3d/render.c **** 	{
 1933              		.loc 1 237 5 is_stmt 0 view .LVU492
 1934 0160 002C     		cmp	r4, #0	@ y,
 1935 0162 05DA     		bge	.L109		@,
 239:mini3d/render.c **** 		z += -y * dzdy;
 1936              		.loc 1 239 3 is_stmt 1 view .LVU493
 1937              	@ mini3d/render.c:240: 		z += -y * dzdy;
 240:mini3d/render.c **** 		y = 0;
 1938              		.loc 1 240 5 is_stmt 0 view .LVU494
 1939 0164 059A     		ldr	r2, [sp, #20]	@ _122, %sfp
 1940              	@ mini3d/render.c:239: 		x += -y * dx;
 239:mini3d/render.c **** 		z += -y * dzdy;
 1941              		.loc 1 239 5 view .LVU495
 1942 0166 04FB1933 		mls	r3, r4, r9, r3	@ x, y, _109, x
 1943              	.LVL159:
 240:mini3d/render.c **** 		y = 0;
 1944              		.loc 1 240 3 is_stmt 1 view .LVU496
 1945              	@ mini3d/render.c:240: 		z += -y * dzdy;
 240:mini3d/render.c **** 		y = 0;
 1946              		.loc 1 240 5 is_stmt 0 view .LVU497
 1947 016a 04FB1255 		mls	r5, r4, r2, r5	@ z, y, _122, z
 1948              	.LVL160:
 241:mini3d/render.c **** 	}
ARM GAS  /var/folders/cs/83z6p2tj4w57s6p2rt8nwfp00000gn/T//ccDzWS9O.s 			page 49


 1949              		.loc 1 241 3 is_stmt 1 view .LVU498
 1950              	@ mini3d/render.c:241: 		y = 0;
 241:mini3d/render.c **** 	}
 1951              		.loc 1 241 5 is_stmt 0 view .LVU499
 1952 016e 0024     		movs	r4, #0	@ y,
 1953              	.LVL161:
 1954              	.L109:
 241:mini3d/render.c **** 	}
 1955              		.loc 1 241 5 view .LVU500
 1956 0170 08FB040B 		mla	fp, r8, r4, r0	@ ivtmp.189, rowstride, y, bitmap
 1957 0174 8A46     		mov	r10, r1	@ endy, endy
 1958 0176 0797     		str	r7, [sp, #28]	@ p1, %sfp
 1959 0178 5F46     		mov	r7, fp	@ ivtmp.189, ivtmp.189
 1960              	.LVL162:
 241:mini3d/render.c **** 	}
 1961              		.loc 1 241 5 view .LVU501
 1962 017a 1BE0     		b	.L110		@
 1963              	.LVL163:
 1964              	.L113:
 1965              	.LBB200:
 257:mini3d/render.c **** 			z += dzdy;
 1966              		.loc 1 257 4 is_stmt 1 view .LVU502
 1967              	@ mini3d/render.c:257: 			drawFragment_zbuf((uint32_t*)&bitmap[y*rowstride], &zbuf[y*LCD_COLUMNS], 
 257:mini3d/render.c **** 			z += dzdy;
 1968              		.loc 1 257 78 is_stmt 0 view .LVU503
 1969 017c 1A14     		asrs	r2, r3, #16	@ _52, x,
 1970              	.LVL164:
 1971              	.LBB201:
 1972              	.LBI201:
 152:mini3d/render.c **** {
 1973              		.loc 1 152 1 is_stmt 1 view .LVU504
 1974              	.LBB202:
 154:mini3d/render.c **** 		return;
 1975              		.loc 1 154 2 view .LVU505
 1976              	@ mini3d/render.c:154: 	if ( endx < 0 || x >= LCD_COLUMNS )
 154:mini3d/render.c **** 		return;
 1977              		.loc 1 154 5 is_stmt 0 view .LVU506
 1978 017e 149B     		ldr	r3, [sp, #80]	@ tmp374, thick
 1979              	.LVL165:
 154:mini3d/render.c **** 		return;
 1980              		.loc 1 154 5 view .LVU507
 1981 0180 13EB2B43 		adds	r3, r3, fp, asr #16	@, _54, tmp374, iftmp.2_66,
 1982              	.LVL166:
 154:mini3d/render.c **** 		return;
 1983              		.loc 1 154 5 view .LVU508
 1984 0184 0FD4     		bmi	.L115		@,
 154:mini3d/render.c **** 		return;
 1985              		.loc 1 154 5 view .LVU509
 1986 0186 40F28F10 		movw	r0, #399	@ tmp376,
 1987 018a 8242     		cmp	r2, r0	@ _52, tmp376
 1988 018c 0BDC     		bgt	.L115		@,
 1989 018e 0291     		str	r1, [sp, #8]	@ color,
 1990              	.LVL167:
 154:mini3d/render.c **** 		return;
 1991              		.loc 1 154 5 view .LVU510
 1992 0190 4FF4487C 		mov	ip, #800	@ tmp299,
 1993 0194 0699     		ldr	r1, [sp, #24]	@ _115, %sfp
ARM GAS  /var/folders/cs/83z6p2tj4w57s6p2rt8nwfp00000gn/T//ccDzWS9O.s 			page 50


 1994              	.LVL168:
 154:mini3d/render.c **** 		return;
 1995              		.loc 1 154 5 view .LVU511
 1996 0196 3846     		mov	r0, r7	@, ivtmp.189
 1997 0198 CDE90051 		strd	r5, r1, [sp]	@ z, _115,
 1998 019c 5849     		ldr	r1, .L145+24	@ tmp378,
 1999 019e 0CFB0411 		mla	r1, ip, r4, r1	@, tmp299, y, tmp378
 2000 01a2 FFF7FEFF 		bl	drawFragment_zbuf.part.0		@
 2001              	.LVL169:
 2002              	.L115:
 154:mini3d/render.c **** 		return;
 2003              		.loc 1 154 5 view .LVU512
 2004              	.LBE202:
 2005              	.LBE201:
 258:mini3d/render.c **** 		}
 2006              		.loc 1 258 4 is_stmt 1 view .LVU513
 2007              	@ mini3d/render.c:258: 			z += dzdy;
 258:mini3d/render.c **** 		}
 2008              		.loc 1 258 6 is_stmt 0 view .LVU514
 2009 01a6 059B     		ldr	r3, [sp, #20]	@ _122, %sfp
 2010 01a8 1D44     		add	r5, r5, r3	@ z, _122
 2011              	.LVL170:
 2012              	.L114:
 261:mini3d/render.c **** 			break;
 2013              		.loc 1 261 3 is_stmt 1 view .LVU515
 2014              	@ mini3d/render.c:261: 		if ( ++y == LCD_ROWS )
 261:mini3d/render.c **** 			break;
 2015              		.loc 1 261 6 is_stmt 0 view .LVU516
 2016 01aa 0134     		adds	r4, r4, #1	@ y, y,
 2017              	.LVL171:
 261:mini3d/render.c **** 			break;
 2018              		.loc 1 261 6 view .LVU517
 2019 01ac 4744     		add	r7, r7, r8	@ ivtmp.189, rowstride
 2020 01ae F02C     		cmp	r4, #240	@ y,
 2021 01b0 38D0     		beq	.L139		@,
 2022              	.L122:
 261:mini3d/render.c **** 			break;
 2023              		.loc 1 261 6 view .LVU518
 2024 01b2 5B46     		mov	r3, fp	@ x, iftmp.2_66
 2025              	.LVL172:
 2026              	.L110:
 261:mini3d/render.c **** 			break;
 2027              		.loc 1 261 6 view .LVU519
 2028              	.LBE200:
 244:mini3d/render.c **** 	{
 2029              		.loc 1 244 8 is_stmt 1 view .LVU520
 2030 01b4 5445     		cmp	r4, r10	@ y, endy
 2031 01b6 35DC     		bgt	.L139		@,
 2032              	.LBB211:
 246:mini3d/render.c **** 		uint32_t color = (p<<24) | (p<<16) | (p<<8) | p;
 2033              		.loc 1 246 3 view .LVU521
 2034              	.LVL173:
 247:mini3d/render.c **** 		int32_t x1 = (y < endy) ? x+dx : p2->x * (1<<16);
 2035              		.loc 1 247 3 view .LVU522
 2036              	@ mini3d/render.c:247: 		uint32_t color = (p<<24) | (p<<16) | (p<<8) | p;
 247:mini3d/render.c **** 		int32_t x1 = (y < endy) ? x+dx : p2->x * (1<<16);
 2037              		.loc 1 247 22 is_stmt 0 view .LVU523
ARM GAS  /var/folders/cs/83z6p2tj4w57s6p2rt8nwfp00000gn/T//ccDzWS9O.s 			page 51


 2038 01b8 1599     		ldr	r1, [sp, #84]	@ tmp362, pattern
 2039              	@ mini3d/render.c:246: 		uint8_t p = pattern[y%8];
 246:mini3d/render.c **** 		uint32_t color = (p<<24) | (p<<16) | (p<<8) | p;
 2040              		.loc 1 246 24 view .LVU524
 2041 01ba 04F00702 		and	r2, r4, #7	@ tmp265, y,
 2042              	@ mini3d/render.c:247: 		uint32_t color = (p<<24) | (p<<16) | (p<<8) | p;
 247:mini3d/render.c **** 		int32_t x1 = (y < endy) ? x+dx : p2->x * (1<<16);
 2043              		.loc 1 247 22 view .LVU525
 2044 01be 8A5C     		ldrb	r2, [r1, r2]	@ zero_extendqisi2	@ _27, *_26
 2045              	@ mini3d/render.c:247: 		uint32_t color = (p<<24) | (p<<16) | (p<<8) | p;
 247:mini3d/render.c **** 		int32_t x1 = (y < endy) ? x+dx : p2->x * (1<<16);
 2046              		.loc 1 247 32 view .LVU526
 2047 01c0 4FEA0241 		lsl	r1, r2, #16	@ tmp267, _27,
 2048              	@ mini3d/render.c:247: 		uint32_t color = (p<<24) | (p<<16) | (p<<8) | p;
 247:mini3d/render.c **** 		int32_t x1 = (y < endy) ? x+dx : p2->x * (1<<16);
 2049              		.loc 1 247 28 view .LVU527
 2050 01c4 41EA0261 		orr	r1, r1, r2, lsl #24	@ tmp268, tmp267, _27,
 2051              	@ mini3d/render.c:247: 		uint32_t color = (p<<24) | (p<<16) | (p<<8) | p;
 247:mini3d/render.c **** 		int32_t x1 = (y < endy) ? x+dx : p2->x * (1<<16);
 2052              		.loc 1 247 47 view .LVU528
 2053 01c8 41EA0201 		orr	r1, r1, r2	@ tmp269, tmp268, _27
 2054 01cc 41EA0221 		orr	r1, r1, r2, lsl #8	@ color, tmp269, _27,
 2055              	.LVL174:
 248:mini3d/render.c **** 
 2056              		.loc 1 248 3 is_stmt 1 view .LVU529
 2057              	@ mini3d/render.c:248: 		int32_t x1 = (y < endy) ? x+dx : p2->x * (1<<16);
 248:mini3d/render.c **** 
 2058              		.loc 1 248 11 is_stmt 0 view .LVU530
 2059 01d0 6ADA     		bge	.L111		@,
 2060              	@ mini3d/render.c:248: 		int32_t x1 = (y < endy) ? x+dx : p2->x * (1<<16);
 248:mini3d/render.c **** 
 2061              		.loc 1 248 30 discriminator 1 view .LVU531
 2062 01d2 03EB0902 		add	r2, r3, r9	@ tmp271, x, _109
 2063 01d6 07EE902A 		vmov	s15, r2	@ int	@ tmp271, tmp271
 2064              	@ mini3d/render.c:248: 		int32_t x1 = (y < endy) ? x+dx : p2->x * (1<<16);
 248:mini3d/render.c **** 
 2065              		.loc 1 248 11 discriminator 1 view .LVU532
 2066 01da F8EEE77A 		vcvt.f32.s32	s15, s15	@ tmp272, tmp271
 2067 01de FDEEE77A 		vcvt.s32.f32	s15, s15	@ iftmp.2_66, tmp272
 2068 01e2 17EE90BA 		vmov	fp, s15	@ int	@ iftmp.2_66, iftmp.2_66
 2069              	.L112:
 2070              	.LVL175:
 250:mini3d/render.c **** 		{
 2071              		.loc 1 250 3 is_stmt 1 discriminator 4 view .LVU533
 2072              	@ mini3d/render.c:250: 		if ( dx < 0 )
 250:mini3d/render.c **** 		{
 2073              		.loc 1 250 6 is_stmt 0 discriminator 4 view .LVU534
 2074 01e6 B9F1000F 		cmp	r9, #0	@ _109,
 2075 01ea C7DA     		bge	.L113		@,
 252:mini3d/render.c **** 			drawFragment_zbuf((uint32_t*)&bitmap[y*rowstride], &zbuf[y*LCD_COLUMNS], x1>>16, (x>>16) + thick
 2076              		.loc 1 252 4 is_stmt 1 view .LVU535
 2077              	.LBB203:
 2078              	.LBB204:
 2079              	@ mini3d/render.c:154: 	if ( endx < 0 || x >= LCD_COLUMNS )
 154:mini3d/render.c **** 		return;
 2080              		.loc 1 154 5 is_stmt 0 view .LVU536
 2081 01ec 1498     		ldr	r0, [sp, #80]	@ tmp369, thick
ARM GAS  /var/folders/cs/83z6p2tj4w57s6p2rt8nwfp00000gn/T//ccDzWS9O.s 			page 52


 2082              	.LBE204:
 2083              	.LBE203:
 2084              	@ mini3d/render.c:252: 			z += dzdy;
 252:mini3d/render.c **** 			drawFragment_zbuf((uint32_t*)&bitmap[y*rowstride], &zbuf[y*LCD_COLUMNS], x1>>16, (x>>16) + thick
 2085              		.loc 1 252 6 view .LVU537
 2086 01ee 059A     		ldr	r2, [sp, #20]	@ _122, %sfp
 2087              	.LBB208:
 2088              	.LBB205:
 2089              	@ mini3d/render.c:154: 	if ( endx < 0 || x >= LCD_COLUMNS )
 154:mini3d/render.c **** 		return;
 2090              		.loc 1 154 5 view .LVU538
 2091 01f0 10EB2343 		adds	r3, r0, r3, asr #16	@, _46, tmp369, x,
 2092              	.LVL176:
 154:mini3d/render.c **** 		return;
 2093              		.loc 1 154 5 view .LVU539
 2094              	.LBE205:
 2095              	.LBE208:
 2096              	@ mini3d/render.c:252: 			z += dzdy;
 252:mini3d/render.c **** 			drawFragment_zbuf((uint32_t*)&bitmap[y*rowstride], &zbuf[y*LCD_COLUMNS], x1>>16, (x>>16) + thick
 2097              		.loc 1 252 6 view .LVU540
 2098 01f4 1544     		add	r5, r5, r2	@ z, _122
 2099              	.LVL177:
 253:mini3d/render.c **** 		}
 2100              		.loc 1 253 4 is_stmt 1 view .LVU541
 2101              	@ mini3d/render.c:253: 			drawFragment_zbuf((uint32_t*)&bitmap[y*rowstride], &zbuf[y*LCD_COLUMNS], 
 253:mini3d/render.c **** 		}
 2102              		.loc 1 253 79 is_stmt 0 view .LVU542
 2103 01f6 4FEA2B42 		asr	r2, fp, #16	@ _44, iftmp.2_66,
 2104              	.LVL178:
 2105              	.LBB209:
 2106              	.LBI203:
 152:mini3d/render.c **** {
 2107              		.loc 1 152 1 is_stmt 1 view .LVU543
 2108              	.LBB206:
 154:mini3d/render.c **** 		return;
 2109              		.loc 1 154 2 view .LVU544
 2110              	@ mini3d/render.c:154: 	if ( endx < 0 || x >= LCD_COLUMNS )
 154:mini3d/render.c **** 		return;
 2111              		.loc 1 154 5 is_stmt 0 view .LVU545
 2112 01fa D6D4     		bmi	.L114		@,
 2113 01fc 40F28F10 		movw	r0, #399	@ tmp371,
 2114 0200 8242     		cmp	r2, r0	@ _44, tmp371
 2115 0202 D2DC     		bgt	.L114		@,
 2116 0204 0291     		str	r1, [sp, #8]	@ color,
 2117              	.LVL179:
 154:mini3d/render.c **** 		return;
 2118              		.loc 1 154 5 view .LVU546
 2119 0206 4FF4487C 		mov	ip, #800	@ tmp286,
 2120 020a 0699     		ldr	r1, [sp, #24]	@ _115, %sfp
 2121              	.LVL180:
 154:mini3d/render.c **** 		return;
 2122              		.loc 1 154 5 view .LVU547
 2123 020c 3846     		mov	r0, r7	@, ivtmp.189
 2124 020e 4744     		add	r7, r7, r8	@ ivtmp.189, rowstride
 2125 0210 CDE90051 		strd	r5, r1, [sp]	@ z, _115,
 2126 0214 3A49     		ldr	r1, .L145+24	@ tmp373,
 2127 0216 0CFB0411 		mla	r1, ip, r4, r1	@, tmp286, y, tmp373
ARM GAS  /var/folders/cs/83z6p2tj4w57s6p2rt8nwfp00000gn/T//ccDzWS9O.s 			page 53


 2128              	.LBE206:
 2129              	.LBE209:
 2130              	@ mini3d/render.c:261: 		if ( ++y == LCD_ROWS )
 261:mini3d/render.c **** 			break;
 2131              		.loc 1 261 6 view .LVU548
 2132 021a 0134     		adds	r4, r4, #1	@ y, y,
 2133              	.LVL181:
 2134              	.LBB210:
 2135              	.LBB207:
 261:mini3d/render.c **** 			break;
 2136              		.loc 1 261 6 view .LVU549
 2137 021c FFF7FEFF 		bl	drawFragment_zbuf.part.0		@
 2138              	.LVL182:
 261:mini3d/render.c **** 			break;
 2139              		.loc 1 261 6 view .LVU550
 2140              	.LBE207:
 2141              	.LBE210:
 261:mini3d/render.c **** 			break;
 2142              		.loc 1 261 3 is_stmt 1 view .LVU551
 2143              	@ mini3d/render.c:261: 		if ( ++y == LCD_ROWS )
 261:mini3d/render.c **** 			break;
 2144              		.loc 1 261 6 is_stmt 0 view .LVU552
 2145 0220 F02C     		cmp	r4, #240	@ y,
 2146 0222 C6D1     		bne	.L122		@,
 2147              	.LVL183:
 2148              	.L139:
 261:mini3d/render.c **** 			break;
 2149              		.loc 1 261 6 view .LVU553
 2150 0224 079F     		ldr	r7, [sp, #28]	@ p1, %sfp
 2151              	.LBE211:
 267:mini3d/render.c **** }
 2152              		.loc 1 267 2 is_stmt 1 view .LVU554
 2153              	@ mini3d/render.c:267: 	return (LCDRowRange){ MAX(0, p1->y), MIN(LCD_ROWS, p2->y) };
 267:mini3d/render.c **** }
 2154              		.loc 1 267 24 is_stmt 0 view .LVU555
 2155 0226 D7ED017A 		vldr.32	s15, [r7, #4]	@ _56, p1_58->y
 2156              	@ mini3d/render.c:267: 	return (LCDRowRange){ MAX(0, p1->y), MIN(LCD_ROWS, p2->y) };
 267:mini3d/render.c **** }
 2157              		.loc 1 267 9 view .LVU556
 2158 022a F5EEC07A 		vcmpe.f32	s15, #0	@ _56
 2159 022e F1EE10FA 		vmrs	APSR_nzcv, FPSCR
 2160 0232 48D4     		bmi	.L144		@,
 2161              	@ mini3d/render.c:267: 	return (LCDRowRange){ MAX(0, p1->y), MIN(LCD_ROWS, p2->y) };
 267:mini3d/render.c **** }
 2162              		.loc 1 267 9 discriminator 2 view .LVU557
 2163 0234 FDEEE77A 		vcvt.s32.f32	s15, s15	@ tmp304, _56
 2164 0238 17EE903A 		vmov	r3, s15	@ int	@ tmp304, tmp304
 2165 023c 1BB2     		sxth	r3, r3	@ iftmp.5_67, tmp304
 2166              	.L116:
 2167              	@ mini3d/render.c:267: 	return (LCDRowRange){ MAX(0, p1->y), MIN(LCD_ROWS, p2->y) };
 267:mini3d/render.c **** }
 2168              		.loc 1 267 39 discriminator 4 view .LVU558
 2169 023e D6ED017A 		vldr.32	s15, [r6, #4]	@ _57, p2_59->y
 2170              	@ mini3d/render.c:267: 	return (LCDRowRange){ MAX(0, p1->y), MIN(LCD_ROWS, p2->y) };
 267:mini3d/render.c **** }
 2171              		.loc 1 267 9 discriminator 4 view .LVU559
 2172 0242 9FED307A 		vldr.32	s14, .L145+28	@ tmp305,
ARM GAS  /var/folders/cs/83z6p2tj4w57s6p2rt8nwfp00000gn/T//ccDzWS9O.s 			page 54


 2173 0246 F4EEC77A 		vcmpe.f32	s15, s14	@ _57, tmp305
 2174 024a F1EE10FA 		vmrs	APSR_nzcv, FPSCR
 2175 024e 38DC     		bgt	.L124		@,
 2176              	@ mini3d/render.c:267: 	return (LCDRowRange){ MAX(0, p1->y), MIN(LCD_ROWS, p2->y) };
 267:mini3d/render.c **** }
 2177              		.loc 1 267 9 discriminator 6 view .LVU560
 2178 0250 FDEEE77A 		vcvt.s32.f32	s15, s15	@ tmp307, _57
 2179 0254 17EE902A 		vmov	r2, s15	@ int	@ tmp307, tmp307
 2180 0258 12B2     		sxth	r2, r2	@ iftmp.6_68, tmp307
 2181              	.L120:
 2182              	@ mini3d/render.c:267: 	return (LCDRowRange){ MAX(0, p1->y), MIN(LCD_ROWS, p2->y) };
 267:mini3d/render.c **** }
 2183              		.loc 1 267 9 discriminator 8 view .LVU561
 2184 025a ADF82430 		strh	r3, [sp, #36]	@ movhi	@ iftmp.5_67, D.7657.start
 2185 025e ADF82620 		strh	r2, [sp, #38]	@ movhi	@ iftmp.6_68, D.7657.end
 2186 0262 07E0     		b	.L96		@
 2187              	.LVL184:
 2188              	.L140:
 2189              	@ mini3d/render.c:219: 	if ( y >= LCD_ROWS || endy < 0 || MIN(p1->x, p2->x) >= LCD_COLUMNS || MAX(p
 219:mini3d/render.c **** 		return (LCDRowRange){ 0, 0 };
 2190              		.loc 1 219 33 discriminator 2 view .LVU562
 2191 0264 B4EEE56A 		vcmpe.f32	s12, s11	@ _8, tmp220
 2192 0268 F1EE10FA 		vmrs	APSR_nzcv, FPSCR
 2193 026c FFF6FFAE 		blt	.L91		@,
 2194              	.L88:
 2195              	.LBB212:
 220:mini3d/render.c **** 	
 2196              		.loc 1 220 3 is_stmt 1 view .LVU563
 2197              	@ mini3d/render.c:220: 		return (LCDRowRange){ 0, 0 };
 220:mini3d/render.c **** 	
 2198              		.loc 1 220 10 is_stmt 0 view .LVU564
 2199 0270 0023     		movs	r3, #0	@ tmp224,
 2200 0272 0993     		str	r3, [sp, #36]	@ tmp224, MEM[(short int *)&D.7657]
 2201              	.LVL185:
 2202              	.L96:
 220:mini3d/render.c **** 	
 2203              		.loc 1 220 10 view .LVU565
 2204 0274 BDF82420 		ldrh	r2, [sp, #36]	@ D.7657, D.7657
 2205 0278 0020     		movs	r0, #0	@ D.7657,
 2206 027a BDF82630 		ldrh	r3, [sp, #38]	@ D.7657, D.7657
 2207 027e 62F30F00 		bfi	r0, r2, #0, #16	@ D.7657, D.7657,,
 2208 0282 63F31F40 		bfi	r0, r3, #16, #16	@ D.7657, D.7657,,
 2209              	.LBE212:
 2210              	@ mini3d/render.c:268: }
 268:mini3d/render.c **** #endif
 2211              		.loc 1 268 1 discriminator 1 view .LVU566
 2212 0286 0BB0     		add	sp, sp, #44	@,,
 2213              	.LCFI19:
 2214              		.cfi_remember_state
 2215              		.cfi_def_cfa_offset 36
 2216              		@ sp needed	@
 2217 0288 BDE8F08F 		pop	{r4, r5, r6, r7, r8, r9, r10, fp, pc}	@
 2218              	.LVL186:
 2219              	.L133:
 2220              	.LCFI20:
 2221              		.cfi_restore_state
 2222              	@ mini3d/render.c:219: 	if ( y >= LCD_ROWS || endy < 0 || MIN(p1->x, p2->x) >= LCD_COLUMNS || MAX(p
ARM GAS  /var/folders/cs/83z6p2tj4w57s6p2rt8nwfp00000gn/T//ccDzWS9O.s 			page 55


 219:mini3d/render.c **** 		return (LCDRowRange){ 0, 0 };
 2223              		.loc 1 219 90 discriminator 6 view .LVU567
 2224 028c F5EEC06A 		vcmpe.f32	s13, #0	@ _9
 2225 0290 F1EE10FA 		vmrs	APSR_nzcv, FPSCR
 2226 0294 7FF5F7AE 		bpl	.L94		@,
 2227 0298 EAE7     		b	.L88		@
 2228              	.LVL187:
 2229              	.L141:
 2230              	.LBB213:
 2231              	.LBB187:
 200:mini3d/render.c **** 	else
 2232              		.loc 1 200 3 is_stmt 1 view .LVU568
 2233              	@ mini3d/render.c:200: 		return dx * (1<<16);
 200:mini3d/render.c **** 	else
 2234              		.loc 1 200 13 is_stmt 0 view .LVU569
 2235 029a B0EE667A 		vmov.f32	s14, s13	@ _109, dx
 2236 029e BEEEC87A 		vcvt.s32.f32	s14, s14, #16	@ _109, _109,
 2237 02a2 17EE109A 		vmov	r9, s14	@ int	@ _109, _109
 2238 02a6 0AE7     		b	.L99		@
 2239              	.LVL188:
 2240              	.L111:
 200:mini3d/render.c **** 	else
 2241              		.loc 1 200 13 view .LVU570
 2242              	.LBE187:
 2243              	.LBE213:
 2244              	.LBB214:
 2245              	@ mini3d/render.c:248: 		int32_t x1 = (y < endy) ? x+dx : p2->x * (1<<16);
 248:mini3d/render.c **** 
 2246              		.loc 1 248 42 discriminator 2 view .LVU571
 2247 02a8 D6ED007A 		vldr.32	s15, [r6]	@ p2_59->x, p2_59->x
 2248              	@ mini3d/render.c:248: 		int32_t x1 = (y < endy) ? x+dx : p2->x * (1<<16);
 248:mini3d/render.c **** 
 2249              		.loc 1 248 11 discriminator 2 view .LVU572
 2250 02ac B0EE677A 		vmov.f32	s14, s15	@ iftmp.2_66, p2_59->x
 2251 02b0 BEEEC87A 		vcvt.s32.f32	s14, s14, #16	@ iftmp.2_66, iftmp.2_66,
 2252 02b4 17EE10BA 		vmov	fp, s14	@ int	@ iftmp.2_66, iftmp.2_66
 2253 02b8 95E7     		b	.L112		@
 2254              	.LVL189:
 2255              	.L121:
 248:mini3d/render.c **** 
 2256              		.loc 1 248 11 discriminator 2 view .LVU573
 2257              	.LBE214:
 2258              	@ mini3d/render.c:229: 	if ( z1 > 65535 ) z1 = 65535;
 229:mini3d/render.c **** 	if ( z2 > 65535 ) z2 = 65535;
 2259              		.loc 1 229 23 view .LVU574
 2260 02ba F0EE445A 		vmov.f32	s11, s8	@ z1, tmp246
 2261              	.LVL190:
 229:mini3d/render.c **** 	if ( z2 > 65535 ) z2 = 65535;
 2262              		.loc 1 229 23 view .LVU575
 2263 02be 124D     		ldr	r5, .L145+32	@ z,
 2264              	.LVL191:
 229:mini3d/render.c **** 	if ( z2 > 65535 ) z2 = 65535;
 2265              		.loc 1 229 23 view .LVU576
 2266 02c0 24E7     		b	.L100		@
 2267              	.LVL192:
 2268              	.L124:
 2269              	@ mini3d/render.c:267: 	return (LCDRowRange){ MAX(0, p1->y), MIN(LCD_ROWS, p2->y) };
ARM GAS  /var/folders/cs/83z6p2tj4w57s6p2rt8nwfp00000gn/T//ccDzWS9O.s 			page 56


 267:mini3d/render.c **** }
 2270              		.loc 1 267 9 view .LVU577
 2271 02c2 F022     		movs	r2, #240	@ iftmp.6_68,
 2272 02c4 C9E7     		b	.L120		@
 2273              	.L144:
 267:mini3d/render.c **** }
 2274              		.loc 1 267 9 view .LVU578
 2275 02c6 0023     		movs	r3, #0	@ iftmp.5_67,
 2276 02c8 B9E7     		b	.L116		@
 2277              	.LVL193:
 2278              	.L143:
 2279              	.LBB215:
 2280              	.LBB199:
 200:mini3d/render.c **** 	else
 2281              		.loc 1 200 3 is_stmt 1 view .LVU579
 2282              	@ mini3d/render.c:200: 		return dx * (1<<16);
 200:mini3d/render.c **** 	else
 2283              		.loc 1 200 13 is_stmt 0 view .LVU580
 2284 02ca F0EE477A 		vmov.f32	s15, s14	@ _115, dx
 2285 02ce FEEEC87A 		vcvt.s32.f32	s15, s15, #16	@ _115, _115,
 2286 02d2 CDED067A 		vstr.32	s15, [sp, #24]	@ int	@ _115, %sfp
 2287 02d6 43E7     		b	.L108		@
 2288              	.LVL194:
 2289              	.L142:
 200:mini3d/render.c **** 	else
 2290              		.loc 1 200 13 view .LVU581
 2291              	.LBE199:
 2292              	.LBE215:
 2293              	.LBB216:
 2294              	.LBB194:
 200:mini3d/render.c **** 	else
 2295              		.loc 1 200 3 is_stmt 1 view .LVU582
 2296              	@ mini3d/render.c:200: 		return dx * (1<<16);
 200:mini3d/render.c **** 	else
 2297              		.loc 1 200 13 is_stmt 0 view .LVU583
 2298 02d8 F0EE477A 		vmov.f32	s15, s14	@ _122, dx
 2299              	.LVL195:
 200:mini3d/render.c **** 	else
 2300              		.loc 1 200 13 view .LVU584
 2301 02dc FEEEC87A 		vcvt.s32.f32	s15, s15, #16	@ _122, _122,
 2302 02e0 CDED057A 		vstr.32	s15, [sp, #20]	@ int	@ _122, %sfp
 2303 02e4 2CE7     		b	.L105		@
 2304              	.L146:
 2305 02e6 00BF     		.align	2
 2306              	.L145:
 2307 02e8 0000C843 		.word	1137180672
 2308 02ec 00000000 		.word	0
 2309 02f0 00000000 		.word	.LANCHOR0
 2310 02f4 00008043 		.word	1132462080
 2311 02f8 00FF7F47 		.word	1199570688
 2312 02fc 00008047 		.word	1199570944
 2313 0300 00000000 		.word	zbuf
 2314 0304 00007043 		.word	1131413504
 2315 0308 0000FFFF 		.word	-65536
 2316              	.LBE194:
 2317              	.LBE216:
 2318              		.cfi_endproc
ARM GAS  /var/folders/cs/83z6p2tj4w57s6p2rt8nwfp00000gn/T//ccDzWS9O.s 			page 57


 2319              	.LFE18:
 2320              		.size	drawLine_zbuf, .-drawLine_zbuf
 2321              		.section	.text.drawLine,"ax",%progbits
 2322              		.align	1
 2323              		.p2align 4,,15
 2324              		.global	drawLine
 2325              		.syntax unified
 2326              		.thumb
 2327              		.thumb_func
 2328              		.fpu fpv5-sp-d16
 2329              		.type	drawLine, %function
 2330              	drawLine:
 2331              	.LVL196:
 2332              	.LFB19:
 273:mini3d/render.c **** 	if ( p1->y > p2->y )
 2333              		.loc 1 273 1 is_stmt 1 view -0
 2334              		.cfi_startproc
 2335              		@ args = 8, pretend = 0, frame = 16
 2336              		@ frame_needed = 0, uses_anonymous_args = 0
 2337              	@ mini3d/render.c:274: 	if ( p1->y > p2->y )
 274:mini3d/render.c **** 	{
 2338              		.loc 1 274 9 is_stmt 0 view .LVU586
 2339 0000 92ED017A 		vldr.32	s14, [r2, #4]	@ _1, p1_53(D)->y
 2340              	@ mini3d/render.c:274: 	if ( p1->y > p2->y )
 274:mini3d/render.c **** 	{
 2341              		.loc 1 274 17 view .LVU587
 2342 0004 D3ED017A 		vldr.32	s15, [r3, #4]	@ _2, p2_54(D)->y
 2343              	@ mini3d/render.c:274: 	if ( p1->y > p2->y )
 274:mini3d/render.c **** 	{
 2344              		.loc 1 274 5 view .LVU588
 2345 0008 B4EEE77A 		vcmpe.f32	s14, s15	@ _1, _2
 2346              	@ mini3d/render.c:273: {
 273:mini3d/render.c **** 	if ( p1->y > p2->y )
 2347              		.loc 1 273 1 view .LVU589
 2348 000c 2DE9F04F 		push	{r4, r5, r6, r7, r8, r9, r10, fp, lr}	@
 2349              	.LCFI21:
 2350              		.cfi_def_cfa_offset 36
 2351              		.cfi_offset 4, -36
 2352              		.cfi_offset 5, -32
 2353              		.cfi_offset 6, -28
 2354              		.cfi_offset 7, -24
 2355              		.cfi_offset 8, -20
 2356              		.cfi_offset 9, -16
 2357              		.cfi_offset 10, -12
 2358              		.cfi_offset 11, -8
 2359              		.cfi_offset 14, -4
 2360              	@ mini3d/render.c:274: 	if ( p1->y > p2->y )
 274:mini3d/render.c **** 	{
 2361              		.loc 1 274 5 view .LVU590
 2362 0010 F1EE10FA 		vmrs	APSR_nzcv, FPSCR
 2363              	@ mini3d/render.c:273: {
 273:mini3d/render.c **** 	if ( p1->y > p2->y )
 2364              		.loc 1 273 1 view .LVU591
 2365 0014 85B0     		sub	sp, sp, #20	@,,
 2366              	.LCFI22:
 2367              		.cfi_def_cfa_offset 56
 2368              	@ mini3d/render.c:273: {
ARM GAS  /var/folders/cs/83z6p2tj4w57s6p2rt8nwfp00000gn/T//ccDzWS9O.s 			page 58


 273:mini3d/render.c **** 	if ( p1->y > p2->y )
 2369              		.loc 1 273 1 view .LVU592
 2370 0016 1746     		mov	r7, r2	@ p1, tmp252
 2371 0018 1D46     		mov	r5, r3	@ p2, tmp253
 274:mini3d/render.c **** 	{
 2372              		.loc 1 274 2 is_stmt 1 view .LVU593
 2373              	@ mini3d/render.c:273: {
 273:mini3d/render.c **** 	if ( p1->y > p2->y )
 2374              		.loc 1 273 1 is_stmt 0 view .LVU594
 2375 001a 0E46     		mov	r6, r1	@ rowstride, tmp251
 2376              	@ mini3d/render.c:274: 	if ( p1->y > p2->y )
 274:mini3d/render.c **** 	{
 2377              		.loc 1 274 5 view .LVU595
 2378 001c 07DD     		ble	.L148		@,
 2379 001e F0EE476A 		vmov.f32	s13, s14	@ _1, _1
 2380 0022 2F46     		mov	r7, r5	@ p1, p2
 2381 0024 B0EE677A 		vmov.f32	s14, s15	@ _1, _2
 2382 0028 1546     		mov	r5, r2	@ p2, p1
 2383 002a F0EE667A 		vmov.f32	s15, s13	@ _2, _1
 2384              	.L148:
 2385              	.LVL197:
 281:mini3d/render.c **** 	int endy = p2->y;
 2386              		.loc 1 281 2 is_stmt 1 view .LVU596
 2387              	@ mini3d/render.c:281: 	int y = p1->y;
 281:mini3d/render.c **** 	int endy = p2->y;
 2388              		.loc 1 281 6 is_stmt 0 view .LVU597
 2389 002e FDEEC76A 		vcvt.s32.f32	s13, s14	@ y, _1
 2390 0032 16EE904A 		vmov	r4, s13	@ int	@ y, y
 2391              	.LVL198:
 282:mini3d/render.c **** 	
 2392              		.loc 1 282 2 is_stmt 1 view .LVU598
 2393              	@ mini3d/render.c:282: 	int endy = p2->y;
 282:mini3d/render.c **** 	
 2394              		.loc 1 282 6 is_stmt 0 view .LVU599
 2395 0036 FDEEE76A 		vcvt.s32.f32	s13, s15	@ endy, _2
 2396              	@ mini3d/render.c:284: 	if ( y >= LCD_ROWS || endy < 0 || MIN(p1->x, p2->x) >= LCD_COLUMNS || MAX(p
 284:mini3d/render.c **** 		return (LCDRowRange){ 0, 0 };
 2397              		.loc 1 284 5 view .LVU600
 2398 003a EF2C     		cmp	r4, #239	@ y,
 2399              	@ mini3d/render.c:282: 	int endy = p2->y;
 282:mini3d/render.c **** 	
 2400              		.loc 1 282 6 view .LVU601
 2401 003c 16EE909A 		vmov	r9, s13	@ int	@ endy, endy
 2402              	.LVL199:
 284:mini3d/render.c **** 		return (LCDRowRange){ 0, 0 };
 2403              		.loc 1 284 2 is_stmt 1 view .LVU602
 2404              	@ mini3d/render.c:284: 	if ( y >= LCD_ROWS || endy < 0 || MIN(p1->x, p2->x) >= LCD_COLUMNS || MAX(p
 284:mini3d/render.c **** 		return (LCDRowRange){ 0, 0 };
 2405              		.loc 1 284 5 is_stmt 0 view .LVU603
 2406 0040 00F3A580 		bgt	.L150		@,
 2407 0044 B9F1000F 		cmp	r9, #0	@ endy,
 2408 0048 C0F2A180 		blt	.L150		@,
 2409              	@ mini3d/render.c:284: 	if ( y >= LCD_ROWS || endy < 0 || MIN(p1->x, p2->x) >= LCD_COLUMNS || MAX(p
 284:mini3d/render.c **** 		return (LCDRowRange){ 0, 0 };
 2410              		.loc 1 284 36 discriminator 1 view .LVU604
 2411 004c 97ED006A 		vldr.32	s12, [r7]	@ _8, p1_41->x
 2412 0050 D5ED006A 		vldr.32	s13, [r5]	@ _9, p2_42->x
ARM GAS  /var/folders/cs/83z6p2tj4w57s6p2rt8nwfp00000gn/T//ccDzWS9O.s 			page 59


 2413              	@ mini3d/render.c:284: 	if ( y >= LCD_ROWS || endy < 0 || MIN(p1->x, p2->x) >= LCD_COLUMNS || MAX(p
 284:mini3d/render.c **** 		return (LCDRowRange){ 0, 0 };
 2414              		.loc 1 284 33 discriminator 1 view .LVU605
 2415 0054 DFED625A 		vldr.32	s11, .L192	@ tmp185,
 2416              	@ mini3d/render.c:284: 	if ( y >= LCD_ROWS || endy < 0 || MIN(p1->x, p2->x) >= LCD_COLUMNS || MAX(p
 284:mini3d/render.c **** 		return (LCDRowRange){ 0, 0 };
 2417              		.loc 1 284 5 discriminator 1 view .LVU606
 2418 0058 B4EEE66A 		vcmpe.f32	s12, s13	@ _8, _9
 2419 005c F1EE10FA 		vmrs	APSR_nzcv, FPSCR
 2420 0060 00F18F80 		bmi	.L189		@,
 2421              	@ mini3d/render.c:284: 	if ( y >= LCD_ROWS || endy < 0 || MIN(p1->x, p2->x) >= LCD_COLUMNS || MAX(p
 284:mini3d/render.c **** 		return (LCDRowRange){ 0, 0 };
 2422              		.loc 1 284 54 discriminator 3 view .LVU607
 2423 0064 F4EEE56A 		vcmpe.f32	s13, s11	@ _9, tmp186
 2424 0068 F1EE10FA 		vmrs	APSR_nzcv, FPSCR
 2425 006c 80F28F80 		bge	.L150		@,
 2426              	.L153:
 2427              	@ mini3d/render.c:284: 	if ( y >= LCD_ROWS || endy < 0 || MIN(p1->x, p2->x) >= LCD_COLUMNS || MAX(p
 284:mini3d/render.c **** 		return (LCDRowRange){ 0, 0 };
 2428              		.loc 1 284 5 discriminator 4 view .LVU608
 2429 0070 B4EEE66A 		vcmpe.f32	s12, s13	@ _8, _9
 2430 0074 F1EE10FA 		vmrs	APSR_nzcv, FPSCR
 2431 0078 40F39780 		ble	.L181		@,
 2432              	@ mini3d/render.c:284: 	if ( y >= LCD_ROWS || endy < 0 || MIN(p1->x, p2->x) >= LCD_COLUMNS || MAX(p
 284:mini3d/render.c **** 		return (LCDRowRange){ 0, 0 };
 2433              		.loc 1 284 69 discriminator 5 view .LVU609
 2434 007c B5EEC06A 		vcmpe.f32	s12, #0	@ _8
 2435 0080 F1EE10FA 		vmrs	APSR_nzcv, FPSCR
 2436 0084 00F18380 		bmi	.L150		@,
 2437              	.L156:
 287:mini3d/render.c **** 	int32_t dx = slope(p1->x, p1->y, p2->x, p2->y);
 2438              		.loc 1 287 2 is_stmt 1 view .LVU610
 2439              	.LBB217:
 2440              	.LBB218:
 2441              	@ mini3d/render.c:197: 	float dy = y2-y1;
 197:mini3d/render.c **** 	
 2442              		.loc 1 197 8 is_stmt 0 view .LVU611
 2443 0088 77EEC77A 		vsub.f32	s15, s15, s14	@ dy, _2, _1
 2444              	@ mini3d/render.c:199: 	if ( dy < 1 )
 199:mini3d/render.c **** 		return dx * (1<<16);
 2445              		.loc 1 199 5 view .LVU612
 2446 008c B7EE007A 		vmov.f32	s14, #1.0e+0	@ tmp192,
 2447              	.LBE218:
 2448              	.LBE217:
 2449              	@ mini3d/render.c:287: 	int32_t x = p1->x * (1<<16);
 287:mini3d/render.c **** 	int32_t dx = slope(p1->x, p1->y, p2->x, p2->y);
 2450              		.loc 1 287 10 view .LVU613
 2451 0090 F0EE465A 		vmov.f32	s11, s12	@ x, _8
 2452              	.LBB223:
 2453              	.LBB219:
 2454              	@ mini3d/render.c:196: 	float dx = x2-x1;
 196:mini3d/render.c **** 	float dy = y2-y1;
 2455              		.loc 1 196 8 view .LVU614
 2456 0094 76EEC66A 		vsub.f32	s13, s13, s12	@ dx, _9, _8
 2457              	@ mini3d/render.c:199: 	if ( dy < 1 )
 199:mini3d/render.c **** 		return dx * (1<<16);
 2458              		.loc 1 199 5 view .LVU615
ARM GAS  /var/folders/cs/83z6p2tj4w57s6p2rt8nwfp00000gn/T//ccDzWS9O.s 			page 60


 2459 0098 F4EEC77A 		vcmpe.f32	s15, s14	@ dy, tmp192
 2460              	.LBE219:
 2461              	.LBE223:
 2462              	@ mini3d/render.c:287: 	int32_t x = p1->x * (1<<16);
 287:mini3d/render.c **** 	int32_t dx = slope(p1->x, p1->y, p2->x, p2->y);
 2463              		.loc 1 287 10 view .LVU616
 2464 009c FEEEC85A 		vcvt.s32.f32	s11, s11, #16	@ x, x,
 2465              	.LBB224:
 2466              	.LBB220:
 2467              	@ mini3d/render.c:199: 	if ( dy < 1 )
 199:mini3d/render.c **** 		return dx * (1<<16);
 2468              		.loc 1 199 5 view .LVU617
 2469 00a0 F1EE10FA 		vmrs	APSR_nzcv, FPSCR
 2470              	.LBE220:
 2471              	.LBE224:
 2472              	@ mini3d/render.c:287: 	int32_t x = p1->x * (1<<16);
 287:mini3d/render.c **** 	int32_t dx = slope(p1->x, p1->y, p2->x, p2->y);
 2473              		.loc 1 287 10 view .LVU618
 2474 00a4 15EE902A 		vmov	r2, s11	@ int	@ x, x
 2475              	.LVL200:
 288:mini3d/render.c **** 	
 2476              		.loc 1 288 2 is_stmt 1 view .LVU619
 2477              	.LBB225:
 2478              	.LBI217:
 194:mini3d/render.c **** {
 2479              		.loc 1 194 23 view .LVU620
 2480              	.LBB221:
 196:mini3d/render.c **** 	float dy = y2-y1;
 2481              		.loc 1 196 2 view .LVU621
 197:mini3d/render.c **** 	
 2482              		.loc 1 197 2 view .LVU622
 199:mini3d/render.c **** 		return dx * (1<<16);
 2483              		.loc 1 199 2 view .LVU623
 2484              	@ mini3d/render.c:199: 	if ( dy < 1 )
 199:mini3d/render.c **** 		return dx * (1<<16);
 2485              		.loc 1 199 5 is_stmt 0 view .LVU624
 2486 00a8 00F18680 		bmi	.L190		@,
 202:mini3d/render.c **** }
 2487              		.loc 1 202 3 is_stmt 1 view .LVU625
 2488              	@ mini3d/render.c:202: 		return dx / dy * (1<<16);
 202:mini3d/render.c **** }
 2489              		.loc 1 202 13 is_stmt 0 view .LVU626
 2490 00ac 86EEA77A 		vdiv.f32	s14, s13, s15	@ tmp195, dx, dy
 2491              	@ mini3d/render.c:202: 		return dx / dy * (1<<16);
 202:mini3d/render.c **** }
 2492              		.loc 1 202 18 view .LVU627
 2493 00b0 F0EE477A 		vmov.f32	s15, s14	@ _80, tmp195
 2494              	.LVL201:
 202:mini3d/render.c **** }
 2495              		.loc 1 202 18 view .LVU628
 2496 00b4 FEEEC87A 		vcvt.s32.f32	s15, s15, #16	@ _80, _80,
 2497 00b8 17EE908A 		vmov	r8, s15	@ int	@ _80, _80
 2498              	.L161:
 2499              	.LVL202:
 202:mini3d/render.c **** }
 2500              		.loc 1 202 18 view .LVU629
 2501              	.LBE221:
ARM GAS  /var/folders/cs/83z6p2tj4w57s6p2rt8nwfp00000gn/T//ccDzWS9O.s 			page 61


 2502              	.LBE225:
 290:mini3d/render.c **** 	{
 2503              		.loc 1 290 2 is_stmt 1 view .LVU630
 2504              	@ mini3d/render.c:290: 	if ( y < 0 )
 290:mini3d/render.c **** 	{
 2505              		.loc 1 290 5 is_stmt 0 view .LVU631
 2506 00bc 002C     		cmp	r4, #0	@ y,
 2507 00be 02DA     		bge	.L162		@,
 292:mini3d/render.c **** 		y = 0;
 2508              		.loc 1 292 3 is_stmt 1 view .LVU632
 2509              	@ mini3d/render.c:292: 		x += -y * dx;
 292:mini3d/render.c **** 		y = 0;
 2510              		.loc 1 292 5 is_stmt 0 view .LVU633
 2511 00c0 04FB1822 		mls	r2, r4, r8, r2	@ x, y, _80, x
 2512              	.LVL203:
 293:mini3d/render.c **** 	}
 2513              		.loc 1 293 3 is_stmt 1 view .LVU634
 2514              	@ mini3d/render.c:293: 		y = 0;
 293:mini3d/render.c **** 	}
 2515              		.loc 1 293 5 is_stmt 0 view .LVU635
 2516 00c4 0024     		movs	r4, #0	@ y,
 2517              	.LVL204:
 2518              	.L162:
 293:mini3d/render.c **** 	}
 2519              		.loc 1 293 5 view .LVU636
 2520 00c6 06FB040A 		mla	r10, r6, r4, r0	@ ivtmp.200, rowstride, y, bitmap
 2521 00ca 0197     		str	r7, [sp, #4]	@ p1, %sfp
 2522 00cc 5746     		mov	r7, r10	@ ivtmp.200, ivtmp.200
 2523              	.LVL205:
 293:mini3d/render.c **** 	}
 2524              		.loc 1 293 5 view .LVU637
 2525 00ce DDF83CA0 		ldr	r10, [sp, #60]	@ pattern, pattern
 2526 00d2 10E0     		b	.L163		@
 2527              	.LVL206:
 2528              	.L166:
 2529              	.LBB226:
 305:mini3d/render.c **** 		
 2530              		.loc 1 305 4 is_stmt 1 view .LVU638
 2531              	@ mini3d/render.c:305: 			drawFragment((uint32_t*)&bitmap[y*rowstride], x>>16, (x1>>16) + thick, co
 305:mini3d/render.c **** 		
 2532              		.loc 1 305 51 is_stmt 0 view .LVU639
 2533 00d4 1114     		asrs	r1, r2, #16	@ _36, x,
 2534              	.LVL207:
 2535              	.LBB227:
 2536              	.LBI227:
  92:mini3d/render.c **** {
 2537              		.loc 1 92 1 is_stmt 1 view .LVU640
 2538              	.LBB228:
  94:mini3d/render.c **** 		return;
 2539              		.loc 1 94 2 view .LVU641
 2540              	@ mini3d/render.c:94: 	if ( x2 < 0 || x1 >= LCD_COLUMNS )
  94:mini3d/render.c **** 		return;
 2541              		.loc 1 94 5 is_stmt 0 view .LVU642
 2542 00d6 0E9A     		ldr	r2, [sp, #56]	@ tmp280, thick
 2543              	.LVL208:
  94:mini3d/render.c **** 		return;
 2544              		.loc 1 94 5 view .LVU643
ARM GAS  /var/folders/cs/83z6p2tj4w57s6p2rt8nwfp00000gn/T//ccDzWS9O.s 			page 62


 2545 00d8 12EB2B42 		adds	r2, r2, fp, asr #16	@, _38, tmp280, iftmp.13_45,
 2546              	.LVL209:
  94:mini3d/render.c **** 		return;
 2547              		.loc 1 94 5 view .LVU644
 2548 00dc 06D4     		bmi	.L167		@,
 2549              	.LVL210:
 2550              	.L186:
  94:mini3d/render.c **** 		return;
 2551              		.loc 1 94 5 view .LVU645
 2552 00de 40F28F10 		movw	r0, #399	@ tmp282,
 2553 00e2 8142     		cmp	r1, r0	@ _36, tmp282
 2554 00e4 02DC     		bgt	.L167		@,
 2555 00e6 3846     		mov	r0, r7	@, ivtmp.200
 2556 00e8 FFF7FEFF 		bl	drawFragment.part.0		@
 2557              	.LVL211:
 2558              	.L167:
  94:mini3d/render.c **** 		return;
 2559              		.loc 1 94 5 view .LVU646
 2560              	.LBE228:
 2561              	.LBE227:
 307:mini3d/render.c **** 			break;
 2562              		.loc 1 307 3 is_stmt 1 view .LVU647
 2563              	@ mini3d/render.c:307: 		if ( ++y == LCD_ROWS )
 307:mini3d/render.c **** 			break;
 2564              		.loc 1 307 6 is_stmt 0 view .LVU648
 2565 00ec 0134     		adds	r4, r4, #1	@ y, y,
 2566              	.LVL212:
 307:mini3d/render.c **** 			break;
 2567              		.loc 1 307 6 view .LVU649
 2568 00ee 3744     		add	r7, r7, r6	@ ivtmp.200, rowstride
 2569 00f0 F02C     		cmp	r4, #240	@ y,
 2570 00f2 26D0     		beq	.L187		@,
 2571              	.L173:
 307:mini3d/render.c **** 			break;
 2572              		.loc 1 307 6 view .LVU650
 2573 00f4 5A46     		mov	r2, fp	@ x, iftmp.13_45
 2574              	.LVL213:
 2575              	.L163:
 307:mini3d/render.c **** 			break;
 2576              		.loc 1 307 6 view .LVU651
 2577              	.LBE226:
 296:mini3d/render.c **** 	{
 2578              		.loc 1 296 8 is_stmt 1 view .LVU652
 2579 00f6 4C45     		cmp	r4, r9	@ y, endy
 2580 00f8 23DC     		bgt	.L187		@,
 2581              	.LBB233:
 298:mini3d/render.c **** 		uint32_t color = (p<<24) | (p<<16) | (p<<8) | p;
 2582              		.loc 1 298 3 view .LVU653
 2583              	.LVL214:
 299:mini3d/render.c **** 		int32_t x1 = (y < endy) ? x+dx : p2->x * (1<<16);
 2584              		.loc 1 299 3 view .LVU654
 2585              	@ mini3d/render.c:298: 		uint8_t p = pattern[y%8];
 298:mini3d/render.c **** 		uint32_t color = (p<<24) | (p<<16) | (p<<8) | p;
 2586              		.loc 1 298 24 is_stmt 0 view .LVU655
 2587 00fa 04F00703 		and	r3, r4, #7	@ tmp201, y,
 2588              	@ mini3d/render.c:299: 		uint32_t color = (p<<24) | (p<<16) | (p<<8) | p;
 299:mini3d/render.c **** 		int32_t x1 = (y < endy) ? x+dx : p2->x * (1<<16);
ARM GAS  /var/folders/cs/83z6p2tj4w57s6p2rt8nwfp00000gn/T//ccDzWS9O.s 			page 63


 2589              		.loc 1 299 22 view .LVU656
 2590 00fe 1AF80310 		ldrb	r1, [r10, r3]	@ zero_extendqisi2	@ _16, *_15
 2591              	@ mini3d/render.c:299: 		uint32_t color = (p<<24) | (p<<16) | (p<<8) | p;
 299:mini3d/render.c **** 		int32_t x1 = (y < endy) ? x+dx : p2->x * (1<<16);
 2592              		.loc 1 299 32 view .LVU657
 2593 0102 4FEA0143 		lsl	r3, r1, #16	@ tmp203, _16,
 2594              	@ mini3d/render.c:299: 		uint32_t color = (p<<24) | (p<<16) | (p<<8) | p;
 299:mini3d/render.c **** 		int32_t x1 = (y < endy) ? x+dx : p2->x * (1<<16);
 2595              		.loc 1 299 28 view .LVU658
 2596 0106 43EA0163 		orr	r3, r3, r1, lsl #24	@ tmp204, tmp203, _16,
 2597              	@ mini3d/render.c:299: 		uint32_t color = (p<<24) | (p<<16) | (p<<8) | p;
 299:mini3d/render.c **** 		int32_t x1 = (y < endy) ? x+dx : p2->x * (1<<16);
 2598              		.loc 1 299 47 view .LVU659
 2599 010a 43EA0103 		orr	r3, r3, r1	@ tmp205, tmp204, _16
 2600 010e 43EA0123 		orr	r3, r3, r1, lsl #8	@ color, tmp205, _16,
 2601              	.LVL215:
 300:mini3d/render.c **** 		
 2602              		.loc 1 300 3 is_stmt 1 view .LVU660
 2603              	@ mini3d/render.c:300: 		int32_t x1 = (y < endy) ? x+dx : p2->x * (1<<16);
 300:mini3d/render.c **** 		
 2604              		.loc 1 300 11 is_stmt 0 view .LVU661
 2605 0112 58DA     		bge	.L164		@,
 2606              	@ mini3d/render.c:300: 		int32_t x1 = (y < endy) ? x+dx : p2->x * (1<<16);
 300:mini3d/render.c **** 		
 2607              		.loc 1 300 30 discriminator 1 view .LVU662
 2608 0114 02EB0801 		add	r1, r2, r8	@ tmp207, x, _80
 2609 0118 07EE901A 		vmov	s15, r1	@ int	@ tmp207, tmp207
 2610              	@ mini3d/render.c:300: 		int32_t x1 = (y < endy) ? x+dx : p2->x * (1<<16);
 300:mini3d/render.c **** 		
 2611              		.loc 1 300 11 discriminator 1 view .LVU663
 2612 011c F8EEE77A 		vcvt.f32.s32	s15, s15	@ tmp208, tmp207
 2613 0120 FDEEE77A 		vcvt.s32.f32	s15, s15	@ iftmp.13_45, tmp208
 2614 0124 17EE90BA 		vmov	fp, s15	@ int	@ iftmp.13_45, iftmp.13_45
 2615              	.L165:
 2616              	.LVL216:
 302:mini3d/render.c **** 			drawFragment((uint32_t*)&bitmap[y*rowstride], x1>>16, (x>>16) + thick, color);
 2617              		.loc 1 302 3 is_stmt 1 discriminator 4 view .LVU664
 2618              	@ mini3d/render.c:302: 		if ( dx < 0 )
 302:mini3d/render.c **** 			drawFragment((uint32_t*)&bitmap[y*rowstride], x1>>16, (x>>16) + thick, color);
 2619              		.loc 1 302 6 is_stmt 0 discriminator 4 view .LVU665
 2620 0128 B8F1000F 		cmp	r8, #0	@ _80,
 2621 012c D2DA     		bge	.L166		@,
 303:mini3d/render.c **** 		else
 2622              		.loc 1 303 4 is_stmt 1 view .LVU666
 2623              	.LVL217:
 2624              	.LBB229:
 2625              	.LBB230:
 2626              	@ mini3d/render.c:94: 	if ( x2 < 0 || x1 >= LCD_COLUMNS )
  94:mini3d/render.c **** 		return;
 2627              		.loc 1 94 5 is_stmt 0 view .LVU667
 2628 012e 0E98     		ldr	r0, [sp, #56]	@ tmp277, thick
 2629              	.LBE230:
 2630              	.LBE229:
 2631              	@ mini3d/render.c:303: 			drawFragment((uint32_t*)&bitmap[y*rowstride], x1>>16, (x>>16) + thick, co
 303:mini3d/render.c **** 		else
 2632              		.loc 1 303 52 view .LVU668
 2633 0130 4FEA2B41 		asr	r1, fp, #16	@ _30, iftmp.13_45,
ARM GAS  /var/folders/cs/83z6p2tj4w57s6p2rt8nwfp00000gn/T//ccDzWS9O.s 			page 64


 2634              	.LVL218:
 2635              	.LBB232:
 2636              	.LBI229:
  92:mini3d/render.c **** {
 2637              		.loc 1 92 1 is_stmt 1 view .LVU669
 2638              	.LBB231:
  94:mini3d/render.c **** 		return;
 2639              		.loc 1 94 2 view .LVU670
 2640              	@ mini3d/render.c:94: 	if ( x2 < 0 || x1 >= LCD_COLUMNS )
  94:mini3d/render.c **** 		return;
 2641              		.loc 1 94 5 is_stmt 0 view .LVU671
 2642 0134 10EB2242 		adds	r2, r0, r2, asr #16	@, _32, tmp277, x,
 2643              	.LVL219:
  94:mini3d/render.c **** 		return;
 2644              		.loc 1 94 5 view .LVU672
 2645 0138 D1D5     		bpl	.L186		@,
 2646              	.LVL220:
  94:mini3d/render.c **** 		return;
 2647              		.loc 1 94 5 view .LVU673
 2648              	.LBE231:
 2649              	.LBE232:
 307:mini3d/render.c **** 			break;
 2650              		.loc 1 307 3 is_stmt 1 view .LVU674
 2651              	@ mini3d/render.c:307: 		if ( ++y == LCD_ROWS )
 307:mini3d/render.c **** 			break;
 2652              		.loc 1 307 6 is_stmt 0 view .LVU675
 2653 013a 0134     		adds	r4, r4, #1	@ y, y,
 2654              	.LVL221:
 307:mini3d/render.c **** 			break;
 2655              		.loc 1 307 6 view .LVU676
 2656 013c 3744     		add	r7, r7, r6	@ ivtmp.200, rowstride
 2657 013e F02C     		cmp	r4, #240	@ y,
 2658 0140 D8D1     		bne	.L173		@,
 2659              	.LVL222:
 2660              	.L187:
 307:mini3d/render.c **** 			break;
 2661              		.loc 1 307 6 view .LVU677
 2662 0142 019F     		ldr	r7, [sp, #4]	@ p1, %sfp
 2663              	.LBE233:
 313:mini3d/render.c **** }
 2664              		.loc 1 313 2 is_stmt 1 view .LVU678
 2665              	@ mini3d/render.c:313: 	return (LCDRowRange){ MAX(0, p1->y), MIN(LCD_ROWS, p2->y) };
 313:mini3d/render.c **** }
 2666              		.loc 1 313 24 is_stmt 0 view .LVU679
 2667 0144 D7ED017A 		vldr.32	s15, [r7, #4]	@ _39, p1_41->y
 2668              	@ mini3d/render.c:313: 	return (LCDRowRange){ MAX(0, p1->y), MIN(LCD_ROWS, p2->y) };
 313:mini3d/render.c **** }
 2669              		.loc 1 313 9 view .LVU680
 2670 0148 F5EEC07A 		vcmpe.f32	s15, #0	@ _39
 2671 014c F1EE10FA 		vmrs	APSR_nzcv, FPSCR
 2672 0150 44D4     		bmi	.L191		@,
 2673              	@ mini3d/render.c:313: 	return (LCDRowRange){ MAX(0, p1->y), MIN(LCD_ROWS, p2->y) };
 313:mini3d/render.c **** }
 2674              		.loc 1 313 9 discriminator 2 view .LVU681
 2675 0152 FDEEE77A 		vcvt.s32.f32	s15, s15	@ tmp232, _39
 2676 0156 17EE903A 		vmov	r3, s15	@ int	@ tmp232, tmp232
 2677 015a 1BB2     		sxth	r3, r3	@ iftmp.14_46, tmp232
ARM GAS  /var/folders/cs/83z6p2tj4w57s6p2rt8nwfp00000gn/T//ccDzWS9O.s 			page 65


 2678              	.L168:
 2679              	@ mini3d/render.c:313: 	return (LCDRowRange){ MAX(0, p1->y), MIN(LCD_ROWS, p2->y) };
 313:mini3d/render.c **** }
 2680              		.loc 1 313 39 discriminator 4 view .LVU682
 2681 015c D5ED017A 		vldr.32	s15, [r5, #4]	@ _40, p2_42->y
 2682              	@ mini3d/render.c:313: 	return (LCDRowRange){ MAX(0, p1->y), MIN(LCD_ROWS, p2->y) };
 313:mini3d/render.c **** }
 2683              		.loc 1 313 9 discriminator 4 view .LVU683
 2684 0160 9FED207A 		vldr.32	s14, .L192+4	@ tmp233,
 2685 0164 F4EEC77A 		vcmpe.f32	s15, s14	@ _40, tmp233
 2686 0168 F1EE10FA 		vmrs	APSR_nzcv, FPSCR
 2687 016c 34DC     		bgt	.L175		@,
 2688              	@ mini3d/render.c:313: 	return (LCDRowRange){ MAX(0, p1->y), MIN(LCD_ROWS, p2->y) };
 313:mini3d/render.c **** }
 2689              		.loc 1 313 9 discriminator 6 view .LVU684
 2690 016e FDEEE77A 		vcvt.s32.f32	s15, s15	@ tmp235, _40
 2691 0172 17EE902A 		vmov	r2, s15	@ int	@ tmp235, tmp235
 2692 0176 12B2     		sxth	r2, r2	@ iftmp.15_47, tmp235
 2693              	.L172:
 2694              	@ mini3d/render.c:313: 	return (LCDRowRange){ MAX(0, p1->y), MIN(LCD_ROWS, p2->y) };
 313:mini3d/render.c **** }
 2695              		.loc 1 313 9 discriminator 8 view .LVU685
 2696 0178 ADF80C30 		strh	r3, [sp, #12]	@ movhi	@ iftmp.14_46, D.7717.start
 2697 017c ADF80E20 		strh	r2, [sp, #14]	@ movhi	@ iftmp.15_47, D.7717.end
 2698 0180 07E0     		b	.L158		@
 2699              	.LVL223:
 2700              	.L189:
 2701              	@ mini3d/render.c:284: 	if ( y >= LCD_ROWS || endy < 0 || MIN(p1->x, p2->x) >= LCD_COLUMNS || MAX(p
 284:mini3d/render.c **** 		return (LCDRowRange){ 0, 0 };
 2702              		.loc 1 284 33 discriminator 2 view .LVU686
 2703 0182 B4EEE56A 		vcmpe.f32	s12, s11	@ _8, tmp185
 2704 0186 F1EE10FA 		vmrs	APSR_nzcv, FPSCR
 2705 018a FFF671AF 		blt	.L153		@,
 2706              	.L150:
 2707              	.LBB234:
 285:mini3d/render.c **** 	
 2708              		.loc 1 285 3 is_stmt 1 view .LVU687
 2709              	@ mini3d/render.c:285: 		return (LCDRowRange){ 0, 0 };
 285:mini3d/render.c **** 	
 2710              		.loc 1 285 10 is_stmt 0 view .LVU688
 2711 018e 0023     		movs	r3, #0	@ tmp189,
 2712 0190 0393     		str	r3, [sp, #12]	@ tmp189, MEM[(short int *)&D.7717]
 2713              	.LVL224:
 2714              	.L158:
 285:mini3d/render.c **** 	
 2715              		.loc 1 285 10 view .LVU689
 2716 0192 BDF80C20 		ldrh	r2, [sp, #12]	@ D.7717, D.7717
 2717 0196 0020     		movs	r0, #0	@ D.7717,
 2718 0198 BDF80E30 		ldrh	r3, [sp, #14]	@ D.7717, D.7717
 2719 019c 62F30F00 		bfi	r0, r2, #0, #16	@ D.7717, D.7717,,
 2720 01a0 63F31F40 		bfi	r0, r3, #16, #16	@ D.7717, D.7717,,
 2721              	.LBE234:
 2722              	@ mini3d/render.c:314: }
 314:mini3d/render.c **** 
 2723              		.loc 1 314 1 discriminator 1 view .LVU690
 2724 01a4 05B0     		add	sp, sp, #20	@,,
 2725              	.LCFI23:
ARM GAS  /var/folders/cs/83z6p2tj4w57s6p2rt8nwfp00000gn/T//ccDzWS9O.s 			page 66


 2726              		.cfi_remember_state
 2727              		.cfi_def_cfa_offset 36
 2728              		@ sp needed	@
 2729 01a6 BDE8F08F 		pop	{r4, r5, r6, r7, r8, r9, r10, fp, pc}	@
 2730              	.LVL225:
 2731              	.L181:
 2732              	.LCFI24:
 2733              		.cfi_restore_state
 2734              	@ mini3d/render.c:284: 	if ( y >= LCD_ROWS || endy < 0 || MIN(p1->x, p2->x) >= LCD_COLUMNS || MAX(p
 284:mini3d/render.c **** 		return (LCDRowRange){ 0, 0 };
 2735              		.loc 1 284 90 discriminator 6 view .LVU691
 2736 01aa F5EEC06A 		vcmpe.f32	s13, #0	@ _9
 2737 01ae F1EE10FA 		vmrs	APSR_nzcv, FPSCR
 2738 01b2 7FF569AF 		bpl	.L156		@,
 2739 01b6 EAE7     		b	.L150		@
 2740              	.LVL226:
 2741              	.L190:
 2742              	.LBB235:
 2743              	.LBB222:
 200:mini3d/render.c **** 	else
 2744              		.loc 1 200 3 is_stmt 1 view .LVU692
 2745              	@ mini3d/render.c:200: 		return dx * (1<<16);
 200:mini3d/render.c **** 	else
 2746              		.loc 1 200 13 is_stmt 0 view .LVU693
 2747 01b8 F0EE667A 		vmov.f32	s15, s13	@ _80, dx
 2748              	.LVL227:
 200:mini3d/render.c **** 	else
 2749              		.loc 1 200 13 view .LVU694
 2750 01bc FEEEC87A 		vcvt.s32.f32	s15, s15, #16	@ _80, _80,
 2751 01c0 17EE908A 		vmov	r8, s15	@ int	@ _80, _80
 2752 01c4 7AE7     		b	.L161		@
 2753              	.LVL228:
 2754              	.L164:
 200:mini3d/render.c **** 	else
 2755              		.loc 1 200 13 view .LVU695
 2756              	.LBE222:
 2757              	.LBE235:
 2758              	.LBB236:
 2759              	@ mini3d/render.c:300: 		int32_t x1 = (y < endy) ? x+dx : p2->x * (1<<16);
 300:mini3d/render.c **** 		
 2760              		.loc 1 300 42 discriminator 2 view .LVU696
 2761 01c6 D5ED007A 		vldr.32	s15, [r5]	@ p2_42->x, p2_42->x
 2762              	@ mini3d/render.c:300: 		int32_t x1 = (y < endy) ? x+dx : p2->x * (1<<16);
 300:mini3d/render.c **** 		
 2763              		.loc 1 300 11 discriminator 2 view .LVU697
 2764 01ca B0EE677A 		vmov.f32	s14, s15	@ iftmp.13_45, p2_42->x
 2765 01ce BEEEC87A 		vcvt.s32.f32	s14, s14, #16	@ iftmp.13_45, iftmp.13_45,
 2766 01d2 17EE10BA 		vmov	fp, s14	@ int	@ iftmp.13_45, iftmp.13_45
 2767 01d6 A7E7     		b	.L165		@
 2768              	.LVL229:
 2769              	.L175:
 300:mini3d/render.c **** 		
 2770              		.loc 1 300 11 discriminator 2 view .LVU698
 2771              	.LBE236:
 2772              	@ mini3d/render.c:313: 	return (LCDRowRange){ MAX(0, p1->y), MIN(LCD_ROWS, p2->y) };
 313:mini3d/render.c **** }
 2773              		.loc 1 313 9 view .LVU699
ARM GAS  /var/folders/cs/83z6p2tj4w57s6p2rt8nwfp00000gn/T//ccDzWS9O.s 			page 67


 2774 01d8 F022     		movs	r2, #240	@ iftmp.15_47,
 2775 01da CDE7     		b	.L172		@
 2776              	.L191:
 313:mini3d/render.c **** }
 2777              		.loc 1 313 9 view .LVU700
 2778 01dc 0023     		movs	r3, #0	@ iftmp.14_46,
 2779 01de BDE7     		b	.L168		@
 2780              	.L193:
 2781              		.align	2
 2782              	.L192:
 2783 01e0 0000C843 		.word	1137180672
 2784 01e4 00007043 		.word	1131413504
 2785              		.cfi_endproc
 2786              	.LFE19:
 2787              		.size	drawLine, .-drawLine
 2788              		.section	.text.fillTriangle,"ax",%progbits
 2789              		.align	1
 2790              		.p2align 4,,15
 2791              		.global	fillTriangle
 2792              		.syntax unified
 2793              		.thumb
 2794              		.thumb_func
 2795              		.fpu fpv5-sp-d16
 2796              		.type	fillTriangle, %function
 2797              	fillTriangle:
 2798              	.LVL230:
 2799              	.LFB23:
 391:mini3d/render.c **** #endif
 392:mini3d/render.c **** 
 393:mini3d/render.c **** static inline void sortTri(Point3D** p1, Point3D** p2, Point3D** p3)
 394:mini3d/render.c **** {
 395:mini3d/render.c **** 	float y1 = (*p1)->y, y2 = (*p2)->y, y3 = (*p3)->y;
 396:mini3d/render.c **** 	
 397:mini3d/render.c **** 	if ( y1 <= y2 && y1 < y3 )
 398:mini3d/render.c **** 	{
 399:mini3d/render.c **** 		if ( y3 < y2 ) // 1,3,2
 400:mini3d/render.c **** 		{
 401:mini3d/render.c **** 			Point3D* tmp = *p2;
 402:mini3d/render.c **** 			*p2 = *p3;
 403:mini3d/render.c **** 			*p3 = tmp;
 404:mini3d/render.c **** 		}
 405:mini3d/render.c **** 	}
 406:mini3d/render.c **** 	else if ( y2 < y1 && y2 < y3 )
 407:mini3d/render.c **** 	{
 408:mini3d/render.c **** 		Point3D* tmp = *p1;
 409:mini3d/render.c **** 		*p1 = *p2;
 410:mini3d/render.c **** 
 411:mini3d/render.c **** 		if ( y3 < y1 ) // 2,3,1
 412:mini3d/render.c **** 		{
 413:mini3d/render.c **** 			*p2 = *p3;
 414:mini3d/render.c **** 			*p3 = tmp;
 415:mini3d/render.c **** 		}
 416:mini3d/render.c **** 		else // 2,1,3
 417:mini3d/render.c **** 			*p2 = tmp;
 418:mini3d/render.c **** 	}
 419:mini3d/render.c **** 	else
 420:mini3d/render.c **** 	{
ARM GAS  /var/folders/cs/83z6p2tj4w57s6p2rt8nwfp00000gn/T//ccDzWS9O.s 			page 68


 421:mini3d/render.c **** 		Point3D* tmp = *p1;
 422:mini3d/render.c **** 		*p1 = *p3;
 423:mini3d/render.c **** 		
 424:mini3d/render.c **** 		if ( y1 < y2 ) // 3,1,2
 425:mini3d/render.c **** 		{
 426:mini3d/render.c **** 			*p3 = *p2;
 427:mini3d/render.c **** 			*p2 = tmp;
 428:mini3d/render.c **** 		}
 429:mini3d/render.c **** 		else // 3,2,1
 430:mini3d/render.c **** 			*p3 = tmp;
 431:mini3d/render.c **** 	}
 432:mini3d/render.c **** 
 433:mini3d/render.c **** }
 434:mini3d/render.c **** 
 435:mini3d/render.c **** LCDRowRange fillTriangle(uint8_t* bitmap, int rowstride, Point3D* p1, Point3D* p2, Point3D* p3, uin
 436:mini3d/render.c **** {
 2800              		.loc 1 436 1 is_stmt 1 view -0
 2801              		.cfi_startproc
 2802              		@ args = 8, pretend = 0, frame = 40
 2803              		@ frame_needed = 0, uses_anonymous_args = 0
 437:mini3d/render.c **** 	// sort by y coord
 438:mini3d/render.c **** 	
 439:mini3d/render.c **** 	sortTri(&p1, &p2, &p3);
 2804              		.loc 1 439 2 view .LVU702
 2805              	.LBB249:
 2806              	.LBI249:
 393:mini3d/render.c **** {
 2807              		.loc 1 393 20 view .LVU703
 2808              	.LBB250:
 395:mini3d/render.c **** 	
 2809              		.loc 1 395 2 view .LVU704
 2810              	@ mini3d/render.c:395: 	float y1 = (*p1)->y, y2 = (*p2)->y, y3 = (*p3)->y;
 395:mini3d/render.c **** 	
 2811              		.loc 1 395 8 is_stmt 0 view .LVU705
 2812 0000 D2ED016A 		vldr.32	s13, [r2, #4]	@ y1, p1_102(D)->y
 2813              	.LVL231:
 2814              	@ mini3d/render.c:395: 	float y1 = (*p1)->y, y2 = (*p2)->y, y3 = (*p3)->y;
 395:mini3d/render.c **** 	
 2815              		.loc 1 395 23 view .LVU706
 2816 0004 D3ED017A 		vldr.32	s15, [r3, #4]	@ y2, p2_103(D)->y
 2817              	.LVL232:
 2818              	@ mini3d/render.c:397: 	if ( y1 <= y2 && y1 < y3 )
 397:mini3d/render.c **** 	{
 2819              		.loc 1 397 5 view .LVU707
 2820 0008 F4EEE76A 		vcmpe.f32	s13, s15	@ y1, y2
 2821              	.LBE250:
 2822              	.LBE249:
 2823              	@ mini3d/render.c:436: {
 436:mini3d/render.c **** 	// sort by y coord
 2824              		.loc 1 436 1 view .LVU708
 2825 000c 2DE9F04F 		push	{r4, r5, r6, r7, r8, r9, r10, fp, lr}	@
 2826              	.LCFI25:
 2827              		.cfi_def_cfa_offset 36
 2828              		.cfi_offset 4, -36
 2829              		.cfi_offset 5, -32
 2830              		.cfi_offset 6, -28
 2831              		.cfi_offset 7, -24
ARM GAS  /var/folders/cs/83z6p2tj4w57s6p2rt8nwfp00000gn/T//ccDzWS9O.s 			page 69


 2832              		.cfi_offset 8, -20
 2833              		.cfi_offset 9, -16
 2834              		.cfi_offset 10, -12
 2835              		.cfi_offset 11, -8
 2836              		.cfi_offset 14, -4
 2837 0010 91B0     		sub	sp, sp, #68	@,,
 2838              	.LCFI26:
 2839              		.cfi_def_cfa_offset 104
 2840              	.LBB259:
 2841              	.LBB254:
 2842              	@ mini3d/render.c:397: 	if ( y1 <= y2 && y1 < y3 )
 397:mini3d/render.c **** 	{
 2843              		.loc 1 397 5 view .LVU709
 2844 0012 F1EE10FA 		vmrs	APSR_nzcv, FPSCR
 2845              	.LBE254:
 2846              	.LBE259:
 2847              	@ mini3d/render.c:436: {
 436:mini3d/render.c **** 	// sort by y coord
 2848              		.loc 1 436 1 view .LVU710
 2849 0016 1446     		mov	r4, r2	@ p1, tmp228
 2850 0018 1D46     		mov	r5, r3	@ p2, tmp229
 2851 001a DDF86880 		ldr	r8, [sp, #104]	@ p3, p3
 2852              	.LBB260:
 2853              	.LBB255:
 2854              	@ mini3d/render.c:395: 	float y1 = (*p1)->y, y2 = (*p2)->y, y3 = (*p3)->y;
 395:mini3d/render.c **** 	
 2855              		.loc 1 395 38 view .LVU711
 2856 001e 98ED017A 		vldr.32	s14, [r8, #4]	@ y3, p3_104(D)->y
 2857              	.LVL233:
 397:mini3d/render.c **** 	{
 2858              		.loc 1 397 2 is_stmt 1 view .LVU712
 2859              	@ mini3d/render.c:397: 	if ( y1 <= y2 && y1 < y3 )
 397:mini3d/render.c **** 	{
 2860              		.loc 1 397 5 is_stmt 0 view .LVU713
 2861 0022 00F2C780 		bhi	.L195		@,
 2862              	@ mini3d/render.c:397: 	if ( y1 <= y2 && y1 < y3 )
 397:mini3d/render.c **** 	{
 2863              		.loc 1 397 16 view .LVU714
 2864 0026 F4EEC76A 		vcmpe.f32	s13, s14	@ y1, y3
 2865 002a F1EE10FA 		vmrs	APSR_nzcv, FPSCR
 2866 002e 40F1C180 		bpl	.L195		@,
 399:mini3d/render.c **** 		{
 2867              		.loc 1 399 3 is_stmt 1 view .LVU715
 2868              	@ mini3d/render.c:399: 		if ( y3 < y2 ) // 1,3,2
 399:mini3d/render.c **** 		{
 2869              		.loc 1 399 6 is_stmt 0 view .LVU716
 2870 0032 F4EEC77A 		vcmpe.f32	s15, s14	@ y2, y3
 2871 0036 4346     		mov	r3, r8	@ p3, p3
 2872              	.LVL234:
 399:mini3d/render.c **** 		{
 2873              		.loc 1 399 6 view .LVU717
 2874 0038 F1EE10FA 		vmrs	APSR_nzcv, FPSCR
 2875 003c 40F31581 		ble	.L234		@,
 2876 0040 B0EE667A 		vmov.f32	s14, s13	@ y3, y1
 2877              	.LVL235:
 399:mini3d/render.c **** 		{
 2878              		.loc 1 399 6 view .LVU718
ARM GAS  /var/folders/cs/83z6p2tj4w57s6p2rt8nwfp00000gn/T//ccDzWS9O.s 			page 70


 2879 0044 9046     		mov	r8, r2	@ p3, p1
 2880 0046 1C46     		mov	r4, r3	@ p1, p3
 2881              	.LVL236:
 2882              	.L198:
 399:mini3d/render.c **** 		{
 2883              		.loc 1 399 6 view .LVU719
 2884              	.LBE255:
 2885              	.LBE260:
 440:mini3d/render.c **** 	
 441:mini3d/render.c **** 	int endy = MIN(LCD_ROWS, p3->y);
 2886              		.loc 1 441 2 is_stmt 1 view .LVU720
 2887              	@ mini3d/render.c:441: 	int endy = MIN(LCD_ROWS, p3->y);
 2888              		.loc 1 441 6 is_stmt 0 view .LVU721
 2889 0048 DFED976A 		vldr.32	s13, .L244	@ tmp168,
 2890 004c F4EEE67A 		vcmpe.f32	s15, s13	@ y2, tmp168
 2891 0050 F1EE10FA 		vmrs	APSR_nzcv, FPSCR
 2892              	@ mini3d/render.c:443: 	if ( p1->y > LCD_ROWS || endy < 0 )
 442:mini3d/render.c **** 	
 443:mini3d/render.c **** 	if ( p1->y > LCD_ROWS || endy < 0 )
 2893              		.loc 1 443 5 view .LVU722
 2894 0054 B4EEE67A 		vcmpe.f32	s14, s13	@ y3, tmp168
 2895              	@ mini3d/render.c:441: 	int endy = MIN(LCD_ROWS, p3->y);
 441:mini3d/render.c **** 	
 2896              		.loc 1 441 6 view .LVU723
 2897 0058 40F3D180 		ble	.L235		@,
 2898              	.LVL237:
 2899              		.loc 1 443 2 is_stmt 1 view .LVU724
 2900              	@ mini3d/render.c:443: 	if ( p1->y > LCD_ROWS || endy < 0 )
 2901              		.loc 1 443 5 is_stmt 0 view .LVU725
 2902 005c F1EE10FA 		vmrs	APSR_nzcv, FPSCR
 2903 0060 00F3D780 		bgt	.L205		@,
 2904 0064 4FF0F00A 		mov	r10, #240	@ prephitmp_28,
 2905              	@ mini3d/render.c:441: 	int endy = MIN(LCD_ROWS, p3->y);
 441:mini3d/render.c **** 	
 2906              		.loc 1 441 6 view .LVU726
 2907 0068 D346     		mov	fp, r10	@ iftmp.19_35, prephitmp_28
 2908              	.LVL238:
 2909              	.L206:
 444:mini3d/render.c **** 		return (LCDRowRange){ 0, 0 };
 445:mini3d/render.c **** 
 446:mini3d/render.c **** 	int32_t x1 = p1->x * (1<<16);
 2910              		.loc 1 446 2 is_stmt 1 view .LVU727
 2911              	@ mini3d/render.c:449: 	int32_t sb = slope(p1->x, p1->y, p2->x, p2->y);
 447:mini3d/render.c **** 	int32_t x2 = x1;
 448:mini3d/render.c **** 	
 449:mini3d/render.c **** 	int32_t sb = slope(p1->x, p1->y, p2->x, p2->y);
 2912              		.loc 1 449 15 is_stmt 0 view .LVU728
 2913 006a D4ED016A 		vldr.32	s13, [r4, #4]	@ _10, p2_100->y
 2914              	.LBB261:
 2915              	.LBB262:
 2916              	@ mini3d/render.c:199: 	if ( dy < 1 )
 199:mini3d/render.c **** 		return dx * (1<<16);
 2917              		.loc 1 199 5 view .LVU729
 2918 006e F7EE004A 		vmov.f32	s9, #1.0e+0	@ tmp175,
 2919              	.LBE262:
 2920              	.LBE261:
 2921              	@ mini3d/render.c:446: 	int32_t x1 = p1->x * (1<<16);
ARM GAS  /var/folders/cs/83z6p2tj4w57s6p2rt8nwfp00000gn/T//ccDzWS9O.s 			page 71


 446:mini3d/render.c **** 	int32_t x2 = x1;
 2922              		.loc 1 446 17 view .LVU730
 2923 0072 98ED006A 		vldr.32	s12, [r8]	@ _5, p1_99->x
 2924              	.LBB269:
 2925              	.LBB263:
 2926              	@ mini3d/render.c:197: 	float dy = y2-y1;
 197:mini3d/render.c **** 	
 2927              		.loc 1 197 8 view .LVU731
 2928 0076 36EEC75A 		vsub.f32	s10, s13, s14	@ dy, _10, y3
 2929              	.LBE263:
 2930              	.LBE269:
 2931              	@ mini3d/render.c:446: 	int32_t x1 = p1->x * (1<<16);
 446:mini3d/render.c **** 	int32_t x2 = x1;
 2932              		.loc 1 446 10 view .LVU732
 2933 007a F0EE465A 		vmov.f32	s11, s12	@ _7, _5
 2934              	.LBB270:
 2935              	.LBB264:
 2936              	@ mini3d/render.c:199: 	if ( dy < 1 )
 199:mini3d/render.c **** 		return dx * (1<<16);
 2937              		.loc 1 199 5 view .LVU733
 2938 007e B4EEE45A 		vcmpe.f32	s10, s9	@ dy, tmp175
 2939              	.LBE264:
 2940              	.LBE270:
 2941              	@ mini3d/render.c:446: 	int32_t x1 = p1->x * (1<<16);
 446:mini3d/render.c **** 	int32_t x2 = x1;
 2942              		.loc 1 446 10 view .LVU734
 2943 0082 FEEEC85A 		vcvt.s32.f32	s11, s11, #16	@ _7, _7,
 2944              	.LBB271:
 2945              	.LBB265:
 2946              	@ mini3d/render.c:199: 	if ( dy < 1 )
 199:mini3d/render.c **** 		return dx * (1<<16);
 2947              		.loc 1 199 5 view .LVU735
 2948 0086 F1EE10FA 		vmrs	APSR_nzcv, FPSCR
 2949              	.LBE265:
 2950              	.LBE271:
 2951              	@ mini3d/render.c:446: 	int32_t x1 = p1->x * (1<<16);
 446:mini3d/render.c **** 	int32_t x2 = x1;
 2952              		.loc 1 446 10 view .LVU736
 2953 008a 15EE903A 		vmov	r3, s11	@ int	@ _7, _7
 2954              	.LBB272:
 2955              	.LBB266:
 2956              	@ mini3d/render.c:196: 	float dx = x2-x1;
 196:mini3d/render.c **** 	float dy = y2-y1;
 2957              		.loc 1 196 8 view .LVU737
 2958 008e D4ED005A 		vldr.32	s11, [r4]	@ p2_100->x, p2_100->x
 2959              	.LBE266:
 2960              	.LBE272:
 2961              	@ mini3d/render.c:447: 	int32_t x2 = x1;
 447:mini3d/render.c **** 	
 2962              		.loc 1 447 10 view .LVU738
 2963 0092 CDE90D33 		strd	r3, r3, [sp, #52]	@ _7, _7,,
 2964              		.loc 1 449 2 is_stmt 1 view .LVU739
 2965              	.LVL239:
 2966              	.LBB273:
 2967              	.LBI261:
 194:mini3d/render.c **** {
 2968              		.loc 1 194 23 view .LVU740
ARM GAS  /var/folders/cs/83z6p2tj4w57s6p2rt8nwfp00000gn/T//ccDzWS9O.s 			page 72


 2969              	.LBB267:
 196:mini3d/render.c **** 	float dy = y2-y1;
 2970              		.loc 1 196 2 view .LVU741
 2971              	@ mini3d/render.c:196: 	float dx = x2-x1;
 196:mini3d/render.c **** 	float dy = y2-y1;
 2972              		.loc 1 196 8 is_stmt 0 view .LVU742
 2973 0096 75EEC65A 		vsub.f32	s11, s11, s12	@ dx, p2_100->x, _5
 2974              	.LVL240:
 197:mini3d/render.c **** 	
 2975              		.loc 1 197 2 is_stmt 1 view .LVU743
 199:mini3d/render.c **** 		return dx * (1<<16);
 2976              		.loc 1 199 2 view .LVU744
 2977              	@ mini3d/render.c:199: 	if ( dy < 1 )
 199:mini3d/render.c **** 		return dx * (1<<16);
 2978              		.loc 1 199 5 is_stmt 0 view .LVU745
 2979 009a 00F1F580 		bmi	.L240		@,
 202:mini3d/render.c **** }
 2980              		.loc 1 202 3 is_stmt 1 view .LVU746
 2981              	@ mini3d/render.c:202: 		return dx / dy * (1<<16);
 202:mini3d/render.c **** }
 2982              		.loc 1 202 13 is_stmt 0 view .LVU747
 2983 009e C5EE854A 		vdiv.f32	s9, s11, s10	@ tmp178, dx, dy
 2984              	@ mini3d/render.c:202: 		return dx / dy * (1<<16);
 202:mini3d/render.c **** }
 2985              		.loc 1 202 18 view .LVU748
 2986 00a2 F0EE645A 		vmov.f32	s11, s9	@ _70, tmp178
 2987              	.LVL241:
 202:mini3d/render.c **** }
 2988              		.loc 1 202 18 view .LVU749
 2989 00a6 FEEEC85A 		vcvt.s32.f32	s11, s11, #16	@ _70, _70,
 2990 00aa CDED075A 		vstr.32	s11, [sp, #28]	@ int	@ _70, %sfp
 2991              	.LVL242:
 2992              	.L210:
 202:mini3d/render.c **** }
 2993              		.loc 1 202 18 view .LVU750
 2994              	.LBE267:
 2995              	.LBE273:
 450:mini3d/render.c **** 	int32_t sc = slope(p1->x, p1->y, p3->x, p3->y);
 2996              		.loc 1 450 2 is_stmt 1 view .LVU751
 2997              	.LBB274:
 2998              	.LBI274:
 194:mini3d/render.c **** {
 2999              		.loc 1 194 23 view .LVU752
 3000              	.LBB275:
 196:mini3d/render.c **** 	float dy = y2-y1;
 3001              		.loc 1 196 2 view .LVU753
 3002              	@ mini3d/render.c:197: 	float dy = y2-y1;
 197:mini3d/render.c **** 	
 3003              		.loc 1 197 8 is_stmt 0 view .LVU754
 3004 00ae 77EEC77A 		vsub.f32	s15, s15, s14	@ dy, y2, y3
 3005              	@ mini3d/render.c:196: 	float dx = x2-x1;
 196:mini3d/render.c **** 	float dy = y2-y1;
 3006              		.loc 1 196 8 view .LVU755
 3007 00b2 D5ED005A 		vldr.32	s11, [r5]	@ p3_101->x, p3_101->x
 3008              	@ mini3d/render.c:199: 	if ( dy < 1 )
 199:mini3d/render.c **** 		return dx * (1<<16);
 3009              		.loc 1 199 5 view .LVU756
ARM GAS  /var/folders/cs/83z6p2tj4w57s6p2rt8nwfp00000gn/T//ccDzWS9O.s 			page 73


 3010 00b6 B7EE005A 		vmov.f32	s10, #1.0e+0	@ tmp182,
 3011              	@ mini3d/render.c:196: 	float dx = x2-x1;
 196:mini3d/render.c **** 	float dy = y2-y1;
 3012              		.loc 1 196 8 view .LVU757
 3013 00ba 35EEC66A 		vsub.f32	s12, s11, s12	@ dx, p3_101->x, _5
 3014              	.LVL243:
 197:mini3d/render.c **** 	
 3015              		.loc 1 197 2 is_stmt 1 view .LVU758
 199:mini3d/render.c **** 		return dx * (1<<16);
 3016              		.loc 1 199 2 view .LVU759
 3017              	@ mini3d/render.c:199: 	if ( dy < 1 )
 199:mini3d/render.c **** 		return dx * (1<<16);
 3018              		.loc 1 199 5 is_stmt 0 view .LVU760
 3019 00be F4EEC57A 		vcmpe.f32	s15, s10	@ dy, tmp182
 3020 00c2 F1EE10FA 		vmrs	APSR_nzcv, FPSCR
 3021 00c6 00F1D880 		bmi	.L241		@,
 202:mini3d/render.c **** }
 3022              		.loc 1 202 3 is_stmt 1 view .LVU761
 3023              	@ mini3d/render.c:202: 		return dx / dy * (1<<16);
 202:mini3d/render.c **** }
 3024              		.loc 1 202 13 is_stmt 0 view .LVU762
 3025 00ca C6EE275A 		vdiv.f32	s11, s12, s15	@ tmp185, dx, dy
 3026              	@ mini3d/render.c:202: 		return dx / dy * (1<<16);
 202:mini3d/render.c **** }
 3027              		.loc 1 202 18 view .LVU763
 3028 00ce F0EE657A 		vmov.f32	s15, s11	@ _62, tmp185
 3029              	.LVL244:
 202:mini3d/render.c **** }
 3030              		.loc 1 202 18 view .LVU764
 3031 00d2 FEEEC87A 		vcvt.s32.f32	s15, s15, #16	@ _62, _62,
 3032 00d6 17EE909A 		vmov	r9, s15	@ int	@ _62, _62
 3033              	.L213:
 3034              	.LVL245:
 202:mini3d/render.c **** }
 3035              		.loc 1 202 18 view .LVU765
 3036              	.LBE275:
 3037              	.LBE274:
 451:mini3d/render.c **** 
 452:mini3d/render.c **** 	int32_t dx1 = MIN(sb, sc);
 3038              		.loc 1 452 2 is_stmt 1 view .LVU766
 3039              	@ mini3d/render.c:452: 	int32_t dx1 = MIN(sb, sc);
 3040              		.loc 1 452 10 is_stmt 0 view .LVU767
 3041 00da 079B     		ldr	r3, [sp, #28]	@ _70, %sfp
 3042              	@ mini3d/render.c:455: 	fillRange(bitmap, rowstride, p1->y, MIN(LCD_ROWS, p2->y), &x1, dx1, &x2, dx
 453:mini3d/render.c **** 	int32_t dx2 = MAX(sb, sc);
 454:mini3d/render.c **** 	
 455:mini3d/render.c **** 	fillRange(bitmap, rowstride, p1->y, MIN(LCD_ROWS, p2->y), &x1, dx1, &x2, dx2, pattern);
 3043              		.loc 1 455 2 view .LVU768
 3044 00dc BDEEC77A 		vcvt.s32.f32	s14, s14	@ _12, y3
 3045 00e0 DFED717A 		vldr.32	s15, .L244	@ tmp188,
 3046              	@ mini3d/render.c:452: 	int32_t dx1 = MIN(sb, sc);
 452:mini3d/render.c **** 	int32_t dx2 = MAX(sb, sc);
 3047              		.loc 1 452 10 view .LVU769
 3048 00e4 4B45     		cmp	r3, r9	@ dx1, _62
 3049 00e6 1A46     		mov	r2, r3	@ dx1, _70
 3050              	@ mini3d/render.c:455: 	fillRange(bitmap, rowstride, p1->y, MIN(LCD_ROWS, p2->y), &x1, dx1, &x2, dx
 3051              		.loc 1 455 2 view .LVU770
ARM GAS  /var/folders/cs/83z6p2tj4w57s6p2rt8nwfp00000gn/T//ccDzWS9O.s 			page 74


 3052 00e8 F4EEE76A 		vcmpe.f32	s13, s15	@ _10, tmp188
 3053              	@ mini3d/render.c:452: 	int32_t dx1 = MIN(sb, sc);
 452:mini3d/render.c **** 	int32_t dx2 = MAX(sb, sc);
 3054              		.loc 1 452 10 view .LVU771
 3055 00ec A8BF     		it	ge
 3056 00ee 4A46     		movge	r2, r9	@ dx1, _62
 3057              	@ mini3d/render.c:453: 	int32_t dx2 = MAX(sb, sc);
 453:mini3d/render.c **** 	int32_t dx2 = MAX(sb, sc);
 3058              		.loc 1 453 10 view .LVU772
 3059 00f0 4B45     		cmp	r3, r9	@ dx2, _62
 3060 00f2 B8BF     		it	lt
 3061 00f4 4B46     		movlt	r3, r9	@ dx2, _62
 3062              	@ mini3d/render.c:455: 	fillRange(bitmap, rowstride, p1->y, MIN(LCD_ROWS, p2->y), &x1, dx1, &x2, dx
 3063              		.loc 1 455 2 view .LVU773
 3064 00f6 F1EE10FA 		vmrs	APSR_nzcv, FPSCR
 3065              	@ mini3d/render.c:452: 	int32_t dx1 = MIN(sb, sc);
 452:mini3d/render.c **** 	int32_t dx2 = MAX(sb, sc);
 3066              		.loc 1 452 10 view .LVU774
 3067 00fa 0892     		str	r2, [sp, #32]	@ dx1, %sfp
 3068              	.LVL246:
 453:mini3d/render.c **** 	int32_t dx2 = MAX(sb, sc);
 3069              		.loc 1 453 2 is_stmt 1 view .LVU775
 3070              	@ mini3d/render.c:455: 	fillRange(bitmap, rowstride, p1->y, MIN(LCD_ROWS, p2->y), &x1, dx1, &x2, dx
 3071              		.loc 1 455 2 is_stmt 0 view .LVU776
 3072 00fc 17EE102A 		vmov	r2, s14	@ int	@ _12, _12
 3073              	.LVL247:
 3074              	@ mini3d/render.c:453: 	int32_t dx2 = MAX(sb, sc);
 453:mini3d/render.c **** 	int32_t dx2 = MAX(sb, sc);
 3075              		.loc 1 453 10 view .LVU777
 3076 0100 0993     		str	r3, [sp, #36]	@ dx2, %sfp
 3077              	.LVL248:
 3078              		.loc 1 455 2 is_stmt 1 view .LVU778
 3079 0102 00F3AD80 		bgt	.L223		@,
 3080              	@ mini3d/render.c:455: 	fillRange(bitmap, rowstride, p1->y, MIN(LCD_ROWS, p2->y), &x1, dx1, &x2, dx
 3081              		.loc 1 455 2 is_stmt 0 discriminator 2 view .LVU779
 3082 0106 FDEEE67A 		vcvt.s32.f32	s15, s13	@ iftmp.34_29, _10
 3083 010a 17EE903A 		vmov	r3, s15	@ int	@ iftmp.34_29, iftmp.34_29
 3084              	.LVL249:
 3085              	.L214:
 3086              	@ mini3d/render.c:455: 	fillRange(bitmap, rowstride, p1->y, MIN(LCD_ROWS, p2->y), &x1, dx1, &x2, dx
 3087              		.loc 1 455 2 discriminator 4 view .LVU780
 3088 010e 0DAE     		add	r6, sp, #52	@ tmp221,,
 3089 0110 0EAF     		add	r7, sp, #56	@ tmp220,,
 3090 0112 0B91     		str	r1, [sp, #44]	@ rowstride, %sfp
 3091 0114 0696     		str	r6, [sp, #24]	@ tmp221, %sfp
 3092 0116 1B9E     		ldr	r6, [sp, #108]	@ tmp248, pattern
 3093 0118 0297     		str	r7, [sp, #8]	@ tmp220,
 3094 011a 0496     		str	r6, [sp, #16]	@ tmp248,
 3095 011c 099E     		ldr	r6, [sp, #36]	@ dx2, %sfp
 3096 011e 0A90     		str	r0, [sp, #40]	@ bitmap, %sfp
 3097 0120 0396     		str	r6, [sp, #12]	@ dx2,
 3098 0122 089E     		ldr	r6, [sp, #32]	@ dx1, %sfp
 3099 0124 0196     		str	r6, [sp, #4]	@ dx1,
 3100 0126 069E     		ldr	r6, [sp, #24]	@ tmp221, %sfp
 3101 0128 0096     		str	r6, [sp]	@ tmp221,
 3102 012a FFF7FEFF 		bl	fillRange		@
 3103              	.LVL250:
ARM GAS  /var/folders/cs/83z6p2tj4w57s6p2rt8nwfp00000gn/T//ccDzWS9O.s 			page 75


 456:mini3d/render.c **** 	
 457:mini3d/render.c **** 	int dx = slope(p2->x, p2->y, p3->x, p3->y);
 3104              		.loc 1 457 2 is_stmt 1 discriminator 4 view .LVU781
 3105              	@ mini3d/render.c:457: 	int dx = slope(p2->x, p2->y, p3->x, p3->y);
 3106              		.loc 1 457 11 is_stmt 0 discriminator 4 view .LVU782
 3107 012e D4ED015A 		vldr.32	s11, [r4, #4]	@ _15, p2_100->y
 3108              	.LBB277:
 3109              	.LBB278:
 3110              	@ mini3d/render.c:197: 	float dy = y2-y1;
 197:mini3d/render.c **** 	
 3111              		.loc 1 197 8 discriminator 4 view .LVU783
 3112 0132 95ED017A 		vldr.32	s14, [r5, #4]	@ p3_101->y, p3_101->y
 3113              	@ mini3d/render.c:199: 	if ( dy < 1 )
 199:mini3d/render.c **** 		return dx * (1<<16);
 3114              		.loc 1 199 5 discriminator 4 view .LVU784
 3115 0136 B7EE006A 		vmov.f32	s12, #1.0e+0	@ tmp193,
 3116              	.LBE278:
 3117              	.LBE277:
 3118              	@ mini3d/render.c:457: 	int dx = slope(p2->x, p2->y, p3->x, p3->y);
 3119              		.loc 1 457 11 discriminator 4 view .LVU785
 3120 013a D4ED007A 		vldr.32	s15, [r4]	@ _14, p2_100->x
 3121              	.LVL251:
 3122              	.LBB283:
 3123              	.LBI277:
 194:mini3d/render.c **** {
 3124              		.loc 1 194 23 is_stmt 1 discriminator 4 view .LVU786
 3125              	.LBB279:
 196:mini3d/render.c **** 	float dy = y2-y1;
 3126              		.loc 1 196 2 discriminator 4 view .LVU787
 3127              	@ mini3d/render.c:197: 	float dy = y2-y1;
 197:mini3d/render.c **** 	
 3128              		.loc 1 197 8 is_stmt 0 discriminator 4 view .LVU788
 3129 013e 37EE657A 		vsub.f32	s14, s14, s11	@ dy, p3_101->y, _15
 3130              	.LVL252:
 3131              	@ mini3d/render.c:196: 	float dx = x2-x1;
 196:mini3d/render.c **** 	float dy = y2-y1;
 3132              		.loc 1 196 8 discriminator 4 view .LVU789
 3133 0142 D5ED006A 		vldr.32	s13, [r5]	@ p3_101->x, p3_101->x
 3134              	.LBE279:
 3135              	.LBE283:
 3136              	@ mini3d/render.c:459: 	if ( sb < sc )
 458:mini3d/render.c **** 	
 459:mini3d/render.c **** 	if ( sb < sc )
 3137              		.loc 1 459 5 discriminator 4 view .LVU790
 3138 0146 079B     		ldr	r3, [sp, #28]	@ _70, %sfp
 3139              	.LBB284:
 3140              	.LBB280:
 3141              	@ mini3d/render.c:196: 	float dx = x2-x1;
 196:mini3d/render.c **** 	float dy = y2-y1;
 3142              		.loc 1 196 8 discriminator 4 view .LVU791
 3143 0148 76EEE76A 		vsub.f32	s13, s13, s15	@ dx, p3_101->x, _14
 3144              	.LVL253:
 197:mini3d/render.c **** 	
 3145              		.loc 1 197 2 is_stmt 1 discriminator 4 view .LVU792
 199:mini3d/render.c **** 		return dx * (1<<16);
 3146              		.loc 1 199 2 discriminator 4 view .LVU793
 200:mini3d/render.c **** 	else
ARM GAS  /var/folders/cs/83z6p2tj4w57s6p2rt8nwfp00000gn/T//ccDzWS9O.s 			page 76


 3147              		.loc 1 200 3 discriminator 4 view .LVU794
 202:mini3d/render.c **** }
 3148              		.loc 1 202 3 discriminator 4 view .LVU795
 3149              	@ mini3d/render.c:199: 	if ( dy < 1 )
 199:mini3d/render.c **** 		return dx * (1<<16);
 3150              		.loc 1 199 5 is_stmt 0 discriminator 4 view .LVU796
 3151 014c B4EEC67A 		vcmpe.f32	s14, s12	@ dy, tmp193
 3152              	.LBE280:
 3153              	.LBE284:
 3154              	@ mini3d/render.c:461: 		x1 = p2->x * (1<<16);
 460:mini3d/render.c **** 	{
 461:mini3d/render.c **** 		x1 = p2->x * (1<<16);
 3155              		.loc 1 461 6 discriminator 4 view .LVU797
 3156 0150 FEEEC87A 		vcvt.s32.f32	s15, s15, #16	@ tmp201, _14,
 3157              	.LVL254:
 3158              	.LBB285:
 3159              	.LBB281:
 3160              	@ mini3d/render.c:199: 	if ( dy < 1 )
 199:mini3d/render.c **** 		return dx * (1<<16);
 3161              		.loc 1 199 5 discriminator 4 view .LVU798
 3162 0154 F1EE10FA 		vmrs	APSR_nzcv, FPSCR
 3163 0158 DDE90A01 		ldrd	r0, r1, [sp, #40]	@ bitmap, rowstride,,
 3164              	@ mini3d/render.c:202: 		return dx / dy * (1<<16);
 202:mini3d/render.c **** }
 3165              		.loc 1 202 13 discriminator 4 view .LVU799
 3166 015c 54BF     		ite	pl
 3167 015e 86EE876A 		vdivpl.f32	s12, s13, s14	@ tmp196, dx, dy
 3168              	@ mini3d/render.c:200: 		return dx * (1<<16);
 200:mini3d/render.c **** 	else
 3169              		.loc 1 200 13 discriminator 4 view .LVU800
 3170 0162 B0EE666A 		vmovmi.f32	s12, s13	@ _78, dx
 3171              	.LBE281:
 3172              	.LBE285:
 3173              	@ mini3d/render.c:459: 	if ( sb < sc )
 459:mini3d/render.c **** 	{
 3174              		.loc 1 459 5 discriminator 4 view .LVU801
 3175 0166 9945     		cmp	r9, r3	@ _62, _70
 3176              	@ mini3d/render.c:462: 		fillRange(bitmap, rowstride, p2->y, endy, &x1, dx, &x2, dx2, pattern);
 462:mini3d/render.c **** 		fillRange(bitmap, rowstride, p2->y, endy, &x1, dx, &x2, dx2, pattern);
 3177              		.loc 1 462 3 discriminator 4 view .LVU802
 3178 0168 1B9B     		ldr	r3, [sp, #108]	@ tmp254, pattern
 3179 016a 0493     		str	r3, [sp, #16]	@ tmp254,
 3180              	.LVL255:
 3181              	.LBB286:
 3182              	.LBB282:
 3183              	@ mini3d/render.c:202: 		return dx / dy * (1<<16);
 202:mini3d/render.c **** }
 3184              		.loc 1 202 18 discriminator 4 view .LVU803
 3185 016c BEEEC86A 		vcvt.s32.f32	s12, s12, #16	@ _78, tmp196,
 3186              	.LVL256:
 202:mini3d/render.c **** }
 3187              		.loc 1 202 18 discriminator 4 view .LVU804
 3188              	.LBE282:
 3189              	.LBE286:
 459:mini3d/render.c **** 	{
 3190              		.loc 1 459 2 is_stmt 1 discriminator 4 view .LVU805
 3191              	@ mini3d/render.c:459: 	if ( sb < sc )
ARM GAS  /var/folders/cs/83z6p2tj4w57s6p2rt8nwfp00000gn/T//ccDzWS9O.s 			page 77


 459:mini3d/render.c **** 	{
 3192              		.loc 1 459 5 is_stmt 0 discriminator 4 view .LVU806
 3193 0170 5DDD     		ble	.L218		@,
 461:mini3d/render.c **** 		fillRange(bitmap, rowstride, p2->y, endy, &x1, dx, &x2, dx2, pattern);
 3194              		.loc 1 461 3 is_stmt 1 view .LVU807
 3195              	@ mini3d/render.c:462: 		fillRange(bitmap, rowstride, p2->y, endy, &x1, dx, &x2, dx2, pattern);
 3196              		.loc 1 462 3 is_stmt 0 view .LVU808
 3197 0172 BDEEE57A 		vcvt.s32.f32	s14, s11	@ tmp256, _15
 3198 0176 099B     		ldr	r3, [sp, #36]	@ dx2, %sfp
 3199 0178 069A     		ldr	r2, [sp, #24]	@ tmp221, %sfp
 3200 017a 0393     		str	r3, [sp, #12]	@ dx2,
 3201 017c 5B46     		mov	r3, fp	@, iftmp.19_35
 3202 017e 0092     		str	r2, [sp]	@ tmp221,
 3203 0180 17EE102A 		vmov	r2, s14	@ int	@, tmp256
 3204 0184 0297     		str	r7, [sp, #8]	@ tmp220,
 3205 0186 8DED016A 		vstr.32	s12, [sp, #4]	@ int	@ _78,
 3206              	@ mini3d/render.c:461: 		x1 = p2->x * (1<<16);
 461:mini3d/render.c **** 		fillRange(bitmap, rowstride, p2->y, endy, &x1, dx, &x2, dx2, pattern);
 3207              		.loc 1 461 6 view .LVU809
 3208 018a CDED0D7A 		vstr.32	s15, [sp, #52]	@ int	@ tmp201, x1
 3209              		.loc 1 462 3 is_stmt 1 view .LVU810
 3210 018e FFF7FEFF 		bl	fillRange		@
 3211              	.LVL257:
 463:mini3d/render.c **** 	}
 464:mini3d/render.c **** 	else
 465:mini3d/render.c **** 	{
 466:mini3d/render.c **** 		x2 = p2->x * (1<<16);
 467:mini3d/render.c **** 		fillRange(bitmap, rowstride, p2->y, endy, &x1, dx1, &x2, dx, pattern);
 468:mini3d/render.c **** 	}
 469:mini3d/render.c **** 	
 470:mini3d/render.c **** 	return (LCDRowRange){ MAX(0, p1->y), endy };
 3212              		.loc 1 470 2 view .LVU811
 3213              	@ mini3d/render.c:470: 	return (LCDRowRange){ MAX(0, p1->y), endy };
 3214              		.loc 1 470 24 is_stmt 0 view .LVU812
 3215 0192 D8ED017A 		vldr.32	s15, [r8, #4]	@ _26, p1_99->y
 3216              	@ mini3d/render.c:470: 	return (LCDRowRange){ MAX(0, p1->y), endy };
 3217              		.loc 1 470 9 view .LVU813
 3218 0196 F5EEC07A 		vcmpe.f32	s15, #0	@ _26
 3219 019a F1EE10FA 		vmrs	APSR_nzcv, FPSCR
 3220 019e 5DD4     		bmi	.L224		@,
 3221              	.L243:
 3222              	@ mini3d/render.c:470: 	return (LCDRowRange){ MAX(0, p1->y), endy };
 3223              		.loc 1 470 9 discriminator 2 view .LVU814
 3224 01a0 FDEEE77A 		vcvt.s32.f32	s15, s15	@ tmp213, _26
 3225 01a4 17EE903A 		vmov	r3, s15	@ int	@ tmp213, tmp213
 3226 01a8 1BB2     		sxth	r3, r3	@ iftmp.45_30, tmp213
 3227              	.L220:
 3228              	@ mini3d/render.c:470: 	return (LCDRowRange){ MAX(0, p1->y), endy };
 3229              		.loc 1 470 9 discriminator 4 view .LVU815
 3230 01aa ADF83C30 		strh	r3, [sp, #60]	@ movhi	@ iftmp.45_30, D.7770.start
 3231 01ae ADF83EA0 		strh	r10, [sp, #62]	@ movhi	@ prephitmp_28, D.7770.end
 3232 01b2 30E0     		b	.L207		@
 3233              	.LVL258:
 3234              	.L195:
 3235              	.LBB287:
 3236              	.LBB256:
 406:mini3d/render.c **** 	{
ARM GAS  /var/folders/cs/83z6p2tj4w57s6p2rt8nwfp00000gn/T//ccDzWS9O.s 			page 78


 3237              		.loc 1 406 7 is_stmt 1 view .LVU816
 3238              	@ mini3d/render.c:406: 	else if ( y2 < y1 && y2 < y3 )
 406:mini3d/render.c **** 	{
 3239              		.loc 1 406 10 is_stmt 0 view .LVU817
 3240 01b4 F4EEE76A 		vcmpe.f32	s13, s15	@ y1, y2
 3241 01b8 F1EE10FA 		vmrs	APSR_nzcv, FPSCR
 3242 01bc 13DD     		ble	.L200		@,
 3243              	@ mini3d/render.c:406: 	else if ( y2 < y1 && y2 < y3 )
 406:mini3d/render.c **** 	{
 3244              		.loc 1 406 20 view .LVU818
 3245 01be F4EEC77A 		vcmpe.f32	s15, s14	@ y2, y3
 3246 01c2 F1EE10FA 		vmrs	APSR_nzcv, FPSCR
 3247 01c6 0ED5     		bpl	.L200		@,
 3248              	.LBB251:
 408:mini3d/render.c **** 		*p1 = *p2;
 3249              		.loc 1 408 3 is_stmt 1 view .LVU819
 3250              	.LVL259:
 409:mini3d/render.c **** 
 3251              		.loc 1 409 3 view .LVU820
 411:mini3d/render.c **** 		{
 3252              		.loc 1 411 3 view .LVU821
 3253              	@ mini3d/render.c:411: 		if ( y3 < y1 ) // 2,3,1
 411:mini3d/render.c **** 		{
 3254              		.loc 1 411 6 is_stmt 0 view .LVU822
 3255 01c8 F4EEC76A 		vcmpe.f32	s13, s14	@ y1, y3
 3256 01cc F1EE10FA 		vmrs	APSR_nzcv, FPSCR
 3257 01d0 61DC     		bgt	.L222		@,
 3258 01d2 F0EE676A 		vmov.f32	s13, s15	@ y2, y2
 3259              	.LVL260:
 411:mini3d/render.c **** 		{
 3260              		.loc 1 411 6 view .LVU823
 3261 01d6 4346     		mov	r3, r8	@ p3, p3
 3262              	.LVL261:
 411:mini3d/render.c **** 		{
 3263              		.loc 1 411 6 view .LVU824
 3264 01d8 F0EE477A 		vmov.f32	s15, s14	@ y2, y3
 3265              	.LVL262:
 411:mini3d/render.c **** 		{
 3266              		.loc 1 411 6 view .LVU825
 3267 01dc A846     		mov	r8, r5	@ p3, p2
 3268 01de 1D46     		mov	r5, r3	@ p2, p3
 3269              	.LVL263:
 411:mini3d/render.c **** 		{
 3270              		.loc 1 411 6 view .LVU826
 3271 01e0 B0EE667A 		vmov.f32	s14, s13	@ y3, y2
 3272              	.LVL264:
 411:mini3d/render.c **** 		{
 3273              		.loc 1 411 6 view .LVU827
 3274 01e4 30E7     		b	.L198		@
 3275              	.LVL265:
 3276              	.L200:
 411:mini3d/render.c **** 		{
 3277              		.loc 1 411 6 view .LVU828
 3278              	.LBE251:
 3279              	.LBB252:
 421:mini3d/render.c **** 		*p1 = *p3;
 3280              		.loc 1 421 3 is_stmt 1 view .LVU829
ARM GAS  /var/folders/cs/83z6p2tj4w57s6p2rt8nwfp00000gn/T//ccDzWS9O.s 			page 79


 422:mini3d/render.c **** 		
 3281              		.loc 1 422 3 view .LVU830
 424:mini3d/render.c **** 		{
 3282              		.loc 1 424 3 view .LVU831
 3283              	@ mini3d/render.c:424: 		if ( y1 < y2 ) // 3,1,2
 424:mini3d/render.c **** 		{
 3284              		.loc 1 424 6 is_stmt 0 view .LVU832
 3285 01e6 F4EEE76A 		vcmpe.f32	s13, s15	@ y1, y2
 3286 01ea F1EE10FA 		vmrs	APSR_nzcv, FPSCR
 3287 01ee 3FF52BAF 		bmi	.L198		@,
 3288 01f2 2346     		mov	r3, r4	@ p1, p1
 3289              	.LVL266:
 424:mini3d/render.c **** 		{
 3290              		.loc 1 424 6 view .LVU833
 3291 01f4 F0EE667A 		vmov.f32	s15, s13	@ y2, y1
 3292              	.LVL267:
 424:mini3d/render.c **** 		{
 3293              		.loc 1 424 6 view .LVU834
 3294 01f8 2C46     		mov	r4, r5	@ p1, p2
 3295 01fa 1D46     		mov	r5, r3	@ p2, p1
 3296              	.LVL268:
 424:mini3d/render.c **** 		{
 3297              		.loc 1 424 6 view .LVU835
 3298 01fc 24E7     		b	.L198		@
 3299              	.LVL269:
 3300              	.L235:
 424:mini3d/render.c **** 		{
 3301              		.loc 1 424 6 view .LVU836
 3302              	.LBE252:
 3303              	.LBE256:
 3304              	.LBE287:
 443:mini3d/render.c **** 		return (LCDRowRange){ 0, 0 };
 3305              		.loc 1 443 2 is_stmt 1 discriminator 2 view .LVU837
 3306              	@ mini3d/render.c:443: 	if ( p1->y > LCD_ROWS || endy < 0 )
 443:mini3d/render.c **** 		return (LCDRowRange){ 0, 0 };
 3307              		.loc 1 443 5 is_stmt 0 discriminator 2 view .LVU838
 3308 01fe F1EE10FA 		vmrs	APSR_nzcv, FPSCR
 3309 0202 06DC     		bgt	.L205		@,
 3310              	@ mini3d/render.c:441: 	int endy = MIN(LCD_ROWS, p3->y);
 441:mini3d/render.c **** 	
 3311              		.loc 1 441 6 discriminator 1 view .LVU839
 3312 0204 FDEEE76A 		vcvt.s32.f32	s13, s15	@ iftmp.19_35, y2
 3313 0208 16EE90BA 		vmov	fp, s13	@ int	@ iftmp.19_35, iftmp.19_35
 3314              	@ mini3d/render.c:443: 	if ( p1->y > LCD_ROWS || endy < 0 )
 443:mini3d/render.c **** 		return (LCDRowRange){ 0, 0 };
 3315              		.loc 1 443 24 discriminator 1 view .LVU840
 3316 020c BBF1000F 		cmp	fp, #0	@ iftmp.19_35,
 3317 0210 28DA     		bge	.L242		@,
 3318              	.LVL270:
 3319              	.L205:
 3320              	.LBB288:
 444:mini3d/render.c **** 
 3321              		.loc 1 444 3 is_stmt 1 view .LVU841
 3322              	@ mini3d/render.c:444: 		return (LCDRowRange){ 0, 0 };
 444:mini3d/render.c **** 
 3323              		.loc 1 444 10 is_stmt 0 view .LVU842
 3324 0212 0023     		movs	r3, #0	@ tmp171,
ARM GAS  /var/folders/cs/83z6p2tj4w57s6p2rt8nwfp00000gn/T//ccDzWS9O.s 			page 80


 3325 0214 0F93     		str	r3, [sp, #60]	@ tmp171, MEM[(short int *)&D.7770]
 3326              	.LVL271:
 3327              	.L207:
 444:mini3d/render.c **** 
 3328              		.loc 1 444 10 view .LVU843
 3329 0216 BDF83C20 		ldrh	r2, [sp, #60]	@ D.7770, D.7770
 3330 021a 0020     		movs	r0, #0	@ D.7770,
 3331 021c BDF83E30 		ldrh	r3, [sp, #62]	@ D.7770, D.7770
 3332 0220 62F30F00 		bfi	r0, r2, #0, #16	@ D.7770, D.7770,,
 3333 0224 63F31F40 		bfi	r0, r3, #16, #16	@ D.7770, D.7770,,
 3334              	.LBE288:
 3335              	@ mini3d/render.c:471: }
 471:mini3d/render.c **** }
 3336              		.loc 1 471 1 discriminator 1 view .LVU844
 3337 0228 11B0     		add	sp, sp, #68	@,,
 3338              	.LCFI27:
 3339              		.cfi_remember_state
 3340              		.cfi_def_cfa_offset 36
 3341              		@ sp needed	@
 3342 022a BDE8F08F 		pop	{r4, r5, r6, r7, r8, r9, r10, fp, pc}	@
 3343              	.LVL272:
 3344              	.L218:
 3345              	.LCFI28:
 3346              		.cfi_restore_state
 466:mini3d/render.c **** 		fillRange(bitmap, rowstride, p2->y, endy, &x1, dx1, &x2, dx, pattern);
 3347              		.loc 1 466 3 is_stmt 1 view .LVU845
 3348              	@ mini3d/render.c:467: 		fillRange(bitmap, rowstride, p2->y, endy, &x1, dx1, &x2, dx, pattern);
 467:mini3d/render.c **** 	}
 3349              		.loc 1 467 3 is_stmt 0 view .LVU846
 3350 022e 089A     		ldr	r2, [sp, #32]	@ dx1, %sfp
 3351 0230 BDEEE57A 		vcvt.s32.f32	s14, s11	@ tmp259, _15
 3352 0234 5B46     		mov	r3, fp	@, iftmp.19_35
 3353 0236 8DED036A 		vstr.32	s12, [sp, #12]	@ int	@ _78,
 3354 023a 0192     		str	r2, [sp, #4]	@ dx1,
 3355 023c 069A     		ldr	r2, [sp, #24]	@ tmp221, %sfp
 3356 023e 0297     		str	r7, [sp, #8]	@ tmp220,
 3357 0240 0092     		str	r2, [sp]	@ tmp221,
 3358 0242 17EE102A 		vmov	r2, s14	@ int	@, tmp259
 3359              	@ mini3d/render.c:466: 		x2 = p2->x * (1<<16);
 466:mini3d/render.c **** 		fillRange(bitmap, rowstride, p2->y, endy, &x1, dx1, &x2, dx, pattern);
 3360              		.loc 1 466 6 view .LVU847
 3361 0246 CDED0E7A 		vstr.32	s15, [sp, #56]	@ int	@ tmp207, x2
 467:mini3d/render.c **** 	}
 3362              		.loc 1 467 3 is_stmt 1 view .LVU848
 3363 024a FFF7FEFF 		bl	fillRange		@
 3364              	.LVL273:
 470:mini3d/render.c **** }
 3365              		.loc 1 470 2 view .LVU849
 3366              	@ mini3d/render.c:470: 	return (LCDRowRange){ MAX(0, p1->y), endy };
 470:mini3d/render.c **** }
 3367              		.loc 1 470 24 is_stmt 0 view .LVU850
 3368 024e D8ED017A 		vldr.32	s15, [r8, #4]	@ _26, p1_99->y
 3369              	@ mini3d/render.c:470: 	return (LCDRowRange){ MAX(0, p1->y), endy };
 470:mini3d/render.c **** }
 3370              		.loc 1 470 9 view .LVU851
 3371 0252 F5EEC07A 		vcmpe.f32	s15, #0	@ _26
 3372 0256 F1EE10FA 		vmrs	APSR_nzcv, FPSCR
ARM GAS  /var/folders/cs/83z6p2tj4w57s6p2rt8nwfp00000gn/T//ccDzWS9O.s 			page 81


 3373 025a A1D5     		bpl	.L243		@,
 3374              	.L224:
 470:mini3d/render.c **** }
 3375              		.loc 1 470 9 view .LVU852
 3376 025c 0023     		movs	r3, #0	@ iftmp.45_30,
 3377 025e A4E7     		b	.L220		@
 3378              	.LVL274:
 3379              	.L223:
 3380              	@ mini3d/render.c:455: 	fillRange(bitmap, rowstride, p1->y, MIN(LCD_ROWS, p2->y), &x1, dx1, &x2, dx
 455:mini3d/render.c **** 	
 3381              		.loc 1 455 2 view .LVU853
 3382 0260 F023     		movs	r3, #240	@ iftmp.34_29,
 3383              	.LVL275:
 455:mini3d/render.c **** 	
 3384              		.loc 1 455 2 view .LVU854
 3385 0262 54E7     		b	.L214		@
 3386              	.LVL276:
 3387              	.L242:
 455:mini3d/render.c **** 	
 3388              		.loc 1 455 2 view .LVU855
 3389 0264 0FFA8BFA 		sxth	r10, fp	@ prephitmp_28, iftmp.19_35
 3390 0268 FFE6     		b	.L206		@
 3391              	.LVL277:
 3392              	.L234:
 3393              	.LBB289:
 3394              	.LBB257:
 455:mini3d/render.c **** 	
 3395              		.loc 1 455 2 view .LVU856
 3396 026a F0EE477A 		vmov.f32	s15, s14	@ y2, y3
 3397              	.LVL278:
 455:mini3d/render.c **** 	
 3398              		.loc 1 455 2 view .LVU857
 3399 026e 2C46     		mov	r4, r5	@ p1, p2
 3400 0270 B0EE667A 		vmov.f32	s14, s13	@ y3, y1
 3401              	.LVL279:
 455:mini3d/render.c **** 	
 3402              		.loc 1 455 2 view .LVU858
 3403 0274 9046     		mov	r8, r2	@ p3, p1
 3404 0276 1D46     		mov	r5, r3	@ p2, p3
 3405              	.LVL280:
 455:mini3d/render.c **** 	
 3406              		.loc 1 455 2 view .LVU859
 3407 0278 E6E6     		b	.L198		@
 3408              	.LVL281:
 3409              	.L241:
 455:mini3d/render.c **** 	
 3410              		.loc 1 455 2 view .LVU860
 3411              	.LBE257:
 3412              	.LBE289:
 3413              	.LBB290:
 3414              	.LBB276:
 200:mini3d/render.c **** 	else
 3415              		.loc 1 200 3 is_stmt 1 view .LVU861
 3416              	@ mini3d/render.c:200: 		return dx * (1<<16);
 200:mini3d/render.c **** 	else
 3417              		.loc 1 200 13 is_stmt 0 view .LVU862
 3418 027a F0EE467A 		vmov.f32	s15, s12	@ _62, dx
ARM GAS  /var/folders/cs/83z6p2tj4w57s6p2rt8nwfp00000gn/T//ccDzWS9O.s 			page 82


 3419              	.LVL282:
 200:mini3d/render.c **** 	else
 3420              		.loc 1 200 13 view .LVU863
 3421 027e FEEEC87A 		vcvt.s32.f32	s15, s15, #16	@ _62, _62,
 3422 0282 17EE909A 		vmov	r9, s15	@ int	@ _62, _62
 3423 0286 28E7     		b	.L213		@
 3424              	.LVL283:
 3425              	.L240:
 200:mini3d/render.c **** 	else
 3426              		.loc 1 200 13 view .LVU864
 3427              	.LBE276:
 3428              	.LBE290:
 3429              	.LBB291:
 3430              	.LBB268:
 200:mini3d/render.c **** 	else
 3431              		.loc 1 200 3 is_stmt 1 view .LVU865
 3432              	@ mini3d/render.c:200: 		return dx * (1<<16);
 200:mini3d/render.c **** 	else
 3433              		.loc 1 200 13 is_stmt 0 view .LVU866
 3434 0288 B0EE655A 		vmov.f32	s10, s11	@ _70, dx
 3435              	.LVL284:
 200:mini3d/render.c **** 	else
 3436              		.loc 1 200 13 view .LVU867
 3437 028c BEEEC85A 		vcvt.s32.f32	s10, s10, #16	@ _70, _70,
 3438 0290 8DED075A 		vstr.32	s10, [sp, #28]	@ int	@ _70, %sfp
 3439 0294 0BE7     		b	.L210		@
 3440              	.LVL285:
 3441              	.L222:
 200:mini3d/render.c **** 	else
 3442              		.loc 1 200 13 view .LVU868
 3443              	.LBE268:
 3444              	.LBE291:
 3445              	.LBB292:
 3446              	.LBB258:
 3447              	.LBB253:
 3448 0296 4346     		mov	r3, r8	@ p3, p3
 3449              	.LVL286:
 200:mini3d/render.c **** 	else
 3450              		.loc 1 200 13 view .LVU869
 3451 0298 B0EE677A 		vmov.f32	s14, s15	@ y3, y2
 3452              	.LVL287:
 200:mini3d/render.c **** 	else
 3453              		.loc 1 200 13 view .LVU870
 3454 029c A846     		mov	r8, r5	@ p3, p2
 3455              	.LVL288:
 200:mini3d/render.c **** 	else
 3456              		.loc 1 200 13 view .LVU871
 3457 029e F0EE667A 		vmov.f32	s15, s13	@ y2, y1
 3458              	.LVL289:
 200:mini3d/render.c **** 	else
 3459              		.loc 1 200 13 view .LVU872
 3460 02a2 2546     		mov	r5, r4	@ p2, p1
 3461              	.LVL290:
 200:mini3d/render.c **** 	else
 3462              		.loc 1 200 13 view .LVU873
 3463 02a4 1C46     		mov	r4, r3	@ p1, p3
 3464 02a6 CFE6     		b	.L198		@
ARM GAS  /var/folders/cs/83z6p2tj4w57s6p2rt8nwfp00000gn/T//ccDzWS9O.s 			page 83


 3465              	.L245:
 3466              		.align	2
 3467              	.L244:
 3468 02a8 00007043 		.word	1131413504
 3469              	.LBE253:
 3470              	.LBE258:
 3471              	.LBE292:
 3472              		.cfi_endproc
 3473              	.LFE23:
 3474              		.size	fillTriangle, .-fillTriangle
 3475              		.section	.text.fillTriangle_zbuf,"ax",%progbits
 3476              		.align	1
 3477              		.p2align 4,,15
 3478              		.global	fillTriangle_zbuf
 3479              		.syntax unified
 3480              		.thumb
 3481              		.thumb_func
 3482              		.fpu fpv5-sp-d16
 3483              		.type	fillTriangle_zbuf, %function
 3484              	fillTriangle_zbuf:
 3485              	.LVL291:
 3486              	.LFB24:
 472:mini3d/render.c **** 
 473:mini3d/render.c **** #if ENABLE_Z_BUFFER
 474:mini3d/render.c **** LCDRowRange fillTriangle_zbuf(uint8_t* bitmap, int rowstride, Point3D* p1, Point3D* p2, Point3D* p3
 475:mini3d/render.c **** {
 3487              		.loc 1 475 1 is_stmt 1 view -0
 3488              		.cfi_startproc
 3489              		@ args = 8, pretend = 0, frame = 32
 3490              		@ frame_needed = 0, uses_anonymous_args = 0
 476:mini3d/render.c **** 	sortTri(&p1, &p2, &p3);
 3491              		.loc 1 476 2 view .LVU875
 3492              	.LBB315:
 3493              	.LBI315:
 393:mini3d/render.c **** {
 3494              		.loc 1 393 20 view .LVU876
 3495              	.LBB316:
 395:mini3d/render.c **** 	
 3496              		.loc 1 395 2 view .LVU877
 3497              	@ mini3d/render.c:395: 	float y1 = (*p1)->y, y2 = (*p2)->y, y3 = (*p3)->y;
 395:mini3d/render.c **** 	
 3498              		.loc 1 395 8 is_stmt 0 view .LVU878
 3499 0000 92ED017A 		vldr.32	s14, [r2, #4]	@ y1, p1_168(D)->y
 3500              	.LVL292:
 3501              	@ mini3d/render.c:395: 	float y1 = (*p1)->y, y2 = (*p2)->y, y3 = (*p3)->y;
 395:mini3d/render.c **** 	
 3502              		.loc 1 395 23 view .LVU879
 3503 0004 D3ED017A 		vldr.32	s15, [r3, #4]	@ y2, p2_169(D)->y
 3504              	.LVL293:
 3505              	@ mini3d/render.c:397: 	if ( y1 <= y2 && y1 < y3 )
 397:mini3d/render.c **** 	{
 3506              		.loc 1 397 5 view .LVU880
 3507 0008 B4EEE77A 		vcmpe.f32	s14, s15	@ y1, y2
 3508              	.LBE316:
 3509              	.LBE315:
 3510              	@ mini3d/render.c:475: {
 475:mini3d/render.c **** 	sortTri(&p1, &p2, &p3);
ARM GAS  /var/folders/cs/83z6p2tj4w57s6p2rt8nwfp00000gn/T//ccDzWS9O.s 			page 84


 3511              		.loc 1 475 1 view .LVU881
 3512 000c 2DE9F04F 		push	{r4, r5, r6, r7, r8, r9, r10, fp, lr}	@
 3513              	.LCFI29:
 3514              		.cfi_def_cfa_offset 36
 3515              		.cfi_offset 4, -36
 3516              		.cfi_offset 5, -32
 3517              		.cfi_offset 6, -28
 3518              		.cfi_offset 7, -24
 3519              		.cfi_offset 8, -20
 3520              		.cfi_offset 9, -16
 3521              		.cfi_offset 10, -12
 3522              		.cfi_offset 11, -8
 3523              		.cfi_offset 14, -4
 3524 0010 91B0     		sub	sp, sp, #68	@,,
 3525              	.LCFI30:
 3526              		.cfi_def_cfa_offset 104
 3527              	.LBB327:
 3528              	.LBB321:
 3529              	@ mini3d/render.c:397: 	if ( y1 <= y2 && y1 < y3 )
 397:mini3d/render.c **** 	{
 3530              		.loc 1 397 5 view .LVU882
 3531 0012 F1EE10FA 		vmrs	APSR_nzcv, FPSCR
 3532              	.LBE321:
 3533              	.LBE327:
 3534              	@ mini3d/render.c:475: {
 475:mini3d/render.c **** 	sortTri(&p1, &p2, &p3);
 3535              		.loc 1 475 1 view .LVU883
 3536 0016 1446     		mov	r4, r2	@ p1, tmp346
 3537 0018 1D46     		mov	r5, r3	@ p2, tmp347
 3538 001a 1A9E     		ldr	r6, [sp, #104]	@ p3, p3
 3539              	.LBB328:
 3540              	.LBB322:
 3541              	@ mini3d/render.c:395: 	float y1 = (*p1)->y, y2 = (*p2)->y, y3 = (*p3)->y;
 395:mini3d/render.c **** 	
 3542              		.loc 1 395 38 view .LVU884
 3543 001c D6ED016A 		vldr.32	s13, [r6, #4]	@ y3, p3_170(D)->y
 3544              	.LVL294:
 397:mini3d/render.c **** 	{
 3545              		.loc 1 397 2 is_stmt 1 view .LVU885
 3546              	@ mini3d/render.c:397: 	if ( y1 <= y2 && y1 < y3 )
 397:mini3d/render.c **** 	{
 3547              		.loc 1 397 5 is_stmt 0 view .LVU886
 3548 0020 00F24681 		bhi	.L247		@,
 3549              	@ mini3d/render.c:397: 	if ( y1 <= y2 && y1 < y3 )
 397:mini3d/render.c **** 	{
 3550              		.loc 1 397 16 view .LVU887
 3551 0024 B4EEE67A 		vcmpe.f32	s14, s13	@ y1, y3
 3552 0028 F1EE10FA 		vmrs	APSR_nzcv, FPSCR
 3553 002c 40F14081 		bpl	.L247		@,
 399:mini3d/render.c **** 		{
 3554              		.loc 1 399 3 is_stmt 1 view .LVU888
 3555              	@ mini3d/render.c:399: 		if ( y3 < y2 ) // 1,3,2
 399:mini3d/render.c **** 		{
 3556              		.loc 1 399 6 is_stmt 0 view .LVU889
 3557 0030 F4EEE67A 		vcmpe.f32	s15, s13	@ y2, y3
 3558 0034 F1EE10FA 		vmrs	APSR_nzcv, FPSCR
 3559 0038 40F3A681 		ble	.L303		@,
ARM GAS  /var/folders/cs/83z6p2tj4w57s6p2rt8nwfp00000gn/T//ccDzWS9O.s 			page 85


 3560 003c B0EE476A 		vmov.f32	s12, s14	@ y1, y1
 3561 0040 3346     		mov	r3, r6	@ p3, p3
 3562              	.LVL295:
 399:mini3d/render.c **** 		{
 3563              		.loc 1 399 6 view .LVU890
 3564 0042 B0EE667A 		vmov.f32	s14, s13	@ y1, y3
 3565              	.LVL296:
 399:mini3d/render.c **** 		{
 3566              		.loc 1 399 6 view .LVU891
 3567 0046 1646     		mov	r6, r2	@ p3, p1
 3568 0048 1C46     		mov	r4, r3	@ p1, p3
 3569 004a F0EE466A 		vmov.f32	s13, s12	@ y3, y1
 3570              	.LVL297:
 3571              	.L250:
 399:mini3d/render.c **** 		{
 3572              		.loc 1 399 6 view .LVU892
 3573              	.LBE322:
 3574              	.LBE328:
 477:mini3d/render.c **** 	
 478:mini3d/render.c **** 	int endy = MIN(LCD_ROWS, p3->y);
 3575              		.loc 1 478 2 is_stmt 1 view .LVU893
 3576              	@ mini3d/render.c:478: 	int endy = MIN(LCD_ROWS, p3->y);
 3577              		.loc 1 478 6 is_stmt 0 view .LVU894
 3578 004e 9FEDE46A 		vldr.32	s12, .L320	@ tmp223,
 3579 0052 F4EEC67A 		vcmpe.f32	s15, s12	@ y2, tmp223
 3580 0056 F1EE10FA 		vmrs	APSR_nzcv, FPSCR
 3581 005a 00F35A81 		bgt	.L288		@,
 3582              	.L317:
 3583              	@ mini3d/render.c:478: 	int endy = MIN(LCD_ROWS, p3->y);
 3584              		.loc 1 478 6 discriminator 2 view .LVU895
 3585 005e BDEEE76A 		vcvt.s32.f32	s12, s15	@ iftmp.48_55, y2
 3586 0062 16EE10AA 		vmov	r10, s12	@ int	@ iftmp.48_55, iftmp.48_55
 3587              	.LVL298:
 479:mini3d/render.c **** 	int det = (p3->x - p1->x) * (p2->y - p1->y) - (p2->x - p1->x) * (p3->y - p1->y);
 3588              		.loc 1 479 2 is_stmt 1 discriminator 2 view .LVU896
 480:mini3d/render.c **** 	
 481:mini3d/render.c **** 	if ( p1->y > LCD_ROWS || endy < 0 || det == 0 )
 3589              		.loc 1 481 2 discriminator 2 view .LVU897
 3590              	@ mini3d/render.c:481: 	if ( p1->y > LCD_ROWS || endy < 0 || det == 0 )
 3591              		.loc 1 481 5 is_stmt 0 discriminator 2 view .LVU898
 3592 0066 9FEDDE6A 		vldr.32	s12, .L320	@ tmp224,
 3593 006a F4EEC66A 		vcmpe.f32	s13, s12	@ y3, tmp224
 3594 006e F1EE10FA 		vmrs	APSR_nzcv, FPSCR
 3595 0072 00F35881 		bgt	.L256		@,
 3596              	.LVL299:
 3597              	.L318:
 3598              	@ mini3d/render.c:479: 	int det = (p3->x - p1->x) * (p2->y - p1->y) - (p2->x - p1->x) * (p3->y - p1
 479:mini3d/render.c **** 	int det = (p3->x - p1->x) * (p2->y - p1->y) - (p2->x - p1->x) * (p3->y - p1->y);
 3599              		.loc 1 479 23 discriminator 1 view .LVU899
 3600 0076 96ED005A 		vldr.32	s10, [r6]	@ _5, p1_165->x
 3601              	@ mini3d/render.c:479: 	int det = (p3->x - p1->x) * (p2->y - p1->y) - (p2->x - p1->x) * (p3->y - p1
 479:mini3d/render.c **** 	int det = (p3->x - p1->x) * (p2->y - p1->y) - (p2->x - p1->x) * (p3->y - p1->y);
 3602              		.loc 1 479 37 discriminator 1 view .LVU900
 3603 007a 77EE664A 		vsub.f32	s9, s14, s13	@ _10, y1, y3
 3604              	@ mini3d/render.c:479: 	int det = (p3->x - p1->x) * (p2->y - p1->y) - (p2->x - p1->x) * (p3->y - p1
 479:mini3d/render.c **** 	int det = (p3->x - p1->x) * (p2->y - p1->y) - (p2->x - p1->x) * (p3->y - p1->y);
 3605              		.loc 1 479 19 discriminator 1 view .LVU901
ARM GAS  /var/folders/cs/83z6p2tj4w57s6p2rt8nwfp00000gn/T//ccDzWS9O.s 			page 86


 3606 007e 95ED006A 		vldr.32	s12, [r5]	@ p3_167->x, p3_167->x
 3607              	@ mini3d/render.c:479: 	int det = (p3->x - p1->x) * (p2->y - p1->y) - (p2->x - p1->x) * (p3->y - p1
 479:mini3d/render.c **** 	int det = (p3->x - p1->x) * (p2->y - p1->y) - (p2->x - p1->x) * (p3->y - p1->y);
 3608              		.loc 1 479 73 discriminator 1 view .LVU902
 3609 0082 77EEE67A 		vsub.f32	s15, s15, s13	@ _14, y2, y3
 3610              	@ mini3d/render.c:479: 	int det = (p3->x - p1->x) * (p2->y - p1->y) - (p2->x - p1->x) * (p3->y - p1
 479:mini3d/render.c **** 	int det = (p3->x - p1->x) * (p2->y - p1->y) - (p2->x - p1->x) * (p3->y - p1->y);
 3611              		.loc 1 479 51 discriminator 1 view .LVU903
 3612 0086 D4ED002A 		vldr.32	s5, [r4]	@ _12, p2_166->x
 3613              	@ mini3d/render.c:479: 	int det = (p3->x - p1->x) * (p2->y - p1->y) - (p2->x - p1->x) * (p3->y - p1
 479:mini3d/render.c **** 	int det = (p3->x - p1->x) * (p2->y - p1->y) - (p2->x - p1->x) * (p3->y - p1->y);
 3614              		.loc 1 479 19 discriminator 1 view .LVU904
 3615 008a 36EE456A 		vsub.f32	s12, s12, s10	@ _6, p3_167->x, _5
 3616              	@ mini3d/render.c:479: 	int det = (p3->x - p1->x) * (p2->y - p1->y) - (p2->x - p1->x) * (p3->y - p1
 479:mini3d/render.c **** 	int det = (p3->x - p1->x) * (p2->y - p1->y) - (p2->x - p1->x) * (p3->y - p1->y);
 3617              		.loc 1 479 55 discriminator 1 view .LVU905
 3618 008e 32EEC53A 		vsub.f32	s6, s5, s10	@ _13, _12, _5
 3619              	@ mini3d/render.c:479: 	int det = (p3->x - p1->x) * (p2->y - p1->y) - (p2->x - p1->x) * (p3->y - p1
 479:mini3d/render.c **** 	int det = (p3->x - p1->x) * (p2->y - p1->y) - (p2->x - p1->x) * (p3->y - p1->y);
 3620              		.loc 1 479 28 discriminator 1 view .LVU906
 3621 0092 66EE243A 		vmul.f32	s7, s12, s9	@ _11, _6, _10
 3622              	@ mini3d/render.c:479: 	int det = (p3->x - p1->x) * (p2->y - p1->y) - (p2->x - p1->x) * (p3->y - p1
 479:mini3d/render.c **** 	int det = (p3->x - p1->x) * (p2->y - p1->y) - (p2->x - p1->x) * (p3->y - p1->y);
 3623              		.loc 1 479 46 discriminator 1 view .LVU907
 3624 0096 B0EE634A 		vmov.f32	s8, s7	@ _16, _11
 3625 009a A3EE674A 		vfms.f32	s8, s6, s15	@ _16, _13, _14
 3626              	@ mini3d/render.c:479: 	int det = (p3->x - p1->x) * (p2->y - p1->y) - (p2->x - p1->x) * (p3->y - p1
 479:mini3d/render.c **** 	int det = (p3->x - p1->x) * (p2->y - p1->y) - (p2->x - p1->x) * (p3->y - p1->y);
 3627              		.loc 1 479 6 discriminator 1 view .LVU908
 3628 009e BDEEC44A 		vcvt.s32.f32	s8, s8	@ det, _16
 3629              	@ mini3d/render.c:481: 	if ( p1->y > LCD_ROWS || endy < 0 || det == 0 )
 3630              		.loc 1 481 36 discriminator 1 view .LVU909
 3631 00a2 14EE103A 		vmov	r3, s8	@ int	@ det, det
 3632 00a6 002B     		cmp	r3, #0	@ det
 3633 00a8 00F03D81 		beq	.L256	@
 3634              		.loc 1 481 36 discriminator 1 view .LVU910
 3635 00ac BAF1000F 		cmp	r10, #0	@ iftmp.48_55,
 3636 00b0 C0F23981 		blt	.L256		@,
 482:mini3d/render.c **** 		return (LCDRowRange){ 0, 0 };
 483:mini3d/render.c **** 
 484:mini3d/render.c **** 	int32_t x1 = p1->x * (1<<16);
 3637              		.loc 1 484 2 is_stmt 1 view .LVU911
 3638              	@ mini3d/render.c:484: 	int32_t x1 = p1->x * (1<<16);
 3639              		.loc 1 484 10 is_stmt 0 view .LVU912
 3640 00b4 F0EE455A 		vmov.f32	s11, s10	@ _21, _5
 3641 00b8 FEEEC85A 		vcvt.s32.f32	s11, s11, #16	@ _21, _21,
 3642 00bc 15EE903A 		vmov	r3, s11	@ int	@ _21, _21
 3643              	.LBB329:
 3644              	.LBB330:
 3645              	@ mini3d/render.c:199: 	if ( dy < 1 )
 199:mini3d/render.c **** 		return dx * (1<<16);
 3646              		.loc 1 199 5 view .LVU913
 3647 00c0 F7EE005A 		vmov.f32	s11, #1.0e+0	@ tmp238,
 3648              	.LBE330:
 3649              	.LBE329:
 3650              	@ mini3d/render.c:485: 	int32_t x2 = x1;
 485:mini3d/render.c **** 	int32_t x2 = x1;
ARM GAS  /var/folders/cs/83z6p2tj4w57s6p2rt8nwfp00000gn/T//ccDzWS9O.s 			page 87


 3651              		.loc 1 485 10 view .LVU914
 3652 00c4 CDE90C33 		strd	r3, r3, [sp, #48]	@ _21, _21,,
 486:mini3d/render.c **** 
 487:mini3d/render.c **** 	int32_t sb = slope(p1->x, p1->y, p2->x, p2->y);
 3653              		.loc 1 487 2 is_stmt 1 view .LVU915
 3654              	.LVL300:
 3655              	.LBB333:
 3656              	.LBI329:
 194:mini3d/render.c **** {
 3657              		.loc 1 194 23 view .LVU916
 3658              	.LBB331:
 196:mini3d/render.c **** 	float dy = y2-y1;
 3659              		.loc 1 196 2 view .LVU917
 197:mini3d/render.c **** 	
 3660              		.loc 1 197 2 view .LVU918
 199:mini3d/render.c **** 		return dx * (1<<16);
 3661              		.loc 1 199 2 view .LVU919
 3662              	@ mini3d/render.c:199: 	if ( dy < 1 )
 199:mini3d/render.c **** 		return dx * (1<<16);
 3663              		.loc 1 199 5 is_stmt 0 view .LVU920
 3664 00c8 F4EEE54A 		vcmpe.f32	s9, s11	@ _10, tmp238
 3665 00cc F1EE10FA 		vmrs	APSR_nzcv, FPSCR
 3666 00d0 00F17E81 		bmi	.L313		@,
 202:mini3d/render.c **** }
 3667              		.loc 1 202 3 is_stmt 1 view .LVU921
 3668              	@ mini3d/render.c:202: 		return dx / dy * (1<<16);
 202:mini3d/render.c **** }
 3669              		.loc 1 202 13 is_stmt 0 view .LVU922
 3670 00d4 C3EE245A 		vdiv.f32	s11, s6, s9	@ tmp241, _13, _10
 3671              	@ mini3d/render.c:202: 		return dx / dy * (1<<16);
 202:mini3d/render.c **** }
 3672              		.loc 1 202 18 view .LVU923
 3673 00d8 B0EE654A 		vmov.f32	s8, s11	@ _102, tmp241
 3674 00dc BEEEC84A 		vcvt.s32.f32	s8, s8, #16	@ _102, _102,
 3675 00e0 14EE108A 		vmov	r8, s8	@ int	@ _102, _102
 3676              	.L262:
 3677              	.LVL301:
 202:mini3d/render.c **** }
 3678              		.loc 1 202 18 view .LVU924
 3679              	.LBE331:
 3680              	.LBE333:
 488:mini3d/render.c **** 	int32_t sc = slope(p1->x, p1->y, p3->x, p3->y);
 3681              		.loc 1 488 2 is_stmt 1 view .LVU925
 3682              	.LBB334:
 3683              	.LBI334:
 194:mini3d/render.c **** {
 3684              		.loc 1 194 23 view .LVU926
 3685              	.LBB335:
 196:mini3d/render.c **** 	float dy = y2-y1;
 3686              		.loc 1 196 2 view .LVU927
 197:mini3d/render.c **** 	
 3687              		.loc 1 197 2 view .LVU928
 199:mini3d/render.c **** 		return dx * (1<<16);
 3688              		.loc 1 199 2 view .LVU929
 3689              	@ mini3d/render.c:199: 	if ( dy < 1 )
 199:mini3d/render.c **** 		return dx * (1<<16);
 3690              		.loc 1 199 5 is_stmt 0 view .LVU930
ARM GAS  /var/folders/cs/83z6p2tj4w57s6p2rt8nwfp00000gn/T//ccDzWS9O.s 			page 88


 3691 00e4 F7EE005A 		vmov.f32	s11, #1.0e+0	@ tmp244,
 3692 00e8 F4EEE57A 		vcmpe.f32	s15, s11	@ _14, tmp244
 3693 00ec F1EE10FA 		vmrs	APSR_nzcv, FPSCR
 3694 00f0 00F16781 		bmi	.L314		@,
 202:mini3d/render.c **** }
 3695              		.loc 1 202 3 is_stmt 1 view .LVU931
 3696              	@ mini3d/render.c:202: 		return dx / dy * (1<<16);
 202:mini3d/render.c **** }
 3697              		.loc 1 202 13 is_stmt 0 view .LVU932
 3698 00f4 C6EE275A 		vdiv.f32	s11, s12, s15	@ tmp247, _6, _14
 3699              	@ mini3d/render.c:202: 		return dx / dy * (1<<16);
 202:mini3d/render.c **** }
 3700              		.loc 1 202 18 view .LVU933
 3701 00f8 B0EE656A 		vmov.f32	s12, s11	@ _66, tmp247
 3702 00fc BEEEC86A 		vcvt.s32.f32	s12, s12, #16	@ _66, _66,
 3703 0100 16EE109A 		vmov	r9, s12	@ int	@ _66, _66
 3704              	.L265:
 3705              	.LVL302:
 202:mini3d/render.c **** }
 3706              		.loc 1 202 18 view .LVU934
 3707              	.LBE335:
 3708              	.LBE334:
 489:mini3d/render.c **** 
 490:mini3d/render.c **** 	int32_t dx1 = MIN(sb,sc);
 3709              		.loc 1 490 2 is_stmt 1 view .LVU935
 3710              	@ mini3d/render.c:490: 	int32_t dx1 = MIN(sb,sc);
 3711              		.loc 1 490 10 is_stmt 0 view .LVU936
 3712 0104 C145     		cmp	r9, r8	@ dx1, _102
 3713 0106 4B46     		mov	r3, r9	@ dx1, _66
 3714              	@ mini3d/render.c:493: 	float z1 = zscale / (p1->z + Z_BIAS);
 491:mini3d/render.c **** 	int32_t dx2 = MAX(sb,sc);
 492:mini3d/render.c **** 	
 493:mini3d/render.c **** 	float z1 = zscale / (p1->z + Z_BIAS);
 3715              		.loc 1 493 29 view .LVU937
 3716 0108 9FEDB66A 		vldr.32	s12, .L320+4	@ tmp253,
 3717              	@ mini3d/render.c:497: 	float mx = p1->x + (p2->y-p1->y) * (p3->x-p1->x) / (p3->y-p1->y);
 494:mini3d/render.c **** 	float z2 = zscale / (p2->z + Z_BIAS);
 495:mini3d/render.c **** 	float z3 = zscale / (p3->z + Z_BIAS);
 496:mini3d/render.c **** 
 497:mini3d/render.c **** 	float mx = p1->x + (p2->y-p1->y) * (p3->x-p1->x) / (p3->y-p1->y);
 3718              		.loc 1 497 51 view .LVU938
 3719 010c C3EEA75A 		vdiv.f32	s11, s7, s15	@ tmp260, _11, _14
 3720              	@ mini3d/render.c:490: 	int32_t dx1 = MIN(sb,sc);
 490:mini3d/render.c **** 	int32_t dx2 = MAX(sb,sc);
 3721              		.loc 1 490 10 view .LVU939
 3722 0110 A8BF     		it	ge
 3723 0112 4346     		movge	r3, r8	@ dx1, _102
 3724              	@ mini3d/render.c:493: 	float z1 = zscale / (p1->z + Z_BIAS);
 493:mini3d/render.c **** 	float z2 = zscale / (p2->z + Z_BIAS);
 3725              		.loc 1 493 29 view .LVU940
 3726 0114 96ED024A 		vldr.32	s8, [r6, #8]	@ p1_165->z, p1_165->z
 3727              	@ mini3d/render.c:495: 	float z3 = zscale / (p3->z + Z_BIAS);
 495:mini3d/render.c **** 
 3728              		.loc 1 495 29 view .LVU941
 3729 0118 95ED022A 		vldr.32	s4, [r5, #8]	@ p3_167->z, p3_167->z
 3730              	@ mini3d/render.c:491: 	int32_t dx2 = MAX(sb,sc);
 491:mini3d/render.c **** 	
ARM GAS  /var/folders/cs/83z6p2tj4w57s6p2rt8nwfp00000gn/T//ccDzWS9O.s 			page 89


 3731              		.loc 1 491 10 view .LVU942
 3732 011c C145     		cmp	r9, r8	@ dx2, _102
 3733              	@ mini3d/render.c:490: 	int32_t dx1 = MIN(sb,sc);
 490:mini3d/render.c **** 	int32_t dx2 = MAX(sb,sc);
 3734              		.loc 1 490 10 view .LVU943
 3735 011e 0993     		str	r3, [sp, #36]	@ dx1, %sfp
 3736              	.LVL303:
 491:mini3d/render.c **** 	
 3737              		.loc 1 491 2 is_stmt 1 view .LVU944
 3738              	@ mini3d/render.c:491: 	int32_t dx2 = MAX(sb,sc);
 491:mini3d/render.c **** 	
 3739              		.loc 1 491 10 is_stmt 0 view .LVU945
 3740 0120 CB46     		mov	fp, r9	@ dx2, _66
 3741              	@ mini3d/render.c:493: 	float z1 = zscale / (p1->z + Z_BIAS);
 493:mini3d/render.c **** 	float z2 = zscale / (p2->z + Z_BIAS);
 3742              		.loc 1 493 20 view .LVU946
 3743 0122 B14B     		ldr	r3, .L320+8	@ tmp250,
 3744              	.LVL304:
 3745              	@ mini3d/render.c:491: 	int32_t dx2 = MAX(sb,sc);
 491:mini3d/render.c **** 	
 3746              		.loc 1 491 10 view .LVU947
 3747 0124 B8BF     		it	lt
 3748 0126 C346     		movlt	fp, r8	@ dx2, _102
 3749              	.LVL305:
 493:mini3d/render.c **** 	float z2 = zscale / (p2->z + Z_BIAS);
 3750              		.loc 1 493 2 is_stmt 1 view .LVU948
 3751              	@ mini3d/render.c:495: 	float z3 = zscale / (p3->z + Z_BIAS);
 495:mini3d/render.c **** 
 3752              		.loc 1 495 29 is_stmt 0 view .LVU949
 3753 0128 32EE062A 		vadd.f32	s4, s4, s12	@ tmp257, p3_167->z, tmp253
 3754              	@ mini3d/render.c:494: 	float z2 = zscale / (p2->z + Z_BIAS);
 494:mini3d/render.c **** 	float z3 = zscale / (p3->z + Z_BIAS);
 3755              		.loc 1 494 29 view .LVU950
 3756 012c D4ED023A 		vldr.32	s7, [r4, #8]	@ p2_166->z, p2_166->z
 3757              	@ mini3d/render.c:493: 	float z1 = zscale / (p1->z + Z_BIAS);
 493:mini3d/render.c **** 	float z2 = zscale / (p2->z + Z_BIAS);
 3758              		.loc 1 493 29 view .LVU951
 3759 0130 34EE064A 		vadd.f32	s8, s8, s12	@ tmp251, p1_165->z, tmp253
 3760              	@ mini3d/render.c:493: 	float z1 = zscale / (p1->z + Z_BIAS);
 493:mini3d/render.c **** 	float z2 = zscale / (p2->z + Z_BIAS);
 3761              		.loc 1 493 20 view .LVU952
 3762 0134 93ED003A 		vldr.32	s6, [r3]	@ zscale.70_22, zscale
 3763              	@ mini3d/render.c:494: 	float z2 = zscale / (p2->z + Z_BIAS);
 494:mini3d/render.c **** 	float z3 = zscale / (p3->z + Z_BIAS);
 3764              		.loc 1 494 29 view .LVU953
 3765 0138 73EE863A 		vadd.f32	s7, s7, s12	@ tmp254, p2_166->z, tmp253
 3766              	@ mini3d/render.c:502: 	if ( sc < sb )
 498:mini3d/render.c **** 	float mz = z1 + (p2->y-p1->y) * (z3-z1) / (p3->y-p1->y);
 499:mini3d/render.c **** 
 500:mini3d/render.c **** 	int32_t dzdx, dzdy;
 501:mini3d/render.c **** 
 502:mini3d/render.c **** 	if ( sc < sb )
 3767              		.loc 1 502 5 view .LVU954
 3768 013c C145     		cmp	r9, r8	@ _66, _102
 3769              	@ mini3d/render.c:493: 	float z1 = zscale / (p1->z + Z_BIAS);
 493:mini3d/render.c **** 	float z2 = zscale / (p2->z + Z_BIAS);
 3770              		.loc 1 493 8 view .LVU955
ARM GAS  /var/folders/cs/83z6p2tj4w57s6p2rt8nwfp00000gn/T//ccDzWS9O.s 			page 90


 3771 013e 83EE046A 		vdiv.f32	s12, s6, s8	@ z1, zscale.70_22, tmp251
 3772              	.LVL306:
 494:mini3d/render.c **** 	float z3 = zscale / (p3->z + Z_BIAS);
 3773              		.loc 1 494 2 is_stmt 1 view .LVU956
 3774              	@ mini3d/render.c:495: 	float z3 = zscale / (p3->z + Z_BIAS);
 495:mini3d/render.c **** 
 3775              		.loc 1 495 8 is_stmt 0 view .LVU957
 3776 0142 83EE024A 		vdiv.f32	s8, s6, s4	@ z3, zscale.70_22, tmp257
 3777              	@ mini3d/render.c:494: 	float z2 = zscale / (p2->z + Z_BIAS);
 494:mini3d/render.c **** 	float z3 = zscale / (p3->z + Z_BIAS);
 3778              		.loc 1 494 8 view .LVU958
 3779 0146 83EE232A 		vdiv.f32	s4, s6, s7	@ z2, zscale.70_22, tmp254
 3780              	.LVL307:
 495:mini3d/render.c **** 
 3781              		.loc 1 495 2 is_stmt 1 view .LVU959
 497:mini3d/render.c **** 	float mz = z1 + (p2->y-p1->y) * (z3-z1) / (p3->y-p1->y);
 3782              		.loc 1 497 2 view .LVU960
 3783              	@ mini3d/render.c:497: 	float mx = p1->x + (p2->y-p1->y) * (p3->x-p1->x) / (p3->y-p1->y);
 497:mini3d/render.c **** 	float mz = z1 + (p2->y-p1->y) * (z3-z1) / (p3->y-p1->y);
 3784              		.loc 1 497 8 is_stmt 0 view .LVU961
 3785 014a 75EE855A 		vadd.f32	s11, s11, s10	@ mx, tmp260, _5
 3786              	.LVL308:
 498:mini3d/render.c **** 
 3787              		.loc 1 498 2 is_stmt 1 view .LVU962
 3788              	@ mini3d/render.c:498: 	float mz = z1 + (p2->y-p1->y) * (z3-z1) / (p3->y-p1->y);
 498:mini3d/render.c **** 
 3789              		.loc 1 498 37 is_stmt 0 view .LVU963
 3790 014e 74EE463A 		vsub.f32	s7, s8, s12	@ _30, z3, z1
 3791              	@ mini3d/render.c:498: 	float mz = z1 + (p2->y-p1->y) * (z3-z1) / (p3->y-p1->y);
 498:mini3d/render.c **** 
 3792              		.loc 1 498 32 view .LVU964
 3793 0152 24EEA33A 		vmul.f32	s6, s9, s7	@ tmp261, _10, _30
 3794              	@ mini3d/render.c:498: 	float mz = z1 + (p2->y-p1->y) * (z3-z1) / (p3->y-p1->y);
 498:mini3d/render.c **** 
 3795              		.loc 1 498 42 view .LVU965
 3796 0156 83EE275A 		vdiv.f32	s10, s6, s15	@ tmp262, tmp261, _14
 3797              	@ mini3d/render.c:498: 	float mz = z1 + (p2->y-p1->y) * (z3-z1) / (p3->y-p1->y);
 498:mini3d/render.c **** 
 3798              		.loc 1 498 8 view .LVU966
 3799 015a 35EE065A 		vadd.f32	s10, s10, s12	@ mz, tmp262, z1
 3800              	.LVL309:
 500:mini3d/render.c **** 
 3801              		.loc 1 500 2 is_stmt 1 view .LVU967
 3802              		.loc 1 502 2 view .LVU968
 3803              	@ mini3d/render.c:502: 	if ( sc < sb )
 3804              		.loc 1 502 5 is_stmt 0 view .LVU969
 3805 015e 80F2F080 		bge	.L266		@,
 503:mini3d/render.c **** 	{
 504:mini3d/render.c **** 		dzdx = slope(mz, mx, z2, p2->x);
 3806              		.loc 1 504 3 is_stmt 1 view .LVU970
 3807              	.LVL310:
 3808              	.LBB337:
 3809              	.LBI337:
 194:mini3d/render.c **** {
 3810              		.loc 1 194 23 view .LVU971
 3811              	.LBB338:
 196:mini3d/render.c **** 	float dy = y2-y1;
ARM GAS  /var/folders/cs/83z6p2tj4w57s6p2rt8nwfp00000gn/T//ccDzWS9O.s 			page 91


 3812              		.loc 1 196 2 view .LVU972
 3813              	@ mini3d/render.c:197: 	float dy = y2-y1;
 197:mini3d/render.c **** 	
 3814              		.loc 1 197 8 is_stmt 0 view .LVU973
 3815 0162 72EEE55A 		vsub.f32	s11, s5, s11	@ dy, _12, mx
 3816              	.LVL311:
 3817              	@ mini3d/render.c:199: 	if ( dy < 1 )
 199:mini3d/render.c **** 		return dx * (1<<16);
 3818              		.loc 1 199 5 view .LVU974
 3819 0166 F7EE004A 		vmov.f32	s9, #1.0e+0	@ tmp263,
 3820              	.LVL312:
 3821              	@ mini3d/render.c:196: 	float dx = x2-x1;
 196:mini3d/render.c **** 	float dy = y2-y1;
 3822              		.loc 1 196 8 view .LVU975
 3823 016a 32EE455A 		vsub.f32	s10, s4, s10	@ dx, z2, mz
 3824              	.LVL313:
 197:mini3d/render.c **** 	
 3825              		.loc 1 197 2 is_stmt 1 view .LVU976
 199:mini3d/render.c **** 		return dx * (1<<16);
 3826              		.loc 1 199 2 view .LVU977
 3827              	@ mini3d/render.c:199: 	if ( dy < 1 )
 199:mini3d/render.c **** 		return dx * (1<<16);
 3828              		.loc 1 199 5 is_stmt 0 view .LVU978
 3829 016e F4EEE45A 		vcmpe.f32	s11, s9	@ dy, tmp263
 3830 0172 F1EE10FA 		vmrs	APSR_nzcv, FPSCR
 3831 0176 00F11B81 		bmi	.L315		@,
 202:mini3d/render.c **** }
 3832              		.loc 1 202 3 is_stmt 1 view .LVU979
 3833              	@ mini3d/render.c:202: 		return dx / dy * (1<<16);
 202:mini3d/render.c **** }
 3834              		.loc 1 202 13 is_stmt 0 view .LVU980
 3835 017a C5EE254A 		vdiv.f32	s9, s10, s11	@ tmp266, dx, dy
 3836              	@ mini3d/render.c:202: 		return dx / dy * (1<<16);
