ARM GAS  /var/folders/cs/83z6p2tj4w57s6p2rt8nwfp00000gn/T//ccDzWS9O.s 			page 1


   1              		.cpu cortex-m7
   2              		.eabi_attribute 27, 1	@ Tag_ABI_HardFP_use
   3              		.eabi_attribute 28, 1	@ Tag_ABI_VFP_args
   4              		.eabi_attribute 20, 1	@ Tag_ABI_FP_denormal
   5              		.eabi_attribute 21, 1	@ Tag_ABI_FP_exceptions
   6              		.eabi_attribute 23, 3	@ Tag_ABI_FP_number_model
   7              		.eabi_attribute 24, 1	@ Tag_ABI_align8_needed
   8              		.eabi_attribute 25, 1	@ Tag_ABI_align8_preserved
   9              		.eabi_attribute 26, 1	@ Tag_ABI_enum_size
  10              		.eabi_attribute 30, 2	@ Tag_ABI_optimization_goals
  11              		.eabi_attribute 34, 1	@ Tag_CPU_unaligned_access
  12              		.eabi_attribute 18, 4	@ Tag_ABI_PCS_wchar_t
  13              		.file	"render.c"
  14              	@ GNU C17 (GNU Tools for Arm Embedded Processors 9-2019-q4-major) version 9.2.1 20191025 (release) 
  15              	@	compiled by GNU C version 4.2.1 Compatible Apple LLVM 9.0.0 (clang-900.0.39.2), GMP version 6.1.0
  16              	
  17              	@ GGC heuristics: --param ggc-min-expand=100 --param ggc-min-heapsize=131072
  18              	@ options passed:  -I . -I . -I /Users/orllewin/Developer/PlaydateSDK/C_API
  19              	@ -I mini3d -imultilib thumb/v7e-m+fp/hard
  20              	@ -iprefix /usr/local/playdate/gcc-arm-none-eabi-9-2019-q4-major/bin/../lib/gcc/arm-none-eabi/9.2.1
  21              	@ -isysroot /usr/local/playdate/gcc-arm-none-eabi-9-2019-q4-major/bin/../arm-none-eabi
  22              	@ -MD build/mini3d/render.d -MF build/dep/render.o.d -MP
  23              	@ -MQ build/mini3d/render.o -D__USES_INITFINI__ -D __FPU_USED=1
  24              	@ -D TARGET_PLAYDATE=1 -D TARGET_EXTENSION=1 mini3d/render.c -mthumb
  25              	@ -mcpu=cortex-m7 -mfloat-abi=hard -mfpu=fpv5-sp-d16 -march=armv7e-m+fpv5
  26              	@ -auxbase-strip build/mini3d/render.o -g -gdwarf-2 -O2 -Wall -Wno-unused
  27              	@ -Wstrict-prototypes -Wno-unknown-pragmas -Wdouble-promotion
  28              	@ -falign-functions=16 -fomit-frame-pointer -fverbose-asm
  29              	@ -ffunction-sections -fdata-sections
  30              	@ options enabled:  -faggressive-loop-optimizations -falign-functions
  31              	@ -falign-jumps -falign-labels -falign-loops -fassume-phsa -fauto-inc-dec
  32              	@ -fbranch-count-reg -fcaller-saves -fcombine-stack-adjustments -fcommon
  33              	@ -fcompare-elim -fcprop-registers -fcrossjumping -fcse-follow-jumps
  34              	@ -fdata-sections -fdefer-pop -fdelete-null-pointer-checks -fdevirtualize
  35              	@ -fdevirtualize-speculatively -fdwarf2-cfi-asm -fearly-inlining
  36              	@ -feliminate-unused-debug-types -fexpensive-optimizations
  37              	@ -fforward-propagate -ffp-int-builtin-inexact -ffunction-cse
  38              	@ -ffunction-sections -fgcse -fgcse-lm -fgnu-runtime -fgnu-unique
  39              	@ -fguess-branch-probability -fhoist-adjacent-loads -fident -fif-conversion
  40              	@ -fif-conversion2 -findirect-inlining -finline -finline-atomics
  41              	@ -finline-functions-called-once -finline-small-functions -fipa-bit-cp
  42              	@ -fipa-cp -fipa-icf -fipa-icf-functions -fipa-icf-variables -fipa-profile
  43              	@ -fipa-pure-const -fipa-ra -fipa-reference -fipa-reference-addressable
  44              	@ -fipa-sra -fipa-stack-alignment -fipa-vrp -fira-hoist-pressure
  45              	@ -fira-share-save-slots -fira-share-spill-slots
  46              	@ -fisolate-erroneous-paths-dereference -fivopts -fkeep-static-consts
  47              	@ -fleading-underscore -flifetime-dse -flra-remat -flto-odr-type-merging
  48              	@ -fmath-errno -fmerge-constants -fmerge-debug-strings
  49              	@ -fmove-loop-invariants -fomit-frame-pointer -foptimize-sibling-calls
  50              	@ -foptimize-strlen -fpartial-inlining -fpeephole -fpeephole2 -fplt
  51              	@ -fprefetch-loop-arrays -freg-struct-return -freorder-blocks
  52              	@ -freorder-functions -frerun-cse-after-loop
  53              	@ -fsched-critical-path-heuristic -fsched-dep-count-heuristic
  54              	@ -fsched-group-heuristic -fsched-interblock -fsched-last-insn-heuristic
  55              	@ -fsched-pressure -fsched-rank-heuristic -fsched-spec
  56              	@ -fsched-spec-insn-heuristic -fsched-stalled-insns-dep -fschedule-insns
  57              	@ -fschedule-insns2 -fsection-anchors -fsemantic-interposition
ARM GAS  /var/folders/cs/83z6p2tj4w57s6p2rt8nwfp00000gn/T//ccDzWS9O.s 			page 2


  58              	@ -fshow-column -fshrink-wrap -fshrink-wrap-separate -fsigned-zeros
  59              	@ -fsplit-ivs-in-unroller -fsplit-wide-types -fssa-backprop -fssa-phiopt
  60              	@ -fstdarg-opt -fstore-merging -fstrict-aliasing
  61              	@ -fstrict-volatile-bitfields -fsync-libcalls -fthread-jumps
  62              	@ -ftoplevel-reorder -ftrapping-math -ftree-bit-ccp -ftree-builtin-call-dce
  63              	@ -ftree-ccp -ftree-ch -ftree-coalesce-vars -ftree-copy-prop -ftree-cselim
  64              	@ -ftree-dce -ftree-dominator-opts -ftree-dse -ftree-forwprop -ftree-fre
  65              	@ -ftree-loop-if-convert -ftree-loop-im -ftree-loop-ivcanon
  66              	@ -ftree-loop-optimize -ftree-parallelize-loops= -ftree-phiprop -ftree-pre
  67              	@ -ftree-pta -ftree-reassoc -ftree-scev-cprop -ftree-sink -ftree-slsr
  68              	@ -ftree-sra -ftree-switch-conversion -ftree-tail-merge -ftree-ter
  69              	@ -ftree-vrp -funit-at-a-time -fvar-tracking -fvar-tracking-assignments
  70              	@ -fverbose-asm -fzero-initialized-in-bss -masm-syntax-unified -mbe32
  71              	@ -mlittle-endian -mpic-data-is-text-relative -msched-prolog -mthumb
  72              	@ -munaligned-access -mvectorize-with-neon-quad
  73              	
  74              		.text
  75              	.Ltext0:
  76              		.cfi_sections	.debug_frame
  77              		.section	.text.drawFragment.part.0,"ax",%progbits
  78              		.align	1
  79              		.p2align 4,,15
  80              		.arch armv7e-m
  81              		.syntax unified
  82              		.thumb
  83              		.thumb_func
  84              		.fpu fpv5-sp-d16
  85              		.type	drawFragment.part.0, %function
  86              	drawFragment.part.0:
  87              	.LVL0:
  88              	.LFB27:
  89              		.file 1 "mini3d/render.c"
   1:mini3d/render.c **** //
   2:mini3d/render.c **** //  render.c
   3:mini3d/render.c **** //  Extension
   4:mini3d/render.c **** //
   5:mini3d/render.c **** //  Created by Dave Hayden on 10/20/15.
   6:mini3d/render.c **** //  Copyright © 2015 Panic, Inc. All rights reserved.
   7:mini3d/render.c **** //
   8:mini3d/render.c **** 
   9:mini3d/render.c **** #include <stdint.h>
  10:mini3d/render.c **** #include <string.h>
  11:mini3d/render.c **** #include "render.h"
  12:mini3d/render.c **** 
  13:mini3d/render.c **** #define LCD_ROWS 240
  14:mini3d/render.c **** #define LCD_COLUMNS 400
  15:mini3d/render.c **** 
  16:mini3d/render.c **** #if !defined(MIN)
  17:mini3d/render.c **** #define MIN(a, b) (((a)<(b))?(a):(b))
  18:mini3d/render.c **** #endif
  19:mini3d/render.c **** 
  20:mini3d/render.c **** #if !defined(MAX)
  21:mini3d/render.c **** #define MAX(a, b) (((a)>(b))?(a):(b))
  22:mini3d/render.c **** #endif
  23:mini3d/render.c **** 
  24:mini3d/render.c **** #if ENABLE_Z_BUFFER
  25:mini3d/render.c **** static uint16_t zbuf[LCD_COLUMNS*LCD_ROWS];
ARM GAS  /var/folders/cs/83z6p2tj4w57s6p2rt8nwfp00000gn/T//ccDzWS9O.s 			page 3


  26:mini3d/render.c **** static float zscale;
  27:mini3d/render.c **** 
  28:mini3d/render.c **** #define Z_BIAS 0
  29:mini3d/render.c **** 
  30:mini3d/render.c **** void resetZBuffer(float zmin)
  31:mini3d/render.c **** {
  32:mini3d/render.c **** 	memset(zbuf, 0, sizeof(zbuf));
  33:mini3d/render.c **** 	zscale = 0xffff * (zmin + Z_BIAS);
  34:mini3d/render.c **** }
  35:mini3d/render.c **** #endif
  36:mini3d/render.c **** 
  37:mini3d/render.c **** static inline uint32_t swap(uint32_t n)
  38:mini3d/render.c **** {
  39:mini3d/render.c **** #if TARGET_PLAYDATE
  40:mini3d/render.c **** 	//return __REV(n);
  41:mini3d/render.c **** 	uint32_t result;
  42:mini3d/render.c **** 	
  43:mini3d/render.c **** 	__asm volatile ("rev %0, %1" : "=l" (result) : "l" (n));
  44:mini3d/render.c **** 	return(result);
  45:mini3d/render.c **** #else
  46:mini3d/render.c **** 	return ((n & 0xff000000) >> 24) | ((n & 0xff0000) >> 8) | ((n & 0xff00) << 8) | (n << 24);
  47:mini3d/render.c **** #endif
  48:mini3d/render.c **** }
  49:mini3d/render.c **** 
  50:mini3d/render.c **** /*
  51:mini3d/render.c **** #if ENABLE_Z_BUFFER
  52:mini3d/render.c **** void getZMask(uint8_t* buffer, int rowstride)
  53:mini3d/render.c **** {
  54:mini3d/render.c **** 	for ( int y = 0; y < LCD_ROWS; ++y )
  55:mini3d/render.c **** 	{
  56:mini3d/render.c **** 		uint32_t* row = (uint32_t*)&buffer[y*rowstride];
  57:mini3d/render.c **** 		uint16_t* zrow = &zbuf[y*LCD_COLUMNS];
  58:mini3d/render.c **** 		uint32_t mask = 0;
  59:mini3d/render.c **** 		int x = 0;
  60:mini3d/render.c **** 		
  61:mini3d/render.c **** 		while ( x < rowstride )
  62:mini3d/render.c **** 		{
  63:mini3d/render.c **** 			if ( zrow[x] < 0xffff )
  64:mini3d/render.c **** 				mask |= 0x80000000 >> (x%32);
  65:mini3d/render.c **** 			
  66:mini3d/render.c **** 			++x;
  67:mini3d/render.c **** 			
  68:mini3d/render.c **** 			if ( x%32 == 0 )
  69:mini3d/render.c **** 			{
  70:mini3d/render.c **** 				*row++ = swap(mask);
  71:mini3d/render.c **** 				mask = 0;
  72:mini3d/render.c **** 			}
  73:mini3d/render.c **** 		}
  74:mini3d/render.c **** 		
  75:mini3d/render.c **** 		if ( x%32 != 0 )
  76:mini3d/render.c **** 			*row++ = swap(mask);
  77:mini3d/render.c **** 	}
  78:mini3d/render.c **** }
  79:mini3d/render.c **** #endif
  80:mini3d/render.c **** */
  81:mini3d/render.c **** 
  82:mini3d/render.c **** static inline void
ARM GAS  /var/folders/cs/83z6p2tj4w57s6p2rt8nwfp00000gn/T//ccDzWS9O.s 			page 4


  83:mini3d/render.c **** _drawMaskPattern(uint32_t* p, uint32_t mask, uint32_t color)
  84:mini3d/render.c **** {
  85:mini3d/render.c **** 	if ( mask == 0xffffffff )
  86:mini3d/render.c **** 		*p = color;
  87:mini3d/render.c **** 	else
  88:mini3d/render.c **** 		*p = (*p & ~mask) | (color & mask);
  89:mini3d/render.c **** }
  90:mini3d/render.c **** 
  91:mini3d/render.c **** static void
  92:mini3d/render.c **** drawFragment(uint32_t* row, int x1, int x2, uint32_t color)
  90              		.loc 1 92 1 view -0
  91              		.cfi_startproc
  92              		@ args = 0, pretend = 0, frame = 0
  93              		@ frame_needed = 0, uses_anonymous_args = 0
  93:mini3d/render.c **** {
  94:mini3d/render.c **** 	if ( x2 < 0 || x1 >= LCD_COLUMNS )
  95:mini3d/render.c **** 		return;
  96:mini3d/render.c **** 	
  97:mini3d/render.c **** 	if ( x1 < 0 )
  94              		.loc 1 97 2 view .LVU1
  95 0000 B2F5C87F 		cmp	r2, #400	@ tmp194,
  96 0004 21EAE171 		bic	r1, r1, r1, asr #31	@ x, tmp193
  97              	.LVL1:
  98:mini3d/render.c **** 		x1 = 0;
  99:mini3d/render.c **** 	
 100:mini3d/render.c **** 	if ( x2 > LCD_COLUMNS )
  98              		.loc 1 100 2 view .LVU2
  99 0008 A8BF     		it	ge
 100 000a 4FF4C872 		movge	r2, #400	@ x2,
 101              	.LVL2:
 101:mini3d/render.c **** 		x2 = LCD_COLUMNS;
 102:mini3d/render.c **** 	
 103:mini3d/render.c **** 	if ( x1 > x2 )
 102              		.loc 1 103 2 view .LVU3
 103              	@ mini3d/render.c:103: 	if ( x1 > x2 )
 104              		.loc 1 103 5 is_stmt 0 view .LVU4
 105 000e 9142     		cmp	r1, r2	@ x, x2
 106 0010 55DC     		bgt	.L32		@,
 104:mini3d/render.c **** 		return;
 105:mini3d/render.c **** 	
 106:mini3d/render.c **** 	// Operate on 32 bits at a time
 107:mini3d/render.c **** 	
 108:mini3d/render.c **** 	int startbit = x1 % 32;
 107              		.loc 1 108 2 is_stmt 1 view .LVU5
 108              	@ mini3d/render.c:108: 	int startbit = x1 % 32;
 109              		.loc 1 108 6 is_stmt 0 view .LVU6
 110 0012 01F01F0C 		and	ip, r1, #31	@ startbit, x,
 111              	.LVL3:
 109:mini3d/render.c **** 	uint32_t startmask = swap((1 << (32 - startbit)) - 1);
 112              		.loc 1 109 2 is_stmt 1 view .LVU7
 113              	@ mini3d/render.c:92: drawFragment(uint32_t* row, int x1, int x2, uint32_t color)
  92:mini3d/render.c **** {
 114              		.loc 1 92 1 is_stmt 0 view .LVU8
 115 0016 2DE9F043 		push	{r4, r5, r6, r7, r8, r9, lr}	@
 116              	.LCFI0:
 117              		.cfi_def_cfa_offset 28
 118              		.cfi_offset 4, -28
ARM GAS  /var/folders/cs/83z6p2tj4w57s6p2rt8nwfp00000gn/T//ccDzWS9O.s 			page 5


 119              		.cfi_offset 5, -24
 120              		.cfi_offset 6, -20
 121              		.cfi_offset 7, -16
 122              		.cfi_offset 8, -12
 123              		.cfi_offset 9, -8
 124              		.cfi_offset 14, -4
 125              	@ mini3d/render.c:109: 	uint32_t startmask = swap((1 << (32 - startbit)) - 1);
 126              		.loc 1 109 31 view .LVU9
 127 001a 0124     		movs	r4, #1	@ tmp161,
 128              	@ mini3d/render.c:109: 	uint32_t startmask = swap((1 << (32 - startbit)) - 1);
 129              		.loc 1 109 38 view .LVU10
 130 001c CCF1200E 		rsb	lr, ip, #32	@ _6, startbit,
 131              	.LVL4:
 132              	.LBB102:
 133              	.LBI102:
  37:mini3d/render.c **** {
 134              		.loc 1 37 24 is_stmt 1 view .LVU11
 135              	.LBB103:
  41:mini3d/render.c **** 	
 136              		.loc 1 41 2 view .LVU12
  43:mini3d/render.c **** 	return(result);
 137              		.loc 1 43 2 view .LVU13
 138              	.LBE103:
 139              	.LBE102:
 140              	@ mini3d/render.c:109: 	uint32_t startmask = swap((1 << (32 - startbit)) - 1);
 141              		.loc 1 109 31 is_stmt 0 view .LVU14
 142 0020 04FA0EF7 		lsl	r7, r4, lr	@ tmp160, tmp161, _6
 143              	@ mini3d/render.c:109: 	uint32_t startmask = swap((1 << (32 - startbit)) - 1);
 144              		.loc 1 109 51 view .LVU15
 145 0024 013F     		subs	r7, r7, #1	@ tmp162, tmp160,
 146              	.LVL5:
 147              	.LBB105:
 148              	.LBB104:
 149              	@ mini3d/render.c:43: 	__asm volatile ("rev %0, %1" : "=l" (result) : "l" (n));
  43:mini3d/render.c **** 	return(result);
 150              		.loc 1 43 2 view .LVU16
 151              		.syntax unified
 152              	@ 43 "mini3d/render.c" 1
 153 0026 3FBA     		rev r7, r7	@ result, tmp162
 154              	@ 0 "" 2
 155              	.LVL6:
  44:mini3d/render.c **** #else
 156              		.loc 1 44 2 is_stmt 1 view .LVU17
  44:mini3d/render.c **** #else
 157              		.loc 1 44 2 is_stmt 0 view .LVU18
 158              		.thumb
 159              		.syntax unified
 160              	.LBE104:
 161              	.LBE105:
 110:mini3d/render.c **** 	int endbit = x2 % 32;
 162              		.loc 1 110 2 is_stmt 1 view .LVU19
 163              	@ mini3d/render.c:110: 	int endbit = x2 % 32;
 164              		.loc 1 110 6 is_stmt 0 view .LVU20
 165 0028 02F01F05 		and	r5, r2, #31	@ endbit, x2,
 166              	.LVL7:
 111:mini3d/render.c **** 	uint32_t endmask = swap(((1 << endbit) - 1) << (32 - endbit));
 167              		.loc 1 111 2 is_stmt 1 view .LVU21
ARM GAS  /var/folders/cs/83z6p2tj4w57s6p2rt8nwfp00000gn/T//ccDzWS9O.s 			page 6


 168              	.LBB106:
 169              	.LBI106:
  37:mini3d/render.c **** {
 170              		.loc 1 37 24 view .LVU22
 171              	.LBB107:
  41:mini3d/render.c **** 	
 172              		.loc 1 41 2 view .LVU23
  43:mini3d/render.c **** 	return(result);
 173              		.loc 1 43 2 view .LVU24
 174              	.LBE107:
 175              	.LBE106:
 176              	@ mini3d/render.c:111: 	uint32_t endmask = swap(((1 << endbit) - 1) << (32 - endbit));
 177              		.loc 1 111 30 is_stmt 0 view .LVU25
 178 002c AC40     		lsls	r4, r4, r5	@ tmp164, tmp161, endbit
 179              	@ mini3d/render.c:111: 	uint32_t endmask = swap(((1 << endbit) - 1) << (32 - endbit));
 180              		.loc 1 111 53 view .LVU26
 181 002e C5F12006 		rsb	r6, r5, #32	@ tmp167, endbit,
 182              	@ mini3d/render.c:111: 	uint32_t endmask = swap(((1 << endbit) - 1) << (32 - endbit));
 183              		.loc 1 111 41 view .LVU27
 184 0032 013C     		subs	r4, r4, #1	@ tmp166, tmp164,
 185              	@ mini3d/render.c:111: 	uint32_t endmask = swap(((1 << endbit) - 1) << (32 - endbit));
 186              		.loc 1 111 46 view .LVU28
 187 0034 04FA06F6 		lsl	r6, r4, r6	@ tmp168, tmp166, tmp167
 188              	.LVL8:
 189              	.LBB110:
 190              	.LBB108:
 191              	@ mini3d/render.c:43: 	__asm volatile ("rev %0, %1" : "=l" (result) : "l" (n));
  43:mini3d/render.c **** 	return(result);
 192              		.loc 1 43 2 view .LVU29
 193              		.syntax unified
 194              	@ 43 "mini3d/render.c" 1
 195 0038 36BA     		rev r6, r6	@ result, tmp168
 196              	@ 0 "" 2
 197              	.LVL9:
  44:mini3d/render.c **** #else
 198              		.loc 1 44 2 is_stmt 1 view .LVU30
  44:mini3d/render.c **** #else
 199              		.loc 1 44 2 is_stmt 0 view .LVU31
 200              		.thumb
 201              		.syntax unified
 202              	.LBE108:
 203              	.LBE110:
 112:mini3d/render.c **** 	
 113:mini3d/render.c **** 	int col = x1 / 32;
 204              		.loc 1 113 2 is_stmt 1 view .LVU32
 205              	@ mini3d/render.c:113: 	int col = x1 / 32;
 206              		.loc 1 113 6 is_stmt 0 view .LVU33
 207 003a 4FEA6118 		asr	r8, r1, #5	@ col, x,
 208              	.LVL10:
 114:mini3d/render.c **** 	uint32_t* p = row + col;
 209              		.loc 1 114 2 is_stmt 1 view .LVU34
 210              	@ mini3d/render.c:116: 	if ( col == x2 / 32 )
 115:mini3d/render.c **** 
 116:mini3d/render.c **** 	if ( col == x2 / 32 )
 211              		.loc 1 116 5 is_stmt 0 view .LVU35
 212 003e B8EB621F 		cmp	r8, r2, asr #5	@ col, x2,
 213              	@ mini3d/render.c:114: 	uint32_t* p = row + col;
ARM GAS  /var/folders/cs/83z6p2tj4w57s6p2rt8nwfp00000gn/T//ccDzWS9O.s 			page 7


 114:mini3d/render.c **** 	uint32_t* p = row + col;
 214              		.loc 1 114 12 view .LVU36
 215 0042 00EB8804 		add	r4, r0, r8, lsl #2	@ p, row, col,
 216              	.LVL11:
 217              		.loc 1 116 2 is_stmt 1 view .LVU37
 218              	@ mini3d/render.c:116: 	if ( col == x2 / 32 )
 219              		.loc 1 116 5 is_stmt 0 view .LVU38
 220 0046 2AD0     		beq	.L37		@,
 221              	.LBB111:
 117:mini3d/render.c **** 	{
 118:mini3d/render.c **** 		uint32_t mask = 0;
 119:mini3d/render.c **** 		
 120:mini3d/render.c **** 		if ( startbit > 0 && endbit > 0 )
 121:mini3d/render.c **** 			mask = startmask & endmask;
 122:mini3d/render.c **** 		else if ( startbit > 0 )
 123:mini3d/render.c **** 			mask = startmask;
 124:mini3d/render.c **** 		else if ( endbit > 0 )
 125:mini3d/render.c **** 			mask = endmask;
 126:mini3d/render.c **** 		
 127:mini3d/render.c **** 		_drawMaskPattern(p, mask, color);
 128:mini3d/render.c **** 	}
 129:mini3d/render.c **** 	else
 130:mini3d/render.c **** 	{
 131:mini3d/render.c **** 		int x = x1;
 222              		.loc 1 131 3 is_stmt 1 view .LVU39
 223              	.LVL12:
 132:mini3d/render.c **** 		
 133:mini3d/render.c **** 		if ( startbit > 0 )
 224              		.loc 1 133 3 view .LVU40
 225              	@ mini3d/render.c:133: 		if ( startbit > 0 )
 226              		.loc 1 133 6 is_stmt 0 view .LVU41
 227 0048 BCF1000F 		cmp	ip, #0	@ startbit
 228 004c 0FD0     		beq	.L8	@
 134:mini3d/render.c **** 		{
 135:mini3d/render.c **** 			_drawMaskPattern(p++, startmask, color);
 229              		.loc 1 135 4 is_stmt 1 view .LVU42
 230              	.LBB112:
 231              	.LBB113:
 232              	@ mini3d/render.c:85: 	if ( mask == 0xffffffff )
  85:mini3d/render.c **** 		*p = color;
 233              		.loc 1 85 5 is_stmt 0 view .LVU43
 234 004e B7F1FF3F 		cmp	r7, #-1	@ result,
 235              	.LBE113:
 236              	.LBE112:
 237              	@ mini3d/render.c:135: 			_drawMaskPattern(p++, startmask, color);
 238              		.loc 1 135 4 view .LVU44
 239 0052 04F10404 		add	r4, r4, #4	@ p, p,
 240              	.LVL13:
 241              	.LBB116:
 242              	.LBI112:
  83:mini3d/render.c **** {
 243              		.loc 1 83 1 is_stmt 1 view .LVU45
 244              	.LBB114:
  85:mini3d/render.c **** 		*p = color;
 245              		.loc 1 85 2 view .LVU46
 246              	@ mini3d/render.c:85: 	if ( mask == 0xffffffff )
  85:mini3d/render.c **** 		*p = color;
ARM GAS  /var/folders/cs/83z6p2tj4w57s6p2rt8nwfp00000gn/T//ccDzWS9O.s 			page 8


 247              		.loc 1 85 5 is_stmt 0 view .LVU47
 248 0056 33D0     		beq	.L15		@,
  88:mini3d/render.c **** }
 249              		.loc 1 88 3 is_stmt 1 view .LVU48
 250              	@ mini3d/render.c:88: 		*p = (*p & ~mask) | (color & mask);
  88:mini3d/render.c **** }
 251              		.loc 1 88 9 is_stmt 0 view .LVU49
 252 0058 50F82890 		ldr	r9, [r0, r8, lsl #2]	@ _36, *p_22
 253              	@ mini3d/render.c:88: 		*p = (*p & ~mask) | (color & mask);
  88:mini3d/render.c **** }
 254              		.loc 1 88 21 view .LVU50
 255 005c 83EA090C 		eor	ip, r3, r9	@ tmp180, color, _36
 256              	.LVL14:
  88:mini3d/render.c **** }
 257              		.loc 1 88 21 view .LVU51
 258 0060 0CEA0707 		and	r7, ip, r7	@ tmp181, tmp180, result
 259              	.LVL15:
  88:mini3d/render.c **** }
 260              		.loc 1 88 21 view .LVU52
 261 0064 87EA0907 		eor	r7, r7, r9	@ _39, tmp181, _36
 262              	.L9:
 263              	.LBE114:
 264              	.LBE116:
 265              	@ mini3d/render.c:136: 			x += (32 - startbit);
 136:mini3d/render.c **** 			x += (32 - startbit);
 266              		.loc 1 136 6 view .LVU53
 267 0068 7144     		add	r1, r1, lr	@ x, _6
 268              	.LVL16:
 269              		.loc 1 136 6 view .LVU54
 270 006a 40F82870 		str	r7, [r0, r8, lsl #2]	@ _39, *p_22
 271              	.LVL17:
 272              		.loc 1 136 4 is_stmt 1 view .LVU55
 273              	.L8:
 137:mini3d/render.c **** 		}
 138:mini3d/render.c **** 		
 139:mini3d/render.c **** 		while ( x + 32 <= x2 )
 274              		.loc 1 139 9 view .LVU56
 275              	@ mini3d/render.c:139: 		while ( x + 32 <= x2 )
 276              		.loc 1 139 18 is_stmt 0 view .LVU57
 277 006e 01F11F00 		add	r0, r1, #31	@ tmp182, x,
 278              	.LVL18:
 279              	@ mini3d/render.c:139: 		while ( x + 32 <= x2 )
 280              		.loc 1 139 9 view .LVU58
 281 0072 8242     		cmp	r2, r0	@ x2, tmp182
 282 0074 2FDD     		ble	.L16		@,
 283 0076 203A     		subs	r2, r2, #32	@ tmp183, x2,
 284              	.LVL19:
 285              		.loc 1 139 9 view .LVU59
 286 0078 521A     		subs	r2, r2, r1	@ tmp184, tmp183, x
 287              	.LVL20:
 288              		.loc 1 139 9 view .LVU60
 289 007a 5209     		lsrs	r2, r2, #5	@ tmp185, tmp184,
 290 007c 0132     		adds	r2, r2, #1	@ tmp186, tmp185,
 291 007e 04EB8202 		add	r2, r4, r2, lsl #2	@ p, p, tmp186,
 292              	.L11:
 140:mini3d/render.c **** 		{
 141:mini3d/render.c **** 			_drawMaskPattern(p++, 0xffffffff, color);
ARM GAS  /var/folders/cs/83z6p2tj4w57s6p2rt8nwfp00000gn/T//ccDzWS9O.s 			page 9


 293              		.loc 1 141 4 is_stmt 1 view .LVU61
 294              	.LVL21:
 295              	.LBB117:
 296              	.LBI117:
  83:mini3d/render.c **** {
 297              		.loc 1 83 1 view .LVU62
 298              	.LBB118:
  85:mini3d/render.c **** 		*p = color;
 299              		.loc 1 85 2 view .LVU63
  86:mini3d/render.c **** 	else
 300              		.loc 1 86 3 view .LVU64
 301              	@ mini3d/render.c:86: 		*p = color;
  86:mini3d/render.c **** 	else
 302              		.loc 1 86 6 is_stmt 0 view .LVU65
 303 0082 44F8043B 		str	r3, [r4], #4	@ color, MEM[base: p_42, offset: 4294967292B]
 304              	.LVL22:
  86:mini3d/render.c **** 	else
 305              		.loc 1 86 6 view .LVU66
 306              	.LBE118:
 307              	.LBE117:
 142:mini3d/render.c **** 			x += 32;
 308              		.loc 1 142 4 is_stmt 1 view .LVU67
 139:mini3d/render.c **** 		{
 309              		.loc 1 139 9 view .LVU68
 310 0086 9442     		cmp	r4, r2	@ p, p
 311 0088 FBD1     		bne	.L11		@,
 312              	.LVL23:
 313              	.L10:
 143:mini3d/render.c **** 		}
 144:mini3d/render.c **** 		
 145:mini3d/render.c **** 		if ( endbit > 0 )
 314              		.loc 1 145 3 view .LVU69
 315              	@ mini3d/render.c:145: 		if ( endbit > 0 )
 316              		.loc 1 145 6 is_stmt 0 view .LVU70
 317 008a 35B1     		cbz	r5, .L1	@ endbit,
 146:mini3d/render.c **** 			_drawMaskPattern(p, endmask, color);
 318              		.loc 1 146 4 is_stmt 1 view .LVU71
 319              	.LVL24:
 320              	.LBB119:
 321              	.LBI119:
  83:mini3d/render.c **** {
 322              		.loc 1 83 1 view .LVU72
 323              	.LBB120:
  85:mini3d/render.c **** 		*p = color;
 324              		.loc 1 85 2 view .LVU73
 325              	@ mini3d/render.c:85: 	if ( mask == 0xffffffff )
  85:mini3d/render.c **** 		*p = color;
 326              		.loc 1 85 5 is_stmt 0 view .LVU74
 327 008c 711C     		adds	r1, r6, #1	@, result,
 328 008e 03D0     		beq	.L35		@,
  88:mini3d/render.c **** }
 329              		.loc 1 88 3 is_stmt 1 view .LVU75
 330              	@ mini3d/render.c:88: 		*p = (*p & ~mask) | (color & mask);
  88:mini3d/render.c **** }
 331              		.loc 1 88 9 is_stmt 0 view .LVU76
 332 0090 1168     		ldr	r1, [r2]	@ _47, *p_72
 333              	@ mini3d/render.c:88: 		*p = (*p & ~mask) | (color & mask);
ARM GAS  /var/folders/cs/83z6p2tj4w57s6p2rt8nwfp00000gn/T//ccDzWS9O.s 			page 10


  88:mini3d/render.c **** }
 334              		.loc 1 88 21 view .LVU77
 335 0092 4B40     		eors	r3, r3, r1	@, tmp188, color, _47
 336              	.LVL25:
  88:mini3d/render.c **** }
 337              		.loc 1 88 21 view .LVU78
 338 0094 3340     		ands	r3, r3, r6	@, tmp189, tmp188, result
 339 0096 4B40     		eors	r3, r3, r1	@, tmp190, tmp189, _47
 340              	.L35:
 341              	@ mini3d/render.c:88: 		*p = (*p & ~mask) | (color & mask);
  88:mini3d/render.c **** }
 342              		.loc 1 88 6 view .LVU79
 343 0098 1360     		str	r3, [r2]	@ tmp190, *p_72
 344              	.LVL26:
 345              	.L1:
  88:mini3d/render.c **** }
 346              		.loc 1 88 6 view .LVU80
 347              	.LBE120:
 348              	.LBE119:
 349              	.LBE111:
 350              	@ mini3d/render.c:148: }
 147:mini3d/render.c **** 	}
 148:mini3d/render.c **** }
 351              		.loc 1 148 1 view .LVU81
 352 009a BDE8F083 		pop	{r4, r5, r6, r7, r8, r9, pc}	@
 353              	.LVL27:
 354              	.L37:
 355              	.LBB122:
 118:mini3d/render.c **** 		
 356              		.loc 1 118 3 is_stmt 1 view .LVU82
 120:mini3d/render.c **** 			mask = startmask & endmask;
 357              		.loc 1 120 3 view .LVU83
 358              	@ mini3d/render.c:120: 		if ( startbit > 0 && endbit > 0 )
 120:mini3d/render.c **** 			mask = startmask & endmask;
 359              		.loc 1 120 6 is_stmt 0 view .LVU84
 360 009e BCF1000F 		cmp	ip, #0	@ startbit
 361 00a2 15D0     		beq	.L30	@
 362 00a4 8DB1     		cbz	r5, .L5	@ endbit,
 121:mini3d/render.c **** 		else if ( startbit > 0 )
 363              		.loc 1 121 4 is_stmt 1 view .LVU85
 364              	@ mini3d/render.c:121: 			mask = startmask & endmask;
 121:mini3d/render.c **** 		else if ( startbit > 0 )
 365              		.loc 1 121 9 is_stmt 0 view .LVU86
 366 00a6 3740     		ands	r7, r7, r6	@, result, result, result
 367              	.LVL28:
 368              	.L6:
 127:mini3d/render.c **** 	}
 369              		.loc 1 127 3 is_stmt 1 view .LVU87
 370              	.LBB123:
 371              	.LBI123:
  83:mini3d/render.c **** {
 372              		.loc 1 83 1 view .LVU88
 373              	.LBB124:
  85:mini3d/render.c **** 		*p = color;
 374              		.loc 1 85 2 view .LVU89
 375              	@ mini3d/render.c:85: 	if ( mask == 0xffffffff )
  85:mini3d/render.c **** 		*p = color;
ARM GAS  /var/folders/cs/83z6p2tj4w57s6p2rt8nwfp00000gn/T//ccDzWS9O.s 			page 11


 376              		.loc 1 85 5 is_stmt 0 view .LVU90
 377 00a8 7A1C     		adds	r2, r7, #1	@, result,
 378              	.LVL29:
  85:mini3d/render.c **** 		*p = color;
 379              		.loc 1 85 5 view .LVU91
 380 00aa 0BD0     		beq	.L38		@,
 381              	.LVL30:
 382              	.L7:
  88:mini3d/render.c **** }
 383              		.loc 1 88 3 is_stmt 1 view .LVU92
 384              	@ mini3d/render.c:88: 		*p = (*p & ~mask) | (color & mask);
  88:mini3d/render.c **** }
 385              		.loc 1 88 9 is_stmt 0 view .LVU93
 386 00ac 50F82820 		ldr	r2, [r0, r8, lsl #2]	@ _30, *p_22
 387              	@ mini3d/render.c:88: 		*p = (*p & ~mask) | (color & mask);
  88:mini3d/render.c **** }
 388              		.loc 1 88 21 view .LVU94
 389 00b0 5340     		eors	r3, r3, r2	@, tmp177, color, _30
 390              	.LVL31:
  88:mini3d/render.c **** }
 391              		.loc 1 88 21 view .LVU95
 392 00b2 1F40     		ands	r7, r7, r3	@, tmp178, result, tmp177
 393 00b4 5740     		eors	r7, r7, r2	@, tmp179, tmp178, _30
 394              	@ mini3d/render.c:88: 		*p = (*p & ~mask) | (color & mask);
  88:mini3d/render.c **** }
 395              		.loc 1 88 6 view .LVU96
 396 00b6 40F82870 		str	r7, [r0, r8, lsl #2]	@ tmp179, *p_22
 397              	.LBE124:
 398              	.LBE123:
 399              	.LBE122:
 400              	@ mini3d/render.c:148: }
 401              		.loc 1 148 1 view .LVU97
 402 00ba BDE8F083 		pop	{r4, r5, r6, r7, r8, r9, pc}	@
 403              	.LVL32:
 404              	.L32:
 405              	.LCFI1:
 406              		.cfi_def_cfa_offset 0
 407              		.cfi_restore 4
 408              		.cfi_restore 5
 409              		.cfi_restore 6
 410              		.cfi_restore 7
 411              		.cfi_restore 8
 412              		.cfi_restore 9
 413              		.cfi_restore 14
 414              		.loc 1 148 1 view .LVU98
 415 00be 7047     		bx	lr	@
 416              	.LVL33:
 417              	.L15:
 418              	.LCFI2:
 419              		.cfi_def_cfa_offset 28
 420              		.cfi_offset 4, -28
 421              		.cfi_offset 5, -24
 422              		.cfi_offset 6, -20
 423              		.cfi_offset 7, -16
 424              		.cfi_offset 8, -12
 425              		.cfi_offset 9, -8
 426              		.cfi_offset 14, -4
ARM GAS  /var/folders/cs/83z6p2tj4w57s6p2rt8nwfp00000gn/T//ccDzWS9O.s 			page 12


 427              	.LBB127:
 428              	.LBB121:
 429              	.LBB115:
 430              	@ mini3d/render.c:86: 		*p = color;
  86:mini3d/render.c **** 	else
 431              		.loc 1 86 6 view .LVU99
 432 00c0 1F46     		mov	r7, r3	@ _39, color
 433              	.LVL34:
  86:mini3d/render.c **** 	else
 434              		.loc 1 86 6 view .LVU100
 435 00c2 D1E7     		b	.L9		@
 436              	.LVL35:
 437              	.L38:
  86:mini3d/render.c **** 	else
 438              		.loc 1 86 6 view .LVU101
 439              	.LBE115:
 440              	.LBE121:
 441              	.LBE127:
 442              	.LBB128:
 443              	.LBB126:
 444              	.LBB125:
  86:mini3d/render.c **** 	else
 445              		.loc 1 86 3 is_stmt 1 view .LVU102
 446              	@ mini3d/render.c:86: 		*p = color;
  86:mini3d/render.c **** 	else
 447              		.loc 1 86 6 is_stmt 0 view .LVU103
 448 00c4 40F82830 		str	r3, [r0, r8, lsl #2]	@ color, *p_22
 449 00c8 E7E7     		b	.L1		@
 450              	.LVL36:
 451              	.L5:
  86:mini3d/render.c **** 	else
 452              		.loc 1 86 6 view .LVU104
 453              	.LBE125:
 454              	.LBE126:
 122:mini3d/render.c **** 			mask = startmask;
 455              		.loc 1 122 8 is_stmt 1 view .LVU105
 456              	@ mini3d/render.c:122: 		else if ( startbit > 0 )
 122:mini3d/render.c **** 			mask = startmask;
 457              		.loc 1 122 11 is_stmt 0 view .LVU106
 458 00ca BCF1000F 		cmp	ip, #0	@ startbit
 459 00ce EBD1     		bne	.L6	@
 460              	.L30:
 124:mini3d/render.c **** 			mask = endmask;
 461              		.loc 1 124 8 is_stmt 1 view .LVU107
 462              	@ mini3d/render.c:124: 		else if ( endbit > 0 )
 124:mini3d/render.c **** 			mask = endmask;
 463              		.loc 1 124 11 is_stmt 0 view .LVU108
 464 00d0 1DB1     		cbz	r5, .L14	@ endbit,
 465              	.LBE128:
 466              	.LBB129:
 467              	.LBB109:
 468              	@ mini3d/render.c:43: 	__asm volatile ("rev %0, %1" : "=l" (result) : "l" (n));
  43:mini3d/render.c **** 	return(result);
 469              		.loc 1 43 2 view .LVU109
 470 00d2 3746     		mov	r7, r6	@ result, result
 471              	.LVL37:
  43:mini3d/render.c **** 	return(result);
ARM GAS  /var/folders/cs/83z6p2tj4w57s6p2rt8nwfp00000gn/T//ccDzWS9O.s 			page 13


 472              		.loc 1 43 2 view .LVU110
 473 00d4 E8E7     		b	.L6		@
 474              	.LVL38:
 475              	.L16:
  43:mini3d/render.c **** 	return(result);
 476              		.loc 1 43 2 view .LVU111
 477              	.LBE109:
 478              	.LBE129:
 479              	.LBB130:
 480              	@ mini3d/render.c:139: 		while ( x + 32 <= x2 )
 139:mini3d/render.c **** 		{
 481              		.loc 1 139 9 view .LVU112
 482 00d6 2246     		mov	r2, r4	@ p, p
 483              	.LVL39:
 139:mini3d/render.c **** 		{
 484              		.loc 1 139 9 view .LVU113
 485 00d8 D7E7     		b	.L10		@
 486              	.LVL40:
 487              	.L14:
 139:mini3d/render.c **** 		{
 488              		.loc 1 139 9 view .LVU114
 489              	.LBE130:
 490              	.LBB131:
 491              	@ mini3d/render.c:118: 		uint32_t mask = 0;
 118:mini3d/render.c **** 		
 492              		.loc 1 118 12 view .LVU115
 493 00da 2F46     		mov	r7, r5	@ result, endbit
 494              	.LVL41:
 118:mini3d/render.c **** 		
 495              		.loc 1 118 12 view .LVU116
 496 00dc E6E7     		b	.L7		@
 497              	.LBE131:
 498              		.cfi_endproc
 499              	.LFE27:
 500              		.size	drawFragment.part.0, .-drawFragment.part.0
 501 00de 00BF     		.section	.text.fillRange,"ax",%progbits
 502              		.align	1
 503              		.p2align 4,,15
 504              		.syntax unified
 505              		.thumb
 506              		.thumb_func
 507              		.fpu fpv5-sp-d16
 508              		.type	fillRange, %function
 509              	fillRange:
 510              	.LVL42:
 511              	.LFB20:
 149:mini3d/render.c **** 
 150:mini3d/render.c **** #if ENABLE_Z_BUFFER
 151:mini3d/render.c **** static void
 152:mini3d/render.c **** drawFragment_zbuf(uint32_t* row, uint16_t* zbrow, int x, int endx, uint32_t z, int32_t dzdx, uint32
 153:mini3d/render.c **** {
 154:mini3d/render.c **** 	if ( endx < 0 || x >= LCD_COLUMNS )
 155:mini3d/render.c **** 		return;
 156:mini3d/render.c **** 	
 157:mini3d/render.c **** 	if ( x < 0 )
 158:mini3d/render.c **** 	{
 159:mini3d/render.c **** 		z += -x * dzdx;
ARM GAS  /var/folders/cs/83z6p2tj4w57s6p2rt8nwfp00000gn/T//ccDzWS9O.s 			page 14


 160:mini3d/render.c **** 		x = 0;
 161:mini3d/render.c **** 	}
 162:mini3d/render.c **** 	
 163:mini3d/render.c **** 	if ( endx > LCD_COLUMNS )
 164:mini3d/render.c **** 		endx = LCD_COLUMNS;
 165:mini3d/render.c **** 
 166:mini3d/render.c **** 	uint32_t mask = 0;
 167:mini3d/render.c **** 	uint32_t* p = row + x/32;
 168:mini3d/render.c **** 
 169:mini3d/render.c **** 	while ( x < endx )
 170:mini3d/render.c **** 	{
 171:mini3d/render.c **** 		uint16_t zi = z >> 16;
 172:mini3d/render.c **** 		
 173:mini3d/render.c **** 		if ( zi > zbrow[x] )
 174:mini3d/render.c **** 		{
 175:mini3d/render.c **** 			mask |= 0x80000000u >> (x%32);
 176:mini3d/render.c **** 			zbrow[x] = zi;
 177:mini3d/render.c **** 		}
 178:mini3d/render.c **** 		
 179:mini3d/render.c **** 		++x;
 180:mini3d/render.c **** 		z += dzdx;
 181:mini3d/render.c **** 		
 182:mini3d/render.c **** 		if ( x % 32 == 0 )
 183:mini3d/render.c **** 		{
 184:mini3d/render.c **** 			_drawMaskPattern(p++, swap(mask), color);
 185:mini3d/render.c **** 			mask = 0;
 186:mini3d/render.c **** 		}
 187:mini3d/render.c **** 	}
 188:mini3d/render.c **** 	
 189:mini3d/render.c **** 	if ( x % 32 != 0 )
 190:mini3d/render.c **** 		_drawMaskPattern(p, swap(mask), color);
 191:mini3d/render.c **** }
 192:mini3d/render.c **** #endif
 193:mini3d/render.c **** 
 194:mini3d/render.c **** static inline int32_t slope(float x1, float y1, float x2, float y2)
 195:mini3d/render.c **** {
 196:mini3d/render.c **** 	float dx = x2-x1;
 197:mini3d/render.c **** 	float dy = y2-y1;
 198:mini3d/render.c **** 	
 199:mini3d/render.c **** 	if ( dy < 1 )
 200:mini3d/render.c **** 		return dx * (1<<16);
 201:mini3d/render.c **** 	else
 202:mini3d/render.c **** 		return dx / dy * (1<<16);
 203:mini3d/render.c **** }
 204:mini3d/render.c **** 
 205:mini3d/render.c **** #if ENABLE_Z_BUFFER
 206:mini3d/render.c **** LCDRowRange
 207:mini3d/render.c **** drawLine_zbuf(uint8_t* bitmap, int rowstride, Point3D* p1, Point3D* p2, int thick, uint8_t pattern[
 208:mini3d/render.c **** {
 209:mini3d/render.c **** 	if ( p1->y > p2->y )
 210:mini3d/render.c **** 	{
 211:mini3d/render.c **** 		Point3D* tmp = p1;
 212:mini3d/render.c **** 		p1 = p2;
 213:mini3d/render.c **** 		p2 = tmp;
 214:mini3d/render.c **** 	}
 215:mini3d/render.c **** 
 216:mini3d/render.c **** 	int y = p1->y;
ARM GAS  /var/folders/cs/83z6p2tj4w57s6p2rt8nwfp00000gn/T//ccDzWS9O.s 			page 15


 217:mini3d/render.c **** 	int endy = p2->y;
 218:mini3d/render.c **** 	
 219:mini3d/render.c **** 	if ( y >= LCD_ROWS || endy < 0 || MIN(p1->x, p2->x) >= LCD_COLUMNS || MAX(p1->x, p2->x) < 0 )
 220:mini3d/render.c **** 		return (LCDRowRange){ 0, 0 };
 221:mini3d/render.c **** 	
 222:mini3d/render.c **** 	int32_t x = p1->x * (1<<16);
 223:mini3d/render.c **** 	int32_t dx = slope(p1->x, p1->y, p2->x, p2->y + 1);
 224:mini3d/render.c **** 	
 225:mini3d/render.c **** 	// move lines a bit forward so they don't get buried in solid geometry
 226:mini3d/render.c **** 	float z1 = zscale / (p1->z + Z_BIAS) + 256;
 227:mini3d/render.c **** 	float z2 = zscale / (p2->z + Z_BIAS) + 256;
 228:mini3d/render.c **** 
 229:mini3d/render.c **** 	if ( z1 > 65535 ) z1 = 65535;
 230:mini3d/render.c **** 	if ( z2 > 65535 ) z2 = 65535;
 231:mini3d/render.c **** 
 232:mini3d/render.c **** 	int32_t dzdy = slope(z1, p1->y, z2, p2->y + 1);
 233:mini3d/render.c **** 	int32_t dzdx = slope(z1, p1->x, z2, p2->x);
 234:mini3d/render.c **** 
 235:mini3d/render.c **** 	uint32_t z = z1 * (1<<16);
 236:mini3d/render.c **** 
 237:mini3d/render.c **** 	if ( y < 0 )
 238:mini3d/render.c **** 	{
 239:mini3d/render.c **** 		x += -y * dx;
 240:mini3d/render.c **** 		z += -y * dzdy;
 241:mini3d/render.c **** 		y = 0;
 242:mini3d/render.c **** 	}
 243:mini3d/render.c **** 	
 244:mini3d/render.c **** 	while ( y <= endy )
 245:mini3d/render.c **** 	{
 246:mini3d/render.c **** 		uint8_t p = pattern[y%8];
 247:mini3d/render.c **** 		uint32_t color = (p<<24) | (p<<16) | (p<<8) | p;
 248:mini3d/render.c **** 		int32_t x1 = (y < endy) ? x+dx : p2->x * (1<<16);
 249:mini3d/render.c **** 
 250:mini3d/render.c **** 		if ( dx < 0 )
 251:mini3d/render.c **** 		{
 252:mini3d/render.c **** 			z += dzdy;
 253:mini3d/render.c **** 			drawFragment_zbuf((uint32_t*)&bitmap[y*rowstride], &zbuf[y*LCD_COLUMNS], x1>>16, (x>>16) + thick
 254:mini3d/render.c **** 		}
 255:mini3d/render.c **** 		else
 256:mini3d/render.c **** 		{
 257:mini3d/render.c **** 			drawFragment_zbuf((uint32_t*)&bitmap[y*rowstride], &zbuf[y*LCD_COLUMNS], x>>16, (x1>>16) + thick
 258:mini3d/render.c **** 			z += dzdy;
 259:mini3d/render.c **** 		}
 260:mini3d/render.c **** 
 261:mini3d/render.c **** 		if ( ++y == LCD_ROWS )
 262:mini3d/render.c **** 			break;
 263:mini3d/render.c **** 		
 264:mini3d/render.c **** 		x = x1;
 265:mini3d/render.c **** 	}
 266:mini3d/render.c **** 	
 267:mini3d/render.c **** 	return (LCDRowRange){ MAX(0, p1->y), MIN(LCD_ROWS, p2->y) };
 268:mini3d/render.c **** }
 269:mini3d/render.c **** #endif
 270:mini3d/render.c **** 
 271:mini3d/render.c **** LCDRowRange
 272:mini3d/render.c **** drawLine(uint8_t* bitmap, int rowstride, Point3D* p1, Point3D* p2, int thick, uint8_t pattern[8])
 273:mini3d/render.c **** {
ARM GAS  /var/folders/cs/83z6p2tj4w57s6p2rt8nwfp00000gn/T//ccDzWS9O.s 			page 16


 274:mini3d/render.c **** 	if ( p1->y > p2->y )
 275:mini3d/render.c **** 	{
 276:mini3d/render.c **** 		Point3D* tmp = p1;
 277:mini3d/render.c **** 		p1 = p2;
 278:mini3d/render.c **** 		p2 = tmp;
 279:mini3d/render.c **** 	}
 280:mini3d/render.c **** 
 281:mini3d/render.c **** 	int y = p1->y;
 282:mini3d/render.c **** 	int endy = p2->y;
 283:mini3d/render.c **** 	
 284:mini3d/render.c **** 	if ( y >= LCD_ROWS || endy < 0 || MIN(p1->x, p2->x) >= LCD_COLUMNS || MAX(p1->x, p2->x) < 0 )
 285:mini3d/render.c **** 		return (LCDRowRange){ 0, 0 };
 286:mini3d/render.c **** 	
 287:mini3d/render.c **** 	int32_t x = p1->x * (1<<16);
 288:mini3d/render.c **** 	int32_t dx = slope(p1->x, p1->y, p2->x, p2->y);
 289:mini3d/render.c **** 	
 290:mini3d/render.c **** 	if ( y < 0 )
 291:mini3d/render.c **** 	{
 292:mini3d/render.c **** 		x += -y * dx;
 293:mini3d/render.c **** 		y = 0;
 294:mini3d/render.c **** 	}
 295:mini3d/render.c **** 
 296:mini3d/render.c **** 	while ( y <= endy )
 297:mini3d/render.c **** 	{
 298:mini3d/render.c **** 		uint8_t p = pattern[y%8];
 299:mini3d/render.c **** 		uint32_t color = (p<<24) | (p<<16) | (p<<8) | p;
 300:mini3d/render.c **** 		int32_t x1 = (y < endy) ? x+dx : p2->x * (1<<16);
 301:mini3d/render.c **** 		
 302:mini3d/render.c **** 		if ( dx < 0 )
 303:mini3d/render.c **** 			drawFragment((uint32_t*)&bitmap[y*rowstride], x1>>16, (x>>16) + thick, color);
 304:mini3d/render.c **** 		else
 305:mini3d/render.c **** 			drawFragment((uint32_t*)&bitmap[y*rowstride], x>>16, (x1>>16) + thick, color);
 306:mini3d/render.c **** 		
 307:mini3d/render.c **** 		if ( ++y == LCD_ROWS )
 308:mini3d/render.c **** 			break;
 309:mini3d/render.c **** 
 310:mini3d/render.c **** 		x = x1;
 311:mini3d/render.c **** 	}
 312:mini3d/render.c **** 	
 313:mini3d/render.c **** 	return (LCDRowRange){ MAX(0, p1->y), MIN(LCD_ROWS, p2->y) };
 314:mini3d/render.c **** }
 315:mini3d/render.c **** 
 316:mini3d/render.c **** static void fillRange(uint8_t* bitmap, int rowstride, int y, int endy, int32_t* x1p, int32_t dx1, i
 317:mini3d/render.c **** {
 512              		.loc 1 317 1 is_stmt 1 view -0
 513              		.cfi_startproc
 514              		@ args = 20, pretend = 0, frame = 16
 515              		@ frame_needed = 0, uses_anonymous_args = 0
 318:mini3d/render.c **** 	int32_t x1 = *x1p, x2 = *x2p;
 516              		.loc 1 318 2 view .LVU118
 517              	@ mini3d/render.c:317: {
 317:mini3d/render.c **** 	int32_t x1 = *x1p, x2 = *x2p;
 518              		.loc 1 317 1 is_stmt 0 view .LVU119
 519 0000 2DE9F04F 		push	{r4, r5, r6, r7, r8, r9, r10, fp, lr}	@
 520              	.LCFI3:
 521              		.cfi_def_cfa_offset 36
 522              		.cfi_offset 4, -36
ARM GAS  /var/folders/cs/83z6p2tj4w57s6p2rt8nwfp00000gn/T//ccDzWS9O.s 			page 17


 523              		.cfi_offset 5, -32
 524              		.cfi_offset 6, -28
 525              		.cfi_offset 7, -24
 526              		.cfi_offset 8, -20
 527              		.cfi_offset 9, -16
 528              		.cfi_offset 10, -12
 529              		.cfi_offset 11, -8
 530              		.cfi_offset 14, -4
 531 0004 85B0     		sub	sp, sp, #20	@,,
 532              	.LCFI4:
 533              		.cfi_def_cfa_offset 56
 534              	@ mini3d/render.c:317: {
 317:mini3d/render.c **** 	int32_t x1 = *x1p, x2 = *x2p;
 535              		.loc 1 317 1 view .LVU120
 536 0006 1446     		mov	r4, r2	@ y, tmp191
 537              	@ mini3d/render.c:320: 	if ( endy < 0 )
 319:mini3d/render.c **** 	
 320:mini3d/render.c **** 	if ( endy < 0 )
 538              		.loc 1 320 5 view .LVU121
 539 0008 B3F10008 		subs	r8, r3, #0	@ endy, tmp192
 540              	@ mini3d/render.c:318: 	int32_t x1 = *x1p, x2 = *x2p;
 318:mini3d/render.c **** 	
 541              		.loc 1 318 10 view .LVU122
 542 000c 0E9A     		ldr	r2, [sp, #56]	@ tmp201, x1p
 543              	.LVL43:
 544              	@ mini3d/render.c:317: {
 317:mini3d/render.c **** 	int32_t x1 = *x1p, x2 = *x2p;
 545              		.loc 1 317 1 view .LVU123
 546 000e DDF83CA0 		ldr	r10, [sp, #60]	@ dx1, dx1
 547              	@ mini3d/render.c:318: 	int32_t x1 = *x1p, x2 = *x2p;
 318:mini3d/render.c **** 	
 548              		.loc 1 318 10 view .LVU124
 549 0012 1268     		ldr	r2, [r2]	@ x1, *x1p_32(D)
 550              	@ mini3d/render.c:317: {
 317:mini3d/render.c **** 	int32_t x1 = *x1p, x2 = *x2p;
 551              		.loc 1 317 1 view .LVU125
 552 0014 DDF844B0 		ldr	fp, [sp, #68]	@ dx2, dx2
 553              	@ mini3d/render.c:318: 	int32_t x1 = *x1p, x2 = *x2p;
 318:mini3d/render.c **** 	
 554              		.loc 1 318 10 view .LVU126
 555 0018 0192     		str	r2, [sp, #4]	@ x1, %sfp
 556              	.LVL44:
 557              	@ mini3d/render.c:318: 	int32_t x1 = *x1p, x2 = *x2p;
 318:mini3d/render.c **** 	
 558              		.loc 1 318 21 view .LVU127
 559 001a 109A     		ldr	r2, [sp, #64]	@ tmp204, x2p
 560              	.LVL45:
 318:mini3d/render.c **** 	
 561              		.loc 1 318 21 view .LVU128
 562 001c 1268     		ldr	r2, [r2]	@ x2, *x2p_34(D)
 563 001e 0292     		str	r2, [sp, #8]	@ x2, %sfp
 564              	.LVL46:
 565              		.loc 1 320 2 is_stmt 1 view .LVU129
 566              	@ mini3d/render.c:320: 	if ( endy < 0 )
 567              		.loc 1 320 5 is_stmt 0 view .LVU130
 568 0020 4CDB     		blt	.L48		@,
 569              	@ mini3d/render.c:328: 	if ( y < 0 )
ARM GAS  /var/folders/cs/83z6p2tj4w57s6p2rt8nwfp00000gn/T//ccDzWS9O.s 			page 18


 321:mini3d/render.c **** 	{
 322:mini3d/render.c **** 		int dy = endy - y;
 323:mini3d/render.c **** 		*x1p = x1 + dy * dx1;
 324:mini3d/render.c **** 		*x2p = x2 + dy * dx2;
 325:mini3d/render.c **** 		return;
 326:mini3d/render.c **** 	}
 327:mini3d/render.c **** 	
 328:mini3d/render.c **** 	if ( y < 0 )
 570              		.loc 1 328 5 view .LVU131
 571 0022 002C     		cmp	r4, #0	@ y,
 572 0024 8946     		mov	r9, r1	@ rowstride, tmp190
 573              		.loc 1 328 2 is_stmt 1 view .LVU132
 574              	@ mini3d/render.c:328: 	if ( y < 0 )
 575              		.loc 1 328 5 is_stmt 0 view .LVU133
 576 0026 3FDB     		blt	.L49		@,
 577              	.LVL47:
 578              	.L42:
 329:mini3d/render.c **** 	{
 330:mini3d/render.c **** 		x1 += -y * dx1;
 331:mini3d/render.c **** 		x2 += -y * dx2;
 332:mini3d/render.c **** 		y = 0;
 333:mini3d/render.c **** 	}
 334:mini3d/render.c **** 	
 335:mini3d/render.c **** 	while ( y < endy )
 579              		.loc 1 335 8 is_stmt 1 view .LVU134
 580 0028 A045     		cmp	r8, r4	@ endy, y
 581 002a 32DD     		ble	.L43		@,
 582 002c 09FB0405 		mla	r5, r9, r4, r0	@ ivtmp.152, rowstride, y, bitmap
 583 0030 0394     		str	r4, [sp, #12]	@ y, %sfp
 584 0032 DDE90167 		ldrd	r6, r7, [sp, #4]	@ x1, x2,,
 585 0036 00E0     		b	.L45		@
 586              	.LVL48:
 587              	.L46:
 588              		.loc 1 335 8 is_stmt 0 view .LVU135
 589 0038 1C46     		mov	r4, r3	@ y, y
 590              	.LVL49:
 591              	.L45:
 592              	.LBB132:
 336:mini3d/render.c **** 	{
 337:mini3d/render.c **** 		uint8_t p = pattern[y%8];
 593              		.loc 1 337 3 is_stmt 1 view .LVU136
 338:mini3d/render.c **** 		uint32_t color = (p<<24) | (p<<16) | (p<<8) | p;
 594              		.loc 1 338 3 view .LVU137
 339:mini3d/render.c **** 		
 340:mini3d/render.c **** 		drawFragment((uint32_t*)&bitmap[y*rowstride], (x1>>16), (x2>>16)+1, color);
 595              		.loc 1 340 3 view .LVU138
 596              	@ mini3d/render.c:340: 		drawFragment((uint32_t*)&bitmap[y*rowstride], (x1>>16), (x2>>16)+1, color)
 597              		.loc 1 340 62 is_stmt 0 view .LVU139
 598 003a 3A14     		asrs	r2, r7, #16	@ tmp170, x2,
 599              	.LBB133:
 600              	.LBB134:
 601 003c 2846     		mov	r0, r5	@, ivtmp.152
 602              	.LBE134:
 603              	.LBE133:
 604              	@ mini3d/render.c:340: 		drawFragment((uint32_t*)&bitmap[y*rowstride], (x1>>16), (x2>>16)+1, color)
 605              		.loc 1 340 52 view .LVU140
 606 003e 3314     		asrs	r3, r6, #16	@ _23, x1,
ARM GAS  /var/folders/cs/83z6p2tj4w57s6p2rt8nwfp00000gn/T//ccDzWS9O.s 			page 19


 607              	.LVL50:
 608              	.LBB139:
 609              	.LBI133:
  92:mini3d/render.c **** {
 610              		.loc 1 92 1 is_stmt 1 view .LVU141
 611              	.LBB135:
  94:mini3d/render.c **** 		return;
 612              		.loc 1 94 2 view .LVU142
 613              	.LBE135:
 614              	.LBE139:
 615              	@ mini3d/render.c:337: 		uint8_t p = pattern[y%8];
 337:mini3d/render.c **** 		uint32_t color = (p<<24) | (p<<16) | (p<<8) | p;
 616              		.loc 1 337 24 is_stmt 0 view .LVU143
 617 0040 04F0070C 		and	ip, r4, #7	@ tmp179, y,
 618              	.LBB140:
 619              	.LBB136:
 620              	@ mini3d/render.c:94: 	if ( x2 < 0 || x1 >= LCD_COLUMNS )
  94:mini3d/render.c **** 		return;
 621              		.loc 1 94 5 view .LVU144
 622 0044 0132     		adds	r2, r2, #1	@ _25, tmp170,
 623              	.LVL51:
  94:mini3d/render.c **** 		return;
 624              		.loc 1 94 5 view .LVU145
 625              	.LBE136:
 626              	.LBE140:
 627              	@ mini3d/render.c:343: 		x2 += dx2;
 341:mini3d/render.c **** 		
 342:mini3d/render.c **** 		x1 += dx1;
 343:mini3d/render.c **** 		x2 += dx2;
 628              		.loc 1 343 6 view .LVU146
 629 0046 5F44     		add	r7, r7, fp	@ x2, dx2
 630              	.LVL52:
 631              	@ mini3d/render.c:342: 		x1 += dx1;
 342:mini3d/render.c **** 		x2 += dx2;
 632              		.loc 1 342 6 view .LVU147
 633 0048 5644     		add	r6, r6, r10	@ x1, dx1
 634              	.LVL53:
 342:mini3d/render.c **** 		x2 += dx2;
 635              		.loc 1 342 6 view .LVU148
 636 004a 4D44     		add	r5, r5, r9	@ ivtmp.152, rowstride
 637              	.LBB141:
 638              	.LBB137:
 639 004c 1946     		mov	r1, r3	@, _23
 640              	@ mini3d/render.c:94: 	if ( x2 < 0 || x1 >= LCD_COLUMNS )
  94:mini3d/render.c **** 		return;
 641              		.loc 1 94 5 view .LVU149
 642 004e 10D4     		bmi	.L44		@,
  94:mini3d/render.c **** 		return;
 643              		.loc 1 94 5 view .LVU150
 644 0050 40F28F1E 		movw	lr, #399	@ tmp223,
 645 0054 7345     		cmp	r3, lr	@ _23, tmp223
 646 0056 0CDC     		bgt	.L44		@,
 647              	.LBE137:
 648              	.LBE141:
 649              	@ mini3d/render.c:338: 		uint32_t color = (p<<24) | (p<<16) | (p<<8) | p;
 338:mini3d/render.c **** 		
 650              		.loc 1 338 22 view .LVU151
ARM GAS  /var/folders/cs/83z6p2tj4w57s6p2rt8nwfp00000gn/T//ccDzWS9O.s 			page 20


 651 0058 129B     		ldr	r3, [sp, #72]	@ tmp224, pattern
 652              	.LVL54:
 338:mini3d/render.c **** 		
 653              		.loc 1 338 22 view .LVU152
 654 005a 13F80CC0 		ldrb	ip, [r3, ip]	@ zero_extendqisi2	@ _12, *_11
 655              	@ mini3d/render.c:338: 		uint32_t color = (p<<24) | (p<<16) | (p<<8) | p;
 338:mini3d/render.c **** 		
 656              		.loc 1 338 32 view .LVU153
 657 005e 4FEA0C43 		lsl	r3, ip, #16	@ tmp181, _12,
 658              	@ mini3d/render.c:338: 		uint32_t color = (p<<24) | (p<<16) | (p<<8) | p;
 338:mini3d/render.c **** 		
 659              		.loc 1 338 28 view .LVU154
 660 0062 43EA0C63 		orr	r3, r3, ip, lsl #24	@ tmp182, tmp181, _12,
 661              	@ mini3d/render.c:338: 		uint32_t color = (p<<24) | (p<<16) | (p<<8) | p;
 338:mini3d/render.c **** 		
 662              		.loc 1 338 47 view .LVU155
 663 0066 43EA0C03 		orr	r3, r3, ip	@ tmp183, tmp182, _12
 664              	.LBB142:
 665              	.LBB138:
 666 006a 43EA0C23 		orr	r3, r3, ip, lsl #8	@, tmp183, _12,
 667 006e FFF7FEFF 		bl	drawFragment.part.0		@
 668              	.LVL55:
 669              	.L44:
 338:mini3d/render.c **** 		
 670              		.loc 1 338 47 view .LVU156
 671              	.LBE138:
 672              	.LBE142:
 342:mini3d/render.c **** 		x2 += dx2;
 673              		.loc 1 342 3 is_stmt 1 view .LVU157
 674              		.loc 1 343 3 view .LVU158
 344:mini3d/render.c **** 		++y;
 675              		.loc 1 344 3 view .LVU159
 676 0072 631C     		adds	r3, r4, #1	@ y, y,
 677              	.LVL56:
 678              		.loc 1 344 3 is_stmt 0 view .LVU160
 679              	.LBE132:
 335:mini3d/render.c **** 	{
 680              		.loc 1 335 8 is_stmt 1 view .LVU161
 681 0074 9845     		cmp	r8, r3	@ endy, y
 682 0076 DFD1     		bne	.L46		@,
 683 0078 019B     		ldr	r3, [sp, #4]	@ x1, %sfp
 684              	.LVL57:
 335:mini3d/render.c **** 	{
 685              		.loc 1 335 8 is_stmt 0 view .LVU162
 686 007a 5344     		add	r3, r3, r10	@ x1, dx1
 687 007c 1A46     		mov	r2, r3	@ _97, x1
 688 007e 039B     		ldr	r3, [sp, #12]	@ _78, %sfp
 689 0080 E41A     		subs	r4, r4, r3	@ _92, y, _78
 690              	.LVL58:
 335:mini3d/render.c **** 	{
 691              		.loc 1 335 8 view .LVU163
 692 0082 029B     		ldr	r3, [sp, #8]	@ x2, %sfp
 693 0084 5B44     		add	r3, r3, fp	@ x2, dx2
 694 0086 04FB0A22 		mla	r2, r4, r10, r2	@ x1, _92, dx1, _97
 695 008a 04FB0B33 		mla	r3, r4, fp, r3	@ x2, _92, dx2, _90
 696 008e 0192     		str	r2, [sp, #4]	@ x1, %sfp
 697 0090 0293     		str	r3, [sp, #8]	@ x2, %sfp
ARM GAS  /var/folders/cs/83z6p2tj4w57s6p2rt8nwfp00000gn/T//ccDzWS9O.s 			page 21


 698              	.LVL59:
 699              	.L43:
 345:mini3d/render.c **** 	}
 346:mini3d/render.c **** 	
 347:mini3d/render.c **** 	*x1p = x1;
 700              		.loc 1 347 2 is_stmt 1 view .LVU164
 701              	@ mini3d/render.c:347: 	*x1p = x1;
 702              		.loc 1 347 7 is_stmt 0 view .LVU165
 703 0092 0E9B     		ldr	r3, [sp, #56]	@ tmp235, x1p
 704 0094 1A46     		mov	r2, r3	@ tmp235, tmp235
 705 0096 019B     		ldr	r3, [sp, #4]	@ x1, %sfp
 706 0098 1360     		str	r3, [r2]	@ x1, *x1p_32(D)
 348:mini3d/render.c **** 	*x2p = x2;
 707              		.loc 1 348 2 is_stmt 1 view .LVU166
 708              	@ mini3d/render.c:348: 	*x2p = x2;
 709              		.loc 1 348 7 is_stmt 0 view .LVU167
 710 009a 109B     		ldr	r3, [sp, #64]	@ tmp238, x2p
 711 009c 1A46     		mov	r2, r3	@ tmp238, tmp238
 712 009e 029B     		ldr	r3, [sp, #8]	@ x2, %sfp
 713 00a0 1360     		str	r3, [r2]	@ x2, *x2p_34(D)
 714              	@ mini3d/render.c:349: }
 349:mini3d/render.c **** }
 715              		.loc 1 349 1 view .LVU168
 716 00a2 05B0     		add	sp, sp, #20	@,,
 717              	.LCFI5:
 718              		.cfi_remember_state
 719              		.cfi_def_cfa_offset 36
 720              		@ sp needed	@
 721 00a4 BDE8F08F 		pop	{r4, r5, r6, r7, r8, r9, r10, fp, pc}	@
 722              	.LVL60:
 723              	.L49:
 724              	.LCFI6:
 725              		.cfi_restore_state
 330:mini3d/render.c **** 		x2 += -y * dx2;
 726              		.loc 1 330 3 is_stmt 1 view .LVU169
 727              	@ mini3d/render.c:330: 		x1 += -y * dx1;
 330:mini3d/render.c **** 		x2 += -y * dx2;
 728              		.loc 1 330 6 is_stmt 0 view .LVU170
 729 00a8 019B     		ldr	r3, [sp, #4]	@ x1, %sfp
 730              	.LVL61:
 330:mini3d/render.c **** 		x2 += -y * dx2;
 731              		.loc 1 330 6 view .LVU171
 732 00aa 04FB1A33 		mls	r3, r4, r10, r3	@ x1, y, dx1, x1
 733 00ae 0193     		str	r3, [sp, #4]	@ x1, %sfp
 734              	.LVL62:
 331:mini3d/render.c **** 		y = 0;
 735              		.loc 1 331 3 is_stmt 1 view .LVU172
 736              	@ mini3d/render.c:331: 		x2 += -y * dx2;
 331:mini3d/render.c **** 		y = 0;
 737              		.loc 1 331 6 is_stmt 0 view .LVU173
 738 00b0 029B     		ldr	r3, [sp, #8]	@ x2, %sfp
 739              	.LVL63:
 331:mini3d/render.c **** 		y = 0;
 740              		.loc 1 331 6 view .LVU174
 741 00b2 04FB1B33 		mls	r3, r4, fp, r3	@ x2, y, dx2, x2
 742              	@ mini3d/render.c:332: 		y = 0;
 332:mini3d/render.c **** 	}
ARM GAS  /var/folders/cs/83z6p2tj4w57s6p2rt8nwfp00000gn/T//ccDzWS9O.s 			page 22


 743              		.loc 1 332 5 view .LVU175
 744 00b6 0024     		movs	r4, #0	@ y,
 745              	.LVL64:
 746              	@ mini3d/render.c:331: 		x2 += -y * dx2;
 331:mini3d/render.c **** 		y = 0;
 747              		.loc 1 331 6 view .LVU176
 748 00b8 0293     		str	r3, [sp, #8]	@ x2, %sfp
 749              	.LVL65:
 332:mini3d/render.c **** 	}
 750              		.loc 1 332 3 is_stmt 1 view .LVU177
 332:mini3d/render.c **** 	}
 751              		.loc 1 332 3 is_stmt 0 view .LVU178
 752 00ba B5E7     		b	.L42		@
 753              	.LVL66:
 754              	.L48:
 755              	.LBB143:
 322:mini3d/render.c **** 		*x1p = x1 + dy * dx1;
 756              		.loc 1 322 3 is_stmt 1 view .LVU179
 757              	@ mini3d/render.c:322: 		int dy = endy - y;
 322:mini3d/render.c **** 		*x1p = x1 + dy * dx1;
 758              		.loc 1 322 7 is_stmt 0 view .LVU180
 759 00bc A8EB0404 		sub	r4, r8, r4	@ dy, endy, y
 760              	.LVL67:
 323:mini3d/render.c **** 		*x2p = x2 + dy * dx2;
 761              		.loc 1 323 3 is_stmt 1 view .LVU181
 762              	@ mini3d/render.c:323: 		*x1p = x1 + dy * dx1;
 323:mini3d/render.c **** 		*x2p = x2 + dy * dx2;
 763              		.loc 1 323 13 is_stmt 0 view .LVU182
 764 00c0 019B     		ldr	r3, [sp, #4]	@ x1, %sfp
 765              	.LVL68:
 323:mini3d/render.c **** 		*x2p = x2 + dy * dx2;
 766              		.loc 1 323 13 view .LVU183
 767 00c2 04FB0A33 		mla	r3, r4, r10, r3	@ tmp164, dy, dx1, x1
 768              	@ mini3d/render.c:324: 		*x2p = x2 + dy * dx2;
 324:mini3d/render.c **** 		return;
 769              		.loc 1 324 13 view .LVU184
 770 00c6 04FB0B24 		mla	r4, r4, fp, r2	@ tmp166, dy, dx2, x2
 771              	.LVL69:
 772              	@ mini3d/render.c:323: 		*x1p = x1 + dy * dx1;
 323:mini3d/render.c **** 		*x2p = x2 + dy * dx2;
 773              		.loc 1 323 8 view .LVU185
 774 00ca 0E9A     		ldr	r2, [sp, #56]	@ tmp211, x1p
 775              	.LVL70:
 323:mini3d/render.c **** 		*x2p = x2 + dy * dx2;
 776              		.loc 1 323 8 view .LVU186
 777 00cc 1360     		str	r3, [r2]	@ tmp164, *x1p_32(D)
 778              	.LVL71:
 324:mini3d/render.c **** 		return;
 779              		.loc 1 324 3 is_stmt 1 view .LVU187
 780              	@ mini3d/render.c:324: 		*x2p = x2 + dy * dx2;
 324:mini3d/render.c **** 		return;
 781              		.loc 1 324 8 is_stmt 0 view .LVU188
 782 00ce 109B     		ldr	r3, [sp, #64]	@ tmp213, x2p
 783 00d0 1C60     		str	r4, [r3]	@ tmp166, *x2p_34(D)
 325:mini3d/render.c **** 	}
 784              		.loc 1 325 3 is_stmt 1 view .LVU189
 785              	.LBE143:
ARM GAS  /var/folders/cs/83z6p2tj4w57s6p2rt8nwfp00000gn/T//ccDzWS9O.s 			page 23


 786              	@ mini3d/render.c:349: }
 787              		.loc 1 349 1 is_stmt 0 view .LVU190
 788 00d2 05B0     		add	sp, sp, #20	@,,
 789              	.LCFI7:
 790              		.cfi_def_cfa_offset 36
 791              		@ sp needed	@
 792 00d4 BDE8F08F 		pop	{r4, r5, r6, r7, r8, r9, r10, fp, pc}	@
 793              		.loc 1 349 1 view .LVU191
 794              		.cfi_endproc
 795              	.LFE20:
 796              		.size	fillRange, .-fillRange
 797              		.section	.text.drawFragment_zbuf.part.0,"ax",%progbits
 798              		.align	1
 799              		.p2align 4,,15
 800              		.syntax unified
 801              		.thumb
 802              		.thumb_func
 803              		.fpu fpv5-sp-d16
 804              		.type	drawFragment_zbuf.part.0, %function
 805              	drawFragment_zbuf.part.0:
 806              	.LVL72:
 807              	.LFB28:
 152:mini3d/render.c **** {
 808              		.loc 1 152 1 is_stmt 1 view -0
 809              		.cfi_startproc
 810              		@ args = 12, pretend = 0, frame = 0
 811              		@ frame_needed = 0, uses_anonymous_args = 0
 157:mini3d/render.c **** 	{
 812              		.loc 1 157 2 view .LVU193
 813              	@ mini3d/render.c:157: 	if ( x < 0 )
 157:mini3d/render.c **** 	{
 814              		.loc 1 157 5 is_stmt 0 view .LVU194
 815 0000 002A     		cmp	r2, #0	@ x
 816              	@ mini3d/render.c:152: drawFragment_zbuf(uint32_t* row, uint16_t* zbrow, int x, int endx, uint32_t 
 152:mini3d/render.c **** {
 817              		.loc 1 152 1 view .LVU195
 818 0002 2DE9F04F 		push	{r4, r5, r6, r7, r8, r9, r10, fp, lr}	@
 819              	.LCFI8:
 820              		.cfi_def_cfa_offset 36
 821              		.cfi_offset 4, -36
 822              		.cfi_offset 5, -32
 823              		.cfi_offset 6, -28
 824              		.cfi_offset 7, -24
 825              		.cfi_offset 8, -20
 826              		.cfi_offset 9, -16
 827              		.cfi_offset 10, -12
 828              		.cfi_offset 11, -8
 829              		.cfi_offset 14, -4
 830              	@ mini3d/render.c:152: drawFragment_zbuf(uint32_t* row, uint16_t* zbrow, int x, int endx, uint32_t 
 152:mini3d/render.c **** {
 831              		.loc 1 152 1 view .LVU196
 832 0006 DDF82CE0 		ldr	lr, [sp, #44]	@ color, color
 833 000a DDE9094C 		ldrd	r4, ip, [sp, #36]	@ z, dzdx,,
 834              	@ mini3d/render.c:157: 	if ( x < 0 )
 157:mini3d/render.c **** 	{
 835              		.loc 1 157 5 view .LVU197
 836 000e 52DB     		blt	.L51		@,
ARM GAS  /var/folders/cs/83z6p2tj4w57s6p2rt8nwfp00000gn/T//ccDzWS9O.s 			page 24


 837 0010 B3F5C87F 		cmp	r3, #400	@ endx,
 838 0014 4FEA6215 		asr	r5, r2, #5	@ tmp156, x,
 839 0018 9146     		mov	r9, r2	@ _89, x
 840 001a A8BF     		it	ge
 841 001c 4FF4C873 		movge	r3, #400	@ endx,
 842              	.LVL73:
 157:mini3d/render.c **** 	{
 843              		.loc 1 157 5 view .LVU198
 844 0020 00EB8500 		add	r0, r0, r5, lsl #2	@ row, row, tmp156,
 845              	.LVL74:
 163:mini3d/render.c **** 		endx = LCD_COLUMNS;
 846              		.loc 1 163 2 is_stmt 1 view .LVU199
 166:mini3d/render.c **** 	uint32_t* p = row + x/32;
 847              		.loc 1 166 2 view .LVU200
 167:mini3d/render.c **** 
 848              		.loc 1 167 2 view .LVU201
 169:mini3d/render.c **** 	{
 849              		.loc 1 169 2 view .LVU202
 169:mini3d/render.c **** 	{
 850              		.loc 1 169 8 view .LVU203
 851 0024 9342     		cmp	r3, r2	@ endx, x
 852 0026 52DD     		ble	.L53		@,
 853              	.LVL75:
 854              	.L67:
 169:mini3d/render.c **** 	{
 855              		.loc 1 169 8 is_stmt 0 view .LVU204
 856 0028 6FF00046 		mvn	r6, #-2147483648	@ tmp161,
 857 002c 8F1E     		subs	r7, r1, #2	@ tmp164, zbrow,
 858              	@ mini3d/render.c:166: 	uint32_t mask = 0;
 166:mini3d/render.c **** 	uint32_t* p = row + x/32;
 859              		.loc 1 166 11 view .LVU205
 860 002e 0025     		movs	r5, #0	@ mask,
 861              	.LBB144:
 862              	@ mini3d/render.c:175: 			mask |= 0x80000000u >> (x%32);
 175:mini3d/render.c **** 			zbrow[x] = zi;
 863              		.loc 1 175 24 view .LVU206
 864 0030 4FF00048 		mov	r8, #-2147483648	@ tmp179,
 865 0034 1644     		add	r6, r6, r2	@ tmp161, x
 866 0036 07EB4307 		add	r7, r7, r3, lsl #1	@ _86, tmp164, endx,
 867 003a 01EB4601 		add	r1, r1, r6, lsl #1	@ ivtmp.163, zbrow, tmp161,
 868              	.LVL76:
 175:mini3d/render.c **** 			zbrow[x] = zi;
 869              		.loc 1 175 24 view .LVU207
 870 003e 0BE0     		b	.L57		@
 871              	.LVL77:
 872              	.L56:
 873              	.LBB145:
 874              	.LBB146:
 875              	@ mini3d/render.c:88: 		*p = (*p & ~mask) | (color & mask);
  88:mini3d/render.c **** }
 876              		.loc 1 88 9 view .LVU208
 877 0040 D0F800A0 		ldr	r10, [r0]	@ _39, *p_76
 878              	@ mini3d/render.c:88: 		*p = (*p & ~mask) | (color & mask);
  88:mini3d/render.c **** }
 879              		.loc 1 88 21 view .LVU209
 880 0044 8EEA0A03 		eor	r3, lr, r10	@ tmp172, color, _39
 881              	.LVL78:
ARM GAS  /var/folders/cs/83z6p2tj4w57s6p2rt8nwfp00000gn/T//ccDzWS9O.s 			page 25


  88:mini3d/render.c **** }
 882              		.loc 1 88 21 view .LVU210
 883 0048 03EA0B03 		and	r3, r3, fp	@ tmp173, tmp172, result
 884 004c 83EA0A03 		eor	r3, r3, r10	@ tmp174, tmp173, _39
 885              	@ mini3d/render.c:88: 		*p = (*p & ~mask) | (color & mask);
  88:mini3d/render.c **** }
 886              		.loc 1 88 6 view .LVU211
 887 0050 0360     		str	r3, [r0]	@ tmp174, *p_76
 888              	.LBE146:
 889              	.LBE145:
 890              	@ mini3d/render.c:184: 			_drawMaskPattern(p++, swap(mask), color);
 184:mini3d/render.c **** 			mask = 0;
 891              		.loc 1 184 4 view .LVU212
 892 0052 3046     		mov	r0, r6	@ row, p
 893              	.LVL79:
 894              	.L55:
 184:mini3d/render.c **** 			mask = 0;
 895              		.loc 1 184 4 view .LVU213
 896              	.LBE144:
 169:mini3d/render.c **** 	{
 897              		.loc 1 169 8 is_stmt 1 view .LVU214
 898 0054 B942     		cmp	r1, r7	@ ivtmp.163, _86
 899 0056 1FD0     		beq	.L58		@,
 900              	.LVL80:
 901              	.L57:
 902              	.LBB161:
 171:mini3d/render.c **** 		
 903              		.loc 1 171 3 view .LVU215
 175:mini3d/render.c **** 			zbrow[x] = zi;
 904              		.loc 1 175 4 view .LVU216
 184:mini3d/render.c **** 			mask = 0;
 905              		.loc 1 184 4 view .LVU217
 906              	@ mini3d/render.c:173: 		if ( zi > zbrow[x] )
 173:mini3d/render.c **** 		{
 907              		.loc 1 173 6 is_stmt 0 view .LVU218
 908 0058 31F8026F 		ldrh	r6, [r1, #2]!	@ MEM[base: _43, offset: 0B], MEM[base: _43, offset: 0B]
 909              	@ mini3d/render.c:175: 			mask |= 0x80000000u >> (x%32);
 175:mini3d/render.c **** 			zbrow[x] = zi;
 910              		.loc 1 175 29 view .LVU219
 911 005c 02F01F03 		and	r3, r2, #31	@ tmp167, x,
 912              	@ mini3d/render.c:171: 		uint16_t zi = z >> 16;
 171:mini3d/render.c **** 		
 913              		.loc 1 171 12 view .LVU220
 914 0060 4FEA1449 		lsr	r9, r4, #16	@ zi, z,
 915              	.LVL81:
 173:mini3d/render.c **** 		{
 916              		.loc 1 173 3 is_stmt 1 view .LVU221
 917              	@ mini3d/render.c:179: 		++x;
 179:mini3d/render.c **** 		z += dzdx;
 918              		.loc 1 179 3 is_stmt 0 view .LVU222
 919 0064 0132     		adds	r2, r2, #1	@ x, x,
 920              	.LVL82:
 921              	@ mini3d/render.c:173: 		if ( zi > zbrow[x] )
 173:mini3d/render.c **** 		{
 922              		.loc 1 173 6 view .LVU223
 923 0066 B6EB144F 		cmp	r6, r4, lsr #16	@ MEM[base: _43, offset: 0B], z,
 924              	@ mini3d/render.c:175: 			mask |= 0x80000000u >> (x%32);
ARM GAS  /var/folders/cs/83z6p2tj4w57s6p2rt8nwfp00000gn/T//ccDzWS9O.s 			page 26


 175:mini3d/render.c **** 			zbrow[x] = zi;
 925              		.loc 1 175 24 view .LVU224
 926 006a 28FA03F3 		lsr	r3, r8, r3	@ tmp168, tmp179, tmp167
 927              	@ mini3d/render.c:180: 		z += dzdx;
 180:mini3d/render.c **** 		
 928              		.loc 1 180 5 view .LVU225
 929 006e 6444     		add	r4, r4, ip	@ z, dzdx
 930              	.LVL83:
 931              	@ mini3d/render.c:184: 			_drawMaskPattern(p++, swap(mask), color);
 184:mini3d/render.c **** 			mask = 0;
 932              		.loc 1 184 4 view .LVU226
 933 0070 00F10406 		add	r6, r0, #4	@ p, row,
 934              	.LVL84:
 935              	@ mini3d/render.c:173: 		if ( zi > zbrow[x] )
 173:mini3d/render.c **** 		{
 936              		.loc 1 173 6 view .LVU227
 937 0074 02D2     		bcs	.L54		@,
 938              	@ mini3d/render.c:175: 			mask |= 0x80000000u >> (x%32);
 175:mini3d/render.c **** 			zbrow[x] = zi;
 939              		.loc 1 175 9 view .LVU228
 940 0076 1D43     		orrs	r5, r5, r3	@, mask, mask, tmp168
 941              	.LVL85:
 176:mini3d/render.c **** 		}
 942              		.loc 1 176 4 is_stmt 1 view .LVU229
 943              	@ mini3d/render.c:176: 			zbrow[x] = zi;
 176:mini3d/render.c **** 		}
 944              		.loc 1 176 13 is_stmt 0 view .LVU230
 945 0078 A1F80090 		strh	r9, [r1]	@ movhi	@ zi, MEM[base: _43, offset: 0B]
 946              	.L54:
 179:mini3d/render.c **** 		z += dzdx;
 947              		.loc 1 179 3 is_stmt 1 view .LVU231
 948              	.LVL86:
 180:mini3d/render.c **** 		
 949              		.loc 1 180 3 view .LVU232
 182:mini3d/render.c **** 		{
 950              		.loc 1 182 3 view .LVU233
 951              	.LBB151:
 952              	.LBI151:
  37:mini3d/render.c **** {
 953              		.loc 1 37 24 view .LVU234
 954              	.LBB152:
  41:mini3d/render.c **** 	
 955              		.loc 1 41 2 view .LVU235
  43:mini3d/render.c **** 	return(result);
 956              		.loc 1 43 2 view .LVU236
 957              	.LBE152:
 958              	.LBE151:
 959              	@ mini3d/render.c:182: 		if ( x % 32 == 0 )
 182:mini3d/render.c **** 		{
 960              		.loc 1 182 6 is_stmt 0 view .LVU237
 961 007c 12F01F09 		ands	r9, r2, #31	@ _33, x,
 962              	.LVL87:
 182:mini3d/render.c **** 		{
 963              		.loc 1 182 6 view .LVU238
 964 0080 E8D1     		bne	.L55		@,
 965              	.LBB155:
 966              	.LBB153:
ARM GAS  /var/folders/cs/83z6p2tj4w57s6p2rt8nwfp00000gn/T//ccDzWS9O.s 			page 27


 967              	@ mini3d/render.c:43: 	__asm volatile ("rev %0, %1" : "=l" (result) : "l" (n));
  43:mini3d/render.c **** 	return(result);
 968              		.loc 1 43 2 view .LVU239
 969              		.syntax unified
 970              	@ 43 "mini3d/render.c" 1
 971 0082 2BBA     		rev r3, r5	@ result, mask
 972              	@ 0 "" 2
 973              		.thumb
 974              		.syntax unified
 975              	.LBE153:
 976              	.LBE155:
 977              	.LBB156:
 978              	.LBB147:
 979              	@ mini3d/render.c:85: 	if ( mask == 0xffffffff )
  85:mini3d/render.c **** 		*p = color;
 980              		.loc 1 85 5 view .LVU240
 981 0084 B3F1FF3F 		cmp	r3, #-1	@ result,
 982              	.LBE147:
 983              	.LBE156:
 984              	.LBB157:
 985              	.LBB154:
 986              	@ mini3d/render.c:43: 	__asm volatile ("rev %0, %1" : "=l" (result) : "l" (n));
  43:mini3d/render.c **** 	return(result);
 987              		.loc 1 43 2 view .LVU241
 988 0088 9B46     		mov	fp, r3	@ result, result
 989              	.LVL88:
  44:mini3d/render.c **** #else
 990              		.loc 1 44 2 is_stmt 1 view .LVU242
  44:mini3d/render.c **** #else
 991              		.loc 1 44 2 is_stmt 0 view .LVU243
 992              	.LBE154:
 993              	.LBE157:
 994              	.LBB158:
 995              	.LBI145:
  83:mini3d/render.c **** {
 996              		.loc 1 83 1 is_stmt 1 view .LVU244
 997              	.LBB148:
  85:mini3d/render.c **** 		*p = color;
 998              		.loc 1 85 2 view .LVU245
  88:mini3d/render.c **** }
 999              		.loc 1 88 3 view .LVU246
 1000              	.LBE148:
 1001              	.LBE158:
 1002              	@ mini3d/render.c:185: 			mask = 0;
 185:mini3d/render.c **** 		}
 1003              		.loc 1 185 9 is_stmt 0 view .LVU247
 1004 008a 4D46     		mov	r5, r9	@ mask, _33
 1005              	.LVL89:
 1006              	.LBB159:
 1007              	.LBB149:
 1008              	@ mini3d/render.c:85: 	if ( mask == 0xffffffff )
  85:mini3d/render.c **** 		*p = color;
 1009              		.loc 1 85 5 view .LVU248
 1010 008c D8D1     		bne	.L56		@,
  86:mini3d/render.c **** 	else
 1011              		.loc 1 86 3 is_stmt 1 view .LVU249
 1012              	.LBE149:
ARM GAS  /var/folders/cs/83z6p2tj4w57s6p2rt8nwfp00000gn/T//ccDzWS9O.s 			page 28


 1013              	.LBE159:
 1014              	.LBE161:
 1015              	@ mini3d/render.c:169: 	while ( x < endx )
 169:mini3d/render.c **** 	{
 1016              		.loc 1 169 8 is_stmt 0 view .LVU250
 1017 008e B942     		cmp	r1, r7	@ ivtmp.163, _86
 1018              	.LBB162:
 1019              	.LBB160:
 1020              	.LBB150:
 1021              	@ mini3d/render.c:86: 		*p = color;
  86:mini3d/render.c **** 	else
 1022              		.loc 1 86 6 view .LVU251
 1023 0090 C0F800E0 		str	lr, [r0]	@ color, *p_76
 1024              	.LBE150:
 1025              	.LBE160:
 1026              	@ mini3d/render.c:184: 			_drawMaskPattern(p++, swap(mask), color);
 184:mini3d/render.c **** 			mask = 0;
 1027              		.loc 1 184 4 view .LVU252
 1028 0094 3046     		mov	r0, r6	@ row, p
 1029              	.LVL90:
 184:mini3d/render.c **** 			mask = 0;
 1030              		.loc 1 184 4 view .LVU253
 1031              	.LBE162:
 169:mini3d/render.c **** 	{
 1032              		.loc 1 169 8 is_stmt 1 view .LVU254
 1033 0096 DFD1     		bne	.L57		@,
 1034              	.LVL91:
 1035              	.L58:
 189:mini3d/render.c **** 		_drawMaskPattern(p, swap(mask), color);
 1036              		.loc 1 189 2 view .LVU255
 1037              	@ mini3d/render.c:189: 	if ( x % 32 != 0 )
 189:mini3d/render.c **** 		_drawMaskPattern(p, swap(mask), color);
 1038              		.loc 1 189 5 is_stmt 0 view .LVU256
 1039 0098 B9F1000F 		cmp	r9, #0	@ _33
 1040 009c 09D0     		beq	.L50	@
 190:mini3d/render.c **** }
 1041              		.loc 1 190 3 is_stmt 1 view .LVU257
 1042              	.LVL92:
 1043              	.LBB163:
 1044              	.LBI163:
  37:mini3d/render.c **** {
 1045              		.loc 1 37 24 view .LVU258
 1046              	.LBB164:
  41:mini3d/render.c **** 	
 1047              		.loc 1 41 2 view .LVU259
  43:mini3d/render.c **** 	return(result);
 1048              		.loc 1 43 2 view .LVU260
 1049              		.syntax unified
 1050              	@ 43 "mini3d/render.c" 1
 1051 009e 2DBA     		rev r5, r5	@ result, mask
 1052              	@ 0 "" 2
 1053              	.LVL93:
  44:mini3d/render.c **** #else
 1054              		.loc 1 44 2 view .LVU261
  44:mini3d/render.c **** #else
 1055              		.loc 1 44 2 is_stmt 0 view .LVU262
 1056              		.thumb
ARM GAS  /var/folders/cs/83z6p2tj4w57s6p2rt8nwfp00000gn/T//ccDzWS9O.s 			page 29


 1057              		.syntax unified
 1058              	.LBE164:
 1059              	.LBE163:
 1060              	.LBB165:
 1061              	.LBI165:
  83:mini3d/render.c **** {
 1062              		.loc 1 83 1 is_stmt 1 view .LVU263
 1063              	.LBB166:
  85:mini3d/render.c **** 		*p = color;
 1064              		.loc 1 85 2 view .LVU264
 1065              	@ mini3d/render.c:85: 	if ( mask == 0xffffffff )
  85:mini3d/render.c **** 		*p = color;
 1066              		.loc 1 85 5 is_stmt 0 view .LVU265
 1067 00a0 6B1C     		adds	r3, r5, #1	@, result,
 1068 00a2 18D0     		beq	.L66		@,
  88:mini3d/render.c **** }
 1069              		.loc 1 88 3 is_stmt 1 view .LVU266
 1070              	@ mini3d/render.c:88: 		*p = (*p & ~mask) | (color & mask);
  88:mini3d/render.c **** }
 1071              		.loc 1 88 9 is_stmt 0 view .LVU267
 1072 00a4 0368     		ldr	r3, [r0]	@ _49, *p_75
 1073              	@ mini3d/render.c:88: 		*p = (*p & ~mask) | (color & mask);
  88:mini3d/render.c **** }
 1074              		.loc 1 88 21 view .LVU268
 1075 00a6 8EEA030E 		eor	lr, lr, r3	@ tmp176, color, _49
 1076              	.LVL94:
  88:mini3d/render.c **** }
 1077              		.loc 1 88 21 view .LVU269
 1078 00aa 0EEA0505 		and	r5, lr, r5	@ tmp177, tmp176, result
 1079              	.LVL95:
  88:mini3d/render.c **** }
 1080              		.loc 1 88 21 view .LVU270
 1081 00ae 5D40     		eors	r5, r5, r3	@, tmp178, tmp177, _49
 1082              	@ mini3d/render.c:88: 		*p = (*p & ~mask) | (color & mask);
  88:mini3d/render.c **** }
 1083              		.loc 1 88 6 view .LVU271
 1084 00b0 0560     		str	r5, [r0]	@ tmp178, *p_75
 1085              	.LVL96:
 1086              	.L50:
  88:mini3d/render.c **** }
 1087              		.loc 1 88 6 view .LVU272
 1088              	.LBE166:
 1089              	.LBE165:
 1090              	@ mini3d/render.c:191: }
 191:mini3d/render.c **** #endif
 1091              		.loc 1 191 1 view .LVU273
 1092 00b2 BDE8F08F 		pop	{r4, r5, r6, r7, r8, r9, r10, fp, pc}	@
 1093              	.LVL97:
 1094              	.L51:
 159:mini3d/render.c **** 		x = 0;
 1095              		.loc 1 159 3 is_stmt 1 view .LVU274
 1096 00b6 B3F5C87F 		cmp	r3, #400	@ endx,
 1097              	@ mini3d/render.c:159: 		z += -x * dzdx;
 159:mini3d/render.c **** 		x = 0;
 1098              		.loc 1 159 5 is_stmt 0 view .LVU275
 1099 00ba 02FB1C44 		mls	r4, r2, ip, r4	@ z, x, dzdx, z
 1100              	.LVL98:
ARM GAS  /var/folders/cs/83z6p2tj4w57s6p2rt8nwfp00000gn/T//ccDzWS9O.s 			page 30


 160:mini3d/render.c **** 	}
 1101              		.loc 1 160 3 is_stmt 1 view .LVU276
 1102              	@ mini3d/render.c:159: 		z += -x * dzdx;
 159:mini3d/render.c **** 		x = 0;
 1103              		.loc 1 159 5 is_stmt 0 view .LVU277
 1104 00be 4FF00002 		mov	r2, #0	@ x,
 1105 00c2 A8BF     		it	ge
 1106 00c4 4FF4C873 		movge	r3, #400	@ endx,
 1107              	.LVL99:
 1108              	@ mini3d/render.c:160: 		x = 0;
 160:mini3d/render.c **** 	}
 1109              		.loc 1 160 5 view .LVU278
 1110 00c8 9146     		mov	r9, r2	@ _89, x
 1111              	.LVL100:
 163:mini3d/render.c **** 		endx = LCD_COLUMNS;
 1112              		.loc 1 163 2 is_stmt 1 view .LVU279
 166:mini3d/render.c **** 	uint32_t* p = row + x/32;
 1113              		.loc 1 166 2 view .LVU280
 167:mini3d/render.c **** 
 1114              		.loc 1 167 2 view .LVU281
 169:mini3d/render.c **** 	{
 1115              		.loc 1 169 2 view .LVU282
 169:mini3d/render.c **** 	{
 1116              		.loc 1 169 8 view .LVU283
 1117 00ca 9342     		cmp	r3, r2	@ endx, x
 1118 00cc ACDC     		bgt	.L67		@,
 1119              	.LVL101:
 1120              	.L53:
 169:mini3d/render.c **** 	{
 1121              		.loc 1 169 8 is_stmt 0 view .LVU284
 1122 00ce 09F01F09 		and	r9, r9, #31	@ _33, _89,
 1123              	@ mini3d/render.c:166: 	uint32_t mask = 0;
 166:mini3d/render.c **** 	uint32_t* p = row + x/32;
 1124              		.loc 1 166 11 view .LVU285
 1125 00d2 0025     		movs	r5, #0	@ mask,
 1126 00d4 E0E7     		b	.L58		@
 1127              	.LVL102:
 1128              	.L66:
 1129              	.LBB168:
 1130              	.LBB167:
  86:mini3d/render.c **** 	else
 1131              		.loc 1 86 3 is_stmt 1 view .LVU286
 1132              	@ mini3d/render.c:86: 		*p = color;
  86:mini3d/render.c **** 	else
 1133              		.loc 1 86 6 is_stmt 0 view .LVU287
 1134 00d6 C0F800E0 		str	lr, [r0]	@ color, *p_75
 1135              	.LBE167:
 1136              	.LBE168:
 1137              	@ mini3d/render.c:191: }
 191:mini3d/render.c **** #endif
 1138              		.loc 1 191 1 view .LVU288
 1139 00da BDE8F08F 		pop	{r4, r5, r6, r7, r8, r9, r10, fp, pc}	@
 191:mini3d/render.c **** #endif
 1140              		.loc 1 191 1 view .LVU289
 1141              		.cfi_endproc
 1142              	.LFE28:
 1143              		.size	drawFragment_zbuf.part.0, .-drawFragment_zbuf.part.0
ARM GAS  /var/folders/cs/83z6p2tj4w57s6p2rt8nwfp00000gn/T//ccDzWS9O.s 			page 31


 1144 00de 00BF     		.section	.text.fillRange_zbuf,"ax",%progbits
 1145              		.align	1
 1146              		.p2align 4,,15
 1147              		.syntax unified
 1148              		.thumb
 1149              		.thumb_func
 1150              		.fpu fpv5-sp-d16
 1151              		.type	fillRange_zbuf, %function
 1152              	fillRange_zbuf:
 1153              	.LVL103:
 1154              	.LFB21:
 350:mini3d/render.c **** 
 351:mini3d/render.c **** #if ENABLE_Z_BUFFER
 352:mini3d/render.c **** static void fillRange_zbuf(uint8_t* bitmap, int rowstride, int y, int endy, int32_t* x1p, int32_t d
 353:mini3d/render.c **** {
 1155              		.loc 1 353 1 is_stmt 1 view -0
 1156              		.cfi_startproc
 1157              		@ args = 32, pretend = 0, frame = 24
 1158              		@ frame_needed = 0, uses_anonymous_args = 0
 354:mini3d/render.c **** 	int32_t x1 = *x1p, x2 = *x2p;
 1159              		.loc 1 354 2 view .LVU291
 1160              	@ mini3d/render.c:353: {
 353:mini3d/render.c **** 	int32_t x1 = *x1p, x2 = *x2p;
 1161              		.loc 1 353 1 is_stmt 0 view .LVU292
 1162 0000 2DE9F04F 		push	{r4, r5, r6, r7, r8, r9, r10, fp, lr}	@
 1163              	.LCFI9:
 1164              		.cfi_def_cfa_offset 36
 1165              		.cfi_offset 4, -36
 1166              		.cfi_offset 5, -32
 1167              		.cfi_offset 6, -28
 1168              		.cfi_offset 7, -24
 1169              		.cfi_offset 8, -20
 1170              		.cfi_offset 9, -16
 1171              		.cfi_offset 10, -12
 1172              		.cfi_offset 11, -8
 1173              		.cfi_offset 14, -4
 1174 0004 8BB0     		sub	sp, sp, #44	@,,
 1175              	.LCFI10:
 1176              		.cfi_def_cfa_offset 80
 1177              	@ mini3d/render.c:353: {
 353:mini3d/render.c **** 	int32_t x1 = *x1p, x2 = *x2p;
 1178              		.loc 1 353 1 view .LVU293
 1179 0006 1446     		mov	r4, r2	@ y, tmp219
 1180              	@ mini3d/render.c:357: 	if ( endy < 0 )
 355:mini3d/render.c **** 	uint32_t z = *zp;
 356:mini3d/render.c **** 	
 357:mini3d/render.c **** 	if ( endy < 0 )
 1181              		.loc 1 357 5 view .LVU294
 1182 0008 B3F1000A 		subs	r10, r3, #0	@ endy, tmp220
 1183              	@ mini3d/render.c:354: 	int32_t x1 = *x1p, x2 = *x2p;
 354:mini3d/render.c **** 	uint32_t z = *zp;
 1184              		.loc 1 354 10 view .LVU295
 1185 000c 149A     		ldr	r2, [sp, #80]	@ tmp229, x1p
 1186              	.LVL104:
 1187              	@ mini3d/render.c:353: {
 353:mini3d/render.c **** 	int32_t x1 = *x1p, x2 = *x2p;
 1188              		.loc 1 353 1 view .LVU296
ARM GAS  /var/folders/cs/83z6p2tj4w57s6p2rt8nwfp00000gn/T//ccDzWS9O.s 			page 32


 1189 000e DDF864B0 		ldr	fp, [sp, #100]	@ dzdy, dzdy
 1190              	@ mini3d/render.c:354: 	int32_t x1 = *x1p, x2 = *x2p;
 354:mini3d/render.c **** 	uint32_t z = *zp;
 1191              		.loc 1 354 10 view .LVU297
 1192 0012 1268     		ldr	r2, [r2]	@ x1, *x1p_42(D)
 1193 0014 0692     		str	r2, [sp, #24]	@ x1, %sfp
 1194              	.LVL105:
 1195              	@ mini3d/render.c:354: 	int32_t x1 = *x1p, x2 = *x2p;
 354:mini3d/render.c **** 	uint32_t z = *zp;
 1196              		.loc 1 354 21 view .LVU298
 1197 0016 169A     		ldr	r2, [sp, #88]	@ tmp232, x2p
 1198              	.LVL106:
 354:mini3d/render.c **** 	uint32_t z = *zp;
 1199              		.loc 1 354 21 view .LVU299
 1200 0018 1268     		ldr	r2, [r2]	@ x2, *x2p_44(D)
 1201 001a 0792     		str	r2, [sp, #28]	@ x2, %sfp
 1202              	.LVL107:
 355:mini3d/render.c **** 	uint32_t z = *zp;
 1203              		.loc 1 355 2 is_stmt 1 view .LVU300
 1204              	@ mini3d/render.c:355: 	uint32_t z = *zp;
 355:mini3d/render.c **** 	uint32_t z = *zp;
 1205              		.loc 1 355 11 is_stmt 0 view .LVU301
 1206 001c 189A     		ldr	r2, [sp, #96]	@ tmp235, zp
 1207              	.LVL108:
 355:mini3d/render.c **** 	uint32_t z = *zp;
 1208              		.loc 1 355 11 view .LVU302
 1209 001e 1268     		ldr	r2, [r2]	@ z, *zp_46(D)
 1210 0020 0892     		str	r2, [sp, #32]	@ z, %sfp
 1211              	.LVL109:
 1212              		.loc 1 357 2 is_stmt 1 view .LVU303
 1213              	@ mini3d/render.c:357: 	if ( endy < 0 )
 1214              		.loc 1 357 5 is_stmt 0 view .LVU304
 1215 0022 73DB     		blt	.L77		@,
 1216              	@ mini3d/render.c:366: 	if ( y < 0 )
 358:mini3d/render.c **** 	{
 359:mini3d/render.c **** 		int dy = endy - y;
 360:mini3d/render.c **** 		*x1p = x1 + dy * dx1;
 361:mini3d/render.c **** 		*x2p = x2 + dy * dx2;
 362:mini3d/render.c **** 		*zp = z + dy * dzdy;
 363:mini3d/render.c **** 		return;
 364:mini3d/render.c **** 	}
 365:mini3d/render.c **** 
 366:mini3d/render.c **** 	if ( y < 0 )
 1217              		.loc 1 366 5 view .LVU305
 1218 0024 002C     		cmp	r4, #0	@ y,
 1219 0026 8946     		mov	r9, r1	@ rowstride, tmp218
 1220              		.loc 1 366 2 is_stmt 1 view .LVU306
 1221              	@ mini3d/render.c:366: 	if ( y < 0 )
 1222              		.loc 1 366 5 is_stmt 0 view .LVU307
 1223 0028 60DB     		blt	.L78		@,
 1224              	.LVL110:
 1225              	.L71:
 367:mini3d/render.c **** 	{
 368:mini3d/render.c **** 		x1 += -y * dx1;
 369:mini3d/render.c **** 		x2 += -y * dx2;
 370:mini3d/render.c **** 		z += -y * dzdy;
 371:mini3d/render.c **** 		y = 0;
ARM GAS  /var/folders/cs/83z6p2tj4w57s6p2rt8nwfp00000gn/T//ccDzWS9O.s 			page 33


 372:mini3d/render.c **** 	}
 373:mini3d/render.c **** 
 374:mini3d/render.c **** 	while ( y < endy )
 1226              		.loc 1 374 8 is_stmt 1 view .LVU308
 1227 002a A245     		cmp	r10, r4	@ endy, y
 1228 002c 4FDD     		ble	.L72		@,
 1229 002e 09FB0405 		mla	r5, r9, r4, r0	@ ivtmp.180, rowstride, y, bitmap
 1230 0032 069E     		ldr	r6, [sp, #24]	@ x1, %sfp
 1231 0034 0994     		str	r4, [sp, #36]	@ y, %sfp
 1232 0036 0595     		str	r5, [sp, #20]	@ ivtmp.180, %sfp
 1233 0038 DDE90778 		ldrd	r7, r8, [sp, #28]	@ x2, z,,
 1234 003c 00E0     		b	.L74		@
 1235              	.LVL111:
 1236              	.L75:
 1237              		.loc 1 374 8 is_stmt 0 view .LVU309
 1238 003e 1C46     		mov	r4, r3	@ y, y
 1239              	.LVL112:
 1240              	.L74:
 1241              	.LBB169:
 375:mini3d/render.c **** 	{
 376:mini3d/render.c **** 		uint8_t p = pattern[y%8];
 1242              		.loc 1 376 3 is_stmt 1 view .LVU310
 377:mini3d/render.c **** 		uint32_t color = (p<<24) | (p<<16) | (p<<8) | p;
 1243              		.loc 1 377 3 view .LVU311
 378:mini3d/render.c **** 		
 379:mini3d/render.c **** 		drawFragment_zbuf((uint32_t*)&bitmap[y*rowstride], &zbuf[y*LCD_COLUMNS], (x1>>16), (x2>>16)+1, z,
 1244              		.loc 1 379 3 view .LVU312
 1245              	@ mini3d/render.c:382: 		x2 += dx2;
 380:mini3d/render.c **** 		
 381:mini3d/render.c **** 		x1 += dx1;
 382:mini3d/render.c **** 		x2 += dx2;
 1246              		.loc 1 382 6 is_stmt 0 view .LVU313
 1247 0040 179A     		ldr	r2, [sp, #92]	@ tmp270, dx2
 1248              	@ mini3d/render.c:379: 		drawFragment_zbuf((uint32_t*)&bitmap[y*rowstride], &zbuf[y*LCD_COLUMNS], (
 379:mini3d/render.c **** 		
 1249              		.loc 1 379 89 view .LVU314
 1250 0042 3B14     		asrs	r3, r7, #16	@ tmp191, x2,
 1251              	@ mini3d/render.c:379: 		drawFragment_zbuf((uint32_t*)&bitmap[y*rowstride], &zbuf[y*LCD_COLUMNS], (
 379:mini3d/render.c **** 		
 1252              		.loc 1 379 79 view .LVU315
 1253 0044 4FEA264C 		asr	ip, r6, #16	@ _31, x1,
 1254              	.LVL113:
 1255              	.LBB170:
 1256              	.LBI170:
 152:mini3d/render.c **** {
 1257              		.loc 1 152 1 is_stmt 1 view .LVU316
 1258              	.LBB171:
 154:mini3d/render.c **** 		return;
 1259              		.loc 1 154 2 view .LVU317
 1260 0048 4FF44871 		mov	r1, #800	@ tmp274,
 1261              	.LBE171:
 1262              	.LBE170:
 1263              	@ mini3d/render.c:382: 		x2 += dx2;
 1264              		.loc 1 382 6 is_stmt 0 view .LVU318
 1265 004c 1744     		add	r7, r7, r2	@ x2, tmp270
 1266              	.LVL114:
 1267              	@ mini3d/render.c:381: 		x1 += dx1;
ARM GAS  /var/folders/cs/83z6p2tj4w57s6p2rt8nwfp00000gn/T//ccDzWS9O.s 			page 34


 381:mini3d/render.c **** 		x2 += dx2;
 1268              		.loc 1 381 6 view .LVU319
 1269 004e 159A     		ldr	r2, [sp, #84]	@ tmp272, dx1
 1270              	.LBB177:
 1271              	.LBB172:
 1272              	@ mini3d/render.c:154: 	if ( endx < 0 || x >= LCD_COLUMNS )
 154:mini3d/render.c **** 		return;
 1273              		.loc 1 154 5 view .LVU320
 1274 0050 0133     		adds	r3, r3, #1	@ _33, tmp191,
 1275              	.LVL115:
 154:mini3d/render.c **** 		return;
 1276              		.loc 1 154 5 view .LVU321
 1277              	.LBE172:
 1278              	.LBE177:
 1279              	@ mini3d/render.c:376: 		uint8_t p = pattern[y%8];
 376:mini3d/render.c **** 		uint32_t color = (p<<24) | (p<<16) | (p<<8) | p;
 1280              		.loc 1 376 24 view .LVU322
 1281 0052 04F0070E 		and	lr, r4, #7	@ tmp200, y,
 1282              	@ mini3d/render.c:381: 		x1 += dx1;
 381:mini3d/render.c **** 		x2 += dx2;
 1283              		.loc 1 381 6 view .LVU323
 1284 0056 1644     		add	r6, r6, r2	@ x1, tmp272
 1285              	.LVL116:
 1286              	.LBB178:
 1287              	.LBB173:
 381:mini3d/render.c **** 		x2 += dx2;
 1288              		.loc 1 381 6 view .LVU324
 1289 0058 374A     		ldr	r2, .L79	@ tmp275,
 1290 005a 01FB0421 		mla	r1, r1, r4, r2	@, tmp274, y, tmp275
 1291 005e 059A     		ldr	r2, [sp, #20]	@ ivtmp.180, %sfp
 1292 0060 1046     		mov	r0, r2	@, ivtmp.180
 1293 0062 4A44     		add	r2, r2, r9	@ ivtmp.180, rowstride
 1294 0064 0592     		str	r2, [sp, #20]	@ ivtmp.180, %sfp
 381:mini3d/render.c **** 		x2 += dx2;
 1295              		.loc 1 381 6 view .LVU325
 1296 0066 6246     		mov	r2, ip	@, _31
 1297              	@ mini3d/render.c:154: 	if ( endx < 0 || x >= LCD_COLUMNS )
 154:mini3d/render.c **** 		return;
 1298              		.loc 1 154 5 view .LVU326
 1299 0068 16D4     		bmi	.L73		@,
 154:mini3d/render.c **** 		return;
 1300              		.loc 1 154 5 view .LVU327
 1301 006a 40F28F15 		movw	r5, #399	@ tmp276,
 1302 006e AC45     		cmp	ip, r5	@ _31, tmp276
 1303 0070 12DC     		bgt	.L73		@,
 1304              	.LBE173:
 1305              	.LBE178:
 1306              	@ mini3d/render.c:377: 		uint32_t color = (p<<24) | (p<<16) | (p<<8) | p;
 377:mini3d/render.c **** 		
 1307              		.loc 1 377 22 view .LVU328
 1308 0072 1B9D     		ldr	r5, [sp, #108]	@ tmp277, pattern
 1309 0074 15F80EE0 		ldrb	lr, [r5, lr]	@ zero_extendqisi2	@ _18, *_17
 1310              	.LBB179:
 1311              	.LBB174:
 1312 0078 1A9D     		ldr	r5, [sp, #104]	@ tmp279, dzdx
 1313              	.LBE174:
 1314              	.LBE179:
ARM GAS  /var/folders/cs/83z6p2tj4w57s6p2rt8nwfp00000gn/T//ccDzWS9O.s 			page 35


 1315              	@ mini3d/render.c:377: 		uint32_t color = (p<<24) | (p<<16) | (p<<8) | p;
 377:mini3d/render.c **** 		
 1316              		.loc 1 377 32 view .LVU329
 1317 007a 4FEA0E4C 		lsl	ip, lr, #16	@ tmp206, _18,
 1318              	.LVL117:
 1319              	.LBB180:
 1320              	.LBB175:
 377:mini3d/render.c **** 		
 1321              		.loc 1 377 32 view .LVU330
 1322 007e CDF80080 		str	r8, [sp]	@ z,
 1323 0082 0195     		str	r5, [sp, #4]	@ tmp279,
 1324              	.LBE175:
 1325              	.LBE180:
 1326              	@ mini3d/render.c:377: 		uint32_t color = (p<<24) | (p<<16) | (p<<8) | p;
 377:mini3d/render.c **** 		
 1327              		.loc 1 377 28 view .LVU331
 1328 0084 4CEA0E6C 		orr	ip, ip, lr, lsl #24	@ tmp207, tmp206, _18,
 1329              	@ mini3d/render.c:377: 		uint32_t color = (p<<24) | (p<<16) | (p<<8) | p;
 377:mini3d/render.c **** 		
 1330              		.loc 1 377 47 view .LVU332
 1331 0088 4CEA0E0C 		orr	ip, ip, lr	@ tmp208, tmp207, _18
 1332 008c 4CEA0E2C 		orr	ip, ip, lr, lsl #8	@ color, tmp208, _18,
 1333              	.LBB181:
 1334              	.LBB176:
 1335 0090 CDF808C0 		str	ip, [sp, #8]	@ color,
 1336 0094 FFF7FEFF 		bl	drawFragment_zbuf.part.0		@
 1337              	.LVL118:
 1338              	.L73:
 377:mini3d/render.c **** 		
 1339              		.loc 1 377 47 view .LVU333
 1340              	.LBE176:
 1341              	.LBE181:
 381:mini3d/render.c **** 		x2 += dx2;
 1342              		.loc 1 381 3 is_stmt 1 view .LVU334
 1343              		.loc 1 382 3 view .LVU335
 383:mini3d/render.c **** 		z += dzdy;
 1344              		.loc 1 383 3 view .LVU336
 1345              	@ mini3d/render.c:384: 		++y;
 384:mini3d/render.c **** 		++y;
 1346              		.loc 1 384 3 is_stmt 0 view .LVU337
 1347 0098 631C     		adds	r3, r4, #1	@ y, y,
 1348              	@ mini3d/render.c:383: 		z += dzdy;
 383:mini3d/render.c **** 		z += dzdy;
 1349              		.loc 1 383 5 view .LVU338
 1350 009a D844     		add	r8, r8, fp	@ z, dzdy
 1351              	.LVL119:
 1352              		.loc 1 384 3 is_stmt 1 view .LVU339
 1353              		.loc 1 384 3 is_stmt 0 view .LVU340
 1354              	.LBE169:
 374:mini3d/render.c **** 	{
 1355              		.loc 1 374 8 is_stmt 1 view .LVU341
 1356 009c 9A45     		cmp	r10, r3	@ endy, y
 1357 009e CED1     		bne	.L75		@,
 1358 00a0 069B     		ldr	r3, [sp, #24]	@ x1, %sfp
 1359              	.LVL120:
 374:mini3d/render.c **** 	{
 1360              		.loc 1 374 8 is_stmt 0 view .LVU342
ARM GAS  /var/folders/cs/83z6p2tj4w57s6p2rt8nwfp00000gn/T//ccDzWS9O.s 			page 36


 1361 00a2 159A     		ldr	r2, [sp, #84]	@ tmp281, dx1
 1362 00a4 1798     		ldr	r0, [sp, #92]	@ tmp286, dx2
 1363 00a6 1344     		add	r3, r3, r2	@ x1, tmp281
 1364 00a8 1946     		mov	r1, r3	@ _123, x1
 1365 00aa 099B     		ldr	r3, [sp, #36]	@ _98, %sfp
 1366 00ac E41A     		subs	r4, r4, r3	@ _119, y, _98
 1367              	.LVL121:
 374:mini3d/render.c **** 	{
 1368              		.loc 1 374 8 view .LVU343
 1369 00ae 079B     		ldr	r3, [sp, #28]	@ x2, %sfp
 1370 00b0 0344     		add	r3, r3, r0	@ x2, tmp286
 1371 00b2 1598     		ldr	r0, [sp, #84]	@ tmp292, dx1
 1372 00b4 1A46     		mov	r2, r3	@ _116, x2
 1373 00b6 04FB0011 		mla	r1, r4, r0, r1	@ x1, _119, tmp292, _123
 1374 00ba 089B     		ldr	r3, [sp, #32]	@ z, %sfp
 1375 00bc 0691     		str	r1, [sp, #24]	@ x1, %sfp
 1376 00be 5B44     		add	r3, r3, fp	@ z, dzdy
 1377 00c0 1799     		ldr	r1, [sp, #92]	@ tmp296, dx2
 1378 00c2 0BFB0433 		mla	r3, fp, r4, r3	@ z, dzdy, _119, _109
 1379 00c6 04FB0122 		mla	r2, r4, r1, r2	@ x2, _119, tmp296, _116
 1380 00ca 0893     		str	r3, [sp, #32]	@ z, %sfp
 1381 00cc 0792     		str	r2, [sp, #28]	@ x2, %sfp
 1382              	.LVL122:
 1383              	.L72:
 385:mini3d/render.c **** 	}
 386:mini3d/render.c **** 	
 387:mini3d/render.c **** 	*x1p = x1;
 1384              		.loc 1 387 2 is_stmt 1 view .LVU344
 1385              	@ mini3d/render.c:387: 	*x1p = x1;
 1386              		.loc 1 387 7 is_stmt 0 view .LVU345
 1387 00ce 149B     		ldr	r3, [sp, #80]	@ tmp301, x1p
 1388 00d0 1A46     		mov	r2, r3	@ tmp301, tmp301
 1389 00d2 069B     		ldr	r3, [sp, #24]	@ x1, %sfp
 1390 00d4 1360     		str	r3, [r2]	@ x1, *x1p_42(D)
 388:mini3d/render.c **** 	*x2p = x2;
 1391              		.loc 1 388 2 is_stmt 1 view .LVU346
 1392              	@ mini3d/render.c:388: 	*x2p = x2;
 1393              		.loc 1 388 7 is_stmt 0 view .LVU347
 1394 00d6 169B     		ldr	r3, [sp, #88]	@ tmp304, x2p
 1395 00d8 1A46     		mov	r2, r3	@ tmp304, tmp304
 1396 00da 079B     		ldr	r3, [sp, #28]	@ x2, %sfp
 1397 00dc 1360     		str	r3, [r2]	@ x2, *x2p_44(D)
 389:mini3d/render.c **** 	*zp = z;
 1398              		.loc 1 389 2 is_stmt 1 view .LVU348
 1399              	@ mini3d/render.c:389: 	*zp = z;
 1400              		.loc 1 389 6 is_stmt 0 view .LVU349
 1401 00de 189B     		ldr	r3, [sp, #96]	@ tmp307, zp
 1402 00e0 1A46     		mov	r2, r3	@ tmp307, tmp307
 1403 00e2 089B     		ldr	r3, [sp, #32]	@ z, %sfp
 1404 00e4 1360     		str	r3, [r2]	@ z, *zp_46(D)
 1405              	@ mini3d/render.c:390: }
 390:mini3d/render.c **** }
 1406              		.loc 1 390 1 view .LVU350
 1407 00e6 0BB0     		add	sp, sp, #44	@,,
 1408              	.LCFI11:
 1409              		.cfi_remember_state
 1410              		.cfi_def_cfa_offset 36
ARM GAS  /var/folders/cs/83z6p2tj4w57s6p2rt8nwfp00000gn/T//ccDzWS9O.s 			page 37


 1411              		@ sp needed	@
 1412 00e8 BDE8F08F 		pop	{r4, r5, r6, r7, r8, r9, r10, fp, pc}	@
 1413              	.LVL123:
 1414              	.L78:
 1415              	.LCFI12:
 1416              		.cfi_restore_state
 368:mini3d/render.c **** 		x2 += -y * dx2;
 1417              		.loc 1 368 3 is_stmt 1 view .LVU351
 1418              	@ mini3d/render.c:368: 		x1 += -y * dx1;
 368:mini3d/render.c **** 		x2 += -y * dx2;
 1419              		.loc 1 368 6 is_stmt 0 view .LVU352
 1420 00ec 069A     		ldr	r2, [sp, #24]	@ x1, %sfp
 1421              	.LVL124:
 368:mini3d/render.c **** 		x2 += -y * dx2;
 1422              		.loc 1 368 6 view .LVU353
 1423 00ee 159B     		ldr	r3, [sp, #84]	@ tmp255, dx1
 1424              	.LVL125:
 368:mini3d/render.c **** 		x2 += -y * dx2;
 1425              		.loc 1 368 6 view .LVU354
 1426 00f0 04FB1323 		mls	r3, r4, r3, r2	@ x1, y, tmp255, x1
 1427              	@ mini3d/render.c:369: 		x2 += -y * dx2;
 369:mini3d/render.c **** 		z += -y * dzdy;
 1428              		.loc 1 369 6 view .LVU355
 1429 00f4 079A     		ldr	r2, [sp, #28]	@ x2, %sfp
 1430              	@ mini3d/render.c:368: 		x1 += -y * dx1;
 368:mini3d/render.c **** 		x2 += -y * dx2;
 1431              		.loc 1 368 6 view .LVU356
 1432 00f6 0693     		str	r3, [sp, #24]	@ x1, %sfp
 1433              	.LVL126:
 369:mini3d/render.c **** 		z += -y * dzdy;
 1434              		.loc 1 369 3 is_stmt 1 view .LVU357
 1435              	@ mini3d/render.c:369: 		x2 += -y * dx2;
 369:mini3d/render.c **** 		z += -y * dzdy;
 1436              		.loc 1 369 6 is_stmt 0 view .LVU358
 1437 00f8 179B     		ldr	r3, [sp, #92]	@ tmp261, dx2
 1438              	.LVL127:
 369:mini3d/render.c **** 		z += -y * dzdy;
 1439              		.loc 1 369 6 view .LVU359
 1440 00fa 04FB1323 		mls	r3, r4, r3, r2	@ x2, y, tmp261, x2
 1441 00fe 0793     		str	r3, [sp, #28]	@ x2, %sfp
 1442              	.LVL128:
 370:mini3d/render.c **** 		y = 0;
 1443              		.loc 1 370 3 is_stmt 1 view .LVU360
 1444              	@ mini3d/render.c:370: 		z += -y * dzdy;
 370:mini3d/render.c **** 		y = 0;
 1445              		.loc 1 370 5 is_stmt 0 view .LVU361
 1446 0100 089B     		ldr	r3, [sp, #32]	@ z, %sfp
 1447              	.LVL129:
 370:mini3d/render.c **** 		y = 0;
 1448              		.loc 1 370 5 view .LVU362
 1449 0102 04FB1B33 		mls	r3, r4, fp, r3	@ z, y, dzdy, z
 1450              	@ mini3d/render.c:371: 		y = 0;
 371:mini3d/render.c **** 	}
 1451              		.loc 1 371 5 view .LVU363
 1452 0106 0024     		movs	r4, #0	@ y,
 1453              	.LVL130:
 1454              	@ mini3d/render.c:370: 		z += -y * dzdy;
ARM GAS  /var/folders/cs/83z6p2tj4w57s6p2rt8nwfp00000gn/T//ccDzWS9O.s 			page 38


 370:mini3d/render.c **** 		y = 0;
 1455              		.loc 1 370 5 view .LVU364
 1456 0108 0893     		str	r3, [sp, #32]	@ z, %sfp
 1457              	.LVL131:
 371:mini3d/render.c **** 	}
 1458              		.loc 1 371 3 is_stmt 1 view .LVU365
 371:mini3d/render.c **** 	}
 1459              		.loc 1 371 3 is_stmt 0 view .LVU366
 1460 010a 8EE7     		b	.L71		@
 1461              	.LVL132:
 1462              	.L77:
 1463              	.LBB182:
 359:mini3d/render.c **** 		*x1p = x1 + dy * dx1;
 1464              		.loc 1 359 3 is_stmt 1 view .LVU367
 1465              	@ mini3d/render.c:359: 		int dy = endy - y;
 359:mini3d/render.c **** 		*x1p = x1 + dy * dx1;
 1466              		.loc 1 359 7 is_stmt 0 view .LVU368
 1467 010c AAEB0404 		sub	r4, r10, r4	@ dy, endy, y
 1468              	.LVL133:
 360:mini3d/render.c **** 		*x2p = x2 + dy * dx2;
 1469              		.loc 1 360 3 is_stmt 1 view .LVU369
 1470              	@ mini3d/render.c:360: 		*x1p = x1 + dy * dx1;
 360:mini3d/render.c **** 		*x2p = x2 + dy * dx2;
 1471              		.loc 1 360 13 is_stmt 0 view .LVU370
 1472 0110 159B     		ldr	r3, [sp, #84]	@ tmp238, dx1
 1473              	.LVL134:
 360:mini3d/render.c **** 		*x2p = x2 + dy * dx2;
 1474              		.loc 1 360 13 view .LVU371
 1475 0112 069A     		ldr	r2, [sp, #24]	@ x1, %sfp
 1476              	.LVL135:
 1477              	@ mini3d/render.c:361: 		*x2p = x2 + dy * dx2;
 361:mini3d/render.c **** 		*zp = z + dy * dzdy;
 1478              		.loc 1 361 13 view .LVU372
 1479 0114 0799     		ldr	r1, [sp, #28]	@ x2, %sfp
 1480              	.LVL136:
 1481              	@ mini3d/render.c:360: 		*x1p = x1 + dy * dx1;
 360:mini3d/render.c **** 		*x2p = x2 + dy * dx2;
 1482              		.loc 1 360 13 view .LVU373
 1483 0116 04FB0322 		mla	r2, r4, r3, r2	@ tmp182, dy, tmp238, x1
 1484              	@ mini3d/render.c:361: 		*x2p = x2 + dy * dx2;
 361:mini3d/render.c **** 		*zp = z + dy * dzdy;
 1485              		.loc 1 361 13 view .LVU374
 1486 011a 179B     		ldr	r3, [sp, #92]	@ tmp242, dx2
 1487 011c 04FB0313 		mla	r3, r4, r3, r1	@ tmp184, dy, tmp242, x2
 1488              	@ mini3d/render.c:362: 		*zp = z + dy * dzdy;
 362:mini3d/render.c **** 		return;
 1489              		.loc 1 362 11 view .LVU375
 1490 0120 0899     		ldr	r1, [sp, #32]	@ z, %sfp
 1491 0122 04FB0B14 		mla	r4, r4, fp, r1	@ tmp186, dy, dzdy, z
 1492              	.LVL137:
 1493              	@ mini3d/render.c:360: 		*x1p = x1 + dy * dx1;
 360:mini3d/render.c **** 		*x2p = x2 + dy * dx2;
 1494              		.loc 1 360 8 view .LVU376
 1495 0126 1499     		ldr	r1, [sp, #80]	@ tmp248, x1p
 1496 0128 0A60     		str	r2, [r1]	@ tmp182, *x1p_42(D)
 1497              	.LVL138:
 361:mini3d/render.c **** 		*zp = z + dy * dzdy;
ARM GAS  /var/folders/cs/83z6p2tj4w57s6p2rt8nwfp00000gn/T//ccDzWS9O.s 			page 39


 1498              		.loc 1 361 3 is_stmt 1 view .LVU377
 1499              	@ mini3d/render.c:361: 		*x2p = x2 + dy * dx2;
 361:mini3d/render.c **** 		*zp = z + dy * dzdy;
 1500              		.loc 1 361 8 is_stmt 0 view .LVU378
 1501 012a 169A     		ldr	r2, [sp, #88]	@ tmp250, x2p
 1502 012c 1360     		str	r3, [r2]	@ tmp184, *x2p_44(D)
 362:mini3d/render.c **** 		return;
 1503              		.loc 1 362 3 is_stmt 1 view .LVU379
 1504              	@ mini3d/render.c:362: 		*zp = z + dy * dzdy;
 362:mini3d/render.c **** 		return;
 1505              		.loc 1 362 7 is_stmt 0 view .LVU380
 1506 012e 189B     		ldr	r3, [sp, #96]	@ tmp252, zp
 1507 0130 1C60     		str	r4, [r3]	@ tmp186, *zp_46(D)
 363:mini3d/render.c **** 	}
 1508              		.loc 1 363 3 is_stmt 1 view .LVU381
 1509              	.LBE182:
 1510              	@ mini3d/render.c:390: }
 1511              		.loc 1 390 1 is_stmt 0 view .LVU382
 1512 0132 0BB0     		add	sp, sp, #44	@,,
 1513              	.LCFI13:
 1514              		.cfi_def_cfa_offset 36
 1515              		@ sp needed	@
 1516 0134 BDE8F08F 		pop	{r4, r5, r6, r7, r8, r9, r10, fp, pc}	@
 1517              	.LVL139:
 1518              	.L80:
 1519              		.loc 1 390 1 view .LVU383
 1520              		.align	2
 1521              	.L79:
 1522 0138 00000000 		.word	zbuf
 1523              		.cfi_endproc
 1524              	.LFE21:
 1525              		.size	fillRange_zbuf, .-fillRange_zbuf
 1526              		.section	.text.resetZBuffer,"ax",%progbits
 1527              		.align	1
 1528              		.p2align 4,,15
 1529              		.global	resetZBuffer
 1530              		.syntax unified
 1531              		.thumb
 1532              		.thumb_func
 1533              		.fpu fpv5-sp-d16
 1534              		.type	resetZBuffer, %function
 1535              	resetZBuffer:
 1536              	.LVL140:
 1537              	.LFB12:
  31:mini3d/render.c **** 	memset(zbuf, 0, sizeof(zbuf));
 1538              		.loc 1 31 1 is_stmt 1 view -0
 1539              		.cfi_startproc
 1540              		@ args = 0, pretend = 0, frame = 0
 1541              		@ frame_needed = 0, uses_anonymous_args = 0
  32:mini3d/render.c **** 	zscale = 0xffff * (zmin + Z_BIAS);
 1542              		.loc 1 32 2 view .LVU385
 1543              	@ mini3d/render.c:31: {
  31:mini3d/render.c **** 	memset(zbuf, 0, sizeof(zbuf));
 1544              		.loc 1 31 1 is_stmt 0 view .LVU386
 1545 0000 08B5     		push	{r3, lr}	@
 1546              	.LCFI14:
 1547              		.cfi_def_cfa_offset 8
ARM GAS  /var/folders/cs/83z6p2tj4w57s6p2rt8nwfp00000gn/T//ccDzWS9O.s 			page 40


 1548              		.cfi_offset 3, -8
 1549              		.cfi_offset 14, -4
 1550              	@ mini3d/render.c:32: 	memset(zbuf, 0, sizeof(zbuf));
  32:mini3d/render.c **** 	zscale = 0xffff * (zmin + Z_BIAS);
 1551              		.loc 1 32 2 view .LVU387
 1552 0002 0B4A     		ldr	r2, .L83	@,
 1553 0004 0021     		movs	r1, #0	@,
 1554 0006 0B48     		ldr	r0, .L83+4	@,
 1555              	@ mini3d/render.c:31: {
  31:mini3d/render.c **** 	memset(zbuf, 0, sizeof(zbuf));
 1556              		.loc 1 31 1 view .LVU388
 1557 0008 2DED028B 		vpush.64	{d8}	@
 1558              	.LCFI15:
 1559              		.cfi_def_cfa_offset 16
 1560              		.cfi_offset 80, -16
 1561              		.cfi_offset 81, -12
 1562              	@ mini3d/render.c:31: {
  31:mini3d/render.c **** 	memset(zbuf, 0, sizeof(zbuf));
 1563              		.loc 1 31 1 view .LVU389
 1564 000c B0EE408A 		vmov.f32	s16, s0	@ zmin, tmp122
 1565              	@ mini3d/render.c:32: 	memset(zbuf, 0, sizeof(zbuf));
  32:mini3d/render.c **** 	zscale = 0xffff * (zmin + Z_BIAS);
 1566              		.loc 1 32 2 view .LVU390
 1567 0010 FFF7FEFF 		bl	memset		@
 1568              	.LVL141:
  33:mini3d/render.c **** }
 1569              		.loc 1 33 2 is_stmt 1 view .LVU391
 1570              	@ mini3d/render.c:33: 	zscale = 0xffff * (zmin + Z_BIAS);
  33:mini3d/render.c **** }
 1571              		.loc 1 33 26 is_stmt 0 view .LVU392
 1572 0014 9FED080A 		vldr.32	s0, .L83+8	@ tmp119,
 1573              	@ mini3d/render.c:33: 	zscale = 0xffff * (zmin + Z_BIAS);
  33:mini3d/render.c **** }
 1574              		.loc 1 33 18 view .LVU393
 1575 0018 DFED087A 		vldr.32	s15, .L83+12	@ tmp121,
 1576              	@ mini3d/render.c:33: 	zscale = 0xffff * (zmin + Z_BIAS);
  33:mini3d/render.c **** }
 1577              		.loc 1 33 26 view .LVU394
 1578 001c 38EE000A 		vadd.f32	s0, s16, s0	@ tmp118, zmin, tmp119
 1579              	@ mini3d/render.c:33: 	zscale = 0xffff * (zmin + Z_BIAS);
  33:mini3d/render.c **** }
 1580              		.loc 1 33 9 view .LVU395
 1581 0020 074B     		ldr	r3, .L83+16	@ tmp117,
 1582              	@ mini3d/render.c:34: }
  34:mini3d/render.c **** #endif
 1583              		.loc 1 34 1 view .LVU396
 1584 0022 BDEC028B 		vldm	sp!, {d8}	@
 1585              	.LCFI16:
 1586              		.cfi_restore 80
 1587              		.cfi_restore 81
 1588              		.cfi_def_cfa_offset 8
 1589              	.LVL142:
 1590              	@ mini3d/render.c:33: 	zscale = 0xffff * (zmin + Z_BIAS);
  33:mini3d/render.c **** }
 1591              		.loc 1 33 18 view .LVU397
 1592 0026 20EE270A 		vmul.f32	s0, s0, s15	@ tmp120, tmp118, tmp121
 1593              	@ mini3d/render.c:33: 	zscale = 0xffff * (zmin + Z_BIAS);
ARM GAS  /var/folders/cs/83z6p2tj4w57s6p2rt8nwfp00000gn/T//ccDzWS9O.s 			page 41


  33:mini3d/render.c **** }
 1594              		.loc 1 33 9 view .LVU398
 1595 002a 83ED000A 		vstr.32	s0, [r3]	@ tmp120, zscale
 1596              	@ mini3d/render.c:34: }
  34:mini3d/render.c **** #endif
 1597              		.loc 1 34 1 view .LVU399
 1598 002e 08BD     		pop	{r3, pc}	@
 1599              	.L84:
 1600              		.align	2
 1601              	.L83:
 1602 0030 00EE0200 		.word	192000
 1603 0034 00000000 		.word	zbuf
 1604 0038 00000000 		.word	0
 1605 003c 00FF7F47 		.word	1199570688
 1606 0040 00000000 		.word	.LANCHOR0
 1607              		.cfi_endproc
 1608              	.LFE12:
 1609              		.size	resetZBuffer, .-resetZBuffer
 1610              		.section	.text.drawLine_zbuf,"ax",%progbits
 1611              		.align	1
 1612              		.p2align 4,,15
 1613              		.global	drawLine_zbuf
 1614              		.syntax unified
 1615              		.thumb
 1616              		.thumb_func
 1617              		.fpu fpv5-sp-d16
 1618              		.type	drawLine_zbuf, %function
 1619              	drawLine_zbuf:
 1620              	.LVL143:
 1621              	.LFB18:
 208:mini3d/render.c **** 	if ( p1->y > p2->y )
 1622              		.loc 1 208 1 is_stmt 1 view -0
 1623              		.cfi_startproc
 1624              		@ args = 8, pretend = 0, frame = 24
 1625              		@ frame_needed = 0, uses_anonymous_args = 0
 1626              	@ mini3d/render.c:209: 	if ( p1->y > p2->y )
 209:mini3d/render.c **** 	{
 1627              		.loc 1 209 9 is_stmt 0 view .LVU401
 1628 0000 92ED017A 		vldr.32	s14, [r2, #4]	@ _1, p1_74(D)->y
 1629              	@ mini3d/render.c:209: 	if ( p1->y > p2->y )
 209:mini3d/render.c **** 	{
 1630              		.loc 1 209 17 view .LVU402
 1631 0004 D3ED017A 		vldr.32	s15, [r3, #4]	@ _2, p2_75(D)->y
 1632              	@ mini3d/render.c:209: 	if ( p1->y > p2->y )
 209:mini3d/render.c **** 	{
 1633              		.loc 1 209 5 view .LVU403
 1634 0008 B4EEE77A 		vcmpe.f32	s14, s15	@ _1, _2
 1635              	@ mini3d/render.c:208: {
 208:mini3d/render.c **** 	if ( p1->y > p2->y )
 1636              		.loc 1 208 1 view .LVU404
 1637 000c 2DE9F04F 		push	{r4, r5, r6, r7, r8, r9, r10, fp, lr}	@
 1638              	.LCFI17:
 1639              		.cfi_def_cfa_offset 36
 1640              		.cfi_offset 4, -36
 1641              		.cfi_offset 5, -32
 1642              		.cfi_offset 6, -28
 1643              		.cfi_offset 7, -24
ARM GAS  /var/folders/cs/83z6p2tj4w57s6p2rt8nwfp00000gn/T//ccDzWS9O.s 			page 42


 1644              		.cfi_offset 8, -20
 1645              		.cfi_offset 9, -16
 1646              		.cfi_offset 10, -12
 1647              		.cfi_offset 11, -8
 1648              		.cfi_offset 14, -4
 1649              	@ mini3d/render.c:209: 	if ( p1->y > p2->y )
 209:mini3d/render.c **** 	{
 1650              		.loc 1 209 5 view .LVU405
 1651 0010 F1EE10FA 		vmrs	APSR_nzcv, FPSCR
 1652              	@ mini3d/render.c:208: {
 208:mini3d/render.c **** 	if ( p1->y > p2->y )
 1653              		.loc 1 208 1 view .LVU406
 1654 0014 8BB0     		sub	sp, sp, #44	@,,
 1655              	.LCFI18:
 1656              		.cfi_def_cfa_offset 80
 1657              	@ mini3d/render.c:208: {
 208:mini3d/render.c **** 	if ( p1->y > p2->y )
 1658              		.loc 1 208 1 view .LVU407
 1659 0016 1746     		mov	r7, r2	@ p1, tmp332
 1660 0018 1E46     		mov	r6, r3	@ p2, tmp333
 209:mini3d/render.c **** 	{
 1661              		.loc 1 209 2 is_stmt 1 view .LVU408
 1662              	@ mini3d/render.c:208: {
 208:mini3d/render.c **** 	if ( p1->y > p2->y )
 1663              		.loc 1 208 1 is_stmt 0 view .LVU409
 1664 001a 8846     		mov	r8, r1	@ rowstride, tmp331
 1665              	@ mini3d/render.c:209: 	if ( p1->y > p2->y )
 209:mini3d/render.c **** 	{
 1666              		.loc 1 209 5 view .LVU410
 1667 001c 07DD     		ble	.L86		@,
 1668 001e F0EE476A 		vmov.f32	s13, s14	@ _1, _1
 1669 0022 3746     		mov	r7, r6	@ p1, p2
 1670 0024 B0EE677A 		vmov.f32	s14, s15	@ _1, _2
 1671 0028 1646     		mov	r6, r2	@ p2, p1
 1672 002a F0EE667A 		vmov.f32	s15, s13	@ _2, _1
 1673              	.L86:
 1674              	.LVL144:
 216:mini3d/render.c **** 	int endy = p2->y;
 1675              		.loc 1 216 2 is_stmt 1 view .LVU411
 1676              	@ mini3d/render.c:216: 	int y = p1->y;
 216:mini3d/render.c **** 	int endy = p2->y;
 1677              		.loc 1 216 6 is_stmt 0 view .LVU412
 1678 002e FDEEC76A 		vcvt.s32.f32	s13, s14	@ y, _1
 1679 0032 16EE904A 		vmov	r4, s13	@ int	@ y, y
 1680              	.LVL145:
 217:mini3d/render.c **** 	
 1681              		.loc 1 217 2 is_stmt 1 view .LVU413
 1682              	@ mini3d/render.c:217: 	int endy = p2->y;
 217:mini3d/render.c **** 	
 1683              		.loc 1 217 6 is_stmt 0 view .LVU414
 1684 0036 FDEEE76A 		vcvt.s32.f32	s13, s15	@ endy, _2
 1685              	@ mini3d/render.c:219: 	if ( y >= LCD_ROWS || endy < 0 || MIN(p1->x, p2->x) >= LCD_COLUMNS || MAX(p
 219:mini3d/render.c **** 		return (LCDRowRange){ 0, 0 };
 1686              		.loc 1 219 5 view .LVU415
 1687 003a EF2C     		cmp	r4, #239	@ y,
 1688              	@ mini3d/render.c:217: 	int endy = p2->y;
 217:mini3d/render.c **** 	
ARM GAS  /var/folders/cs/83z6p2tj4w57s6p2rt8nwfp00000gn/T//ccDzWS9O.s 			page 43


 1689              		.loc 1 217 6 view .LVU416
 1690 003c 16EE901A 		vmov	r1, s13	@ int	@ endy, endy
 1691              	.LVL146:
 219:mini3d/render.c **** 		return (LCDRowRange){ 0, 0 };
 1692              		.loc 1 219 2 is_stmt 1 view .LVU417
 1693              	@ mini3d/render.c:219: 	if ( y >= LCD_ROWS || endy < 0 || MIN(p1->x, p2->x) >= LCD_COLUMNS || MAX(p
 219:mini3d/render.c **** 		return (LCDRowRange){ 0, 0 };
 1694              		.loc 1 219 5 is_stmt 0 view .LVU418
 1695 0040 00F31681 		bgt	.L88		@,
 1696 0044 0029     		cmp	r1, #0	@ endy,
 1697 0046 C0F21381 		blt	.L88		@,
 1698              	@ mini3d/render.c:219: 	if ( y >= LCD_ROWS || endy < 0 || MIN(p1->x, p2->x) >= LCD_COLUMNS || MAX(p
 219:mini3d/render.c **** 		return (LCDRowRange){ 0, 0 };
 1699              		.loc 1 219 36 discriminator 1 view .LVU419
 1700 004a 97ED006A 		vldr.32	s12, [r7]	@ _8, p1_58->x
 1701 004e D6ED006A 		vldr.32	s13, [r6]	@ _9, p2_59->x
 1702              	@ mini3d/render.c:219: 	if ( y >= LCD_ROWS || endy < 0 || MIN(p1->x, p2->x) >= LCD_COLUMNS || MAX(p
 219:mini3d/render.c **** 		return (LCDRowRange){ 0, 0 };
 1703              		.loc 1 219 33 discriminator 1 view .LVU420
 1704 0052 DFEDA55A 		vldr.32	s11, .L145	@ tmp220,
 1705              	@ mini3d/render.c:219: 	if ( y >= LCD_ROWS || endy < 0 || MIN(p1->x, p2->x) >= LCD_COLUMNS || MAX(p
 219:mini3d/render.c **** 		return (LCDRowRange){ 0, 0 };
 1706              		.loc 1 219 5 discriminator 1 view .LVU421
 1707 0056 B4EEE66A 		vcmpe.f32	s12, s13	@ _8, _9
 1708 005a F1EE10FA 		vmrs	APSR_nzcv, FPSCR
 1709 005e 00F10181 		bmi	.L140		@,
 1710              	@ mini3d/render.c:219: 	if ( y >= LCD_ROWS || endy < 0 || MIN(p1->x, p2->x) >= LCD_COLUMNS || MAX(p
 219:mini3d/render.c **** 		return (LCDRowRange){ 0, 0 };
 1711              		.loc 1 219 54 discriminator 3 view .LVU422
 1712 0062 F4EEE56A 		vcmpe.f32	s13, s11	@ _9, tmp221
 1713 0066 F1EE10FA 		vmrs	APSR_nzcv, FPSCR
 1714 006a 80F20181 		bge	.L88		@,
 1715              	.L91:
 1716              	@ mini3d/render.c:219: 	if ( y >= LCD_ROWS || endy < 0 || MIN(p1->x, p2->x) >= LCD_COLUMNS || MAX(p
 219:mini3d/render.c **** 		return (LCDRowRange){ 0, 0 };
 1717              		.loc 1 219 5 discriminator 4 view .LVU423
 1718 006e B4EEE66A 		vcmpe.f32	s12, s13	@ _8, _9
 1719 0072 F1EE10FA 		vmrs	APSR_nzcv, FPSCR
 1720 0076 40F30981 		ble	.L133		@,
 1721              	@ mini3d/render.c:219: 	if ( y >= LCD_ROWS || endy < 0 || MIN(p1->x, p2->x) >= LCD_COLUMNS || MAX(p
 219:mini3d/render.c **** 		return (LCDRowRange){ 0, 0 };
 1722              		.loc 1 219 69 discriminator 5 view .LVU424
 1723 007a B5EEC06A 		vcmpe.f32	s12, #0	@ _8
 1724 007e F1EE10FA 		vmrs	APSR_nzcv, FPSCR
 1725 0082 00F1F580 		bmi	.L88		@,
 1726              	.L94:
 222:mini3d/render.c **** 	int32_t dx = slope(p1->x, p1->y, p2->x, p2->y + 1);
 1727              		.loc 1 222 2 is_stmt 1 view .LVU425
 1728              	@ mini3d/render.c:223: 	int32_t dx = slope(p1->x, p1->y, p2->x, p2->y + 1);
 223:mini3d/render.c **** 	
 1729              		.loc 1 223 15 is_stmt 0 view .LVU426
 1730 0086 F7EE005A 		vmov.f32	s11, #1.0e+0	@ tmp228,
 1731              	@ mini3d/render.c:222: 	int32_t x = p1->x * (1<<16);
 222:mini3d/render.c **** 	int32_t dx = slope(p1->x, p1->y, p2->x, p2->y + 1);
 1732              		.loc 1 222 10 view .LVU427
 1733 008a B0EE465A 		vmov.f32	s10, s12	@ x, _8
 1734              	.LBB183:
ARM GAS  /var/folders/cs/83z6p2tj4w57s6p2rt8nwfp00000gn/T//ccDzWS9O.s 			page 44


 1735              	.LBB184:
 1736              	@ mini3d/render.c:196: 	float dx = x2-x1;
 196:mini3d/render.c **** 	float dy = y2-y1;
 1737              		.loc 1 196 8 view .LVU428
 1738 008e 76EEC66A 		vsub.f32	s13, s13, s12	@ dx, _9, _8
 1739              	.LBE184:
 1740              	.LBE183:
 1741              	@ mini3d/render.c:223: 	int32_t dx = slope(p1->x, p1->y, p2->x, p2->y + 1);
 223:mini3d/render.c **** 	
 1742              		.loc 1 223 15 view .LVU429
 1743 0092 77EEA57A 		vadd.f32	s15, s15, s11	@ tmp227, _2, tmp228
 1744              	@ mini3d/render.c:222: 	int32_t x = p1->x * (1<<16);
 222:mini3d/render.c **** 	int32_t dx = slope(p1->x, p1->y, p2->x, p2->y + 1);
 1745              		.loc 1 222 10 view .LVU430
 1746 0096 BEEEC85A 		vcvt.s32.f32	s10, s10, #16	@ x, x,
 1747              	.LBB188:
 1748              	.LBB185:
 1749              	@ mini3d/render.c:197: 	float dy = y2-y1;
 197:mini3d/render.c **** 	
 1750              		.loc 1 197 8 view .LVU431
 1751 009a 77EEC77A 		vsub.f32	s15, s15, s14	@ dy, tmp227, _1
 1752              	.LBE185:
 1753              	.LBE188:
 1754              	@ mini3d/render.c:222: 	int32_t x = p1->x * (1<<16);
 222:mini3d/render.c **** 	int32_t dx = slope(p1->x, p1->y, p2->x, p2->y + 1);
 1755              		.loc 1 222 10 view .LVU432
 1756 009e 15EE103A 		vmov	r3, s10	@ int	@ x, x
 1757              	.LVL147:
 223:mini3d/render.c **** 	
 1758              		.loc 1 223 2 is_stmt 1 view .LVU433
 1759              	.LBB189:
 1760              	.LBI183:
 194:mini3d/render.c **** {
 1761              		.loc 1 194 23 view .LVU434
 1762              	.LBB186:
 196:mini3d/render.c **** 	float dy = y2-y1;
 1763              		.loc 1 196 2 view .LVU435
 197:mini3d/render.c **** 	
 1764              		.loc 1 197 2 view .LVU436
 199:mini3d/render.c **** 		return dx * (1<<16);
 1765              		.loc 1 199 2 view .LVU437
 1766              	@ mini3d/render.c:199: 	if ( dy < 1 )
 199:mini3d/render.c **** 		return dx * (1<<16);
 1767              		.loc 1 199 5 is_stmt 0 view .LVU438
 1768 00a2 F4EEE57A 		vcmpe.f32	s15, s11	@ dy, tmp228
 1769 00a6 F1EE10FA 		vmrs	APSR_nzcv, FPSCR
 1770 00aa 00F1F680 		bmi	.L141		@,
 202:mini3d/render.c **** }
 1771              		.loc 1 202 3 is_stmt 1 view .LVU439
 1772              	@ mini3d/render.c:202: 		return dx / dy * (1<<16);
 202:mini3d/render.c **** }
 1773              		.loc 1 202 13 is_stmt 0 view .LVU440
 1774 00ae 86EEA77A 		vdiv.f32	s14, s13, s15	@ tmp232, dx, dy
 1775              	@ mini3d/render.c:202: 		return dx / dy * (1<<16);
 202:mini3d/render.c **** }
 1776              		.loc 1 202 18 view .LVU441
 1777 00b2 B0EE476A 		vmov.f32	s12, s14	@ _109, tmp232
ARM GAS  /var/folders/cs/83z6p2tj4w57s6p2rt8nwfp00000gn/T//ccDzWS9O.s 			page 45


 1778              	.LVL148:
 202:mini3d/render.c **** }
 1779              		.loc 1 202 18 view .LVU442
 1780 00b6 BEEEC86A 		vcvt.s32.f32	s12, s12, #16	@ _109, _109,
 1781 00ba 16EE109A 		vmov	r9, s12	@ int	@ _109, _109
 1782              	.L99:
 1783              	.LVL149:
 202:mini3d/render.c **** }
 1784              		.loc 1 202 18 view .LVU443
 1785              	.LBE186:
 1786              	.LBE189:
 226:mini3d/render.c **** 	float z2 = zscale / (p2->z + Z_BIAS) + 256;
 1787              		.loc 1 226 2 is_stmt 1 view .LVU444
 1788              	@ mini3d/render.c:226: 	float z1 = zscale / (p1->z + Z_BIAS) + 256;
 226:mini3d/render.c **** 	float z2 = zscale / (p2->z + Z_BIAS) + 256;
 1789              		.loc 1 226 29 is_stmt 0 view .LVU445
 1790 00be 9FED8B7A 		vldr.32	s14, .L145+4	@ tmp238,
 1791 00c2 97ED026A 		vldr.32	s12, [r7, #8]	@ p1_58->z, p1_58->z
 1792              	@ mini3d/render.c:226: 	float z1 = zscale / (p1->z + Z_BIAS) + 256;
 226:mini3d/render.c **** 	float z2 = zscale / (p2->z + Z_BIAS) + 256;
 1793              		.loc 1 226 20 view .LVU446
 1794 00c6 8A4A     		ldr	r2, .L145+8	@ tmp235,
 1795              	@ mini3d/render.c:226: 	float z1 = zscale / (p1->z + Z_BIAS) + 256;
 226:mini3d/render.c **** 	float z2 = zscale / (p2->z + Z_BIAS) + 256;
 1796              		.loc 1 226 29 view .LVU447
 1797 00c8 36EE076A 		vadd.f32	s12, s12, s14	@ tmp236, p1_58->z, tmp238
 1798              	@ mini3d/render.c:227: 	float z2 = zscale / (p2->z + Z_BIAS) + 256;
 227:mini3d/render.c **** 
 1799              		.loc 1 227 29 view .LVU448
 1800 00cc D6ED025A 		vldr.32	s11, [r6, #8]	@ p2_59->z, p2_59->z
 1801              	@ mini3d/render.c:226: 	float z1 = zscale / (p1->z + Z_BIAS) + 256;
 226:mini3d/render.c **** 	float z2 = zscale / (p2->z + Z_BIAS) + 256;
 1802              		.loc 1 226 20 view .LVU449
 1803 00d0 D2ED004A 		vldr.32	s9, [r2]	@ zscale.0_12, zscale
 1804              	@ mini3d/render.c:227: 	float z2 = zscale / (p2->z + Z_BIAS) + 256;
 227:mini3d/render.c **** 
 1805              		.loc 1 227 29 view .LVU450
 1806 00d4 75EE875A 		vadd.f32	s11, s11, s14	@ tmp241, p2_59->z, tmp238
 1807              	@ mini3d/render.c:226: 	float z1 = zscale / (p1->z + Z_BIAS) + 256;
 226:mini3d/render.c **** 	float z2 = zscale / (p2->z + Z_BIAS) + 256;
 1808              		.loc 1 226 8 view .LVU451
 1809 00d8 9FED865A 		vldr.32	s10, .L145+12	@ tmp240,
 1810              	@ mini3d/render.c:226: 	float z1 = zscale / (p1->z + Z_BIAS) + 256;
 226:mini3d/render.c **** 	float z2 = zscale / (p2->z + Z_BIAS) + 256;
 1811              		.loc 1 226 20 view .LVU452
 1812 00dc 84EE867A 		vdiv.f32	s14, s9, s12	@ tmp239, zscale.0_12, tmp236
 1813              	@ mini3d/render.c:229: 	if ( z1 > 65535 ) z1 = 65535;
 229:mini3d/render.c **** 	if ( z2 > 65535 ) z2 = 65535;
 1814              		.loc 1 229 5 view .LVU453
 1815 00e0 9FED854A 		vldr.32	s8, .L145+16	@ tmp246,
 1816              	@ mini3d/render.c:227: 	float z2 = zscale / (p2->z + Z_BIAS) + 256;
 227:mini3d/render.c **** 
 1817              		.loc 1 227 20 view .LVU454
 1818 00e4 84EEA56A 		vdiv.f32	s12, s9, s11	@ tmp244, zscale.0_12, tmp241
 1819              	@ mini3d/render.c:226: 	float z1 = zscale / (p1->z + Z_BIAS) + 256;
 226:mini3d/render.c **** 	float z2 = zscale / (p2->z + Z_BIAS) + 256;
 1820              		.loc 1 226 8 view .LVU455
ARM GAS  /var/folders/cs/83z6p2tj4w57s6p2rt8nwfp00000gn/T//ccDzWS9O.s 			page 46


 1821 00e8 77EE055A 		vadd.f32	s11, s14, s10	@ z1, tmp239, tmp240
 1822              	.LVL150:
 227:mini3d/render.c **** 
 1823              		.loc 1 227 2 is_stmt 1 view .LVU456
 1824              	@ mini3d/render.c:229: 	if ( z1 > 65535 ) z1 = 65535;
 229:mini3d/render.c **** 	if ( z2 > 65535 ) z2 = 65535;
 1825              		.loc 1 229 5 is_stmt 0 view .LVU457
 1826 00ec F4EEC45A 		vcmpe.f32	s11, s8	@ z1, tmp246
 1827              	@ mini3d/render.c:227: 	float z2 = zscale / (p2->z + Z_BIAS) + 256;
 227:mini3d/render.c **** 
 1828              		.loc 1 227 8 view .LVU458
 1829 00f0 36EE057A 		vadd.f32	s14, s12, s10	@ z2, tmp244, tmp240
 1830              	.LVL151:
 229:mini3d/render.c **** 	if ( z2 > 65535 ) z2 = 65535;
 1831              		.loc 1 229 2 is_stmt 1 view .LVU459
 1832              	@ mini3d/render.c:229: 	if ( z1 > 65535 ) z1 = 65535;
 229:mini3d/render.c **** 	if ( z2 > 65535 ) z2 = 65535;
 1833              		.loc 1 229 5 is_stmt 0 view .LVU460
 1834 00f4 F1EE10FA 		vmrs	APSR_nzcv, FPSCR
 1835 00f8 00F3DF80 		bgt	.L121		@,
 1836 00fc 9FED7F6A 		vldr.32	s12, .L145+20	@ tmp248,
 1837 0100 25EE866A 		vmul.f32	s12, s11, s12	@ tmp247, z1, tmp248
 1838 0104 BCEEC66A 		vcvt.u32.f32	s12, s12	@ z, tmp247
 1839 0108 16EE105A 		vmov	r5, s12	@ int	@ z, z
 1840              	.LVL152:
 1841              	.L100:
 230:mini3d/render.c **** 
 1842              		.loc 1 230 2 is_stmt 1 view .LVU461
 1843              	@ mini3d/render.c:230: 	if ( z2 > 65535 ) z2 = 65535;
 230:mini3d/render.c **** 
 1844              		.loc 1 230 5 is_stmt 0 view .LVU462
 1845 010c 9FED7A6A 		vldr.32	s12, .L145+16	@ tmp249,
 1846              	.LBB190:
 1847              	.LBB191:
 1848              	@ mini3d/render.c:199: 	if ( dy < 1 )
 199:mini3d/render.c **** 		return dx * (1<<16);
 1849              		.loc 1 199 5 view .LVU463
 1850 0110 B7EE005A 		vmov.f32	s10, #1.0e+0	@ tmp250,
 1851              	.LBE191:
 1852              	.LBE190:
 1853              	@ mini3d/render.c:230: 	if ( z2 > 65535 ) z2 = 65535;
 230:mini3d/render.c **** 
 1854              		.loc 1 230 23 view .LVU464
 1855 0114 B4EE467A 		vcmp.f32	s14, s12	@ z2, tmp249
 1856 0118 F1EE10FA 		vmrs	APSR_nzcv, FPSCR
 1857              	.LBB195:
 1858              	.LBB192:
 1859              	@ mini3d/render.c:199: 	if ( dy < 1 )
 199:mini3d/render.c **** 		return dx * (1<<16);
 1860              		.loc 1 199 5 view .LVU465
 1861 011c F4EEC57A 		vcmpe.f32	s15, s10	@ dy, tmp250
 1862              	.LBE192:
 1863              	.LBE195:
 1864              	@ mini3d/render.c:230: 	if ( z2 > 65535 ) z2 = 65535;
 230:mini3d/render.c **** 
 1865              		.loc 1 230 23 view .LVU466
 1866 0120 36FE077A 		vselgt.f32	s14, s12, s14	@, z2, tmp249, z2
ARM GAS  /var/folders/cs/83z6p2tj4w57s6p2rt8nwfp00000gn/T//ccDzWS9O.s 			page 47


 1867              	.LVL153:
 232:mini3d/render.c **** 	int32_t dzdx = slope(z1, p1->x, z2, p2->x);
 1868              		.loc 1 232 2 is_stmt 1 view .LVU467
 1869              	.LBB196:
 1870              	.LBI190:
 194:mini3d/render.c **** {
 1871              		.loc 1 194 23 view .LVU468
 1872              	.LBB193:
 196:mini3d/render.c **** 	float dy = y2-y1;
 1873              		.loc 1 196 2 view .LVU469
 1874              	@ mini3d/render.c:196: 	float dx = x2-x1;
 196:mini3d/render.c **** 	float dy = y2-y1;
 1875              		.loc 1 196 8 is_stmt 0 view .LVU470
 1876 0124 37EE657A 		vsub.f32	s14, s14, s11	@ dx, z2, z1
 1877              	.LVL154:
 197:mini3d/render.c **** 	
 1878              		.loc 1 197 2 is_stmt 1 view .LVU471
 199:mini3d/render.c **** 		return dx * (1<<16);
 1879              		.loc 1 199 2 view .LVU472
 1880              	@ mini3d/render.c:199: 	if ( dy < 1 )
 199:mini3d/render.c **** 		return dx * (1<<16);
 1881              		.loc 1 199 5 is_stmt 0 view .LVU473
 1882 0128 F1EE10FA 		vmrs	APSR_nzcv, FPSCR
 1883 012c 00F1D480 		bmi	.L142		@,
 202:mini3d/render.c **** }
 1884              		.loc 1 202 3 is_stmt 1 view .LVU474
 1885              	@ mini3d/render.c:202: 		return dx / dy * (1<<16);
 202:mini3d/render.c **** }
 1886              		.loc 1 202 13 is_stmt 0 view .LVU475
 1887 0130 87EE276A 		vdiv.f32	s12, s14, s15	@ tmp253, dx, dy
 1888              	@ mini3d/render.c:202: 		return dx / dy * (1<<16);
 202:mini3d/render.c **** }
 1889              		.loc 1 202 18 view .LVU476
 1890 0134 F0EE467A 		vmov.f32	s15, s12	@ _122, tmp253
 1891              	.LVL155:
 202:mini3d/render.c **** }
 1892              		.loc 1 202 18 view .LVU477
 1893 0138 FEEEC87A 		vcvt.s32.f32	s15, s15, #16	@ _122, _122,
 1894 013c CDED057A 		vstr.32	s15, [sp, #20]	@ int	@ _122, %sfp
 1895              	.L105:
 1896              	.LVL156:
 202:mini3d/render.c **** }
 1897              		.loc 1 202 18 view .LVU478
 1898              	.LBE193:
 1899              	.LBE196:
 233:mini3d/render.c **** 
 1900              		.loc 1 233 2 is_stmt 1 view .LVU479
 1901              	.LBB197:
 1902              	.LBI197:
 194:mini3d/render.c **** {
 1903              		.loc 1 194 23 view .LVU480
 1904              	.LBB198:
 196:mini3d/render.c **** 	float dy = y2-y1;
 1905              		.loc 1 196 2 view .LVU481
 197:mini3d/render.c **** 	
 1906              		.loc 1 197 2 view .LVU482
 199:mini3d/render.c **** 		return dx * (1<<16);
ARM GAS  /var/folders/cs/83z6p2tj4w57s6p2rt8nwfp00000gn/T//ccDzWS9O.s 			page 48


 1907              		.loc 1 199 2 view .LVU483
 1908              	@ mini3d/render.c:199: 	if ( dy < 1 )
 199:mini3d/render.c **** 		return dx * (1<<16);
 1909              		.loc 1 199 5 is_stmt 0 view .LVU484
 1910 0140 F7EE007A 		vmov.f32	s15, #1.0e+0	@ tmp256,
 1911 0144 F4EEE76A 		vcmpe.f32	s13, s15	@ dx, tmp256
 1912 0148 F1EE10FA 		vmrs	APSR_nzcv, FPSCR
 1913 014c 00F1BD80 		bmi	.L143		@,
 202:mini3d/render.c **** }
 1914              		.loc 1 202 3 is_stmt 1 view .LVU485
 1915              	@ mini3d/render.c:202: 		return dx / dy * (1<<16);
 202:mini3d/render.c **** }
 1916              		.loc 1 202 13 is_stmt 0 view .LVU486
 1917 0150 C7EE267A 		vdiv.f32	s15, s14, s13	@ tmp259, dx, dx
 1918              	@ mini3d/render.c:202: 		return dx / dy * (1<<16);
 202:mini3d/render.c **** }
 1919              		.loc 1 202 18 view .LVU487
 1920 0154 B0EE677A 		vmov.f32	s14, s15	@ _115, tmp259
 1921              	.LVL157:
 202:mini3d/render.c **** }
 1922              		.loc 1 202 18 view .LVU488
 1923 0158 BEEEC87A 		vcvt.s32.f32	s14, s14, #16	@ _115, _115,
 1924 015c 8DED067A 		vstr.32	s14, [sp, #24]	@ int	@ _115, %sfp
 1925              	.L108:
 1926              	.LVL158:
 202:mini3d/render.c **** }
 1927              		.loc 1 202 18 view .LVU489
 1928              	.LBE198:
 1929              	.LBE197:
 235:mini3d/render.c **** 
 1930              		.loc 1 235 2 is_stmt 1 view .LVU490
 237:mini3d/render.c **** 	{
 1931              		.loc 1 237 2 view .LVU491
 1932              	@ mini3d/render.c:237: 	if ( y < 0 )
 237:mini3d/render.c **** 	{
 1933              		.loc 1 237 5 is_stmt 0 view .LVU492
 1934 0160 002C     		cmp	r4, #0	@ y,
 1935 0162 05DA     		bge	.L109		@,
 239:mini3d/render.c **** 		z += -y * dzdy;
 1936              		.loc 1 239 3 is_stmt 1 view .LVU493
 1937              	@ mini3d/render.c:240: 		z += -y * dzdy;
 240:mini3d/render.c **** 		y = 0;
 1938              		.loc 1 240 5 is_stmt 0 view .LVU494
 1939 0164 059A     		ldr	r2, [sp, #20]	@ _122, %sfp
 1940              	@ mini3d/render.c:239: 		x += -y * dx;
 239:mini3d/render.c **** 		z += -y * dzdy;
 1941              		.loc 1 239 5 view .LVU495
 1942 0166 04FB1933 		mls	r3, r4, r9, r3	@ x, y, _109, x
 1943              	.LVL159:
 240:mini3d/render.c **** 		y = 0;
 1944              		.loc 1 240 3 is_stmt 1 view .LVU496
 1945              	@ mini3d/render.c:240: 		z += -y * dzdy;
 240:mini3d/render.c **** 		y = 0;
 1946              		.loc 1 240 5 is_stmt 0 view .LVU497
 1947 016a 04FB1255 		mls	r5, r4, r2, r5	@ z, y, _122, z
 1948              	.LVL160:
 241:mini3d/render.c **** 	}
ARM GAS  /var/folders/cs/83z6p2tj4w57s6p2rt8nwfp00000gn/T//ccDzWS9O.s 			page 49


 1949              		.loc 1 241 3 is_stmt 1 view .LVU498
 1950              	@ mini3d/render.c:241: 		y = 0;
 241:mini3d/render.c **** 	}
 1951              		.loc 1 241 5 is_stmt 0 view .LVU499
 1952 016e 0024     		movs	r4, #0	@ y,
 1953              	.LVL161:
 1954              	.L109:
 241:mini3d/render.c **** 	}
 1955              		.loc 1 241 5 view .LVU500
 1956 0170 08FB040B 		mla	fp, r8, r4, r0	@ ivtmp.189, rowstride, y, bitmap
 1957 0174 8A46     		mov	r10, r1	@ endy, endy
 1958 0176 0797     		str	r7, [sp, #28]	@ p1, %sfp
 1959 0178 5F46     		mov	r7, fp	@ ivtmp.189, ivtmp.189
 1960              	.LVL162:
 241:mini3d/render.c **** 	}
 1961              		.loc 1 241 5 view .LVU501
 1962 017a 1BE0     		b	.L110		@
 1963              	.LVL163:
 1964              	.L113:
 1965              	.LBB200:
 257:mini3d/render.c **** 			z += dzdy;
 1966              		.loc 1 257 4 is_stmt 1 view .LVU502
 1967              	@ mini3d/render.c:257: 			drawFragment_zbuf((uint32_t*)&bitmap[y*rowstride], &zbuf[y*LCD_COLUMNS], 
 257:mini3d/render.c **** 			z += dzdy;
 1968              		.loc 1 257 78 is_stmt 0 view .LVU503
 1969 017c 1A14     		asrs	r2, r3, #16	@ _52, x,
 1970              	.LVL164:
 1971              	.LBB201:
 1972              	.LBI201:
 152:mini3d/render.c **** {
 1973              		.loc 1 152 1 is_stmt 1 view .LVU504
 1974              	.LBB202:
 154:mini3d/render.c **** 		return;
 1975              		.loc 1 154 2 view .LVU505
 1976              	@ mini3d/render.c:154: 	if ( endx < 0 || x >= LCD_COLUMNS )
 154:mini3d/render.c **** 		return;
 1977              		.loc 1 154 5 is_stmt 0 view .LVU506
 1978 017e 149B     		ldr	r3, [sp, #80]	@ tmp374, thick
 1979              	.LVL165:
 154:mini3d/render.c **** 		return;
 1980              		.loc 1 154 5 view .LVU507
 1981 0180 13EB2B43 		adds	r3, r3, fp, asr #16	@, _54, tmp374, iftmp.2_66,
 1982              	.LVL166:
 154:mini3d/render.c **** 		return;
 1983              		.loc 1 154 5 view .LVU508
 1984 0184 0FD4     		bmi	.L115		@,
 154:mini3d/render.c **** 		return;
 1985              		.loc 1 154 5 view .LVU509
 1986 0186 40F28F10 		movw	r0, #399	@ tmp376,
 1987 018a 8242     		cmp	r2, r0	@ _52, tmp376
 1988 018c 0BDC     		bgt	.L115		@,
 1989 018e 0291     		str	r1, [sp, #8]	@ color,
 1990              	.LVL167:
 154:mini3d/render.c **** 		return;
 1991              		.loc 1 154 5 view .LVU510
 1992 0190 4FF4487C 		mov	ip, #800	@ tmp299,
 1993 0194 0699     		ldr	r1, [sp, #24]	@ _115, %sfp
ARM GAS  /var/folders/cs/83z6p2tj4w57s6p2rt8nwfp00000gn/T//ccDzWS9O.s 			page 50


 1994              	.LVL168:
 154:mini3d/render.c **** 		return;
 1995              		.loc 1 154 5 view .LVU511
 1996 0196 3846     		mov	r0, r7	@, ivtmp.189
 1997 0198 CDE90051 		strd	r5, r1, [sp]	@ z, _115,
 1998 019c 5849     		ldr	r1, .L145+24	@ tmp378,
 1999 019e 0CFB0411 		mla	r1, ip, r4, r1	@, tmp299, y, tmp378
 2000 01a2 FFF7FEFF 		bl	drawFragment_zbuf.part.0		@
 2001              	.LVL169:
 2002              	.L115:
 154:mini3d/render.c **** 		return;
 2003              		.loc 1 154 5 view .LVU512
 2004              	.LBE202:
 2005              	.LBE201:
 258:mini3d/render.c **** 		}
 2006              		.loc 1 258 4 is_stmt 1 view .LVU513
 2007              	@ mini3d/render.c:258: 			z += dzdy;
 258:mini3d/render.c **** 		}
 2008              		.loc 1 258 6 is_stmt 0 view .LVU514
 2009 01a6 059B     		ldr	r3, [sp, #20]	@ _122, %sfp
 2010 01a8 1D44     		add	r5, r5, r3	@ z, _122
 2011              	.LVL170:
 2012              	.L114:
 261:mini3d/render.c **** 			break;
 2013              		.loc 1 261 3 is_stmt 1 view .LVU515
 2014              	@ mini3d/render.c:261: 		if ( ++y == LCD_ROWS )
 261:mini3d/render.c **** 			break;
 2015              		.loc 1 261 6 is_stmt 0 view .LVU516
 2016 01aa 0134     		adds	r4, r4, #1	@ y, y,
 2017              	.LVL171:
 261:mini3d/render.c **** 			break;
 2018              		.loc 1 261 6 view .LVU517
 2019 01ac 4744     		add	r7, r7, r8	@ ivtmp.189, rowstride
 2020 01ae F02C     		cmp	r4, #240	@ y,
 2021 01b0 38D0     		beq	.L139		@,
 2022              	.L122:
 261:mini3d/render.c **** 			break;
 2023              		.loc 1 261 6 view .LVU518
 2024 01b2 5B46     		mov	r3, fp	@ x, iftmp.2_66
 2025              	.LVL172:
 2026              	.L110:
 261:mini3d/render.c **** 			break;
 2027              		.loc 1 261 6 view .LVU519
 2028              	.LBE200:
 244:mini3d/render.c **** 	{
 2029              		.loc 1 244 8 is_stmt 1 view .LVU520
 2030 01b4 5445     		cmp	r4, r10	@ y, endy
 2031 01b6 35DC     		bgt	.L139		@,
 2032              	.LBB211:
 246:mini3d/render.c **** 		uint32_t color = (p<<24) | (p<<16) | (p<<8) | p;
 2033              		.loc 1 246 3 view .LVU521
 2034              	.LVL173:
 247:mini3d/render.c **** 		int32_t x1 = (y < endy) ? x+dx : p2->x * (1<<16);
 2035              		.loc 1 247 3 view .LVU522
 2036              	@ mini3d/render.c:247: 		uint32_t color = (p<<24) | (p<<16) | (p<<8) | p;
 247:mini3d/render.c **** 		int32_t x1 = (y < endy) ? x+dx : p2->x * (1<<16);
 2037              		.loc 1 247 22 is_stmt 0 view .LVU523
ARM GAS  /var/folders/cs/83z6p2tj4w57s6p2rt8nwfp00000gn/T//ccDzWS9O.s 			page 51


 2038 01b8 1599     		ldr	r1, [sp, #84]	@ tmp362, pattern
 2039              	@ mini3d/render.c:246: 		uint8_t p = pattern[y%8];
 246:mini3d/render.c **** 		uint32_t color = (p<<24) | (p<<16) | (p<<8) | p;
 2040              		.loc 1 246 24 view .LVU524
 2041 01ba 04F00702 		and	r2, r4, #7	@ tmp265, y,
 2042              	@ mini3d/render.c:247: 		uint32_t color = (p<<24) | (p<<16) | (p<<8) | p;
 247:mini3d/render.c **** 		int32_t x1 = (y < endy) ? x+dx : p2->x * (1<<16);
 2043              		.loc 1 247 22 view .LVU525
 2044 01be 8A5C     		ldrb	r2, [r1, r2]	@ zero_extendqisi2	@ _27, *_26
 2045              	@ mini3d/render.c:247: 		uint32_t color = (p<<24) | (p<<16) | (p<<8) | p;
 247:mini3d/render.c **** 		int32_t x1 = (y < endy) ? x+dx : p2->x * (1<<16);
 2046              		.loc 1 247 32 view .LVU526
 2047 01c0 4FEA0241 		lsl	r1, r2, #16	@ tmp267, _27,
 2048              	@ mini3d/render.c:247: 		uint32_t color = (p<<24) | (p<<16) | (p<<8) | p;
 247:mini3d/render.c **** 		int32_t x1 = (y < endy) ? x+dx : p2->x * (1<<16);
 2049              		.loc 1 247 28 view .LVU527
 2050 01c4 41EA0261 		orr	r1, r1, r2, lsl #24	@ tmp268, tmp267, _27,
 2051              	@ mini3d/render.c:247: 		uint32_t color = (p<<24) | (p<<16) | (p<<8) | p;
 247:mini3d/render.c **** 		int32_t x1 = (y < endy) ? x+dx : p2->x * (1<<16);
 2052              		.loc 1 247 47 view .LVU528
 2053 01c8 41EA0201 		orr	r1, r1, r2	@ tmp269, tmp268, _27
 2054 01cc 41EA0221 		orr	r1, r1, r2, lsl #8	@ color, tmp269, _27,
 2055              	.LVL174:
 248:mini3d/render.c **** 
 2056              		.loc 1 248 3 is_stmt 1 view .LVU529
 2057              	@ mini3d/render.c:248: 		int32_t x1 = (y < endy) ? x+dx : p2->x * (1<<16);
 248:mini3d/render.c **** 
 2058              		.loc 1 248 11 is_stmt 0 view .LVU530
 2059 01d0 6ADA     		bge	.L111		@,
 2060              	@ mini3d/render.c:248: 		int32_t x1 = (y < endy) ? x+dx : p2->x * (1<<16);
 248:mini3d/render.c **** 
 2061              		.loc 1 248 30 discriminator 1 view .LVU531
 2062 01d2 03EB0902 		add	r2, r3, r9	@ tmp271, x, _109
 2063 01d6 07EE902A 		vmov	s15, r2	@ int	@ tmp271, tmp271
 2064              	@ mini3d/render.c:248: 		int32_t x1 = (y < endy) ? x+dx : p2->x * (1<<16);
 248:mini3d/render.c **** 
 2065              		.loc 1 248 11 discriminator 1 view .LVU532
 2066 01da F8EEE77A 		vcvt.f32.s32	s15, s15	@ tmp272, tmp271
 2067 01de FDEEE77A 		vcvt.s32.f32	s15, s15	@ iftmp.2_66, tmp272
 2068 01e2 17EE90BA 		vmov	fp, s15	@ int	@ iftmp.2_66, iftmp.2_66
 2069              	.L112:
 2070              	.LVL175:
 250:mini3d/render.c **** 		{
 2071              		.loc 1 250 3 is_stmt 1 discriminator 4 view .LVU533
 2072              	@ mini3d/render.c:250: 		if ( dx < 0 )
 250:mini3d/render.c **** 		{
 2073              		.loc 1 250 6 is_stmt 0 discriminator 4 view .LVU534
 2074 01e6 B9F1000F 		cmp	r9, #0	@ _109,
 2075 01ea C7DA     		bge	.L113		@,
 252:mini3d/render.c **** 			drawFragment_zbuf((uint32_t*)&bitmap[y*rowstride], &zbuf[y*LCD_COLUMNS], x1>>16, (x>>16) + thick
 2076              		.loc 1 252 4 is_stmt 1 view .LVU535
 2077              	.LBB203:
 2078              	.LBB204:
 2079              	@ mini3d/render.c:154: 	if ( endx < 0 || x >= LCD_COLUMNS )
 154:mini3d/render.c **** 		return;
 2080              		.loc 1 154 5 is_stmt 0 view .LVU536
 2081 01ec 1498     		ldr	r0, [sp, #80]	@ tmp369, thick
ARM GAS  /var/folders/cs/83z6p2tj4w57s6p2rt8nwfp00000gn/T//ccDzWS9O.s 			page 52


 2082              	.LBE204:
 2083              	.LBE203:
 2084              	@ mini3d/render.c:252: 			z += dzdy;
 252:mini3d/render.c **** 			drawFragment_zbuf((uint32_t*)&bitmap[y*rowstride], &zbuf[y*LCD_COLUMNS], x1>>16, (x>>16) + thick
 2085              		.loc 1 252 6 view .LVU537
 2086 01ee 059A     		ldr	r2, [sp, #20]	@ _122, %sfp
 2087              	.LBB208:
 2088              	.LBB205:
 2089              	@ mini3d/render.c:154: 	if ( endx < 0 || x >= LCD_COLUMNS )
 154:mini3d/render.c **** 		return;
 2090              		.loc 1 154 5 view .LVU538
 2091 01f0 10EB2343 		adds	r3, r0, r3, asr #16	@, _46, tmp369, x,
 2092              	.LVL176:
 154:mini3d/render.c **** 		return;
 2093              		.loc 1 154 5 view .LVU539
 2094              	.LBE205:
 2095              	.LBE208:
 2096              	@ mini3d/render.c:252: 			z += dzdy;
 252:mini3d/render.c **** 			drawFragment_zbuf((uint32_t*)&bitmap[y*rowstride], &zbuf[y*LCD_COLUMNS], x1>>16, (x>>16) + thick
 2097              		.loc 1 252 6 view .LVU540
 2098 01f4 1544     		add	r5, r5, r2	@ z, _122
 2099              	.LVL177:
 253:mini3d/render.c **** 		}
 2100              		.loc 1 253 4 is_stmt 1 view .LVU541
 2101              	@ mini3d/render.c:253: 			drawFragment_zbuf((uint32_t*)&bitmap[y*rowstride], &zbuf[y*LCD_COLUMNS], 
 253:mini3d/render.c **** 		}
 2102              		.loc 1 253 79 is_stmt 0 view .LVU542
 2103 01f6 4FEA2B42 		asr	r2, fp, #16	@ _44, iftmp.2_66,
 2104              	.LVL178:
 2105              	.LBB209:
 2106              	.LBI203:
 152:mini3d/render.c **** {
 2107              		.loc 1 152 1 is_stmt 1 view .LVU543
 2108              	.LBB206:
 154:mini3d/render.c **** 		return;
 2109              		.loc 1 154 2 view .LVU544
 2110              	@ mini3d/render.c:154: 	if ( endx < 0 || x >= LCD_COLUMNS )
 154:mini3d/render.c **** 		return;
 2111              		.loc 1 154 5 is_stmt 0 view .LVU545
 2112 01fa D6D4     		bmi	.L114		@,
 2113 01fc 40F28F10 		movw	r0, #399	@ tmp371,
 2114 0200 8242     		cmp	r2, r0	@ _44, tmp371
 2115 0202 D2DC     		bgt	.L114		@,
 2116 0204 0291     		str	r1, [sp, #8]	@ color,
 2117              	.LVL179:
 154:mini3d/render.c **** 		return;
 2118              		.loc 1 154 5 view .LVU546
 2119 0206 4FF4487C 		mov	ip, #800	@ tmp286,
 2120 020a 0699     		ldr	r1, [sp, #24]	@ _115, %sfp
 2121              	.LVL180:
 154:mini3d/render.c **** 		return;
 2122              		.loc 1 154 5 view .LVU547
 2123 020c 3846     		mov	r0, r7	@, ivtmp.189
 2124 020e 4744     		add	r7, r7, r8	@ ivtmp.189, rowstride
 2125 0210 CDE90051 		strd	r5, r1, [sp]	@ z, _115,
 2126 0214 3A49     		ldr	r1, .L145+24	@ tmp373,
 2127 0216 0CFB0411 		mla	r1, ip, r4, r1	@, tmp286, y, tmp373
ARM GAS  /var/folders/cs/83z6p2tj4w57s6p2rt8nwfp00000gn/T//ccDzWS9O.s 			page 53


 2128              	.LBE206:
 2129              	.LBE209:
 2130              	@ mini3d/render.c:261: 		if ( ++y == LCD_ROWS )
 261:mini3d/render.c **** 			break;
 2131              		.loc 1 261 6 view .LVU548
 2132 021a 0134     		adds	r4, r4, #1	@ y, y,
 2133              	.LVL181:
 2134              	.LBB210:
 2135              	.LBB207:
 261:mini3d/render.c **** 			break;
 2136              		.loc 1 261 6 view .LVU549
 2137 021c FFF7FEFF 		bl	drawFragment_zbuf.part.0		@
 2138              	.LVL182:
 261:mini3d/render.c **** 			break;
 2139              		.loc 1 261 6 view .LVU550
 2140              	.LBE207:
 2141              	.LBE210:
 261:mini3d/render.c **** 			break;
 2142              		.loc 1 261 3 is_stmt 1 view .LVU551
 2143              	@ mini3d/render.c:261: 		if ( ++y == LCD_ROWS )
 261:mini3d/render.c **** 			break;
 2144              		.loc 1 261 6 is_stmt 0 view .LVU552
 2145 0220 F02C     		cmp	r4, #240	@ y,
 2146 0222 C6D1     		bne	.L122		@,
 2147              	.LVL183:
 2148              	.L139:
 261:mini3d/render.c **** 			break;
 2149              		.loc 1 261 6 view .LVU553
 2150 0224 079F     		ldr	r7, [sp, #28]	@ p1, %sfp
 2151              	.LBE211:
 267:mini3d/render.c **** }
 2152              		.loc 1 267 2 is_stmt 1 view .LVU554
 2153              	@ mini3d/render.c:267: 	return (LCDRowRange){ MAX(0, p1->y), MIN(LCD_ROWS, p2->y) };
 267:mini3d/render.c **** }
 2154              		.loc 1 267 24 is_stmt 0 view .LVU555
 2155 0226 D7ED017A 		vldr.32	s15, [r7, #4]	@ _56, p1_58->y
 2156              	@ mini3d/render.c:267: 	return (LCDRowRange){ MAX(0, p1->y), MIN(LCD_ROWS, p2->y) };
 267:mini3d/render.c **** }
 2157              		.loc 1 267 9 view .LVU556
 2158 022a F5EEC07A 		vcmpe.f32	s15, #0	@ _56
 2159 022e F1EE10FA 		vmrs	APSR_nzcv, FPSCR
 2160 0232 48D4     		bmi	.L144		@,
 2161              	@ mini3d/render.c:267: 	return (LCDRowRange){ MAX(0, p1->y), MIN(LCD_ROWS, p2->y) };
 267:mini3d/render.c **** }
 2162              		.loc 1 267 9 discriminator 2 view .LVU557
 2163 0234 FDEEE77A 		vcvt.s32.f32	s15, s15	@ tmp304, _56
 2164 0238 17EE903A 		vmov	r3, s15	@ int	@ tmp304, tmp304
 2165 023c 1BB2     		sxth	r3, r3	@ iftmp.5_67, tmp304
 2166              	.L116:
 2167              	@ mini3d/render.c:267: 	return (LCDRowRange){ MAX(0, p1->y), MIN(LCD_ROWS, p2->y) };
 267:mini3d/render.c **** }
 2168              		.loc 1 267 39 discriminator 4 view .LVU558
 2169 023e D6ED017A 		vldr.32	s15, [r6, #4]	@ _57, p2_59->y
 2170              	@ mini3d/render.c:267: 	return (LCDRowRange){ MAX(0, p1->y), MIN(LCD_ROWS, p2->y) };
 267:mini3d/render.c **** }
 2171              		.loc 1 267 9 discriminator 4 view .LVU559
 2172 0242 9FED307A 		vldr.32	s14, .L145+28	@ tmp305,
ARM GAS  /var/folders/cs/83z6p2tj4w57s6p2rt8nwfp00000gn/T//ccDzWS9O.s 			page 54


 2173 0246 F4EEC77A 		vcmpe.f32	s15, s14	@ _57, tmp305
 2174 024a F1EE10FA 		vmrs	APSR_nzcv, FPSCR
 2175 024e 38DC     		bgt	.L124		@,
 2176              	@ mini3d/render.c:267: 	return (LCDRowRange){ MAX(0, p1->y), MIN(LCD_ROWS, p2->y) };
 267:mini3d/render.c **** }
 2177              		.loc 1 267 9 discriminator 6 view .LVU560
 2178 0250 FDEEE77A 		vcvt.s32.f32	s15, s15	@ tmp307, _57
 2179 0254 17EE902A 		vmov	r2, s15	@ int	@ tmp307, tmp307
 2180 0258 12B2     		sxth	r2, r2	@ iftmp.6_68, tmp307
 2181              	.L120:
 2182              	@ mini3d/render.c:267: 	return (LCDRowRange){ MAX(0, p1->y), MIN(LCD_ROWS, p2->y) };
 267:mini3d/render.c **** }
 2183              		.loc 1 267 9 discriminator 8 view .LVU561
 2184 025a ADF82430 		strh	r3, [sp, #36]	@ movhi	@ iftmp.5_67, D.7657.start
 2185 025e ADF82620 		strh	r2, [sp, #38]	@ movhi	@ iftmp.6_68, D.7657.end
 2186 0262 07E0     		b	.L96		@
 2187              	.LVL184:
 2188              	.L140:
 2189              	@ mini3d/render.c:219: 	if ( y >= LCD_ROWS || endy < 0 || MIN(p1->x, p2->x) >= LCD_COLUMNS || MAX(p
 219:mini3d/render.c **** 		return (LCDRowRange){ 0, 0 };
 2190              		.loc 1 219 33 discriminator 2 view .LVU562
 2191 0264 B4EEE56A 		vcmpe.f32	s12, s11	@ _8, tmp220
 2192 0268 F1EE10FA 		vmrs	APSR_nzcv, FPSCR
 2193 026c FFF6FFAE 		blt	.L91		@,
 2194              	.L88:
 2195              	.LBB212:
 220:mini3d/render.c **** 	
 2196              		.loc 1 220 3 is_stmt 1 view .LVU563
 2197              	@ mini3d/render.c:220: 		return (LCDRowRange){ 0, 0 };
 220:mini3d/render.c **** 	
 2198              		.loc 1 220 10 is_stmt 0 view .LVU564
 2199 0270 0023     		movs	r3, #0	@ tmp224,
 2200 0272 0993     		str	r3, [sp, #36]	@ tmp224, MEM[(short int *)&D.7657]
 2201              	.LVL185:
 2202              	.L96:
 220:mini3d/render.c **** 	
 2203              		.loc 1 220 10 view .LVU565
 2204 0274 BDF82420 		ldrh	r2, [sp, #36]	@ D.7657, D.7657
 2205 0278 0020     		movs	r0, #0	@ D.7657,
 2206 027a BDF82630 		ldrh	r3, [sp, #38]	@ D.7657, D.7657
 2207 027e 62F30F00 		bfi	r0, r2, #0, #16	@ D.7657, D.7657,,
 2208 0282 63F31F40 		bfi	r0, r3, #16, #16	@ D.7657, D.7657,,
 2209              	.LBE212:
 2210              	@ mini3d/render.c:268: }
 268:mini3d/render.c **** #endif
 2211              		.loc 1 268 1 discriminator 1 view .LVU566
 2212 0286 0BB0     		add	sp, sp, #44	@,,
 2213              	.LCFI19:
 2214              		.cfi_remember_state
 2215              		.cfi_def_cfa_offset 36
 2216              		@ sp needed	@
 2217 0288 BDE8F08F 		pop	{r4, r5, r6, r7, r8, r9, r10, fp, pc}	@
 2218              	.LVL186:
 2219              	.L133:
 2220              	.LCFI20:
 2221              		.cfi_restore_state
 2222              	@ mini3d/render.c:219: 	if ( y >= LCD_ROWS || endy < 0 || MIN(p1->x, p2->x) >= LCD_COLUMNS || MAX(p
ARM GAS  /var/folders/cs/83z6p2tj4w57s6p2rt8nwfp00000gn/T//ccDzWS9O.s 			page 55


 219:mini3d/render.c **** 		return (LCDRowRange){ 0, 0 };
 2223              		.loc 1 219 90 discriminator 6 view .LVU567
 2224 028c F5EEC06A 		vcmpe.f32	s13, #0	@ _9
 2225 0290 F1EE10FA 		vmrs	APSR_nzcv, FPSCR
 2226 0294 7FF5F7AE 		bpl	.L94		@,
 2227 0298 EAE7     		b	.L88		@
 2228              	.LVL187:
 2229              	.L141:
 2230              	.LBB213:
 2231              	.LBB187:
 200:mini3d/render.c **** 	else
 2232              		.loc 1 200 3 is_stmt 1 view .LVU568
 2233              	@ mini3d/render.c:200: 		return dx * (1<<16);
 200:mini3d/render.c **** 	else
 2234              		.loc 1 200 13 is_stmt 0 view .LVU569
 2235 029a B0EE667A 		vmov.f32	s14, s13	@ _109, dx
 2236 029e BEEEC87A 		vcvt.s32.f32	s14, s14, #16	@ _109, _109,
 2237 02a2 17EE109A 		vmov	r9, s14	@ int	@ _109, _109
 2238 02a6 0AE7     		b	.L99		@
 2239              	.LVL188:
 2240              	.L111:
 200:mini3d/render.c **** 	else
 2241              		.loc 1 200 13 view .LVU570
 2242              	.LBE187:
 2243              	.LBE213:
 2244              	.LBB214:
 2245              	@ mini3d/render.c:248: 		int32_t x1 = (y < endy) ? x+dx : p2->x * (1<<16);
 248:mini3d/render.c **** 
 2246              		.loc 1 248 42 discriminator 2 view .LVU571
 2247 02a8 D6ED007A 		vldr.32	s15, [r6]	@ p2_59->x, p2_59->x
 2248              	@ mini3d/render.c:248: 		int32_t x1 = (y < endy) ? x+dx : p2->x * (1<<16);
 248:mini3d/render.c **** 
 2249              		.loc 1 248 11 discriminator 2 view .LVU572
 2250 02ac B0EE677A 		vmov.f32	s14, s15	@ iftmp.2_66, p2_59->x
 2251 02b0 BEEEC87A 		vcvt.s32.f32	s14, s14, #16	@ iftmp.2_66, iftmp.2_66,
 2252 02b4 17EE10BA 		vmov	fp, s14	@ int	@ iftmp.2_66, iftmp.2_66
 2253 02b8 95E7     		b	.L112		@
 2254              	.LVL189:
 2255              	.L121:
 248:mini3d/render.c **** 
 2256              		.loc 1 248 11 discriminator 2 view .LVU573
 2257              	.LBE214:
 2258              	@ mini3d/render.c:229: 	if ( z1 > 65535 ) z1 = 65535;
 229:mini3d/render.c **** 	if ( z2 > 65535 ) z2 = 65535;
 2259              		.loc 1 229 23 view .LVU574
 2260 02ba F0EE445A 		vmov.f32	s11, s8	@ z1, tmp246
 2261              	.LVL190:
 229:mini3d/render.c **** 	if ( z2 > 65535 ) z2 = 65535;
 2262              		.loc 1 229 23 view .LVU575
 2263 02be 124D     		ldr	r5, .L145+32	@ z,
 2264              	.LVL191:
 229:mini3d/render.c **** 	if ( z2 > 65535 ) z2 = 65535;
 2265              		.loc 1 229 23 view .LVU576
 2266 02c0 24E7     		b	.L100		@
 2267              	.LVL192:
 2268              	.L124:
 2269              	@ mini3d/render.c:267: 	return (LCDRowRange){ MAX(0, p1->y), MIN(LCD_ROWS, p2->y) };
ARM GAS  /var/folders/cs/83z6p2tj4w57s6p2rt8nwfp00000gn/T//ccDzWS9O.s 			page 56


 267:mini3d/render.c **** }
 2270              		.loc 1 267 9 view .LVU577
 2271 02c2 F022     		movs	r2, #240	@ iftmp.6_68,
 2272 02c4 C9E7     		b	.L120		@
 2273              	.L144:
 267:mini3d/render.c **** }
 2274              		.loc 1 267 9 view .LVU578
 2275 02c6 0023     		movs	r3, #0	@ iftmp.5_67,
 2276 02c8 B9E7     		b	.L116		@
 2277              	.LVL193:
 2278              	.L143:
 2279              	.LBB215:
 2280              	.LBB199:
 200:mini3d/render.c **** 	else
 2281              		.loc 1 200 3 is_stmt 1 view .LVU579
 2282              	@ mini3d/render.c:200: 		return dx * (1<<16);
 200:mini3d/render.c **** 	else
 2283              		.loc 1 200 13 is_stmt 0 view .LVU580
 2284 02ca F0EE477A 		vmov.f32	s15, s14	@ _115, dx
 2285 02ce FEEEC87A 		vcvt.s32.f32	s15, s15, #16	@ _115, _115,
 2286 02d2 CDED067A 		vstr.32	s15, [sp, #24]	@ int	@ _115, %sfp
 2287 02d6 43E7     		b	.L108		@
 2288              	.LVL194:
 2289              	.L142:
 200:mini3d/render.c **** 	else
 2290              		.loc 1 200 13 view .LVU581
 2291              	.LBE199:
 2292              	.LBE215:
 2293              	.LBB216:
 2294              	.LBB194:
 200:mini3d/render.c **** 	else
 2295              		.loc 1 200 3 is_stmt 1 view .LVU582
 2296              	@ mini3d/render.c:200: 		return dx * (1<<16);
 200:mini3d/render.c **** 	else
 2297              		.loc 1 200 13 is_stmt 0 view .LVU583
 2298 02d8 F0EE477A 		vmov.f32	s15, s14	@ _122, dx
 2299              	.LVL195:
 200:mini3d/render.c **** 	else
 2300              		.loc 1 200 13 view .LVU584
 2301 02dc FEEEC87A 		vcvt.s32.f32	s15, s15, #16	@ _122, _122,
 2302 02e0 CDED057A 		vstr.32	s15, [sp, #20]	@ int	@ _122, %sfp
 2303 02e4 2CE7     		b	.L105		@
 2304              	.L146:
 2305 02e6 00BF     		.align	2
 2306              	.L145:
 2307 02e8 0000C843 		.word	1137180672
 2308 02ec 00000000 		.word	0
 2309 02f0 00000000 		.word	.LANCHOR0
 2310 02f4 00008043 		.word	1132462080
 2311 02f8 00FF7F47 		.word	1199570688
 2312 02fc 00008047 		.word	1199570944
 2313 0300 00000000 		.word	zbuf
 2314 0304 00007043 		.word	1131413504
 2315 0308 0000FFFF 		.word	-65536
 2316              	.LBE194:
 2317              	.LBE216:
 2318              		.cfi_endproc
ARM GAS  /var/folders/cs/83z6p2tj4w57s6p2rt8nwfp00000gn/T//ccDzWS9O.s 			page 57


 2319              	.LFE18:
 2320              		.size	drawLine_zbuf, .-drawLine_zbuf
 2321              		.section	.text.drawLine,"ax",%progbits
 2322              		.align	1
 2323              		.p2align 4,,15
 2324              		.global	drawLine
 2325              		.syntax unified
 2326              		.thumb
 2327              		.thumb_func
 2328              		.fpu fpv5-sp-d16
 2329              		.type	drawLine, %function
 2330              	drawLine:
 2331              	.LVL196:
 2332              	.LFB19:
 273:mini3d/render.c **** 	if ( p1->y > p2->y )
 2333              		.loc 1 273 1 is_stmt 1 view -0
 2334              		.cfi_startproc
 2335              		@ args = 8, pretend = 0, frame = 16
 2336              		@ frame_needed = 0, uses_anonymous_args = 0
 2337              	@ mini3d/render.c:274: 	if ( p1->y > p2->y )
 274:mini3d/render.c **** 	{
 2338              		.loc 1 274 9 is_stmt 0 view .LVU586
 2339 0000 92ED017A 		vldr.32	s14, [r2, #4]	@ _1, p1_53(D)->y
 2340              	@ mini3d/render.c:274: 	if ( p1->y > p2->y )
 274:mini3d/render.c **** 	{
 2341              		.loc 1 274 17 view .LVU587
 2342 0004 D3ED017A 		vldr.32	s15, [r3, #4]	@ _2, p2_54(D)->y
 2343              	@ mini3d/render.c:274: 	if ( p1->y > p2->y )
 274:mini3d/render.c **** 	{
 2344              		.loc 1 274 5 view .LVU588
 2345 0008 B4EEE77A 		vcmpe.f32	s14, s15	@ _1, _2
 2346              	@ mini3d/render.c:273: {
 273:mini3d/render.c **** 	if ( p1->y > p2->y )
 2347              		.loc 1 273 1 view .LVU589
 2348 000c 2DE9F04F 		push	{r4, r5, r6, r7, r8, r9, r10, fp, lr}	@
 2349              	.LCFI21:
 2350              		.cfi_def_cfa_offset 36
 2351              		.cfi_offset 4, -36
 2352              		.cfi_offset 5, -32
 2353              		.cfi_offset 6, -28
 2354              		.cfi_offset 7, -24
 2355              		.cfi_offset 8, -20
 2356              		.cfi_offset 9, -16
 2357              		.cfi_offset 10, -12
 2358              		.cfi_offset 11, -8
 2359              		.cfi_offset 14, -4
 2360              	@ mini3d/render.c:274: 	if ( p1->y > p2->y )
 274:mini3d/render.c **** 	{
 2361              		.loc 1 274 5 view .LVU590
 2362 0010 F1EE10FA 		vmrs	APSR_nzcv, FPSCR
 2363              	@ mini3d/render.c:273: {
 273:mini3d/render.c **** 	if ( p1->y > p2->y )
 2364              		.loc 1 273 1 view .LVU591
 2365 0014 85B0     		sub	sp, sp, #20	@,,
 2366              	.LCFI22:
 2367              		.cfi_def_cfa_offset 56
 2368              	@ mini3d/render.c:273: {
ARM GAS  /var/folders/cs/83z6p2tj4w57s6p2rt8nwfp00000gn/T//ccDzWS9O.s 			page 58


 273:mini3d/render.c **** 	if ( p1->y > p2->y )
 2369              		.loc 1 273 1 view .LVU592
 2370 0016 1746     		mov	r7, r2	@ p1, tmp252
 2371 0018 1D46     		mov	r5, r3	@ p2, tmp253
 274:mini3d/render.c **** 	{
 2372              		.loc 1 274 2 is_stmt 1 view .LVU593
 2373              	@ mini3d/render.c:273: {
 273:mini3d/render.c **** 	if ( p1->y > p2->y )
 2374              		.loc 1 273 1 is_stmt 0 view .LVU594
 2375 001a 0E46     		mov	r6, r1	@ rowstride, tmp251
 2376              	@ mini3d/render.c:274: 	if ( p1->y > p2->y )
 274:mini3d/render.c **** 	{
 2377              		.loc 1 274 5 view .LVU595
 2378 001c 07DD     		ble	.L148		@,
 2379 001e F0EE476A 		vmov.f32	s13, s14	@ _1, _1
 2380 0022 2F46     		mov	r7, r5	@ p1, p2
 2381 0024 B0EE677A 		vmov.f32	s14, s15	@ _1, _2
 2382 0028 1546     		mov	r5, r2	@ p2, p1
 2383 002a F0EE667A 		vmov.f32	s15, s13	@ _2, _1
 2384              	.L148:
 2385              	.LVL197:
 281:mini3d/render.c **** 	int endy = p2->y;
 2386              		.loc 1 281 2 is_stmt 1 view .LVU596
 2387              	@ mini3d/render.c:281: 	int y = p1->y;
 281:mini3d/render.c **** 	int endy = p2->y;
 2388              		.loc 1 281 6 is_stmt 0 view .LVU597
 2389 002e FDEEC76A 		vcvt.s32.f32	s13, s14	@ y, _1
 2390 0032 16EE904A 		vmov	r4, s13	@ int	@ y, y
 2391              	.LVL198:
 282:mini3d/render.c **** 	
 2392              		.loc 1 282 2 is_stmt 1 view .LVU598
 2393              	@ mini3d/render.c:282: 	int endy = p2->y;
 282:mini3d/render.c **** 	
 2394              		.loc 1 282 6 is_stmt 0 view .LVU599
 2395 0036 FDEEE76A 		vcvt.s32.f32	s13, s15	@ endy, _2
 2396              	@ mini3d/render.c:284: 	if ( y >= LCD_ROWS || endy < 0 || MIN(p1->x, p2->x) >= LCD_COLUMNS || MAX(p
 284:mini3d/render.c **** 		return (LCDRowRange){ 0, 0 };
 2397              		.loc 1 284 5 view .LVU600
 2398 003a EF2C     		cmp	r4, #239	@ y,
 2399              	@ mini3d/render.c:282: 	int endy = p2->y;
 282:mini3d/render.c **** 	
 2400              		.loc 1 282 6 view .LVU601
 2401 003c 16EE909A 		vmov	r9, s13	@ int	@ endy, endy
 2402              	.LVL199:
 284:mini3d/render.c **** 		return (LCDRowRange){ 0, 0 };
 2403              		.loc 1 284 2 is_stmt 1 view .LVU602
 2404              	@ mini3d/render.c:284: 	if ( y >= LCD_ROWS || endy < 0 || MIN(p1->x, p2->x) >= LCD_COLUMNS || MAX(p
 284:mini3d/render.c **** 		return (LCDRowRange){ 0, 0 };
 2405              		.loc 1 284 5 is_stmt 0 view .LVU603
 2406 0040 00F3A580 		bgt	.L150		@,
 2407 0044 B9F1000F 		cmp	r9, #0	@ endy,
 2408 0048 C0F2A180 		blt	.L150		@,
 2409              	@ mini3d/render.c:284: 	if ( y >= LCD_ROWS || endy < 0 || MIN(p1->x, p2->x) >= LCD_COLUMNS || MAX(p
 284:mini3d/render.c **** 		return (LCDRowRange){ 0, 0 };
 2410              		.loc 1 284 36 discriminator 1 view .LVU604
 2411 004c 97ED006A 		vldr.32	s12, [r7]	@ _8, p1_41->x
 2412 0050 D5ED006A 		vldr.32	s13, [r5]	@ _9, p2_42->x
ARM GAS  /var/folders/cs/83z6p2tj4w57s6p2rt8nwfp00000gn/T//ccDzWS9O.s 			page 59


 2413              	@ mini3d/render.c:284: 	if ( y >= LCD_ROWS || endy < 0 || MIN(p1->x, p2->x) >= LCD_COLUMNS || MAX(p
 284:mini3d/render.c **** 		return (LCDRowRange){ 0, 0 };
 2414              		.loc 1 284 33 discriminator 1 view .LVU605
 2415 0054 DFED625A 		vldr.32	s11, .L192	@ tmp185,
 2416              	@ mini3d/render.c:284: 	if ( y >= LCD_ROWS || endy < 0 || MIN(p1->x, p2->x) >= LCD_COLUMNS || MAX(p
 284:mini3d/render.c **** 		return (LCDRowRange){ 0, 0 };
 2417              		.loc 1 284 5 discriminator 1 view .LVU606
 2418 0058 B4EEE66A 		vcmpe.f32	s12, s13	@ _8, _9
 2419 005c F1EE10FA 		vmrs	APSR_nzcv, FPSCR
 2420 0060 00F18F80 		bmi	.L189		@,
 2421              	@ mini3d/render.c:284: 	if ( y >= LCD_ROWS || endy < 0 || MIN(p1->x, p2->x) >= LCD_COLUMNS || MAX(p
 284:mini3d/render.c **** 		return (LCDRowRange){ 0, 0 };
 2422              		.loc 1 284 54 discriminator 3 view .LVU607
 2423 0064 F4EEE56A 		vcmpe.f32	s13, s11	@ _9, tmp186
 2424 0068 F1EE10FA 		vmrs	APSR_nzcv, FPSCR
 2425 006c 80F28F80 		bge	.L150		@,
 2426              	.L153:
 2427              	@ mini3d/render.c:284: 	if ( y >= LCD_ROWS || endy < 0 || MIN(p1->x, p2->x) >= LCD_COLUMNS || MAX(p
 284:mini3d/render.c **** 		return (LCDRowRange){ 0, 0 };
 2428              		.loc 1 284 5 discriminator 4 view .LVU608
 2429 0070 B4EEE66A 		vcmpe.f32	s12, s13	@ _8, _9
 2430 0074 F1EE10FA 		vmrs	APSR_nzcv, FPSCR
 2431 0078 40F39780 		ble	.L181		@,
 2432              	@ mini3d/render.c:284: 	if ( y >= LCD_ROWS || endy < 0 || MIN(p1->x, p2->x) >= LCD_COLUMNS || MAX(p
 284:mini3d/render.c **** 		return (LCDRowRange){ 0, 0 };
 2433              		.loc 1 284 69 discriminator 5 view .LVU609
 2434 007c B5EEC06A 		vcmpe.f32	s12, #0	@ _8
 2435 0080 F1EE10FA 		vmrs	APSR_nzcv, FPSCR
 2436 0084 00F18380 		bmi	.L150		@,
 2437              	.L156:
 287:mini3d/render.c **** 	int32_t dx = slope(p1->x, p1->y, p2->x, p2->y);
 2438              		.loc 1 287 2 is_stmt 1 view .LVU610
 2439              	.LBB217:
 2440              	.LBB218:
 2441              	@ mini3d/render.c:197: 	float dy = y2-y1;
 197:mini3d/render.c **** 	
 2442              		.loc 1 197 8 is_stmt 0 view .LVU611
 2443 0088 77EEC77A 		vsub.f32	s15, s15, s14	@ dy, _2, _1
 2444              	@ mini3d/render.c:199: 	if ( dy < 1 )
 199:mini3d/render.c **** 		return dx * (1<<16);
 2445              		.loc 1 199 5 view .LVU612
 2446 008c B7EE007A 		vmov.f32	s14, #1.0e+0	@ tmp192,
 2447              	.LBE218:
 2448              	.LBE217:
 2449              	@ mini3d/render.c:287: 	int32_t x = p1->x * (1<<16);
 287:mini3d/render.c **** 	int32_t dx = slope(p1->x, p1->y, p2->x, p2->y);
 2450              		.loc 1 287 10 view .LVU613
 2451 0090 F0EE465A 		vmov.f32	s11, s12	@ x, _8
 2452              	.LBB223:
 2453              	.LBB219:
 2454              	@ mini3d/render.c:196: 	float dx = x2-x1;
 196:mini3d/render.c **** 	float dy = y2-y1;
 2455              		.loc 1 196 8 view .LVU614
 2456 0094 76EEC66A 		vsub.f32	s13, s13, s12	@ dx, _9, _8
 2457              	@ mini3d/render.c:199: 	if ( dy < 1 )
 199:mini3d/render.c **** 		return dx * (1<<16);
 2458              		.loc 1 199 5 view .LVU615
ARM GAS  /var/folders/cs/83z6p2tj4w57s6p2rt8nwfp00000gn/T//ccDzWS9O.s 			page 60


 2459 0098 F4EEC77A 		vcmpe.f32	s15, s14	@ dy, tmp192
 2460              	.LBE219:
 2461              	.LBE223:
 2462              	@ mini3d/render.c:287: 	int32_t x = p1->x * (1<<16);
 287:mini3d/render.c **** 	int32_t dx = slope(p1->x, p1->y, p2->x, p2->y);
 2463              		.loc 1 287 10 view .LVU616
 2464 009c FEEEC85A 		vcvt.s32.f32	s11, s11, #16	@ x, x,
 2465              	.LBB224:
 2466              	.LBB220:
 2467              	@ mini3d/render.c:199: 	if ( dy < 1 )
 199:mini3d/render.c **** 		return dx * (1<<16);
 2468              		.loc 1 199 5 view .LVU617
 2469 00a0 F1EE10FA 		vmrs	APSR_nzcv, FPSCR
 2470              	.LBE220:
 2471              	.LBE224:
 2472              	@ mini3d/render.c:287: 	int32_t x = p1->x * (1<<16);
 287:mini3d/render.c **** 	int32_t dx = slope(p1->x, p1->y, p2->x, p2->y);
 2473              		.loc 1 287 10 view .LVU618
 2474 00a4 15EE902A 		vmov	r2, s11	@ int	@ x, x
 2475              	.LVL200:
 288:mini3d/render.c **** 	
 2476              		.loc 1 288 2 is_stmt 1 view .LVU619
 2477              	.LBB225:
 2478              	.LBI217:
 194:mini3d/render.c **** {
 2479              		.loc 1 194 23 view .LVU620
 2480              	.LBB221:
 196:mini3d/render.c **** 	float dy = y2-y1;
 2481              		.loc 1 196 2 view .LVU621
 197:mini3d/render.c **** 	
 2482              		.loc 1 197 2 view .LVU622
 199:mini3d/render.c **** 		return dx * (1<<16);
 2483              		.loc 1 199 2 view .LVU623
 2484              	@ mini3d/render.c:199: 	if ( dy < 1 )
 199:mini3d/render.c **** 		return dx * (1<<16);
 2485              		.loc 1 199 5 is_stmt 0 view .LVU624
 2486 00a8 00F18680 		bmi	.L190		@,
 202:mini3d/render.c **** }
 2487              		.loc 1 202 3 is_stmt 1 view .LVU625
 2488              	@ mini3d/render.c:202: 		return dx / dy * (1<<16);
 202:mini3d/render.c **** }
 2489              		.loc 1 202 13 is_stmt 0 view .LVU626
 2490 00ac 86EEA77A 		vdiv.f32	s14, s13, s15	@ tmp195, dx, dy
 2491              	@ mini3d/render.c:202: 		return dx / dy * (1<<16);
 202:mini3d/render.c **** }
 2492              		.loc 1 202 18 view .LVU627
 2493 00b0 F0EE477A 		vmov.f32	s15, s14	@ _80, tmp195
 2494              	.LVL201:
 202:mini3d/render.c **** }
 2495              		.loc 1 202 18 view .LVU628
 2496 00b4 FEEEC87A 		vcvt.s32.f32	s15, s15, #16	@ _80, _80,
 2497 00b8 17EE908A 		vmov	r8, s15	@ int	@ _80, _80
 2498              	.L161:
 2499              	.LVL202:
 202:mini3d/render.c **** }
 2500              		.loc 1 202 18 view .LVU629
 2501              	.LBE221:
ARM GAS  /var/folders/cs/83z6p2tj4w57s6p2rt8nwfp00000gn/T//ccDzWS9O.s 			page 61


 2502              	.LBE225:
 290:mini3d/render.c **** 	{
 2503              		.loc 1 290 2 is_stmt 1 view .LVU630
 2504              	@ mini3d/render.c:290: 	if ( y < 0 )
 290:mini3d/render.c **** 	{
 2505              		.loc 1 290 5 is_stmt 0 view .LVU631
 2506 00bc 002C     		cmp	r4, #0	@ y,
 2507 00be 02DA     		bge	.L162		@,
 292:mini3d/render.c **** 		y = 0;
 2508              		.loc 1 292 3 is_stmt 1 view .LVU632
 2509              	@ mini3d/render.c:292: 		x += -y * dx;
 292:mini3d/render.c **** 		y = 0;
 2510              		.loc 1 292 5 is_stmt 0 view .LVU633
 2511 00c0 04FB1822 		mls	r2, r4, r8, r2	@ x, y, _80, x
 2512              	.LVL203:
 293:mini3d/render.c **** 	}
 2513              		.loc 1 293 3 is_stmt 1 view .LVU634
 2514              	@ mini3d/render.c:293: 		y = 0;
 293:mini3d/render.c **** 	}
 2515              		.loc 1 293 5 is_stmt 0 view .LVU635
 2516 00c4 0024     		movs	r4, #0	@ y,
 2517              	.LVL204:
 2518              	.L162:
 293:mini3d/render.c **** 	}
 2519              		.loc 1 293 5 view .LVU636
 2520 00c6 06FB040A 		mla	r10, r6, r4, r0	@ ivtmp.200, rowstride, y, bitmap
 2521 00ca 0197     		str	r7, [sp, #4]	@ p1, %sfp
 2522 00cc 5746     		mov	r7, r10	@ ivtmp.200, ivtmp.200
 2523              	.LVL205:
 293:mini3d/render.c **** 	}
 2524              		.loc 1 293 5 view .LVU637
 2525 00ce DDF83CA0 		ldr	r10, [sp, #60]	@ pattern, pattern
 2526 00d2 10E0     		b	.L163		@
 2527              	.LVL206:
 2528              	.L166:
 2529              	.LBB226:
 305:mini3d/render.c **** 		
 2530              		.loc 1 305 4 is_stmt 1 view .LVU638
 2531              	@ mini3d/render.c:305: 			drawFragment((uint32_t*)&bitmap[y*rowstride], x>>16, (x1>>16) + thick, co
 305:mini3d/render.c **** 		
 2532              		.loc 1 305 51 is_stmt 0 view .LVU639
 2533 00d4 1114     		asrs	r1, r2, #16	@ _36, x,
 2534              	.LVL207:
 2535              	.LBB227:
 2536              	.LBI227:
  92:mini3d/render.c **** {
 2537              		.loc 1 92 1 is_stmt 1 view .LVU640
 2538              	.LBB228:
  94:mini3d/render.c **** 		return;
 2539              		.loc 1 94 2 view .LVU641
 2540              	@ mini3d/render.c:94: 	if ( x2 < 0 || x1 >= LCD_COLUMNS )
  94:mini3d/render.c **** 		return;
 2541              		.loc 1 94 5 is_stmt 0 view .LVU642
 2542 00d6 0E9A     		ldr	r2, [sp, #56]	@ tmp280, thick
 2543              	.LVL208:
  94:mini3d/render.c **** 		return;
 2544              		.loc 1 94 5 view .LVU643
ARM GAS  /var/folders/cs/83z6p2tj4w57s6p2rt8nwfp00000gn/T//ccDzWS9O.s 			page 62


 2545 00d8 12EB2B42 		adds	r2, r2, fp, asr #16	@, _38, tmp280, iftmp.13_45,
 2546              	.LVL209:
  94:mini3d/render.c **** 		return;
 2547              		.loc 1 94 5 view .LVU644
 2548 00dc 06D4     		bmi	.L167		@,
 2549              	.LVL210:
 2550              	.L186:
  94:mini3d/render.c **** 		return;
 2551              		.loc 1 94 5 view .LVU645
 2552 00de 40F28F10 		movw	r0, #399	@ tmp282,
 2553 00e2 8142     		cmp	r1, r0	@ _36, tmp282
 2554 00e4 02DC     		bgt	.L167		@,
 2555 00e6 3846     		mov	r0, r7	@, ivtmp.200
 2556 00e8 FFF7FEFF 		bl	drawFragment.part.0		@
 2557              	.LVL211:
 2558              	.L167:
  94:mini3d/render.c **** 		return;
 2559              		.loc 1 94 5 view .LVU646
 2560              	.LBE228:
 2561              	.LBE227:
 307:mini3d/render.c **** 			break;
 2562              		.loc 1 307 3 is_stmt 1 view .LVU647
 2563              	@ mini3d/render.c:307: 		if ( ++y == LCD_ROWS )
 307:mini3d/render.c **** 			break;
 2564              		.loc 1 307 6 is_stmt 0 view .LVU648
 2565 00ec 0134     		adds	r4, r4, #1	@ y, y,
 2566              	.LVL212:
 307:mini3d/render.c **** 			break;
 2567              		.loc 1 307 6 view .LVU649
 2568 00ee 3744     		add	r7, r7, r6	@ ivtmp.200, rowstride
 2569 00f0 F02C     		cmp	r4, #240	@ y,
 2570 00f2 26D0     		beq	.L187		@,
 2571              	.L173:
 307:mini3d/render.c **** 			break;
 2572              		.loc 1 307 6 view .LVU650
 2573 00f4 5A46     		mov	r2, fp	@ x, iftmp.13_45
 2574              	.LVL213:
 2575              	.L163:
 307:mini3d/render.c **** 			break;
 2576              		.loc 1 307 6 view .LVU651
 2577              	.LBE226:
 296:mini3d/render.c **** 	{
 2578              		.loc 1 296 8 is_stmt 1 view .LVU652
 2579 00f6 4C45     		cmp	r4, r9	@ y, endy
 2580 00f8 23DC     		bgt	.L187		@,
 2581              	.LBB233:
 298:mini3d/render.c **** 		uint32_t color = (p<<24) | (p<<16) | (p<<8) | p;
 2582              		.loc 1 298 3 view .LVU653
 2583              	.LVL214:
 299:mini3d/render.c **** 		int32_t x1 = (y < endy) ? x+dx : p2->x * (1<<16);
 2584              		.loc 1 299 3 view .LVU654
 2585              	@ mini3d/render.c:298: 		uint8_t p = pattern[y%8];
 298:mini3d/render.c **** 		uint32_t color = (p<<24) | (p<<16) | (p<<8) | p;
 2586              		.loc 1 298 24 is_stmt 0 view .LVU655
 2587 00fa 04F00703 		and	r3, r4, #7	@ tmp201, y,
 2588              	@ mini3d/render.c:299: 		uint32_t color = (p<<24) | (p<<16) | (p<<8) | p;
 299:mini3d/render.c **** 		int32_t x1 = (y < endy) ? x+dx : p2->x * (1<<16);
ARM GAS  /var/folders/cs/83z6p2tj4w57s6p2rt8nwfp00000gn/T//ccDzWS9O.s 			page 63


 2589              		.loc 1 299 22 view .LVU656
 2590 00fe 1AF80310 		ldrb	r1, [r10, r3]	@ zero_extendqisi2	@ _16, *_15
 2591              	@ mini3d/render.c:299: 		uint32_t color = (p<<24) | (p<<16) | (p<<8) | p;
 299:mini3d/render.c **** 		int32_t x1 = (y < endy) ? x+dx : p2->x * (1<<16);
 2592              		.loc 1 299 32 view .LVU657
 2593 0102 4FEA0143 		lsl	r3, r1, #16	@ tmp203, _16,
 2594              	@ mini3d/render.c:299: 		uint32_t color = (p<<24) | (p<<16) | (p<<8) | p;
 299:mini3d/render.c **** 		int32_t x1 = (y < endy) ? x+dx : p2->x * (1<<16);
 2595              		.loc 1 299 28 view .LVU658
 2596 0106 43EA0163 		orr	r3, r3, r1, lsl #24	@ tmp204, tmp203, _16,
 2597              	@ mini3d/render.c:299: 		uint32_t color = (p<<24) | (p<<16) | (p<<8) | p;
 299:mini3d/render.c **** 		int32_t x1 = (y < endy) ? x+dx : p2->x * (1<<16);
 2598              		.loc 1 299 47 view .LVU659
 2599 010a 43EA0103 		orr	r3, r3, r1	@ tmp205, tmp204, _16
 2600 010e 43EA0123 		orr	r3, r3, r1, lsl #8	@ color, tmp205, _16,
 2601              	.LVL215:
 300:mini3d/render.c **** 		
 2602              		.loc 1 300 3 is_stmt 1 view .LVU660
 2603              	@ mini3d/render.c:300: 		int32_t x1 = (y < endy) ? x+dx : p2->x * (1<<16);
 300:mini3d/render.c **** 		
 2604              		.loc 1 300 11 is_stmt 0 view .LVU661
 2605 0112 58DA     		bge	.L164		@,
 2606              	@ mini3d/render.c:300: 		int32_t x1 = (y < endy) ? x+dx : p2->x * (1<<16);
 300:mini3d/render.c **** 		
 2607              		.loc 1 300 30 discriminator 1 view .LVU662
 2608 0114 02EB0801 		add	r1, r2, r8	@ tmp207, x, _80
 2609 0118 07EE901A 		vmov	s15, r1	@ int	@ tmp207, tmp207
 2610              	@ mini3d/render.c:300: 		int32_t x1 = (y < endy) ? x+dx : p2->x * (1<<16);
 300:mini3d/render.c **** 		
 2611              		.loc 1 300 11 discriminator 1 view .LVU663
 2612 011c F8EEE77A 		vcvt.f32.s32	s15, s15	@ tmp208, tmp207
 2613 0120 FDEEE77A 		vcvt.s32.f32	s15, s15	@ iftmp.13_45, tmp208
 2614 0124 17EE90BA 		vmov	fp, s15	@ int	@ iftmp.13_45, iftmp.13_45
 2615              	.L165:
 2616              	.LVL216:
 302:mini3d/render.c **** 			drawFragment((uint32_t*)&bitmap[y*rowstride], x1>>16, (x>>16) + thick, color);
 2617              		.loc 1 302 3 is_stmt 1 discriminator 4 view .LVU664
 2618              	@ mini3d/render.c:302: 		if ( dx < 0 )
 302:mini3d/render.c **** 			drawFragment((uint32_t*)&bitmap[y*rowstride], x1>>16, (x>>16) + thick, color);
 2619              		.loc 1 302 6 is_stmt 0 discriminator 4 view .LVU665
 2620 0128 B8F1000F 		cmp	r8, #0	@ _80,
 2621 012c D2DA     		bge	.L166		@,
 303:mini3d/render.c **** 		else
 2622              		.loc 1 303 4 is_stmt 1 view .LVU666
 2623              	.LVL217:
 2624              	.LBB229:
 2625              	.LBB230:
 2626              	@ mini3d/render.c:94: 	if ( x2 < 0 || x1 >= LCD_COLUMNS )
  94:mini3d/render.c **** 		return;
 2627              		.loc 1 94 5 is_stmt 0 view .LVU667
 2628 012e 0E98     		ldr	r0, [sp, #56]	@ tmp277, thick
 2629              	.LBE230:
 2630              	.LBE229:
 2631              	@ mini3d/render.c:303: 			drawFragment((uint32_t*)&bitmap[y*rowstride], x1>>16, (x>>16) + thick, co
 303:mini3d/render.c **** 		else
 2632              		.loc 1 303 52 view .LVU668
 2633 0130 4FEA2B41 		asr	r1, fp, #16	@ _30, iftmp.13_45,
ARM GAS  /var/folders/cs/83z6p2tj4w57s6p2rt8nwfp00000gn/T//ccDzWS9O.s 			page 64


 2634              	.LVL218:
 2635              	.LBB232:
 2636              	.LBI229:
  92:mini3d/render.c **** {
 2637              		.loc 1 92 1 is_stmt 1 view .LVU669
 2638              	.LBB231:
  94:mini3d/render.c **** 		return;
 2639              		.loc 1 94 2 view .LVU670
 2640              	@ mini3d/render.c:94: 	if ( x2 < 0 || x1 >= LCD_COLUMNS )
  94:mini3d/render.c **** 		return;
 2641              		.loc 1 94 5 is_stmt 0 view .LVU671
 2642 0134 10EB2242 		adds	r2, r0, r2, asr #16	@, _32, tmp277, x,
 2643              	.LVL219:
  94:mini3d/render.c **** 		return;
 2644              		.loc 1 94 5 view .LVU672
 2645 0138 D1D5     		bpl	.L186		@,
 2646              	.LVL220:
  94:mini3d/render.c **** 		return;
 2647              		.loc 1 94 5 view .LVU673
 2648              	.LBE231:
 2649              	.LBE232:
 307:mini3d/render.c **** 			break;
 2650              		.loc 1 307 3 is_stmt 1 view .LVU674
 2651              	@ mini3d/render.c:307: 		if ( ++y == LCD_ROWS )
 307:mini3d/render.c **** 			break;
 2652              		.loc 1 307 6 is_stmt 0 view .LVU675
 2653 013a 0134     		adds	r4, r4, #1	@ y, y,
 2654              	.LVL221:
 307:mini3d/render.c **** 			break;
 2655              		.loc 1 307 6 view .LVU676
 2656 013c 3744     		add	r7, r7, r6	@ ivtmp.200, rowstride
 2657 013e F02C     		cmp	r4, #240	@ y,
 2658 0140 D8D1     		bne	.L173		@,
 2659              	.LVL222:
 2660              	.L187:
 307:mini3d/render.c **** 			break;
 2661              		.loc 1 307 6 view .LVU677
 2662 0142 019F     		ldr	r7, [sp, #4]	@ p1, %sfp
 2663              	.LBE233:
 313:mini3d/render.c **** }
 2664              		.loc 1 313 2 is_stmt 1 view .LVU678
 2665              	@ mini3d/render.c:313: 	return (LCDRowRange){ MAX(0, p1->y), MIN(LCD_ROWS, p2->y) };
 313:mini3d/render.c **** }
 2666              		.loc 1 313 24 is_stmt 0 view .LVU679
 2667 0144 D7ED017A 		vldr.32	s15, [r7, #4]	@ _39, p1_41->y
 2668              	@ mini3d/render.c:313: 	return (LCDRowRange){ MAX(0, p1->y), MIN(LCD_ROWS, p2->y) };
 313:mini3d/render.c **** }
 2669              		.loc 1 313 9 view .LVU680
 2670 0148 F5EEC07A 		vcmpe.f32	s15, #0	@ _39
 2671 014c F1EE10FA 		vmrs	APSR_nzcv, FPSCR
 2672 0150 44D4     		bmi	.L191		@,
 2673              	@ mini3d/render.c:313: 	return (LCDRowRange){ MAX(0, p1->y), MIN(LCD_ROWS, p2->y) };
 313:mini3d/render.c **** }
 2674              		.loc 1 313 9 discriminator 2 view .LVU681
 2675 0152 FDEEE77A 		vcvt.s32.f32	s15, s15	@ tmp232, _39
 2676 0156 17EE903A 		vmov	r3, s15	@ int	@ tmp232, tmp232
 2677 015a 1BB2     		sxth	r3, r3	@ iftmp.14_46, tmp232
ARM GAS  /var/folders/cs/83z6p2tj4w57s6p2rt8nwfp00000gn/T//ccDzWS9O.s 			page 65


 2678              	.L168:
 2679              	@ mini3d/render.c:313: 	return (LCDRowRange){ MAX(0, p1->y), MIN(LCD_ROWS, p2->y) };
 313:mini3d/render.c **** }
 2680              		.loc 1 313 39 discriminator 4 view .LVU682
 2681 015c D5ED017A 		vldr.32	s15, [r5, #4]	@ _40, p2_42->y
 2682              	@ mini3d/render.c:313: 	return (LCDRowRange){ MAX(0, p1->y), MIN(LCD_ROWS, p2->y) };
 313:mini3d/render.c **** }
 2683              		.loc 1 313 9 discriminator 4 view .LVU683
 2684 0160 9FED207A 		vldr.32	s14, .L192+4	@ tmp233,
 2685 0164 F4EEC77A 		vcmpe.f32	s15, s14	@ _40, tmp233
 2686 0168 F1EE10FA 		vmrs	APSR_nzcv, FPSCR
 2687 016c 34DC     		bgt	.L175		@,
 2688              	@ mini3d/render.c:313: 	return (LCDRowRange){ MAX(0, p1->y), MIN(LCD_ROWS, p2->y) };
 313:mini3d/render.c **** }
 2689              		.loc 1 313 9 discriminator 6 view .LVU684
 2690 016e FDEEE77A 		vcvt.s32.f32	s15, s15	@ tmp235, _40
 2691 0172 17EE902A 		vmov	r2, s15	@ int	@ tmp235, tmp235
 2692 0176 12B2     		sxth	r2, r2	@ iftmp.15_47, tmp235
 2693              	.L172:
 2694              	@ mini3d/render.c:313: 	return (LCDRowRange){ MAX(0, p1->y), MIN(LCD_ROWS, p2->y) };
 313:mini3d/render.c **** }
 2695              		.loc 1 313 9 discriminator 8 view .LVU685
 2696 0178 ADF80C30 		strh	r3, [sp, #12]	@ movhi	@ iftmp.14_46, D.7717.start
 2697 017c ADF80E20 		strh	r2, [sp, #14]	@ movhi	@ iftmp.15_47, D.7717.end
 2698 0180 07E0     		b	.L158		@
 2699              	.LVL223:
 2700              	.L189:
 2701              	@ mini3d/render.c:284: 	if ( y >= LCD_ROWS || endy < 0 || MIN(p1->x, p2->x) >= LCD_COLUMNS || MAX(p
 284:mini3d/render.c **** 		return (LCDRowRange){ 0, 0 };
 2702              		.loc 1 284 33 discriminator 2 view .LVU686
 2703 0182 B4EEE56A 		vcmpe.f32	s12, s11	@ _8, tmp185
 2704 0186 F1EE10FA 		vmrs	APSR_nzcv, FPSCR
 2705 018a FFF671AF 		blt	.L153		@,
 2706              	.L150:
 2707              	.LBB234:
 285:mini3d/render.c **** 	
 2708              		.loc 1 285 3 is_stmt 1 view .LVU687
 2709              	@ mini3d/render.c:285: 		return (LCDRowRange){ 0, 0 };
 285:mini3d/render.c **** 	
 2710              		.loc 1 285 10 is_stmt 0 view .LVU688
 2711 018e 0023     		movs	r3, #0	@ tmp189,
 2712 0190 0393     		str	r3, [sp, #12]	@ tmp189, MEM[(short int *)&D.7717]
 2713              	.LVL224:
 2714              	.L158:
 285:mini3d/render.c **** 	
 2715              		.loc 1 285 10 view .LVU689
 2716 0192 BDF80C20 		ldrh	r2, [sp, #12]	@ D.7717, D.7717
 2717 0196 0020     		movs	r0, #0	@ D.7717,
 2718 0198 BDF80E30 		ldrh	r3, [sp, #14]	@ D.7717, D.7717
 2719 019c 62F30F00 		bfi	r0, r2, #0, #16	@ D.7717, D.7717,,
 2720 01a0 63F31F40 		bfi	r0, r3, #16, #16	@ D.7717, D.7717,,
 2721              	.LBE234:
 2722              	@ mini3d/render.c:314: }
 314:mini3d/render.c **** 
 2723              		.loc 1 314 1 discriminator 1 view .LVU690
 2724 01a4 05B0     		add	sp, sp, #20	@,,
 2725              	.LCFI23:
ARM GAS  /var/folders/cs/83z6p2tj4w57s6p2rt8nwfp00000gn/T//ccDzWS9O.s 			page 66


 2726              		.cfi_remember_state
 2727              		.cfi_def_cfa_offset 36
 2728              		@ sp needed	@
 2729 01a6 BDE8F08F 		pop	{r4, r5, r6, r7, r8, r9, r10, fp, pc}	@
 2730              	.LVL225:
 2731              	.L181:
 2732              	.LCFI24:
 2733              		.cfi_restore_state
 2734              	@ mini3d/render.c:284: 	if ( y >= LCD_ROWS || endy < 0 || MIN(p1->x, p2->x) >= LCD_COLUMNS || MAX(p
 284:mini3d/render.c **** 		return (LCDRowRange){ 0, 0 };
 2735              		.loc 1 284 90 discriminator 6 view .LVU691
 2736 01aa F5EEC06A 		vcmpe.f32	s13, #0	@ _9
 2737 01ae F1EE10FA 		vmrs	APSR_nzcv, FPSCR
 2738 01b2 7FF569AF 		bpl	.L156		@,
 2739 01b6 EAE7     		b	.L150		@
 2740              	.LVL226:
 2741              	.L190:
 2742              	.LBB235:
 2743              	.LBB222:
 200:mini3d/render.c **** 	else
 2744              		.loc 1 200 3 is_stmt 1 view .LVU692
 2745              	@ mini3d/render.c:200: 		return dx * (1<<16);
 200:mini3d/render.c **** 	else
 2746              		.loc 1 200 13 is_stmt 0 view .LVU693
 2747 01b8 F0EE667A 		vmov.f32	s15, s13	@ _80, dx
 2748              	.LVL227:
 200:mini3d/render.c **** 	else
 2749              		.loc 1 200 13 view .LVU694
 2750 01bc FEEEC87A 		vcvt.s32.f32	s15, s15, #16	@ _80, _80,
 2751 01c0 17EE908A 		vmov	r8, s15	@ int	@ _80, _80
 2752 01c4 7AE7     		b	.L161		@
 2753              	.LVL228:
 2754              	.L164:
 200:mini3d/render.c **** 	else
 2755              		.loc 1 200 13 view .LVU695
 2756              	.LBE222:
 2757              	.LBE235:
 2758              	.LBB236:
 2759              	@ mini3d/render.c:300: 		int32_t x1 = (y < endy) ? x+dx : p2->x * (1<<16);
 300:mini3d/render.c **** 		
 2760              		.loc 1 300 42 discriminator 2 view .LVU696
 2761 01c6 D5ED007A 		vldr.32	s15, [r5]	@ p2_42->x, p2_42->x
 2762              	@ mini3d/render.c:300: 		int32_t x1 = (y < endy) ? x+dx : p2->x * (1<<16);
 300:mini3d/render.c **** 		
 2763              		.loc 1 300 11 discriminator 2 view .LVU697
 2764 01ca B0EE677A 		vmov.f32	s14, s15	@ iftmp.13_45, p2_42->x
 2765 01ce BEEEC87A 		vcvt.s32.f32	s14, s14, #16	@ iftmp.13_45, iftmp.13_45,
 2766 01d2 17EE10BA 		vmov	fp, s14	@ int	@ iftmp.13_45, iftmp.13_45
 2767 01d6 A7E7     		b	.L165		@
 2768              	.LVL229:
 2769              	.L175:
 300:mini3d/render.c **** 		
 2770              		.loc 1 300 11 discriminator 2 view .LVU698
 2771              	.LBE236:
 2772              	@ mini3d/render.c:313: 	return (LCDRowRange){ MAX(0, p1->y), MIN(LCD_ROWS, p2->y) };
 313:mini3d/render.c **** }
 2773              		.loc 1 313 9 view .LVU699
ARM GAS  /var/folders/cs/83z6p2tj4w57s6p2rt8nwfp00000gn/T//ccDzWS9O.s 			page 67


 2774 01d8 F022     		movs	r2, #240	@ iftmp.15_47,
 2775 01da CDE7     		b	.L172		@
 2776              	.L191:
 313:mini3d/render.c **** }
 2777              		.loc 1 313 9 view .LVU700
 2778 01dc 0023     		movs	r3, #0	@ iftmp.14_46,
 2779 01de BDE7     		b	.L168		@
 2780              	.L193:
 2781              		.align	2
 2782              	.L192:
 2783 01e0 0000C843 		.word	1137180672
 2784 01e4 00007043 		.word	1131413504
 2785              		.cfi_endproc
 2786              	.LFE19:
 2787              		.size	drawLine, .-drawLine
 2788              		.section	.text.fillTriangle,"ax",%progbits
 2789              		.align	1
 2790              		.p2align 4,,15
 2791              		.global	fillTriangle
 2792              		.syntax unified
 2793              		.thumb
 2794              		.thumb_func
 2795              		.fpu fpv5-sp-d16
 2796              		.type	fillTriangle, %function
 2797              	fillTriangle:
 2798              	.LVL230:
 2799              	.LFB23:
 391:mini3d/render.c **** #endif
 392:mini3d/render.c **** 
 393:mini3d/render.c **** static inline void sortTri(Point3D** p1, Point3D** p2, Point3D** p3)
 394:mini3d/render.c **** {
 395:mini3d/render.c **** 	float y1 = (*p1)->y, y2 = (*p2)->y, y3 = (*p3)->y;
 396:mini3d/render.c **** 	
 397:mini3d/render.c **** 	if ( y1 <= y2 && y1 < y3 )
 398:mini3d/render.c **** 	{
 399:mini3d/render.c **** 		if ( y3 < y2 ) // 1,3,2
 400:mini3d/render.c **** 		{
 401:mini3d/render.c **** 			Point3D* tmp = *p2;
 402:mini3d/render.c **** 			*p2 = *p3;
 403:mini3d/render.c **** 			*p3 = tmp;
 404:mini3d/render.c **** 		}
 405:mini3d/render.c **** 	}
 406:mini3d/render.c **** 	else if ( y2 < y1 && y2 < y3 )
 407:mini3d/render.c **** 	{
 408:mini3d/render.c **** 		Point3D* tmp = *p1;
 409:mini3d/render.c **** 		*p1 = *p2;
 410:mini3d/render.c **** 
 411:mini3d/render.c **** 		if ( y3 < y1 ) // 2,3,1
 412:mini3d/render.c **** 		{
 413:mini3d/render.c **** 			*p2 = *p3;
 414:mini3d/render.c **** 			*p3 = tmp;
 415:mini3d/render.c **** 		}
 416:mini3d/render.c **** 		else // 2,1,3
 417:mini3d/render.c **** 			*p2 = tmp;
 418:mini3d/render.c **** 	}
 419:mini3d/render.c **** 	else
 420:mini3d/render.c **** 	{
ARM GAS  /var/folders/cs/83z6p2tj4w57s6p2rt8nwfp00000gn/T//ccDzWS9O.s 			page 68


 421:mini3d/render.c **** 		Point3D* tmp = *p1;
 422:mini3d/render.c **** 		*p1 = *p3;
 423:mini3d/render.c **** 		
 424:mini3d/render.c **** 		if ( y1 < y2 ) // 3,1,2
 425:mini3d/render.c **** 		{
 426:mini3d/render.c **** 			*p3 = *p2;
 427:mini3d/render.c **** 			*p2 = tmp;
 428:mini3d/render.c **** 		}
 429:mini3d/render.c **** 		else // 3,2,1
 430:mini3d/render.c **** 			*p3 = tmp;
 431:mini3d/render.c **** 	}
 432:mini3d/render.c **** 
 433:mini3d/render.c **** }
 434:mini3d/render.c **** 
 435:mini3d/render.c **** LCDRowRange fillTriangle(uint8_t* bitmap, int rowstride, Point3D* p1, Point3D* p2, Point3D* p3, uin
 436:mini3d/render.c **** {
 2800              		.loc 1 436 1 is_stmt 1 view -0
 2801              		.cfi_startproc
 2802              		@ args = 8, pretend = 0, frame = 40
 2803              		@ frame_needed = 0, uses_anonymous_args = 0
 437:mini3d/render.c **** 	// sort by y coord
 438:mini3d/render.c **** 	
 439:mini3d/render.c **** 	sortTri(&p1, &p2, &p3);
 2804              		.loc 1 439 2 view .LVU702
 2805              	.LBB249:
 2806              	.LBI249:
 393:mini3d/render.c **** {
 2807              		.loc 1 393 20 view .LVU703
 2808              	.LBB250:
 395:mini3d/render.c **** 	
 2809              		.loc 1 395 2 view .LVU704
 2810              	@ mini3d/render.c:395: 	float y1 = (*p1)->y, y2 = (*p2)->y, y3 = (*p3)->y;
 395:mini3d/render.c **** 	
 2811              		.loc 1 395 8 is_stmt 0 view .LVU705
 2812 0000 D2ED016A 		vldr.32	s13, [r2, #4]	@ y1, p1_102(D)->y
 2813              	.LVL231:
 2814              	@ mini3d/render.c:395: 	float y1 = (*p1)->y, y2 = (*p2)->y, y3 = (*p3)->y;
 395:mini3d/render.c **** 	
 2815              		.loc 1 395 23 view .LVU706
 2816 0004 D3ED017A 		vldr.32	s15, [r3, #4]	@ y2, p2_103(D)->y
 2817              	.LVL232:
 2818              	@ mini3d/render.c:397: 	if ( y1 <= y2 && y1 < y3 )
 397:mini3d/render.c **** 	{
 2819              		.loc 1 397 5 view .LVU707
 2820 0008 F4EEE76A 		vcmpe.f32	s13, s15	@ y1, y2
 2821              	.LBE250:
 2822              	.LBE249:
 2823              	@ mini3d/render.c:436: {
 436:mini3d/render.c **** 	// sort by y coord
 2824              		.loc 1 436 1 view .LVU708
 2825 000c 2DE9F04F 		push	{r4, r5, r6, r7, r8, r9, r10, fp, lr}	@
 2826              	.LCFI25:
 2827              		.cfi_def_cfa_offset 36
 2828              		.cfi_offset 4, -36
 2829              		.cfi_offset 5, -32
 2830              		.cfi_offset 6, -28
 2831              		.cfi_offset 7, -24
ARM GAS  /var/folders/cs/83z6p2tj4w57s6p2rt8nwfp00000gn/T//ccDzWS9O.s 			page 69


 2832              		.cfi_offset 8, -20
 2833              		.cfi_offset 9, -16
 2834              		.cfi_offset 10, -12
 2835              		.cfi_offset 11, -8
 2836              		.cfi_offset 14, -4
 2837 0010 91B0     		sub	sp, sp, #68	@,,
 2838              	.LCFI26:
 2839              		.cfi_def_cfa_offset 104
 2840              	.LBB259:
 2841              	.LBB254:
 2842              	@ mini3d/render.c:397: 	if ( y1 <= y2 && y1 < y3 )
 397:mini3d/render.c **** 	{
 2843              		.loc 1 397 5 view .LVU709
 2844 0012 F1EE10FA 		vmrs	APSR_nzcv, FPSCR
 2845              	.LBE254:
 2846              	.LBE259:
 2847              	@ mini3d/render.c:436: {
 436:mini3d/render.c **** 	// sort by y coord
 2848              		.loc 1 436 1 view .LVU710
 2849 0016 1446     		mov	r4, r2	@ p1, tmp228
 2850 0018 1D46     		mov	r5, r3	@ p2, tmp229
 2851 001a DDF86880 		ldr	r8, [sp, #104]	@ p3, p3
 2852              	.LBB260:
 2853              	.LBB255:
 2854              	@ mini3d/render.c:395: 	float y1 = (*p1)->y, y2 = (*p2)->y, y3 = (*p3)->y;
 395:mini3d/render.c **** 	
 2855              		.loc 1 395 38 view .LVU711
 2856 001e 98ED017A 		vldr.32	s14, [r8, #4]	@ y3, p3_104(D)->y
 2857              	.LVL233:
 397:mini3d/render.c **** 	{
 2858              		.loc 1 397 2 is_stmt 1 view .LVU712
 2859              	@ mini3d/render.c:397: 	if ( y1 <= y2 && y1 < y3 )
 397:mini3d/render.c **** 	{
 2860              		.loc 1 397 5 is_stmt 0 view .LVU713
 2861 0022 00F2C780 		bhi	.L195		@,
 2862              	@ mini3d/render.c:397: 	if ( y1 <= y2 && y1 < y3 )
 397:mini3d/render.c **** 	{
 2863              		.loc 1 397 16 view .LVU714
 2864 0026 F4EEC76A 		vcmpe.f32	s13, s14	@ y1, y3
 2865 002a F1EE10FA 		vmrs	APSR_nzcv, FPSCR
 2866 002e 40F1C180 		bpl	.L195		@,
 399:mini3d/render.c **** 		{
 2867              		.loc 1 399 3 is_stmt 1 view .LVU715
 2868              	@ mini3d/render.c:399: 		if ( y3 < y2 ) // 1,3,2
 399:mini3d/render.c **** 		{
 2869              		.loc 1 399 6 is_stmt 0 view .LVU716
 2870 0032 F4EEC77A 		vcmpe.f32	s15, s14	@ y2, y3
 2871 0036 4346     		mov	r3, r8	@ p3, p3
 2872              	.LVL234:
 399:mini3d/render.c **** 		{
 2873              		.loc 1 399 6 view .LVU717
 2874 0038 F1EE10FA 		vmrs	APSR_nzcv, FPSCR
 2875 003c 40F31581 		ble	.L234		@,
 2876 0040 B0EE667A 		vmov.f32	s14, s13	@ y3, y1
 2877              	.LVL235:
 399:mini3d/render.c **** 		{
 2878              		.loc 1 399 6 view .LVU718
ARM GAS  /var/folders/cs/83z6p2tj4w57s6p2rt8nwfp00000gn/T//ccDzWS9O.s 			page 70


 2879 0044 9046     		mov	r8, r2	@ p3, p1
 2880 0046 1C46     		mov	r4, r3	@ p1, p3
 2881              	.LVL236:
 2882              	.L198:
 399:mini3d/render.c **** 		{
 2883              		.loc 1 399 6 view .LVU719
 2884              	.LBE255:
 2885              	.LBE260:
 440:mini3d/render.c **** 	
 441:mini3d/render.c **** 	int endy = MIN(LCD_ROWS, p3->y);
 2886              		.loc 1 441 2 is_stmt 1 view .LVU720
 2887              	@ mini3d/render.c:441: 	int endy = MIN(LCD_ROWS, p3->y);
 2888              		.loc 1 441 6 is_stmt 0 view .LVU721
 2889 0048 DFED976A 		vldr.32	s13, .L244	@ tmp168,
 2890 004c F4EEE67A 		vcmpe.f32	s15, s13	@ y2, tmp168
 2891 0050 F1EE10FA 		vmrs	APSR_nzcv, FPSCR
 2892              	@ mini3d/render.c:443: 	if ( p1->y > LCD_ROWS || endy < 0 )
 442:mini3d/render.c **** 	
 443:mini3d/render.c **** 	if ( p1->y > LCD_ROWS || endy < 0 )
 2893              		.loc 1 443 5 view .LVU722
 2894 0054 B4EEE67A 		vcmpe.f32	s14, s13	@ y3, tmp168
 2895              	@ mini3d/render.c:441: 	int endy = MIN(LCD_ROWS, p3->y);
 441:mini3d/render.c **** 	
 2896              		.loc 1 441 6 view .LVU723
 2897 0058 40F3D180 		ble	.L235		@,
 2898              	.LVL237:
 2899              		.loc 1 443 2 is_stmt 1 view .LVU724
 2900              	@ mini3d/render.c:443: 	if ( p1->y > LCD_ROWS || endy < 0 )
 2901              		.loc 1 443 5 is_stmt 0 view .LVU725
 2902 005c F1EE10FA 		vmrs	APSR_nzcv, FPSCR
 2903 0060 00F3D780 		bgt	.L205		@,
 2904 0064 4FF0F00A 		mov	r10, #240	@ prephitmp_28,
 2905              	@ mini3d/render.c:441: 	int endy = MIN(LCD_ROWS, p3->y);
 441:mini3d/render.c **** 	
 2906              		.loc 1 441 6 view .LVU726
 2907 0068 D346     		mov	fp, r10	@ iftmp.19_35, prephitmp_28
 2908              	.LVL238:
 2909              	.L206:
 444:mini3d/render.c **** 		return (LCDRowRange){ 0, 0 };
 445:mini3d/render.c **** 
 446:mini3d/render.c **** 	int32_t x1 = p1->x * (1<<16);
 2910              		.loc 1 446 2 is_stmt 1 view .LVU727
 2911              	@ mini3d/render.c:449: 	int32_t sb = slope(p1->x, p1->y, p2->x, p2->y);
 447:mini3d/render.c **** 	int32_t x2 = x1;
 448:mini3d/render.c **** 	
 449:mini3d/render.c **** 	int32_t sb = slope(p1->x, p1->y, p2->x, p2->y);
 2912              		.loc 1 449 15 is_stmt 0 view .LVU728
 2913 006a D4ED016A 		vldr.32	s13, [r4, #4]	@ _10, p2_100->y
 2914              	.LBB261:
 2915              	.LBB262:
 2916              	@ mini3d/render.c:199: 	if ( dy < 1 )
 199:mini3d/render.c **** 		return dx * (1<<16);
 2917              		.loc 1 199 5 view .LVU729
 2918 006e F7EE004A 		vmov.f32	s9, #1.0e+0	@ tmp175,
 2919              	.LBE262:
 2920              	.LBE261:
 2921              	@ mini3d/render.c:446: 	int32_t x1 = p1->x * (1<<16);
ARM GAS  /var/folders/cs/83z6p2tj4w57s6p2rt8nwfp00000gn/T//ccDzWS9O.s 			page 71


 446:mini3d/render.c **** 	int32_t x2 = x1;
 2922              		.loc 1 446 17 view .LVU730
 2923 0072 98ED006A 		vldr.32	s12, [r8]	@ _5, p1_99->x
 2924              	.LBB269:
 2925              	.LBB263:
 2926              	@ mini3d/render.c:197: 	float dy = y2-y1;
 197:mini3d/render.c **** 	
 2927              		.loc 1 197 8 view .LVU731
 2928 0076 36EEC75A 		vsub.f32	s10, s13, s14	@ dy, _10, y3
 2929              	.LBE263:
 2930              	.LBE269:
 2931              	@ mini3d/render.c:446: 	int32_t x1 = p1->x * (1<<16);
 446:mini3d/render.c **** 	int32_t x2 = x1;
 2932              		.loc 1 446 10 view .LVU732
 2933 007a F0EE465A 		vmov.f32	s11, s12	@ _7, _5
 2934              	.LBB270:
 2935              	.LBB264:
 2936              	@ mini3d/render.c:199: 	if ( dy < 1 )
 199:mini3d/render.c **** 		return dx * (1<<16);
 2937              		.loc 1 199 5 view .LVU733
 2938 007e B4EEE45A 		vcmpe.f32	s10, s9	@ dy, tmp175
 2939              	.LBE264:
 2940              	.LBE270:
 2941              	@ mini3d/render.c:446: 	int32_t x1 = p1->x * (1<<16);
 446:mini3d/render.c **** 	int32_t x2 = x1;
 2942              		.loc 1 446 10 view .LVU734
 2943 0082 FEEEC85A 		vcvt.s32.f32	s11, s11, #16	@ _7, _7,
 2944              	.LBB271:
 2945              	.LBB265:
 2946              	@ mini3d/render.c:199: 	if ( dy < 1 )
 199:mini3d/render.c **** 		return dx * (1<<16);
 2947              		.loc 1 199 5 view .LVU735
 2948 0086 F1EE10FA 		vmrs	APSR_nzcv, FPSCR
 2949              	.LBE265:
 2950              	.LBE271:
 2951              	@ mini3d/render.c:446: 	int32_t x1 = p1->x * (1<<16);
 446:mini3d/render.c **** 	int32_t x2 = x1;
 2952              		.loc 1 446 10 view .LVU736
 2953 008a 15EE903A 		vmov	r3, s11	@ int	@ _7, _7
 2954              	.LBB272:
 2955              	.LBB266:
 2956              	@ mini3d/render.c:196: 	float dx = x2-x1;
 196:mini3d/render.c **** 	float dy = y2-y1;
 2957              		.loc 1 196 8 view .LVU737
 2958 008e D4ED005A 		vldr.32	s11, [r4]	@ p2_100->x, p2_100->x
 2959              	.LBE266:
 2960              	.LBE272:
 2961              	@ mini3d/render.c:447: 	int32_t x2 = x1;
 447:mini3d/render.c **** 	
 2962              		.loc 1 447 10 view .LVU738
 2963 0092 CDE90D33 		strd	r3, r3, [sp, #52]	@ _7, _7,,
 2964              		.loc 1 449 2 is_stmt 1 view .LVU739
 2965              	.LVL239:
 2966              	.LBB273:
 2967              	.LBI261:
 194:mini3d/render.c **** {
 2968              		.loc 1 194 23 view .LVU740
ARM GAS  /var/folders/cs/83z6p2tj4w57s6p2rt8nwfp00000gn/T//ccDzWS9O.s 			page 72


 2969              	.LBB267:
 196:mini3d/render.c **** 	float dy = y2-y1;
 2970              		.loc 1 196 2 view .LVU741
 2971              	@ mini3d/render.c:196: 	float dx = x2-x1;
 196:mini3d/render.c **** 	float dy = y2-y1;
 2972              		.loc 1 196 8 is_stmt 0 view .LVU742
 2973 0096 75EEC65A 		vsub.f32	s11, s11, s12	@ dx, p2_100->x, _5
 2974              	.LVL240:
 197:mini3d/render.c **** 	
 2975              		.loc 1 197 2 is_stmt 1 view .LVU743
 199:mini3d/render.c **** 		return dx * (1<<16);
 2976              		.loc 1 199 2 view .LVU744
 2977              	@ mini3d/render.c:199: 	if ( dy < 1 )
 199:mini3d/render.c **** 		return dx * (1<<16);
 2978              		.loc 1 199 5 is_stmt 0 view .LVU745
 2979 009a 00F1F580 		bmi	.L240		@,
 202:mini3d/render.c **** }
 2980              		.loc 1 202 3 is_stmt 1 view .LVU746
 2981              	@ mini3d/render.c:202: 		return dx / dy * (1<<16);
 202:mini3d/render.c **** }
 2982              		.loc 1 202 13 is_stmt 0 view .LVU747
 2983 009e C5EE854A 		vdiv.f32	s9, s11, s10	@ tmp178, dx, dy
 2984              	@ mini3d/render.c:202: 		return dx / dy * (1<<16);
 202:mini3d/render.c **** }
 2985              		.loc 1 202 18 view .LVU748
 2986 00a2 F0EE645A 		vmov.f32	s11, s9	@ _70, tmp178
 2987              	.LVL241:
 202:mini3d/render.c **** }
 2988              		.loc 1 202 18 view .LVU749
 2989 00a6 FEEEC85A 		vcvt.s32.f32	s11, s11, #16	@ _70, _70,
 2990 00aa CDED075A 		vstr.32	s11, [sp, #28]	@ int	@ _70, %sfp
 2991              	.LVL242:
 2992              	.L210:
 202:mini3d/render.c **** }
 2993              		.loc 1 202 18 view .LVU750
 2994              	.LBE267:
 2995              	.LBE273:
 450:mini3d/render.c **** 	int32_t sc = slope(p1->x, p1->y, p3->x, p3->y);
 2996              		.loc 1 450 2 is_stmt 1 view .LVU751
 2997              	.LBB274:
 2998              	.LBI274:
 194:mini3d/render.c **** {
 2999              		.loc 1 194 23 view .LVU752
 3000              	.LBB275:
 196:mini3d/render.c **** 	float dy = y2-y1;
 3001              		.loc 1 196 2 view .LVU753
 3002              	@ mini3d/render.c:197: 	float dy = y2-y1;
 197:mini3d/render.c **** 	
 3003              		.loc 1 197 8 is_stmt 0 view .LVU754
 3004 00ae 77EEC77A 		vsub.f32	s15, s15, s14	@ dy, y2, y3
 3005              	@ mini3d/render.c:196: 	float dx = x2-x1;
 196:mini3d/render.c **** 	float dy = y2-y1;
 3006              		.loc 1 196 8 view .LVU755
 3007 00b2 D5ED005A 		vldr.32	s11, [r5]	@ p3_101->x, p3_101->x
 3008              	@ mini3d/render.c:199: 	if ( dy < 1 )
 199:mini3d/render.c **** 		return dx * (1<<16);
 3009              		.loc 1 199 5 view .LVU756
ARM GAS  /var/folders/cs/83z6p2tj4w57s6p2rt8nwfp00000gn/T//ccDzWS9O.s 			page 73


 3010 00b6 B7EE005A 		vmov.f32	s10, #1.0e+0	@ tmp182,
 3011              	@ mini3d/render.c:196: 	float dx = x2-x1;
 196:mini3d/render.c **** 	float dy = y2-y1;
 3012              		.loc 1 196 8 view .LVU757
 3013 00ba 35EEC66A 		vsub.f32	s12, s11, s12	@ dx, p3_101->x, _5
 3014              	.LVL243:
 197:mini3d/render.c **** 	
 3015              		.loc 1 197 2 is_stmt 1 view .LVU758
 199:mini3d/render.c **** 		return dx * (1<<16);
 3016              		.loc 1 199 2 view .LVU759
 3017              	@ mini3d/render.c:199: 	if ( dy < 1 )
 199:mini3d/render.c **** 		return dx * (1<<16);
 3018              		.loc 1 199 5 is_stmt 0 view .LVU760
 3019 00be F4EEC57A 		vcmpe.f32	s15, s10	@ dy, tmp182
 3020 00c2 F1EE10FA 		vmrs	APSR_nzcv, FPSCR
 3021 00c6 00F1D880 		bmi	.L241		@,
 202:mini3d/render.c **** }
 3022              		.loc 1 202 3 is_stmt 1 view .LVU761
 3023              	@ mini3d/render.c:202: 		return dx / dy * (1<<16);
 202:mini3d/render.c **** }
 3024              		.loc 1 202 13 is_stmt 0 view .LVU762
 3025 00ca C6EE275A 		vdiv.f32	s11, s12, s15	@ tmp185, dx, dy
 3026              	@ mini3d/render.c:202: 		return dx / dy * (1<<16);
 202:mini3d/render.c **** }
 3027              		.loc 1 202 18 view .LVU763
 3028 00ce F0EE657A 		vmov.f32	s15, s11	@ _62, tmp185
 3029              	.LVL244:
 202:mini3d/render.c **** }
 3030              		.loc 1 202 18 view .LVU764
 3031 00d2 FEEEC87A 		vcvt.s32.f32	s15, s15, #16	@ _62, _62,
 3032 00d6 17EE909A 		vmov	r9, s15	@ int	@ _62, _62
 3033              	.L213:
 3034              	.LVL245:
 202:mini3d/render.c **** }
 3035              		.loc 1 202 18 view .LVU765
 3036              	.LBE275:
 3037              	.LBE274:
 451:mini3d/render.c **** 
 452:mini3d/render.c **** 	int32_t dx1 = MIN(sb, sc);
 3038              		.loc 1 452 2 is_stmt 1 view .LVU766
 3039              	@ mini3d/render.c:452: 	int32_t dx1 = MIN(sb, sc);
 3040              		.loc 1 452 10 is_stmt 0 view .LVU767
 3041 00da 079B     		ldr	r3, [sp, #28]	@ _70, %sfp
 3042              	@ mini3d/render.c:455: 	fillRange(bitmap, rowstride, p1->y, MIN(LCD_ROWS, p2->y), &x1, dx1, &x2, dx
 453:mini3d/render.c **** 	int32_t dx2 = MAX(sb, sc);
 454:mini3d/render.c **** 	
 455:mini3d/render.c **** 	fillRange(bitmap, rowstride, p1->y, MIN(LCD_ROWS, p2->y), &x1, dx1, &x2, dx2, pattern);
 3043              		.loc 1 455 2 view .LVU768
 3044 00dc BDEEC77A 		vcvt.s32.f32	s14, s14	@ _12, y3
 3045 00e0 DFED717A 		vldr.32	s15, .L244	@ tmp188,
 3046              	@ mini3d/render.c:452: 	int32_t dx1 = MIN(sb, sc);
 452:mini3d/render.c **** 	int32_t dx2 = MAX(sb, sc);
 3047              		.loc 1 452 10 view .LVU769
 3048 00e4 4B45     		cmp	r3, r9	@ dx1, _62
 3049 00e6 1A46     		mov	r2, r3	@ dx1, _70
 3050              	@ mini3d/render.c:455: 	fillRange(bitmap, rowstride, p1->y, MIN(LCD_ROWS, p2->y), &x1, dx1, &x2, dx
 3051              		.loc 1 455 2 view .LVU770
ARM GAS  /var/folders/cs/83z6p2tj4w57s6p2rt8nwfp00000gn/T//ccDzWS9O.s 			page 74


 3052 00e8 F4EEE76A 		vcmpe.f32	s13, s15	@ _10, tmp188
 3053              	@ mini3d/render.c:452: 	int32_t dx1 = MIN(sb, sc);
 452:mini3d/render.c **** 	int32_t dx2 = MAX(sb, sc);
 3054              		.loc 1 452 10 view .LVU771
 3055 00ec A8BF     		it	ge
 3056 00ee 4A46     		movge	r2, r9	@ dx1, _62
 3057              	@ mini3d/render.c:453: 	int32_t dx2 = MAX(sb, sc);
 453:mini3d/render.c **** 	int32_t dx2 = MAX(sb, sc);
 3058              		.loc 1 453 10 view .LVU772
 3059 00f0 4B45     		cmp	r3, r9	@ dx2, _62
 3060 00f2 B8BF     		it	lt
 3061 00f4 4B46     		movlt	r3, r9	@ dx2, _62
 3062              	@ mini3d/render.c:455: 	fillRange(bitmap, rowstride, p1->y, MIN(LCD_ROWS, p2->y), &x1, dx1, &x2, dx
 3063              		.loc 1 455 2 view .LVU773
 3064 00f6 F1EE10FA 		vmrs	APSR_nzcv, FPSCR
 3065              	@ mini3d/render.c:452: 	int32_t dx1 = MIN(sb, sc);
 452:mini3d/render.c **** 	int32_t dx2 = MAX(sb, sc);
 3066              		.loc 1 452 10 view .LVU774
 3067 00fa 0892     		str	r2, [sp, #32]	@ dx1, %sfp
 3068              	.LVL246:
 453:mini3d/render.c **** 	int32_t dx2 = MAX(sb, sc);
 3069              		.loc 1 453 2 is_stmt 1 view .LVU775
 3070              	@ mini3d/render.c:455: 	fillRange(bitmap, rowstride, p1->y, MIN(LCD_ROWS, p2->y), &x1, dx1, &x2, dx
 3071              		.loc 1 455 2 is_stmt 0 view .LVU776
 3072 00fc 17EE102A 		vmov	r2, s14	@ int	@ _12, _12
 3073              	.LVL247:
 3074              	@ mini3d/render.c:453: 	int32_t dx2 = MAX(sb, sc);
 453:mini3d/render.c **** 	int32_t dx2 = MAX(sb, sc);
 3075              		.loc 1 453 10 view .LVU777
 3076 0100 0993     		str	r3, [sp, #36]	@ dx2, %sfp
 3077              	.LVL248:
 3078              		.loc 1 455 2 is_stmt 1 view .LVU778
 3079 0102 00F3AD80 		bgt	.L223		@,
 3080              	@ mini3d/render.c:455: 	fillRange(bitmap, rowstride, p1->y, MIN(LCD_ROWS, p2->y), &x1, dx1, &x2, dx
 3081              		.loc 1 455 2 is_stmt 0 discriminator 2 view .LVU779
 3082 0106 FDEEE67A 		vcvt.s32.f32	s15, s13	@ iftmp.34_29, _10
 3083 010a 17EE903A 		vmov	r3, s15	@ int	@ iftmp.34_29, iftmp.34_29
 3084              	.LVL249:
 3085              	.L214:
 3086              	@ mini3d/render.c:455: 	fillRange(bitmap, rowstride, p1->y, MIN(LCD_ROWS, p2->y), &x1, dx1, &x2, dx
 3087              		.loc 1 455 2 discriminator 4 view .LVU780
 3088 010e 0DAE     		add	r6, sp, #52	@ tmp221,,
 3089 0110 0EAF     		add	r7, sp, #56	@ tmp220,,
 3090 0112 0B91     		str	r1, [sp, #44]	@ rowstride, %sfp
 3091 0114 0696     		str	r6, [sp, #24]	@ tmp221, %sfp
 3092 0116 1B9E     		ldr	r6, [sp, #108]	@ tmp248, pattern
 3093 0118 0297     		str	r7, [sp, #8]	@ tmp220,
 3094 011a 0496     		str	r6, [sp, #16]	@ tmp248,
 3095 011c 099E     		ldr	r6, [sp, #36]	@ dx2, %sfp
 3096 011e 0A90     		str	r0, [sp, #40]	@ bitmap, %sfp
 3097 0120 0396     		str	r6, [sp, #12]	@ dx2,
 3098 0122 089E     		ldr	r6, [sp, #32]	@ dx1, %sfp
 3099 0124 0196     		str	r6, [sp, #4]	@ dx1,
 3100 0126 069E     		ldr	r6, [sp, #24]	@ tmp221, %sfp
 3101 0128 0096     		str	r6, [sp]	@ tmp221,
 3102 012a FFF7FEFF 		bl	fillRange		@
 3103              	.LVL250:
ARM GAS  /var/folders/cs/83z6p2tj4w57s6p2rt8nwfp00000gn/T//ccDzWS9O.s 			page 75


 456:mini3d/render.c **** 	
 457:mini3d/render.c **** 	int dx = slope(p2->x, p2->y, p3->x, p3->y);
 3104              		.loc 1 457 2 is_stmt 1 discriminator 4 view .LVU781
 3105              	@ mini3d/render.c:457: 	int dx = slope(p2->x, p2->y, p3->x, p3->y);
 3106              		.loc 1 457 11 is_stmt 0 discriminator 4 view .LVU782
 3107 012e D4ED015A 		vldr.32	s11, [r4, #4]	@ _15, p2_100->y
 3108              	.LBB277:
 3109              	.LBB278:
 3110              	@ mini3d/render.c:197: 	float dy = y2-y1;
 197:mini3d/render.c **** 	
 3111              		.loc 1 197 8 discriminator 4 view .LVU783
 3112 0132 95ED017A 		vldr.32	s14, [r5, #4]	@ p3_101->y, p3_101->y
 3113              	@ mini3d/render.c:199: 	if ( dy < 1 )
 199:mini3d/render.c **** 		return dx * (1<<16);
 3114              		.loc 1 199 5 discriminator 4 view .LVU784
 3115 0136 B7EE006A 		vmov.f32	s12, #1.0e+0	@ tmp193,
 3116              	.LBE278:
 3117              	.LBE277:
 3118              	@ mini3d/render.c:457: 	int dx = slope(p2->x, p2->y, p3->x, p3->y);
 3119              		.loc 1 457 11 discriminator 4 view .LVU785
 3120 013a D4ED007A 		vldr.32	s15, [r4]	@ _14, p2_100->x
 3121              	.LVL251:
 3122              	.LBB283:
 3123              	.LBI277:
 194:mini3d/render.c **** {
 3124              		.loc 1 194 23 is_stmt 1 discriminator 4 view .LVU786
 3125              	.LBB279:
 196:mini3d/render.c **** 	float dy = y2-y1;
 3126              		.loc 1 196 2 discriminator 4 view .LVU787
 3127              	@ mini3d/render.c:197: 	float dy = y2-y1;
 197:mini3d/render.c **** 	
 3128              		.loc 1 197 8 is_stmt 0 discriminator 4 view .LVU788
 3129 013e 37EE657A 		vsub.f32	s14, s14, s11	@ dy, p3_101->y, _15
 3130              	.LVL252:
 3131              	@ mini3d/render.c:196: 	float dx = x2-x1;
 196:mini3d/render.c **** 	float dy = y2-y1;
 3132              		.loc 1 196 8 discriminator 4 view .LVU789
 3133 0142 D5ED006A 		vldr.32	s13, [r5]	@ p3_101->x, p3_101->x
 3134              	.LBE279:
 3135              	.LBE283:
 3136              	@ mini3d/render.c:459: 	if ( sb < sc )
 458:mini3d/render.c **** 	
 459:mini3d/render.c **** 	if ( sb < sc )
 3137              		.loc 1 459 5 discriminator 4 view .LVU790
 3138 0146 079B     		ldr	r3, [sp, #28]	@ _70, %sfp
 3139              	.LBB284:
 3140              	.LBB280:
 3141              	@ mini3d/render.c:196: 	float dx = x2-x1;
 196:mini3d/render.c **** 	float dy = y2-y1;
 3142              		.loc 1 196 8 discriminator 4 view .LVU791
 3143 0148 76EEE76A 		vsub.f32	s13, s13, s15	@ dx, p3_101->x, _14
 3144              	.LVL253:
 197:mini3d/render.c **** 	
 3145              		.loc 1 197 2 is_stmt 1 discriminator 4 view .LVU792
 199:mini3d/render.c **** 		return dx * (1<<16);
 3146              		.loc 1 199 2 discriminator 4 view .LVU793
 200:mini3d/render.c **** 	else
ARM GAS  /var/folders/cs/83z6p2tj4w57s6p2rt8nwfp00000gn/T//ccDzWS9O.s 			page 76


 3147              		.loc 1 200 3 discriminator 4 view .LVU794
 202:mini3d/render.c **** }
 3148              		.loc 1 202 3 discriminator 4 view .LVU795
 3149              	@ mini3d/render.c:199: 	if ( dy < 1 )
 199:mini3d/render.c **** 		return dx * (1<<16);
 3150              		.loc 1 199 5 is_stmt 0 discriminator 4 view .LVU796
 3151 014c B4EEC67A 		vcmpe.f32	s14, s12	@ dy, tmp193
 3152              	.LBE280:
 3153              	.LBE284:
 3154              	@ mini3d/render.c:461: 		x1 = p2->x * (1<<16);
 460:mini3d/render.c **** 	{
 461:mini3d/render.c **** 		x1 = p2->x * (1<<16);
 3155              		.loc 1 461 6 discriminator 4 view .LVU797
 3156 0150 FEEEC87A 		vcvt.s32.f32	s15, s15, #16	@ tmp201, _14,
 3157              	.LVL254:
 3158              	.LBB285:
 3159              	.LBB281:
 3160              	@ mini3d/render.c:199: 	if ( dy < 1 )
 199:mini3d/render.c **** 		return dx * (1<<16);
 3161              		.loc 1 199 5 discriminator 4 view .LVU798
 3162 0154 F1EE10FA 		vmrs	APSR_nzcv, FPSCR
 3163 0158 DDE90A01 		ldrd	r0, r1, [sp, #40]	@ bitmap, rowstride,,
 3164              	@ mini3d/render.c:202: 		return dx / dy * (1<<16);
 202:mini3d/render.c **** }
 3165              		.loc 1 202 13 discriminator 4 view .LVU799
 3166 015c 54BF     		ite	pl
 3167 015e 86EE876A 		vdivpl.f32	s12, s13, s14	@ tmp196, dx, dy
 3168              	@ mini3d/render.c:200: 		return dx * (1<<16);
 200:mini3d/render.c **** 	else
 3169              		.loc 1 200 13 discriminator 4 view .LVU800
 3170 0162 B0EE666A 		vmovmi.f32	s12, s13	@ _78, dx
 3171              	.LBE281:
 3172              	.LBE285:
 3173              	@ mini3d/render.c:459: 	if ( sb < sc )
 459:mini3d/render.c **** 	{
 3174              		.loc 1 459 5 discriminator 4 view .LVU801
 3175 0166 9945     		cmp	r9, r3	@ _62, _70
 3176              	@ mini3d/render.c:462: 		fillRange(bitmap, rowstride, p2->y, endy, &x1, dx, &x2, dx2, pattern);
 462:mini3d/render.c **** 		fillRange(bitmap, rowstride, p2->y, endy, &x1, dx, &x2, dx2, pattern);
 3177              		.loc 1 462 3 discriminator 4 view .LVU802
 3178 0168 1B9B     		ldr	r3, [sp, #108]	@ tmp254, pattern
 3179 016a 0493     		str	r3, [sp, #16]	@ tmp254,
 3180              	.LVL255:
 3181              	.LBB286:
 3182              	.LBB282:
 3183              	@ mini3d/render.c:202: 		return dx / dy * (1<<16);
 202:mini3d/render.c **** }
 3184              		.loc 1 202 18 discriminator 4 view .LVU803
 3185 016c BEEEC86A 		vcvt.s32.f32	s12, s12, #16	@ _78, tmp196,
 3186              	.LVL256:
 202:mini3d/render.c **** }
 3187              		.loc 1 202 18 discriminator 4 view .LVU804
 3188              	.LBE282:
 3189              	.LBE286:
 459:mini3d/render.c **** 	{
 3190              		.loc 1 459 2 is_stmt 1 discriminator 4 view .LVU805
 3191              	@ mini3d/render.c:459: 	if ( sb < sc )
ARM GAS  /var/folders/cs/83z6p2tj4w57s6p2rt8nwfp00000gn/T//ccDzWS9O.s 			page 77


 459:mini3d/render.c **** 	{
 3192              		.loc 1 459 5 is_stmt 0 discriminator 4 view .LVU806
 3193 0170 5DDD     		ble	.L218		@,
 461:mini3d/render.c **** 		fillRange(bitmap, rowstride, p2->y, endy, &x1, dx, &x2, dx2, pattern);
 3194              		.loc 1 461 3 is_stmt 1 view .LVU807
 3195              	@ mini3d/render.c:462: 		fillRange(bitmap, rowstride, p2->y, endy, &x1, dx, &x2, dx2, pattern);
 3196              		.loc 1 462 3 is_stmt 0 view .LVU808
 3197 0172 BDEEE57A 		vcvt.s32.f32	s14, s11	@ tmp256, _15
 3198 0176 099B     		ldr	r3, [sp, #36]	@ dx2, %sfp
 3199 0178 069A     		ldr	r2, [sp, #24]	@ tmp221, %sfp
 3200 017a 0393     		str	r3, [sp, #12]	@ dx2,
 3201 017c 5B46     		mov	r3, fp	@, iftmp.19_35
 3202 017e 0092     		str	r2, [sp]	@ tmp221,
 3203 0180 17EE102A 		vmov	r2, s14	@ int	@, tmp256
 3204 0184 0297     		str	r7, [sp, #8]	@ tmp220,
 3205 0186 8DED016A 		vstr.32	s12, [sp, #4]	@ int	@ _78,
 3206              	@ mini3d/render.c:461: 		x1 = p2->x * (1<<16);
 461:mini3d/render.c **** 		fillRange(bitmap, rowstride, p2->y, endy, &x1, dx, &x2, dx2, pattern);
 3207              		.loc 1 461 6 view .LVU809
 3208 018a CDED0D7A 		vstr.32	s15, [sp, #52]	@ int	@ tmp201, x1
 3209              		.loc 1 462 3 is_stmt 1 view .LVU810
 3210 018e FFF7FEFF 		bl	fillRange		@
 3211              	.LVL257:
 463:mini3d/render.c **** 	}
 464:mini3d/render.c **** 	else
 465:mini3d/render.c **** 	{
 466:mini3d/render.c **** 		x2 = p2->x * (1<<16);
 467:mini3d/render.c **** 		fillRange(bitmap, rowstride, p2->y, endy, &x1, dx1, &x2, dx, pattern);
 468:mini3d/render.c **** 	}
 469:mini3d/render.c **** 	
 470:mini3d/render.c **** 	return (LCDRowRange){ MAX(0, p1->y), endy };
 3212              		.loc 1 470 2 view .LVU811
 3213              	@ mini3d/render.c:470: 	return (LCDRowRange){ MAX(0, p1->y), endy };
 3214              		.loc 1 470 24 is_stmt 0 view .LVU812
 3215 0192 D8ED017A 		vldr.32	s15, [r8, #4]	@ _26, p1_99->y
 3216              	@ mini3d/render.c:470: 	return (LCDRowRange){ MAX(0, p1->y), endy };
 3217              		.loc 1 470 9 view .LVU813
 3218 0196 F5EEC07A 		vcmpe.f32	s15, #0	@ _26
 3219 019a F1EE10FA 		vmrs	APSR_nzcv, FPSCR
 3220 019e 5DD4     		bmi	.L224		@,
 3221              	.L243:
 3222              	@ mini3d/render.c:470: 	return (LCDRowRange){ MAX(0, p1->y), endy };
 3223              		.loc 1 470 9 discriminator 2 view .LVU814
 3224 01a0 FDEEE77A 		vcvt.s32.f32	s15, s15	@ tmp213, _26
 3225 01a4 17EE903A 		vmov	r3, s15	@ int	@ tmp213, tmp213
 3226 01a8 1BB2     		sxth	r3, r3	@ iftmp.45_30, tmp213
 3227              	.L220:
 3228              	@ mini3d/render.c:470: 	return (LCDRowRange){ MAX(0, p1->y), endy };
 3229              		.loc 1 470 9 discriminator 4 view .LVU815
 3230 01aa ADF83C30 		strh	r3, [sp, #60]	@ movhi	@ iftmp.45_30, D.7770.start
 3231 01ae ADF83EA0 		strh	r10, [sp, #62]	@ movhi	@ prephitmp_28, D.7770.end
 3232 01b2 30E0     		b	.L207		@
 3233              	.LVL258:
 3234              	.L195:
 3235              	.LBB287:
 3236              	.LBB256:
 406:mini3d/render.c **** 	{
ARM GAS  /var/folders/cs/83z6p2tj4w57s6p2rt8nwfp00000gn/T//ccDzWS9O.s 			page 78


 3237              		.loc 1 406 7 is_stmt 1 view .LVU816
 3238              	@ mini3d/render.c:406: 	else if ( y2 < y1 && y2 < y3 )
 406:mini3d/render.c **** 	{
 3239              		.loc 1 406 10 is_stmt 0 view .LVU817
 3240 01b4 F4EEE76A 		vcmpe.f32	s13, s15	@ y1, y2
 3241 01b8 F1EE10FA 		vmrs	APSR_nzcv, FPSCR
 3242 01bc 13DD     		ble	.L200		@,
 3243              	@ mini3d/render.c:406: 	else if ( y2 < y1 && y2 < y3 )
 406:mini3d/render.c **** 	{
 3244              		.loc 1 406 20 view .LVU818
 3245 01be F4EEC77A 		vcmpe.f32	s15, s14	@ y2, y3
 3246 01c2 F1EE10FA 		vmrs	APSR_nzcv, FPSCR
 3247 01c6 0ED5     		bpl	.L200		@,
 3248              	.LBB251:
 408:mini3d/render.c **** 		*p1 = *p2;
 3249              		.loc 1 408 3 is_stmt 1 view .LVU819
 3250              	.LVL259:
 409:mini3d/render.c **** 
 3251              		.loc 1 409 3 view .LVU820
 411:mini3d/render.c **** 		{
 3252              		.loc 1 411 3 view .LVU821
 3253              	@ mini3d/render.c:411: 		if ( y3 < y1 ) // 2,3,1
 411:mini3d/render.c **** 		{
 3254              		.loc 1 411 6 is_stmt 0 view .LVU822
 3255 01c8 F4EEC76A 		vcmpe.f32	s13, s14	@ y1, y3
 3256 01cc F1EE10FA 		vmrs	APSR_nzcv, FPSCR
 3257 01d0 61DC     		bgt	.L222		@,
 3258 01d2 F0EE676A 		vmov.f32	s13, s15	@ y2, y2
 3259              	.LVL260:
 411:mini3d/render.c **** 		{
 3260              		.loc 1 411 6 view .LVU823
 3261 01d6 4346     		mov	r3, r8	@ p3, p3
 3262              	.LVL261:
 411:mini3d/render.c **** 		{
 3263              		.loc 1 411 6 view .LVU824
 3264 01d8 F0EE477A 		vmov.f32	s15, s14	@ y2, y3
 3265              	.LVL262:
 411:mini3d/render.c **** 		{
 3266              		.loc 1 411 6 view .LVU825
 3267 01dc A846     		mov	r8, r5	@ p3, p2
 3268 01de 1D46     		mov	r5, r3	@ p2, p3
 3269              	.LVL263:
 411:mini3d/render.c **** 		{
 3270              		.loc 1 411 6 view .LVU826
 3271 01e0 B0EE667A 		vmov.f32	s14, s13	@ y3, y2
 3272              	.LVL264:
 411:mini3d/render.c **** 		{
 3273              		.loc 1 411 6 view .LVU827
 3274 01e4 30E7     		b	.L198		@
 3275              	.LVL265:
 3276              	.L200:
 411:mini3d/render.c **** 		{
 3277              		.loc 1 411 6 view .LVU828
 3278              	.LBE251:
 3279              	.LBB252:
 421:mini3d/render.c **** 		*p1 = *p3;
 3280              		.loc 1 421 3 is_stmt 1 view .LVU829
ARM GAS  /var/folders/cs/83z6p2tj4w57s6p2rt8nwfp00000gn/T//ccDzWS9O.s 			page 79


 422:mini3d/render.c **** 		
 3281              		.loc 1 422 3 view .LVU830
 424:mini3d/render.c **** 		{
 3282              		.loc 1 424 3 view .LVU831
 3283              	@ mini3d/render.c:424: 		if ( y1 < y2 ) // 3,1,2
 424:mini3d/render.c **** 		{
 3284              		.loc 1 424 6 is_stmt 0 view .LVU832
 3285 01e6 F4EEE76A 		vcmpe.f32	s13, s15	@ y1, y2
 3286 01ea F1EE10FA 		vmrs	APSR_nzcv, FPSCR
 3287 01ee 3FF52BAF 		bmi	.L198		@,
 3288 01f2 2346     		mov	r3, r4	@ p1, p1
 3289              	.LVL266:
 424:mini3d/render.c **** 		{
 3290              		.loc 1 424 6 view .LVU833
 3291 01f4 F0EE667A 		vmov.f32	s15, s13	@ y2, y1
 3292              	.LVL267:
 424:mini3d/render.c **** 		{
 3293              		.loc 1 424 6 view .LVU834
 3294 01f8 2C46     		mov	r4, r5	@ p1, p2
 3295 01fa 1D46     		mov	r5, r3	@ p2, p1
 3296              	.LVL268:
 424:mini3d/render.c **** 		{
 3297              		.loc 1 424 6 view .LVU835
 3298 01fc 24E7     		b	.L198		@
 3299              	.LVL269:
 3300              	.L235:
 424:mini3d/render.c **** 		{
 3301              		.loc 1 424 6 view .LVU836
 3302              	.LBE252:
 3303              	.LBE256:
 3304              	.LBE287:
 443:mini3d/render.c **** 		return (LCDRowRange){ 0, 0 };
 3305              		.loc 1 443 2 is_stmt 1 discriminator 2 view .LVU837
 3306              	@ mini3d/render.c:443: 	if ( p1->y > LCD_ROWS || endy < 0 )
 443:mini3d/render.c **** 		return (LCDRowRange){ 0, 0 };
 3307              		.loc 1 443 5 is_stmt 0 discriminator 2 view .LVU838
 3308 01fe F1EE10FA 		vmrs	APSR_nzcv, FPSCR
 3309 0202 06DC     		bgt	.L205		@,
 3310              	@ mini3d/render.c:441: 	int endy = MIN(LCD_ROWS, p3->y);
 441:mini3d/render.c **** 	
 3311              		.loc 1 441 6 discriminator 1 view .LVU839
 3312 0204 FDEEE76A 		vcvt.s32.f32	s13, s15	@ iftmp.19_35, y2
 3313 0208 16EE90BA 		vmov	fp, s13	@ int	@ iftmp.19_35, iftmp.19_35
 3314              	@ mini3d/render.c:443: 	if ( p1->y > LCD_ROWS || endy < 0 )
 443:mini3d/render.c **** 		return (LCDRowRange){ 0, 0 };
 3315              		.loc 1 443 24 discriminator 1 view .LVU840
 3316 020c BBF1000F 		cmp	fp, #0	@ iftmp.19_35,
 3317 0210 28DA     		bge	.L242		@,
 3318              	.LVL270:
 3319              	.L205:
 3320              	.LBB288:
 444:mini3d/render.c **** 
 3321              		.loc 1 444 3 is_stmt 1 view .LVU841
 3322              	@ mini3d/render.c:444: 		return (LCDRowRange){ 0, 0 };
 444:mini3d/render.c **** 
 3323              		.loc 1 444 10 is_stmt 0 view .LVU842
 3324 0212 0023     		movs	r3, #0	@ tmp171,
ARM GAS  /var/folders/cs/83z6p2tj4w57s6p2rt8nwfp00000gn/T//ccDzWS9O.s 			page 80


 3325 0214 0F93     		str	r3, [sp, #60]	@ tmp171, MEM[(short int *)&D.7770]
 3326              	.LVL271:
 3327              	.L207:
 444:mini3d/render.c **** 
 3328              		.loc 1 444 10 view .LVU843
 3329 0216 BDF83C20 		ldrh	r2, [sp, #60]	@ D.7770, D.7770
 3330 021a 0020     		movs	r0, #0	@ D.7770,
 3331 021c BDF83E30 		ldrh	r3, [sp, #62]	@ D.7770, D.7770
 3332 0220 62F30F00 		bfi	r0, r2, #0, #16	@ D.7770, D.7770,,
 3333 0224 63F31F40 		bfi	r0, r3, #16, #16	@ D.7770, D.7770,,
 3334              	.LBE288:
 3335              	@ mini3d/render.c:471: }
 471:mini3d/render.c **** }
 3336              		.loc 1 471 1 discriminator 1 view .LVU844
 3337 0228 11B0     		add	sp, sp, #68	@,,
 3338              	.LCFI27:
 3339              		.cfi_remember_state
 3340              		.cfi_def_cfa_offset 36
 3341              		@ sp needed	@
 3342 022a BDE8F08F 		pop	{r4, r5, r6, r7, r8, r9, r10, fp, pc}	@
 3343              	.LVL272:
 3344              	.L218:
 3345              	.LCFI28:
 3346              		.cfi_restore_state
 466:mini3d/render.c **** 		fillRange(bitmap, rowstride, p2->y, endy, &x1, dx1, &x2, dx, pattern);
 3347              		.loc 1 466 3 is_stmt 1 view .LVU845
 3348              	@ mini3d/render.c:467: 		fillRange(bitmap, rowstride, p2->y, endy, &x1, dx1, &x2, dx, pattern);
 467:mini3d/render.c **** 	}
 3349              		.loc 1 467 3 is_stmt 0 view .LVU846
 3350 022e 089A     		ldr	r2, [sp, #32]	@ dx1, %sfp
 3351 0230 BDEEE57A 		vcvt.s32.f32	s14, s11	@ tmp259, _15
 3352 0234 5B46     		mov	r3, fp	@, iftmp.19_35
 3353 0236 8DED036A 		vstr.32	s12, [sp, #12]	@ int	@ _78,
 3354 023a 0192     		str	r2, [sp, #4]	@ dx1,
 3355 023c 069A     		ldr	r2, [sp, #24]	@ tmp221, %sfp
 3356 023e 0297     		str	r7, [sp, #8]	@ tmp220,
 3357 0240 0092     		str	r2, [sp]	@ tmp221,
 3358 0242 17EE102A 		vmov	r2, s14	@ int	@, tmp259
 3359              	@ mini3d/render.c:466: 		x2 = p2->x * (1<<16);
 466:mini3d/render.c **** 		fillRange(bitmap, rowstride, p2->y, endy, &x1, dx1, &x2, dx, pattern);
 3360              		.loc 1 466 6 view .LVU847
 3361 0246 CDED0E7A 		vstr.32	s15, [sp, #56]	@ int	@ tmp207, x2
 467:mini3d/render.c **** 	}
 3362              		.loc 1 467 3 is_stmt 1 view .LVU848
 3363 024a FFF7FEFF 		bl	fillRange		@
 3364              	.LVL273:
 470:mini3d/render.c **** }
 3365              		.loc 1 470 2 view .LVU849
 3366              	@ mini3d/render.c:470: 	return (LCDRowRange){ MAX(0, p1->y), endy };
 470:mini3d/render.c **** }
 3367              		.loc 1 470 24 is_stmt 0 view .LVU850
 3368 024e D8ED017A 		vldr.32	s15, [r8, #4]	@ _26, p1_99->y
 3369              	@ mini3d/render.c:470: 	return (LCDRowRange){ MAX(0, p1->y), endy };
 470:mini3d/render.c **** }
 3370              		.loc 1 470 9 view .LVU851
 3371 0252 F5EEC07A 		vcmpe.f32	s15, #0	@ _26
 3372 0256 F1EE10FA 		vmrs	APSR_nzcv, FPSCR
ARM GAS  /var/folders/cs/83z6p2tj4w57s6p2rt8nwfp00000gn/T//ccDzWS9O.s 			page 81


 3373 025a A1D5     		bpl	.L243		@,
 3374              	.L224:
 470:mini3d/render.c **** }
 3375              		.loc 1 470 9 view .LVU852
 3376 025c 0023     		movs	r3, #0	@ iftmp.45_30,
 3377 025e A4E7     		b	.L220		@
 3378              	.LVL274:
 3379              	.L223:
 3380              	@ mini3d/render.c:455: 	fillRange(bitmap, rowstride, p1->y, MIN(LCD_ROWS, p2->y), &x1, dx1, &x2, dx
 455:mini3d/render.c **** 	
 3381              		.loc 1 455 2 view .LVU853
 3382 0260 F023     		movs	r3, #240	@ iftmp.34_29,
 3383              	.LVL275:
 455:mini3d/render.c **** 	
 3384              		.loc 1 455 2 view .LVU854
 3385 0262 54E7     		b	.L214		@
 3386              	.LVL276:
 3387              	.L242:
 455:mini3d/render.c **** 	
 3388              		.loc 1 455 2 view .LVU855
 3389 0264 0FFA8BFA 		sxth	r10, fp	@ prephitmp_28, iftmp.19_35
 3390 0268 FFE6     		b	.L206		@
 3391              	.LVL277:
 3392              	.L234:
 3393              	.LBB289:
 3394              	.LBB257:
 455:mini3d/render.c **** 	
 3395              		.loc 1 455 2 view .LVU856
 3396 026a F0EE477A 		vmov.f32	s15, s14	@ y2, y3
 3397              	.LVL278:
 455:mini3d/render.c **** 	
 3398              		.loc 1 455 2 view .LVU857
 3399 026e 2C46     		mov	r4, r5	@ p1, p2
 3400 0270 B0EE667A 		vmov.f32	s14, s13	@ y3, y1
 3401              	.LVL279:
 455:mini3d/render.c **** 	
 3402              		.loc 1 455 2 view .LVU858
 3403 0274 9046     		mov	r8, r2	@ p3, p1
 3404 0276 1D46     		mov	r5, r3	@ p2, p3
 3405              	.LVL280:
 455:mini3d/render.c **** 	
 3406              		.loc 1 455 2 view .LVU859
 3407 0278 E6E6     		b	.L198		@
 3408              	.LVL281:
 3409              	.L241:
 455:mini3d/render.c **** 	
 3410              		.loc 1 455 2 view .LVU860
 3411              	.LBE257:
 3412              	.LBE289:
 3413              	.LBB290:
 3414              	.LBB276:
 200:mini3d/render.c **** 	else
 3415              		.loc 1 200 3 is_stmt 1 view .LVU861
 3416              	@ mini3d/render.c:200: 		return dx * (1<<16);
 200:mini3d/render.c **** 	else
 3417              		.loc 1 200 13 is_stmt 0 view .LVU862
 3418 027a F0EE467A 		vmov.f32	s15, s12	@ _62, dx
ARM GAS  /var/folders/cs/83z6p2tj4w57s6p2rt8nwfp00000gn/T//ccDzWS9O.s 			page 82


 3419              	.LVL282:
 200:mini3d/render.c **** 	else
 3420              		.loc 1 200 13 view .LVU863
 3421 027e FEEEC87A 		vcvt.s32.f32	s15, s15, #16	@ _62, _62,
 3422 0282 17EE909A 		vmov	r9, s15	@ int	@ _62, _62
 3423 0286 28E7     		b	.L213		@
 3424              	.LVL283:
 3425              	.L240:
 200:mini3d/render.c **** 	else
 3426              		.loc 1 200 13 view .LVU864
 3427              	.LBE276:
 3428              	.LBE290:
 3429              	.LBB291:
 3430              	.LBB268:
 200:mini3d/render.c **** 	else
 3431              		.loc 1 200 3 is_stmt 1 view .LVU865
 3432              	@ mini3d/render.c:200: 		return dx * (1<<16);
 200:mini3d/render.c **** 	else
 3433              		.loc 1 200 13 is_stmt 0 view .LVU866
 3434 0288 B0EE655A 		vmov.f32	s10, s11	@ _70, dx
 3435              	.LVL284:
 200:mini3d/render.c **** 	else
 3436              		.loc 1 200 13 view .LVU867
 3437 028c BEEEC85A 		vcvt.s32.f32	s10, s10, #16	@ _70, _70,
 3438 0290 8DED075A 		vstr.32	s10, [sp, #28]	@ int	@ _70, %sfp
 3439 0294 0BE7     		b	.L210		@
 3440              	.LVL285:
 3441              	.L222:
 200:mini3d/render.c **** 	else
 3442              		.loc 1 200 13 view .LVU868
 3443              	.LBE268:
 3444              	.LBE291:
 3445              	.LBB292:
 3446              	.LBB258:
 3447              	.LBB253:
 3448 0296 4346     		mov	r3, r8	@ p3, p3
 3449              	.LVL286:
 200:mini3d/render.c **** 	else
 3450              		.loc 1 200 13 view .LVU869
 3451 0298 B0EE677A 		vmov.f32	s14, s15	@ y3, y2
 3452              	.LVL287:
 200:mini3d/render.c **** 	else
 3453              		.loc 1 200 13 view .LVU870
 3454 029c A846     		mov	r8, r5	@ p3, p2
 3455              	.LVL288:
 200:mini3d/render.c **** 	else
 3456              		.loc 1 200 13 view .LVU871
 3457 029e F0EE667A 		vmov.f32	s15, s13	@ y2, y1
 3458              	.LVL289:
 200:mini3d/render.c **** 	else
 3459              		.loc 1 200 13 view .LVU872
 3460 02a2 2546     		mov	r5, r4	@ p2, p1
 3461              	.LVL290:
 200:mini3d/render.c **** 	else
 3462              		.loc 1 200 13 view .LVU873
 3463 02a4 1C46     		mov	r4, r3	@ p1, p3
 3464 02a6 CFE6     		b	.L198		@
ARM GAS  /var/folders/cs/83z6p2tj4w57s6p2rt8nwfp00000gn/T//ccDzWS9O.s 			page 83


 3465              	.L245:
 3466              		.align	2
 3467              	.L244:
 3468 02a8 00007043 		.word	1131413504
 3469              	.LBE253:
 3470              	.LBE258:
 3471              	.LBE292:
 3472              		.cfi_endproc
 3473              	.LFE23:
 3474              		.size	fillTriangle, .-fillTriangle
 3475              		.section	.text.fillTriangle_zbuf,"ax",%progbits
 3476              		.align	1
 3477              		.p2align 4,,15
 3478              		.global	fillTriangle_zbuf
 3479              		.syntax unified
 3480              		.thumb
 3481              		.thumb_func
 3482              		.fpu fpv5-sp-d16
 3483              		.type	fillTriangle_zbuf, %function
 3484              	fillTriangle_zbuf:
 3485              	.LVL291:
 3486              	.LFB24:
 472:mini3d/render.c **** 
 473:mini3d/render.c **** #if ENABLE_Z_BUFFER
 474:mini3d/render.c **** LCDRowRange fillTriangle_zbuf(uint8_t* bitmap, int rowstride, Point3D* p1, Point3D* p2, Point3D* p3
 475:mini3d/render.c **** {
 3487              		.loc 1 475 1 is_stmt 1 view -0
 3488              		.cfi_startproc
 3489              		@ args = 8, pretend = 0, frame = 32
 3490              		@ frame_needed = 0, uses_anonymous_args = 0
 476:mini3d/render.c **** 	sortTri(&p1, &p2, &p3);
 3491              		.loc 1 476 2 view .LVU875
 3492              	.LBB315:
 3493              	.LBI315:
 393:mini3d/render.c **** {
 3494              		.loc 1 393 20 view .LVU876
 3495              	.LBB316:
 395:mini3d/render.c **** 	
 3496              		.loc 1 395 2 view .LVU877
 3497              	@ mini3d/render.c:395: 	float y1 = (*p1)->y, y2 = (*p2)->y, y3 = (*p3)->y;
 395:mini3d/render.c **** 	
 3498              		.loc 1 395 8 is_stmt 0 view .LVU878
 3499 0000 92ED017A 		vldr.32	s14, [r2, #4]	@ y1, p1_168(D)->y
 3500              	.LVL292:
 3501              	@ mini3d/render.c:395: 	float y1 = (*p1)->y, y2 = (*p2)->y, y3 = (*p3)->y;
 395:mini3d/render.c **** 	
 3502              		.loc 1 395 23 view .LVU879
 3503 0004 D3ED017A 		vldr.32	s15, [r3, #4]	@ y2, p2_169(D)->y
 3504              	.LVL293:
 3505              	@ mini3d/render.c:397: 	if ( y1 <= y2 && y1 < y3 )
 397:mini3d/render.c **** 	{
 3506              		.loc 1 397 5 view .LVU880
 3507 0008 B4EEE77A 		vcmpe.f32	s14, s15	@ y1, y2
 3508              	.LBE316:
 3509              	.LBE315:
 3510              	@ mini3d/render.c:475: {
 475:mini3d/render.c **** 	sortTri(&p1, &p2, &p3);
ARM GAS  /var/folders/cs/83z6p2tj4w57s6p2rt8nwfp00000gn/T//ccDzWS9O.s 			page 84


 3511              		.loc 1 475 1 view .LVU881
 3512 000c 2DE9F04F 		push	{r4, r5, r6, r7, r8, r9, r10, fp, lr}	@
 3513              	.LCFI29:
 3514              		.cfi_def_cfa_offset 36
 3515              		.cfi_offset 4, -36
 3516              		.cfi_offset 5, -32
 3517              		.cfi_offset 6, -28
 3518              		.cfi_offset 7, -24
 3519              		.cfi_offset 8, -20
 3520              		.cfi_offset 9, -16
 3521              		.cfi_offset 10, -12
 3522              		.cfi_offset 11, -8
 3523              		.cfi_offset 14, -4
 3524 0010 91B0     		sub	sp, sp, #68	@,,
 3525              	.LCFI30:
 3526              		.cfi_def_cfa_offset 104
 3527              	.LBB327:
 3528              	.LBB321:
 3529              	@ mini3d/render.c:397: 	if ( y1 <= y2 && y1 < y3 )
 397:mini3d/render.c **** 	{
 3530              		.loc 1 397 5 view .LVU882
 3531 0012 F1EE10FA 		vmrs	APSR_nzcv, FPSCR
 3532              	.LBE321:
 3533              	.LBE327:
 3534              	@ mini3d/render.c:475: {
 475:mini3d/render.c **** 	sortTri(&p1, &p2, &p3);
 3535              		.loc 1 475 1 view .LVU883
 3536 0016 1446     		mov	r4, r2	@ p1, tmp346
 3537 0018 1D46     		mov	r5, r3	@ p2, tmp347
 3538 001a 1A9E     		ldr	r6, [sp, #104]	@ p3, p3
 3539              	.LBB328:
 3540              	.LBB322:
 3541              	@ mini3d/render.c:395: 	float y1 = (*p1)->y, y2 = (*p2)->y, y3 = (*p3)->y;
 395:mini3d/render.c **** 	
 3542              		.loc 1 395 38 view .LVU884
 3543 001c D6ED016A 		vldr.32	s13, [r6, #4]	@ y3, p3_170(D)->y
 3544              	.LVL294:
 397:mini3d/render.c **** 	{
 3545              		.loc 1 397 2 is_stmt 1 view .LVU885
 3546              	@ mini3d/render.c:397: 	if ( y1 <= y2 && y1 < y3 )
 397:mini3d/render.c **** 	{
 3547              		.loc 1 397 5 is_stmt 0 view .LVU886
 3548 0020 00F24681 		bhi	.L247		@,
 3549              	@ mini3d/render.c:397: 	if ( y1 <= y2 && y1 < y3 )
 397:mini3d/render.c **** 	{
 3550              		.loc 1 397 16 view .LVU887
 3551 0024 B4EEE67A 		vcmpe.f32	s14, s13	@ y1, y3
 3552 0028 F1EE10FA 		vmrs	APSR_nzcv, FPSCR
 3553 002c 40F14081 		bpl	.L247		@,
 399:mini3d/render.c **** 		{
 3554              		.loc 1 399 3 is_stmt 1 view .LVU888
 3555              	@ mini3d/render.c:399: 		if ( y3 < y2 ) // 1,3,2
 399:mini3d/render.c **** 		{
 3556              		.loc 1 399 6 is_stmt 0 view .LVU889
 3557 0030 F4EEE67A 		vcmpe.f32	s15, s13	@ y2, y3
 3558 0034 F1EE10FA 		vmrs	APSR_nzcv, FPSCR
 3559 0038 40F3A681 		ble	.L303		@,
ARM GAS  /var/folders/cs/83z6p2tj4w57s6p2rt8nwfp00000gn/T//ccDzWS9O.s 			page 85


 3560 003c B0EE476A 		vmov.f32	s12, s14	@ y1, y1
 3561 0040 3346     		mov	r3, r6	@ p3, p3
 3562              	.LVL295:
 399:mini3d/render.c **** 		{
 3563              		.loc 1 399 6 view .LVU890
 3564 0042 B0EE667A 		vmov.f32	s14, s13	@ y1, y3
 3565              	.LVL296:
 399:mini3d/render.c **** 		{
 3566              		.loc 1 399 6 view .LVU891
 3567 0046 1646     		mov	r6, r2	@ p3, p1
 3568 0048 1C46     		mov	r4, r3	@ p1, p3
 3569 004a F0EE466A 		vmov.f32	s13, s12	@ y3, y1
 3570              	.LVL297:
 3571              	.L250:
 399:mini3d/render.c **** 		{
 3572              		.loc 1 399 6 view .LVU892
 3573              	.LBE322:
 3574              	.LBE328:
 477:mini3d/render.c **** 	
 478:mini3d/render.c **** 	int endy = MIN(LCD_ROWS, p3->y);
 3575              		.loc 1 478 2 is_stmt 1 view .LVU893
 3576              	@ mini3d/render.c:478: 	int endy = MIN(LCD_ROWS, p3->y);
 3577              		.loc 1 478 6 is_stmt 0 view .LVU894
 3578 004e 9FEDE46A 		vldr.32	s12, .L320	@ tmp223,
 3579 0052 F4EEC67A 		vcmpe.f32	s15, s12	@ y2, tmp223
 3580 0056 F1EE10FA 		vmrs	APSR_nzcv, FPSCR
 3581 005a 00F35A81 		bgt	.L288		@,
 3582              	.L317:
 3583              	@ mini3d/render.c:478: 	int endy = MIN(LCD_ROWS, p3->y);
 3584              		.loc 1 478 6 discriminator 2 view .LVU895
 3585 005e BDEEE76A 		vcvt.s32.f32	s12, s15	@ iftmp.48_55, y2
 3586 0062 16EE10AA 		vmov	r10, s12	@ int	@ iftmp.48_55, iftmp.48_55
 3587              	.LVL298:
 479:mini3d/render.c **** 	int det = (p3->x - p1->x) * (p2->y - p1->y) - (p2->x - p1->x) * (p3->y - p1->y);
 3588              		.loc 1 479 2 is_stmt 1 discriminator 2 view .LVU896
 480:mini3d/render.c **** 	
 481:mini3d/render.c **** 	if ( p1->y > LCD_ROWS || endy < 0 || det == 0 )
 3589              		.loc 1 481 2 discriminator 2 view .LVU897
 3590              	@ mini3d/render.c:481: 	if ( p1->y > LCD_ROWS || endy < 0 || det == 0 )
 3591              		.loc 1 481 5 is_stmt 0 discriminator 2 view .LVU898
 3592 0066 9FEDDE6A 		vldr.32	s12, .L320	@ tmp224,
 3593 006a F4EEC66A 		vcmpe.f32	s13, s12	@ y3, tmp224
 3594 006e F1EE10FA 		vmrs	APSR_nzcv, FPSCR
 3595 0072 00F35881 		bgt	.L256		@,
 3596              	.LVL299:
 3597              	.L318:
 3598              	@ mini3d/render.c:479: 	int det = (p3->x - p1->x) * (p2->y - p1->y) - (p2->x - p1->x) * (p3->y - p1
 479:mini3d/render.c **** 	int det = (p3->x - p1->x) * (p2->y - p1->y) - (p2->x - p1->x) * (p3->y - p1->y);
 3599              		.loc 1 479 23 discriminator 1 view .LVU899
 3600 0076 96ED005A 		vldr.32	s10, [r6]	@ _5, p1_165->x
 3601              	@ mini3d/render.c:479: 	int det = (p3->x - p1->x) * (p2->y - p1->y) - (p2->x - p1->x) * (p3->y - p1
 479:mini3d/render.c **** 	int det = (p3->x - p1->x) * (p2->y - p1->y) - (p2->x - p1->x) * (p3->y - p1->y);
 3602              		.loc 1 479 37 discriminator 1 view .LVU900
 3603 007a 77EE664A 		vsub.f32	s9, s14, s13	@ _10, y1, y3
 3604              	@ mini3d/render.c:479: 	int det = (p3->x - p1->x) * (p2->y - p1->y) - (p2->x - p1->x) * (p3->y - p1
 479:mini3d/render.c **** 	int det = (p3->x - p1->x) * (p2->y - p1->y) - (p2->x - p1->x) * (p3->y - p1->y);
 3605              		.loc 1 479 19 discriminator 1 view .LVU901
ARM GAS  /var/folders/cs/83z6p2tj4w57s6p2rt8nwfp00000gn/T//ccDzWS9O.s 			page 86


 3606 007e 95ED006A 		vldr.32	s12, [r5]	@ p3_167->x, p3_167->x
 3607              	@ mini3d/render.c:479: 	int det = (p3->x - p1->x) * (p2->y - p1->y) - (p2->x - p1->x) * (p3->y - p1
 479:mini3d/render.c **** 	int det = (p3->x - p1->x) * (p2->y - p1->y) - (p2->x - p1->x) * (p3->y - p1->y);
 3608              		.loc 1 479 73 discriminator 1 view .LVU902
 3609 0082 77EEE67A 		vsub.f32	s15, s15, s13	@ _14, y2, y3
 3610              	@ mini3d/render.c:479: 	int det = (p3->x - p1->x) * (p2->y - p1->y) - (p2->x - p1->x) * (p3->y - p1
 479:mini3d/render.c **** 	int det = (p3->x - p1->x) * (p2->y - p1->y) - (p2->x - p1->x) * (p3->y - p1->y);
 3611              		.loc 1 479 51 discriminator 1 view .LVU903
 3612 0086 D4ED002A 		vldr.32	s5, [r4]	@ _12, p2_166->x
 3613              	@ mini3d/render.c:479: 	int det = (p3->x - p1->x) * (p2->y - p1->y) - (p2->x - p1->x) * (p3->y - p1
 479:mini3d/render.c **** 	int det = (p3->x - p1->x) * (p2->y - p1->y) - (p2->x - p1->x) * (p3->y - p1->y);
 3614              		.loc 1 479 19 discriminator 1 view .LVU904
 3615 008a 36EE456A 		vsub.f32	s12, s12, s10	@ _6, p3_167->x, _5
 3616              	@ mini3d/render.c:479: 	int det = (p3->x - p1->x) * (p2->y - p1->y) - (p2->x - p1->x) * (p3->y - p1
 479:mini3d/render.c **** 	int det = (p3->x - p1->x) * (p2->y - p1->y) - (p2->x - p1->x) * (p3->y - p1->y);
 3617              		.loc 1 479 55 discriminator 1 view .LVU905
 3618 008e 32EEC53A 		vsub.f32	s6, s5, s10	@ _13, _12, _5
 3619              	@ mini3d/render.c:479: 	int det = (p3->x - p1->x) * (p2->y - p1->y) - (p2->x - p1->x) * (p3->y - p1
 479:mini3d/render.c **** 	int det = (p3->x - p1->x) * (p2->y - p1->y) - (p2->x - p1->x) * (p3->y - p1->y);
 3620              		.loc 1 479 28 discriminator 1 view .LVU906
 3621 0092 66EE243A 		vmul.f32	s7, s12, s9	@ _11, _6, _10
 3622              	@ mini3d/render.c:479: 	int det = (p3->x - p1->x) * (p2->y - p1->y) - (p2->x - p1->x) * (p3->y - p1
 479:mini3d/render.c **** 	int det = (p3->x - p1->x) * (p2->y - p1->y) - (p2->x - p1->x) * (p3->y - p1->y);
 3623              		.loc 1 479 46 discriminator 1 view .LVU907
 3624 0096 B0EE634A 		vmov.f32	s8, s7	@ _16, _11
 3625 009a A3EE674A 		vfms.f32	s8, s6, s15	@ _16, _13, _14
 3626              	@ mini3d/render.c:479: 	int det = (p3->x - p1->x) * (p2->y - p1->y) - (p2->x - p1->x) * (p3->y - p1
 479:mini3d/render.c **** 	int det = (p3->x - p1->x) * (p2->y - p1->y) - (p2->x - p1->x) * (p3->y - p1->y);
 3627              		.loc 1 479 6 discriminator 1 view .LVU908
 3628 009e BDEEC44A 		vcvt.s32.f32	s8, s8	@ det, _16
 3629              	@ mini3d/render.c:481: 	if ( p1->y > LCD_ROWS || endy < 0 || det == 0 )
 3630              		.loc 1 481 36 discriminator 1 view .LVU909
 3631 00a2 14EE103A 		vmov	r3, s8	@ int	@ det, det
 3632 00a6 002B     		cmp	r3, #0	@ det
 3633 00a8 00F03D81 		beq	.L256	@
 3634              		.loc 1 481 36 discriminator 1 view .LVU910
 3635 00ac BAF1000F 		cmp	r10, #0	@ iftmp.48_55,
 3636 00b0 C0F23981 		blt	.L256		@,
 482:mini3d/render.c **** 		return (LCDRowRange){ 0, 0 };
 483:mini3d/render.c **** 
 484:mini3d/render.c **** 	int32_t x1 = p1->x * (1<<16);
 3637              		.loc 1 484 2 is_stmt 1 view .LVU911
 3638              	@ mini3d/render.c:484: 	int32_t x1 = p1->x * (1<<16);
 3639              		.loc 1 484 10 is_stmt 0 view .LVU912
 3640 00b4 F0EE455A 		vmov.f32	s11, s10	@ _21, _5
 3641 00b8 FEEEC85A 		vcvt.s32.f32	s11, s11, #16	@ _21, _21,
 3642 00bc 15EE903A 		vmov	r3, s11	@ int	@ _21, _21
 3643              	.LBB329:
 3644              	.LBB330:
 3645              	@ mini3d/render.c:199: 	if ( dy < 1 )
 199:mini3d/render.c **** 		return dx * (1<<16);
 3646              		.loc 1 199 5 view .LVU913
 3647 00c0 F7EE005A 		vmov.f32	s11, #1.0e+0	@ tmp238,
 3648              	.LBE330:
 3649              	.LBE329:
 3650              	@ mini3d/render.c:485: 	int32_t x2 = x1;
 485:mini3d/render.c **** 	int32_t x2 = x1;
ARM GAS  /var/folders/cs/83z6p2tj4w57s6p2rt8nwfp00000gn/T//ccDzWS9O.s 			page 87


 3651              		.loc 1 485 10 view .LVU914
 3652 00c4 CDE90C33 		strd	r3, r3, [sp, #48]	@ _21, _21,,
 486:mini3d/render.c **** 
 487:mini3d/render.c **** 	int32_t sb = slope(p1->x, p1->y, p2->x, p2->y);
 3653              		.loc 1 487 2 is_stmt 1 view .LVU915
 3654              	.LVL300:
 3655              	.LBB333:
 3656              	.LBI329:
 194:mini3d/render.c **** {
 3657              		.loc 1 194 23 view .LVU916
 3658              	.LBB331:
 196:mini3d/render.c **** 	float dy = y2-y1;
 3659              		.loc 1 196 2 view .LVU917
 197:mini3d/render.c **** 	
 3660              		.loc 1 197 2 view .LVU918
 199:mini3d/render.c **** 		return dx * (1<<16);
 3661              		.loc 1 199 2 view .LVU919
 3662              	@ mini3d/render.c:199: 	if ( dy < 1 )
 199:mini3d/render.c **** 		return dx * (1<<16);
 3663              		.loc 1 199 5 is_stmt 0 view .LVU920
 3664 00c8 F4EEE54A 		vcmpe.f32	s9, s11	@ _10, tmp238
 3665 00cc F1EE10FA 		vmrs	APSR_nzcv, FPSCR
 3666 00d0 00F17E81 		bmi	.L313		@,
 202:mini3d/render.c **** }
 3667              		.loc 1 202 3 is_stmt 1 view .LVU921
 3668              	@ mini3d/render.c:202: 		return dx / dy * (1<<16);
 202:mini3d/render.c **** }
 3669              		.loc 1 202 13 is_stmt 0 view .LVU922
 3670 00d4 C3EE245A 		vdiv.f32	s11, s6, s9	@ tmp241, _13, _10
 3671              	@ mini3d/render.c:202: 		return dx / dy * (1<<16);
 202:mini3d/render.c **** }
 3672              		.loc 1 202 18 view .LVU923
 3673 00d8 B0EE654A 		vmov.f32	s8, s11	@ _102, tmp241
 3674 00dc BEEEC84A 		vcvt.s32.f32	s8, s8, #16	@ _102, _102,
 3675 00e0 14EE108A 		vmov	r8, s8	@ int	@ _102, _102
 3676              	.L262:
 3677              	.LVL301:
 202:mini3d/render.c **** }
 3678              		.loc 1 202 18 view .LVU924
 3679              	.LBE331:
 3680              	.LBE333:
 488:mini3d/render.c **** 	int32_t sc = slope(p1->x, p1->y, p3->x, p3->y);
 3681              		.loc 1 488 2 is_stmt 1 view .LVU925
 3682              	.LBB334:
 3683              	.LBI334:
 194:mini3d/render.c **** {
 3684              		.loc 1 194 23 view .LVU926
 3685              	.LBB335:
 196:mini3d/render.c **** 	float dy = y2-y1;
 3686              		.loc 1 196 2 view .LVU927
 197:mini3d/render.c **** 	
 3687              		.loc 1 197 2 view .LVU928
 199:mini3d/render.c **** 		return dx * (1<<16);
 3688              		.loc 1 199 2 view .LVU929
 3689              	@ mini3d/render.c:199: 	if ( dy < 1 )
 199:mini3d/render.c **** 		return dx * (1<<16);
 3690              		.loc 1 199 5 is_stmt 0 view .LVU930
ARM GAS  /var/folders/cs/83z6p2tj4w57s6p2rt8nwfp00000gn/T//ccDzWS9O.s 			page 88


 3691 00e4 F7EE005A 		vmov.f32	s11, #1.0e+0	@ tmp244,
 3692 00e8 F4EEE57A 		vcmpe.f32	s15, s11	@ _14, tmp244
 3693 00ec F1EE10FA 		vmrs	APSR_nzcv, FPSCR
 3694 00f0 00F16781 		bmi	.L314		@,
 202:mini3d/render.c **** }
 3695              		.loc 1 202 3 is_stmt 1 view .LVU931
 3696              	@ mini3d/render.c:202: 		return dx / dy * (1<<16);
 202:mini3d/render.c **** }
 3697              		.loc 1 202 13 is_stmt 0 view .LVU932
 3698 00f4 C6EE275A 		vdiv.f32	s11, s12, s15	@ tmp247, _6, _14
 3699              	@ mini3d/render.c:202: 		return dx / dy * (1<<16);
 202:mini3d/render.c **** }
 3700              		.loc 1 202 18 view .LVU933
 3701 00f8 B0EE656A 		vmov.f32	s12, s11	@ _66, tmp247
 3702 00fc BEEEC86A 		vcvt.s32.f32	s12, s12, #16	@ _66, _66,
 3703 0100 16EE109A 		vmov	r9, s12	@ int	@ _66, _66
 3704              	.L265:
 3705              	.LVL302:
 202:mini3d/render.c **** }
 3706              		.loc 1 202 18 view .LVU934
 3707              	.LBE335:
 3708              	.LBE334:
 489:mini3d/render.c **** 
 490:mini3d/render.c **** 	int32_t dx1 = MIN(sb,sc);
 3709              		.loc 1 490 2 is_stmt 1 view .LVU935
 3710              	@ mini3d/render.c:490: 	int32_t dx1 = MIN(sb,sc);
 3711              		.loc 1 490 10 is_stmt 0 view .LVU936
 3712 0104 C145     		cmp	r9, r8	@ dx1, _102
 3713 0106 4B46     		mov	r3, r9	@ dx1, _66
 3714              	@ mini3d/render.c:493: 	float z1 = zscale / (p1->z + Z_BIAS);
 491:mini3d/render.c **** 	int32_t dx2 = MAX(sb,sc);
 492:mini3d/render.c **** 	
 493:mini3d/render.c **** 	float z1 = zscale / (p1->z + Z_BIAS);
 3715              		.loc 1 493 29 view .LVU937
 3716 0108 9FEDB66A 		vldr.32	s12, .L320+4	@ tmp253,
 3717              	@ mini3d/render.c:497: 	float mx = p1->x + (p2->y-p1->y) * (p3->x-p1->x) / (p3->y-p1->y);
 494:mini3d/render.c **** 	float z2 = zscale / (p2->z + Z_BIAS);
 495:mini3d/render.c **** 	float z3 = zscale / (p3->z + Z_BIAS);
 496:mini3d/render.c **** 
 497:mini3d/render.c **** 	float mx = p1->x + (p2->y-p1->y) * (p3->x-p1->x) / (p3->y-p1->y);
 3718              		.loc 1 497 51 view .LVU938
 3719 010c C3EEA75A 		vdiv.f32	s11, s7, s15	@ tmp260, _11, _14
 3720              	@ mini3d/render.c:490: 	int32_t dx1 = MIN(sb,sc);
 490:mini3d/render.c **** 	int32_t dx2 = MAX(sb,sc);
 3721              		.loc 1 490 10 view .LVU939
 3722 0110 A8BF     		it	ge
 3723 0112 4346     		movge	r3, r8	@ dx1, _102
 3724              	@ mini3d/render.c:493: 	float z1 = zscale / (p1->z + Z_BIAS);
 493:mini3d/render.c **** 	float z2 = zscale / (p2->z + Z_BIAS);
 3725              		.loc 1 493 29 view .LVU940
 3726 0114 96ED024A 		vldr.32	s8, [r6, #8]	@ p1_165->z, p1_165->z
 3727              	@ mini3d/render.c:495: 	float z3 = zscale / (p3->z + Z_BIAS);
 495:mini3d/render.c **** 
 3728              		.loc 1 495 29 view .LVU941
 3729 0118 95ED022A 		vldr.32	s4, [r5, #8]	@ p3_167->z, p3_167->z
 3730              	@ mini3d/render.c:491: 	int32_t dx2 = MAX(sb,sc);
 491:mini3d/render.c **** 	
ARM GAS  /var/folders/cs/83z6p2tj4w57s6p2rt8nwfp00000gn/T//ccDzWS9O.s 			page 89


 3731              		.loc 1 491 10 view .LVU942
 3732 011c C145     		cmp	r9, r8	@ dx2, _102
 3733              	@ mini3d/render.c:490: 	int32_t dx1 = MIN(sb,sc);
 490:mini3d/render.c **** 	int32_t dx2 = MAX(sb,sc);
 3734              		.loc 1 490 10 view .LVU943
 3735 011e 0993     		str	r3, [sp, #36]	@ dx1, %sfp
 3736              	.LVL303:
 491:mini3d/render.c **** 	
 3737              		.loc 1 491 2 is_stmt 1 view .LVU944
 3738              	@ mini3d/render.c:491: 	int32_t dx2 = MAX(sb,sc);
 491:mini3d/render.c **** 	
 3739              		.loc 1 491 10 is_stmt 0 view .LVU945
 3740 0120 CB46     		mov	fp, r9	@ dx2, _66
 3741              	@ mini3d/render.c:493: 	float z1 = zscale / (p1->z + Z_BIAS);
 493:mini3d/render.c **** 	float z2 = zscale / (p2->z + Z_BIAS);
 3742              		.loc 1 493 20 view .LVU946
 3743 0122 B14B     		ldr	r3, .L320+8	@ tmp250,
 3744              	.LVL304:
 3745              	@ mini3d/render.c:491: 	int32_t dx2 = MAX(sb,sc);
 491:mini3d/render.c **** 	
 3746              		.loc 1 491 10 view .LVU947
 3747 0124 B8BF     		it	lt
 3748 0126 C346     		movlt	fp, r8	@ dx2, _102
 3749              	.LVL305:
 493:mini3d/render.c **** 	float z2 = zscale / (p2->z + Z_BIAS);
 3750              		.loc 1 493 2 is_stmt 1 view .LVU948
 3751              	@ mini3d/render.c:495: 	float z3 = zscale / (p3->z + Z_BIAS);
 495:mini3d/render.c **** 
 3752              		.loc 1 495 29 is_stmt 0 view .LVU949
 3753 0128 32EE062A 		vadd.f32	s4, s4, s12	@ tmp257, p3_167->z, tmp253
 3754              	@ mini3d/render.c:494: 	float z2 = zscale / (p2->z + Z_BIAS);
 494:mini3d/render.c **** 	float z3 = zscale / (p3->z + Z_BIAS);
 3755              		.loc 1 494 29 view .LVU950
 3756 012c D4ED023A 		vldr.32	s7, [r4, #8]	@ p2_166->z, p2_166->z
 3757              	@ mini3d/render.c:493: 	float z1 = zscale / (p1->z + Z_BIAS);
 493:mini3d/render.c **** 	float z2 = zscale / (p2->z + Z_BIAS);
 3758              		.loc 1 493 29 view .LVU951
 3759 0130 34EE064A 		vadd.f32	s8, s8, s12	@ tmp251, p1_165->z, tmp253
 3760              	@ mini3d/render.c:493: 	float z1 = zscale / (p1->z + Z_BIAS);
 493:mini3d/render.c **** 	float z2 = zscale / (p2->z + Z_BIAS);
 3761              		.loc 1 493 20 view .LVU952
 3762 0134 93ED003A 		vldr.32	s6, [r3]	@ zscale.70_22, zscale
 3763              	@ mini3d/render.c:494: 	float z2 = zscale / (p2->z + Z_BIAS);
 494:mini3d/render.c **** 	float z3 = zscale / (p3->z + Z_BIAS);
 3764              		.loc 1 494 29 view .LVU953
 3765 0138 73EE863A 		vadd.f32	s7, s7, s12	@ tmp254, p2_166->z, tmp253
 3766              	@ mini3d/render.c:502: 	if ( sc < sb )
 498:mini3d/render.c **** 	float mz = z1 + (p2->y-p1->y) * (z3-z1) / (p3->y-p1->y);
 499:mini3d/render.c **** 
 500:mini3d/render.c **** 	int32_t dzdx, dzdy;
 501:mini3d/render.c **** 
 502:mini3d/render.c **** 	if ( sc < sb )
 3767              		.loc 1 502 5 view .LVU954
 3768 013c C145     		cmp	r9, r8	@ _66, _102
 3769              	@ mini3d/render.c:493: 	float z1 = zscale / (p1->z + Z_BIAS);
 493:mini3d/render.c **** 	float z2 = zscale / (p2->z + Z_BIAS);
 3770              		.loc 1 493 8 view .LVU955
ARM GAS  /var/folders/cs/83z6p2tj4w57s6p2rt8nwfp00000gn/T//ccDzWS9O.s 			page 90


 3771 013e 83EE046A 		vdiv.f32	s12, s6, s8	@ z1, zscale.70_22, tmp251
 3772              	.LVL306:
 494:mini3d/render.c **** 	float z3 = zscale / (p3->z + Z_BIAS);
 3773              		.loc 1 494 2 is_stmt 1 view .LVU956
 3774              	@ mini3d/render.c:495: 	float z3 = zscale / (p3->z + Z_BIAS);
 495:mini3d/render.c **** 
 3775              		.loc 1 495 8 is_stmt 0 view .LVU957
 3776 0142 83EE024A 		vdiv.f32	s8, s6, s4	@ z3, zscale.70_22, tmp257
 3777              	@ mini3d/render.c:494: 	float z2 = zscale / (p2->z + Z_BIAS);
 494:mini3d/render.c **** 	float z3 = zscale / (p3->z + Z_BIAS);
 3778              		.loc 1 494 8 view .LVU958
 3779 0146 83EE232A 		vdiv.f32	s4, s6, s7	@ z2, zscale.70_22, tmp254
 3780              	.LVL307:
 495:mini3d/render.c **** 
 3781              		.loc 1 495 2 is_stmt 1 view .LVU959
 497:mini3d/render.c **** 	float mz = z1 + (p2->y-p1->y) * (z3-z1) / (p3->y-p1->y);
 3782              		.loc 1 497 2 view .LVU960
 3783              	@ mini3d/render.c:497: 	float mx = p1->x + (p2->y-p1->y) * (p3->x-p1->x) / (p3->y-p1->y);
 497:mini3d/render.c **** 	float mz = z1 + (p2->y-p1->y) * (z3-z1) / (p3->y-p1->y);
 3784              		.loc 1 497 8 is_stmt 0 view .LVU961
 3785 014a 75EE855A 		vadd.f32	s11, s11, s10	@ mx, tmp260, _5
 3786              	.LVL308:
 498:mini3d/render.c **** 
 3787              		.loc 1 498 2 is_stmt 1 view .LVU962
 3788              	@ mini3d/render.c:498: 	float mz = z1 + (p2->y-p1->y) * (z3-z1) / (p3->y-p1->y);
 498:mini3d/render.c **** 
 3789              		.loc 1 498 37 is_stmt 0 view .LVU963
 3790 014e 74EE463A 		vsub.f32	s7, s8, s12	@ _30, z3, z1
 3791              	@ mini3d/render.c:498: 	float mz = z1 + (p2->y-p1->y) * (z3-z1) / (p3->y-p1->y);
 498:mini3d/render.c **** 
 3792              		.loc 1 498 32 view .LVU964
 3793 0152 24EEA33A 		vmul.f32	s6, s9, s7	@ tmp261, _10, _30
 3794              	@ mini3d/render.c:498: 	float mz = z1 + (p2->y-p1->y) * (z3-z1) / (p3->y-p1->y);
 498:mini3d/render.c **** 
 3795              		.loc 1 498 42 view .LVU965
 3796 0156 83EE275A 		vdiv.f32	s10, s6, s15	@ tmp262, tmp261, _14
 3797              	@ mini3d/render.c:498: 	float mz = z1 + (p2->y-p1->y) * (z3-z1) / (p3->y-p1->y);
 498:mini3d/render.c **** 
 3798              		.loc 1 498 8 view .LVU966
 3799 015a 35EE065A 		vadd.f32	s10, s10, s12	@ mz, tmp262, z1
 3800              	.LVL309:
 500:mini3d/render.c **** 
 3801              		.loc 1 500 2 is_stmt 1 view .LVU967
 3802              		.loc 1 502 2 view .LVU968
 3803              	@ mini3d/render.c:502: 	if ( sc < sb )
 3804              		.loc 1 502 5 is_stmt 0 view .LVU969
 3805 015e 80F2F080 		bge	.L266		@,
 503:mini3d/render.c **** 	{
 504:mini3d/render.c **** 		dzdx = slope(mz, mx, z2, p2->x);
 3806              		.loc 1 504 3 is_stmt 1 view .LVU970
 3807              	.LVL310:
 3808              	.LBB337:
 3809              	.LBI337:
 194:mini3d/render.c **** {
 3810              		.loc 1 194 23 view .LVU971
 3811              	.LBB338:
 196:mini3d/render.c **** 	float dy = y2-y1;
ARM GAS  /var/folders/cs/83z6p2tj4w57s6p2rt8nwfp00000gn/T//ccDzWS9O.s 			page 91


 3812              		.loc 1 196 2 view .LVU972
 3813              	@ mini3d/render.c:197: 	float dy = y2-y1;
 197:mini3d/render.c **** 	
 3814              		.loc 1 197 8 is_stmt 0 view .LVU973
 3815 0162 72EEE55A 		vsub.f32	s11, s5, s11	@ dy, _12, mx
 3816              	.LVL311:
 3817              	@ mini3d/render.c:199: 	if ( dy < 1 )
 199:mini3d/render.c **** 		return dx * (1<<16);
 3818              		.loc 1 199 5 view .LVU974
 3819 0166 F7EE004A 		vmov.f32	s9, #1.0e+0	@ tmp263,
 3820              	.LVL312:
 3821              	@ mini3d/render.c:196: 	float dx = x2-x1;
 196:mini3d/render.c **** 	float dy = y2-y1;
 3822              		.loc 1 196 8 view .LVU975
 3823 016a 32EE455A 		vsub.f32	s10, s4, s10	@ dx, z2, mz
 3824              	.LVL313:
 197:mini3d/render.c **** 	
 3825              		.loc 1 197 2 is_stmt 1 view .LVU976
 199:mini3d/render.c **** 		return dx * (1<<16);
 3826              		.loc 1 199 2 view .LVU977
 3827              	@ mini3d/render.c:199: 	if ( dy < 1 )
 199:mini3d/render.c **** 		return dx * (1<<16);
 3828              		.loc 1 199 5 is_stmt 0 view .LVU978
 3829 016e F4EEE45A 		vcmpe.f32	s11, s9	@ dy, tmp263
 3830 0172 F1EE10FA 		vmrs	APSR_nzcv, FPSCR
 3831 0176 00F11B81 		bmi	.L315		@,
 202:mini3d/render.c **** }
 3832              		.loc 1 202 3 is_stmt 1 view .LVU979
 3833              	@ mini3d/render.c:202: 		return dx / dy * (1<<16);
 202:mini3d/render.c **** }
 3834              		.loc 1 202 13 is_stmt 0 view .LVU980
 3835 017a C5EE254A 		vdiv.f32	s9, s10, s11	@ tmp266, dx, dy
 3836              	@ mini3d/render.c:202: 		return dx / dy * (1<<16);
 202:mini3d/render.c **** }
 3837              		.loc 1 202 18 view .LVU981
 3838 017e F0EE645A 		vmov.f32	s11, s9	@ dzdx, tmp266
 3839              	.LVL314:
 202:mini3d/render.c **** }
 3840              		.loc 1 202 18 view .LVU982
 3841 0182 FEEEC85A 		vcvt.s32.f32	s11, s11, #16	@ dzdx, dzdx,
 3842 0186 CDED085A 		vstr.32	s11, [sp, #32]	@ int	@ dzdx, %sfp
 3843              	.L269:
 3844              	.LVL315:
 202:mini3d/render.c **** }
 3845              		.loc 1 202 18 view .LVU983
 3846              	.LBE338:
 3847              	.LBE337:
 505:mini3d/render.c **** 		dzdy = slope(z1, p1->y, z3, p3->y);
 3848              		.loc 1 505 3 is_stmt 1 view .LVU984
 3849              	.LBB340:
 3850              	.LBI340:
 194:mini3d/render.c **** {
 3851              		.loc 1 194 23 view .LVU985
 3852              	.LBB341:
 196:mini3d/render.c **** 	float dy = y2-y1;
 3853              		.loc 1 196 2 view .LVU986
 197:mini3d/render.c **** 	
ARM GAS  /var/folders/cs/83z6p2tj4w57s6p2rt8nwfp00000gn/T//ccDzWS9O.s 			page 92


 3854              		.loc 1 197 2 view .LVU987
 199:mini3d/render.c **** 		return dx * (1<<16);
 3855              		.loc 1 199 2 view .LVU988
 200:mini3d/render.c **** 	else
 3856              		.loc 1 200 3 view .LVU989
 202:mini3d/render.c **** }
 3857              		.loc 1 202 3 view .LVU990
 3858              	@ mini3d/render.c:199: 	if ( dy < 1 )
 199:mini3d/render.c **** 		return dx * (1<<16);
 3859              		.loc 1 199 5 is_stmt 0 view .LVU991
 3860 018a F7EE005A 		vmov.f32	s11, #1.0e+0	@ tmp269,
 3861 018e F4EEE57A 		vcmpe.f32	s15, s11	@ _14, tmp269
 3862 0192 F1EE10FA 		vmrs	APSR_nzcv, FPSCR
 3863              	@ mini3d/render.c:202: 		return dx / dy * (1<<16);
 202:mini3d/render.c **** }
 3864              		.loc 1 202 13 view .LVU992
 3865 0196 54BF     		ite	pl
 3866 0198 C3EEA75A 		vdivpl.f32	s11, s7, s15	@ tmp272, _30, _14
 3867              	@ mini3d/render.c:200: 		return dx * (1<<16);
 200:mini3d/render.c **** 	else
 3868              		.loc 1 200 13 view .LVU993
 3869 019c F0EE635A 		vmovmi.f32	s11, s7	@ dzdy, _30
 3870              	@ mini3d/render.c:202: 		return dx / dy * (1<<16);
 202:mini3d/render.c **** }
 3871              		.loc 1 202 18 view .LVU994
 3872 01a0 FEEEC85A 		vcvt.s32.f32	s11, s11, #16	@ dzdy, tmp272,
 3873              	.LVL316:
 3874              	.L272:
 202:mini3d/render.c **** }
 3875              		.loc 1 202 18 view .LVU995
 3876              	.LBE341:
 3877              	.LBE340:
 506:mini3d/render.c **** 	}
 507:mini3d/render.c **** 	else
 508:mini3d/render.c **** 	{
 509:mini3d/render.c **** 		dzdx = slope(z2, p2->x, mz, mx);
 510:mini3d/render.c **** 		dzdy = slope(z1, p1->y, z2, p2->y);
 511:mini3d/render.c **** 	}
 512:mini3d/render.c **** 	
 513:mini3d/render.c **** 	uint32_t z = z1 * (1<<16);
 3878              		.loc 1 513 2 is_stmt 1 view .LVU996
 3879              	@ mini3d/render.c:515: 	fillRange_zbuf(bitmap, rowstride, p1->y, MIN(LCD_ROWS, p2->y), &x1, dx1, &x
 514:mini3d/render.c **** 
 515:mini3d/render.c **** 	fillRange_zbuf(bitmap, rowstride, p1->y, MIN(LCD_ROWS, p2->y), &x1, dx1, &x2, dx2, &z, dzdy, dzdx,
 3880              		.loc 1 515 2 is_stmt 0 view .LVU997
 3881 01a4 FDEEE67A 		vcvt.s32.f32	s15, s13	@ _35, y3
 3882              	@ mini3d/render.c:513: 	uint32_t z = z1 * (1<<16);
 513:mini3d/render.c **** 
 3883              		.loc 1 513 18 view .LVU998
 3884 01a8 9FED905A 		vldr.32	s10, .L320+12	@ tmp288,
 3885 01ac 26EE056A 		vmul.f32	s12, s12, s10	@ tmp287, z1, tmp288
 3886              	.LVL317:
 3887              	@ mini3d/render.c:515: 	fillRange_zbuf(bitmap, rowstride, p1->y, MIN(LCD_ROWS, p2->y), &x1, dx1, &x
 3888              		.loc 1 515 2 view .LVU999
 3889 01b0 17EE902A 		vmov	r2, s15	@ int	@ _35, _35
 3890 01b4 DFED8A7A 		vldr.32	s15, .L320	@ tmp290,
 3891 01b8 B4EEE77A 		vcmpe.f32	s14, s15	@ y1, tmp290
ARM GAS  /var/folders/cs/83z6p2tj4w57s6p2rt8nwfp00000gn/T//ccDzWS9O.s 			page 93


 3892              	@ mini3d/render.c:513: 	uint32_t z = z1 * (1<<16);
 513:mini3d/render.c **** 
 3893              		.loc 1 513 11 view .LVU1000
 3894 01bc BCEEC66A 		vcvt.u32.f32	s12, s12	@ tmp289, tmp287
 3895              	@ mini3d/render.c:515: 	fillRange_zbuf(bitmap, rowstride, p1->y, MIN(LCD_ROWS, p2->y), &x1, dx1, &x
 3896              		.loc 1 515 2 view .LVU1001
 3897 01c0 F1EE10FA 		vmrs	APSR_nzcv, FPSCR
 3898              	@ mini3d/render.c:513: 	uint32_t z = z1 * (1<<16);
 513:mini3d/render.c **** 
 3899              		.loc 1 513 11 view .LVU1002
 3900 01c4 8DED0E6A 		vstr.32	s12, [sp, #56]	@ int	@ tmp289, z
 3901              		.loc 1 515 2 is_stmt 1 view .LVU1003
 3902 01c8 00F3F980 		bgt	.L289		@,
 3903              	@ mini3d/render.c:515: 	fillRange_zbuf(bitmap, rowstride, p1->y, MIN(LCD_ROWS, p2->y), &x1, dx1, &x
 3904              		.loc 1 515 2 is_stmt 0 discriminator 2 view .LVU1004
 3905 01cc FDEEC77A 		vcvt.s32.f32	s15, s14	@ iftmp.94_56, y1
 3906 01d0 17EE903A 		vmov	r3, s15	@ int	@ iftmp.94_56, iftmp.94_56
 3907              	.L278:
 3908              	@ mini3d/render.c:515: 	fillRange_zbuf(bitmap, rowstride, p1->y, MIN(LCD_ROWS, p2->y), &x1, dx1, &x
 3909              		.loc 1 515 2 discriminator 4 view .LVU1005
 3910 01d4 1B9F     		ldr	r7, [sp, #108]	@ tmp373, pattern
 3911 01d6 CDED055A 		vstr.32	s11, [sp, #20]	@ int	@ dzdy,
 3912              	.LVL318:
 3913              		.loc 1 515 2 discriminator 4 view .LVU1006
 3914 01da 0797     		str	r7, [sp, #28]	@ tmp373,
 3915 01dc 089F     		ldr	r7, [sp, #32]	@ dzdx, %sfp
 3916 01de CDF80CB0 		str	fp, [sp, #12]	@ dx2,
 3917 01e2 0697     		str	r7, [sp, #24]	@ dzdx,
 3918 01e4 099F     		ldr	r7, [sp, #36]	@ dx1, %sfp
 3919 01e6 0B91     		str	r1, [sp, #44]	@ rowstride, %sfp
 3920 01e8 0197     		str	r7, [sp, #4]	@ dx1,
 3921 01ea 0EAF     		add	r7, sp, #56	@ tmp395,,
 3922 01ec 0A90     		str	r0, [sp, #40]	@ bitmap, %sfp
 3923 01ee 0497     		str	r7, [sp, #16]	@ tmp395,
 3924 01f0 0DAF     		add	r7, sp, #52	@ tmp376,,
 3925 01f2 0297     		str	r7, [sp, #8]	@ tmp376,
 3926 01f4 0CAF     		add	r7, sp, #48	@ tmp377,,
 3927 01f6 0097     		str	r7, [sp]	@ tmp377,
 3928 01f8 FFF7FEFF 		bl	fillRange_zbuf		@
 3929              	.LVL319:
 516:mini3d/render.c **** 	
 517:mini3d/render.c **** 	int dx = slope(p2->x, p2->y, p3->x, p3->y);
 3930              		.loc 1 517 2 is_stmt 1 discriminator 4 view .LVU1007
 3931              	@ mini3d/render.c:517: 	int dx = slope(p2->x, p2->y, p3->x, p3->y);
 3932              		.loc 1 517 11 is_stmt 0 discriminator 4 view .LVU1008
 3933 01fc 94ED015A 		vldr.32	s10, [r4, #4]	@ _38, p2_166->y
 3934              	.LBB342:
 3935              	.LBB343:
 3936              	@ mini3d/render.c:197: 	float dy = y2-y1;
 197:mini3d/render.c **** 	
 3937              		.loc 1 197 8 discriminator 4 view .LVU1009
 3938 0200 95ED017A 		vldr.32	s14, [r5, #4]	@ p3_167->y, p3_167->y
 3939              	@ mini3d/render.c:199: 	if ( dy < 1 )
 199:mini3d/render.c **** 		return dx * (1<<16);
 3940              		.loc 1 199 5 discriminator 4 view .LVU1010
 3941 0204 B7EE006A 		vmov.f32	s12, #1.0e+0	@ tmp296,
 3942              	.LBE343:
ARM GAS  /var/folders/cs/83z6p2tj4w57s6p2rt8nwfp00000gn/T//ccDzWS9O.s 			page 94


 3943              	.LBE342:
 3944              	@ mini3d/render.c:517: 	int dx = slope(p2->x, p2->y, p3->x, p3->y);
 3945              		.loc 1 517 11 discriminator 4 view .LVU1011
 3946 0208 D4ED007A 		vldr.32	s15, [r4]	@ _37, p2_166->x
 3947              	.LVL320:
 3948              	.LBB348:
 3949              	.LBI342:
 194:mini3d/render.c **** {
 3950              		.loc 1 194 23 is_stmt 1 discriminator 4 view .LVU1012
 3951              	.LBB344:
 196:mini3d/render.c **** 	float dy = y2-y1;
 3952              		.loc 1 196 2 discriminator 4 view .LVU1013
 3953              	@ mini3d/render.c:197: 	float dy = y2-y1;
 197:mini3d/render.c **** 	
 3954              		.loc 1 197 8 is_stmt 0 discriminator 4 view .LVU1014
 3955 020c 37EE457A 		vsub.f32	s14, s14, s10	@ dy, p3_167->y, _38
 3956              	.LVL321:
 3957              	@ mini3d/render.c:196: 	float dx = x2-x1;
 196:mini3d/render.c **** 	float dy = y2-y1;
 3958              		.loc 1 196 8 discriminator 4 view .LVU1015
 3959 0210 D5ED006A 		vldr.32	s13, [r5]	@ p3_167->x, p3_167->x
 3960              	@ mini3d/render.c:199: 	if ( dy < 1 )
 199:mini3d/render.c **** 		return dx * (1<<16);
 3961              		.loc 1 199 5 discriminator 4 view .LVU1016
 3962 0214 DDE90A01 		ldrd	r0, r1, [sp, #40]	@ bitmap, rowstride,,
 3963 0218 B4EEC67A 		vcmpe.f32	s14, s12	@ dy, tmp296
 3964              	@ mini3d/render.c:196: 	float dx = x2-x1;
 196:mini3d/render.c **** 	float dy = y2-y1;
 3965              		.loc 1 196 8 discriminator 4 view .LVU1017
 3966 021c 76EEE76A 		vsub.f32	s13, s13, s15	@ dx, p3_167->x, _37
 3967              	.LVL322:
 197:mini3d/render.c **** 	
 3968              		.loc 1 197 2 is_stmt 1 discriminator 4 view .LVU1018
 199:mini3d/render.c **** 		return dx * (1<<16);
 3969              		.loc 1 199 2 discriminator 4 view .LVU1019
 3970              	@ mini3d/render.c:199: 	if ( dy < 1 )
 199:mini3d/render.c **** 		return dx * (1<<16);
 3971              		.loc 1 199 5 is_stmt 0 discriminator 4 view .LVU1020
 3972 0220 F1EE10FA 		vmrs	APSR_nzcv, FPSCR
 3973 0224 00F1E480 		bmi	.L316		@,
 202:mini3d/render.c **** }
 3974              		.loc 1 202 3 is_stmt 1 view .LVU1021
 3975              	@ mini3d/render.c:202: 		return dx / dy * (1<<16);
 202:mini3d/render.c **** }
 3976              		.loc 1 202 13 is_stmt 0 view .LVU1022
 3977 0228 86EE876A 		vdiv.f32	s12, s13, s14	@ tmp299, dx, dy
 3978              	.LBE344:
 3979              	.LBE348:
 3980              	@ mini3d/render.c:519: 	if ( sb < sc )
 518:mini3d/render.c **** 
 519:mini3d/render.c **** 	if ( sb < sc )
 3981              		.loc 1 519 5 view .LVU1023
 3982 022c C145     		cmp	r9, r8	@ _66, _102
 3983              	.LBB349:
 3984              	.LBB345:
 3985              	@ mini3d/render.c:202: 		return dx / dy * (1<<16);
 202:mini3d/render.c **** }
ARM GAS  /var/folders/cs/83z6p2tj4w57s6p2rt8nwfp00000gn/T//ccDzWS9O.s 			page 95


 3986              		.loc 1 202 18 view .LVU1024
 3987 022e F0EE466A 		vmov.f32	s13, s12	@ _137, tmp299
 3988              	.LVL323:
 202:mini3d/render.c **** }
 3989              		.loc 1 202 18 view .LVU1025
 3990 0232 FEEEC86A 		vcvt.s32.f32	s13, s13, #16	@ _137, _137,
 3991              	.LVL324:
 202:mini3d/render.c **** }
 3992              		.loc 1 202 18 view .LVU1026
 3993              	.LBE345:
 3994              	.LBE349:
 3995              		.loc 1 519 2 is_stmt 1 view .LVU1027
 3996              	@ mini3d/render.c:519: 	if ( sb < sc )
 3997              		.loc 1 519 5 is_stmt 0 view .LVU1028
 3998 0236 40F3E680 		ble	.L282		@,
 520:mini3d/render.c **** 	{
 521:mini3d/render.c **** 		dzdy = slope(z2, p2->y, z3, p3->y);
 3999              		.loc 1 521 3 is_stmt 1 view .LVU1029
 4000              	.LVL325:
 4001              	.LBB350:
 4002              	.LBI350:
 194:mini3d/render.c **** {
 4003              		.loc 1 194 23 view .LVU1030
 4004              	.LBB351:
 196:mini3d/render.c **** 	float dy = y2-y1;
 4005              		.loc 1 196 2 view .LVU1031
 197:mini3d/render.c **** 	
 4006              		.loc 1 197 2 view .LVU1032
 199:mini3d/render.c **** 		return dx * (1<<16);
 4007              		.loc 1 199 2 view .LVU1033
 202:mini3d/render.c **** }
 4008              		.loc 1 202 3 view .LVU1034
 4009              	@ mini3d/render.c:196: 	float dx = x2-x1;
 196:mini3d/render.c **** 	float dy = y2-y1;
 4010              		.loc 1 196 8 is_stmt 0 view .LVU1035
 4011 023a 34EE426A 		vsub.f32	s12, s8, s4	@ dx, z3, z2
 4012              	.LVL326:
 4013              	@ mini3d/render.c:202: 		return dx / dy * (1<<16);
 202:mini3d/render.c **** }
 4014              		.loc 1 202 13 view .LVU1036
 4015 023e 86EE074A 		vdiv.f32	s8, s12, s14	@ tmp303, dx, dy
 4016              	.LVL327:
 4017              	@ mini3d/render.c:202: 		return dx / dy * (1<<16);
 202:mini3d/render.c **** }
 4018              		.loc 1 202 18 view .LVU1037
 4019 0242 BEEEC84A 		vcvt.s32.f32	s8, s8, #16	@ _144, tmp303,
 4020              	.LVL328:
 4021              	.L285:
 202:mini3d/render.c **** }
 4022              		.loc 1 202 18 view .LVU1038
 4023              	.LBE351:
 4024              	.LBE350:
 522:mini3d/render.c **** 		x1 = p2->x * (1<<16);
 4025              		.loc 1 522 3 is_stmt 1 view .LVU1039
 4026              	@ mini3d/render.c:522: 		x1 = p2->x * (1<<16);
 4027              		.loc 1 522 14 is_stmt 0 view .LVU1040
 4028 0246 9FED697A 		vldr.32	s14, .L320+12	@ tmp307,
ARM GAS  /var/folders/cs/83z6p2tj4w57s6p2rt8nwfp00000gn/T//ccDzWS9O.s 			page 96


 4029              	@ mini3d/render.c:524: 		fillRange_zbuf(bitmap, rowstride, p2->y, endy, &x1, dx, &x2, dx2, &z, dzdy
 523:mini3d/render.c **** 		z = z2 * (1<<16);
 524:mini3d/render.c **** 		fillRange_zbuf(bitmap, rowstride, p2->y, endy, &x1, dx, &x2, dx2, &z, dzdy, dzdx, pattern);
 4030              		.loc 1 524 3 view .LVU1041
 4031 024a BDEEC56A 		vcvt.s32.f32	s12, s10	@ tmp382, _38
 4032 024e 1B9B     		ldr	r3, [sp, #108]	@ tmp379, pattern
 4033 0250 0DAA     		add	r2, sp, #52	@ tmp381,,
 4034              	@ mini3d/render.c:523: 		z = z2 * (1<<16);
 523:mini3d/render.c **** 		z = z2 * (1<<16);
 4035              		.loc 1 523 10 view .LVU1042
 4036 0252 22EE077A 		vmul.f32	s14, s4, s14	@ tmp309, z2, tmp307
 4037              	@ mini3d/render.c:524: 		fillRange_zbuf(bitmap, rowstride, p2->y, endy, &x1, dx, &x2, dx2, &z, dzdy
 4038              		.loc 1 524 3 view .LVU1043
 4039 0256 0CAC     		add	r4, sp, #48	@ tmp383,,
 4040              	.LVL329:
 4041              		.loc 1 524 3 view .LVU1044
 4042 0258 0793     		str	r3, [sp, #28]	@ tmp379,
 4043              	@ mini3d/render.c:522: 		x1 = p2->x * (1<<16);
 522:mini3d/render.c **** 		x1 = p2->x * (1<<16);
 4044              		.loc 1 522 6 view .LVU1045
 4045 025a FEEEC87A 		vcvt.s32.f32	s15, s15, #16	@ tmp308, _37,
 4046              	@ mini3d/render.c:524: 		fillRange_zbuf(bitmap, rowstride, p2->y, endy, &x1, dx, &x2, dx2, &z, dzdy
 4047              		.loc 1 524 3 view .LVU1046
 4048 025e 089B     		ldr	r3, [sp, #32]	@ dzdx, %sfp
 4049              	@ mini3d/render.c:523: 		z = z2 * (1<<16);
 523:mini3d/render.c **** 		z = z2 * (1<<16);
 4050              		.loc 1 523 5 view .LVU1047
 4051 0260 BCEEC77A 		vcvt.u32.f32	s14, s14	@ tmp311, tmp309
 4052              	@ mini3d/render.c:524: 		fillRange_zbuf(bitmap, rowstride, p2->y, endy, &x1, dx, &x2, dx2, &z, dzdy
 4053              		.loc 1 524 3 view .LVU1048
 4054 0264 0292     		str	r2, [sp, #8]	@ tmp381,
 4055 0266 0693     		str	r3, [sp, #24]	@ dzdx,
 4056 0268 0EAB     		add	r3, sp, #56	@ tmp394,,
 4057 026a 16EE102A 		vmov	r2, s12	@ int	@, tmp382
 4058 026e 8DED054A 		vstr.32	s8, [sp, #20]	@ int	@ _144,
 4059 0272 0493     		str	r3, [sp, #16]	@ tmp394,
 4060 0274 5346     		mov	r3, r10	@, iftmp.48_55
 4061 0276 CDF80CB0 		str	fp, [sp, #12]	@ dx2,
 4062 027a CDED016A 		vstr.32	s13, [sp, #4]	@ int	@ _137,
 4063 027e 0094     		str	r4, [sp]	@ tmp383,
 4064              	@ mini3d/render.c:523: 		z = z2 * (1<<16);
 523:mini3d/render.c **** 		z = z2 * (1<<16);
 4065              		.loc 1 523 5 view .LVU1049
 4066 0280 8DED0E7A 		vstr.32	s14, [sp, #56]	@ int	@ tmp311, z
 4067              	@ mini3d/render.c:522: 		x1 = p2->x * (1<<16);
 522:mini3d/render.c **** 		x1 = p2->x * (1<<16);
 4068              		.loc 1 522 6 view .LVU1050
 4069 0284 CDED0C7A 		vstr.32	s15, [sp, #48]	@ int	@ tmp308, x1
 523:mini3d/render.c **** 		z = z2 * (1<<16);
 4070              		.loc 1 523 3 is_stmt 1 view .LVU1051
 4071              		.loc 1 524 3 view .LVU1052
 4072 0288 FFF7FEFF 		bl	fillRange_zbuf		@
 4073              	.LVL330:
 4074              	.L283:
 525:mini3d/render.c **** 	}
 526:mini3d/render.c **** 	else
 527:mini3d/render.c **** 	{
ARM GAS  /var/folders/cs/83z6p2tj4w57s6p2rt8nwfp00000gn/T//ccDzWS9O.s 			page 97


 528:mini3d/render.c **** 		x2 = p2->x * (1<<16);
 529:mini3d/render.c **** 		fillRange_zbuf(bitmap, rowstride, p2->y, endy, &x1, dx1, &x2, dx, &z, dzdy, dzdx, pattern);
 530:mini3d/render.c **** 	}
 531:mini3d/render.c **** 	
 532:mini3d/render.c **** 	return (LCDRowRange){ MAX(0, p1->y), endy };
 4075              		.loc 1 532 2 view .LVU1053
 4076              	@ mini3d/render.c:532: 	return (LCDRowRange){ MAX(0, p1->y), endy };
 4077              		.loc 1 532 24 is_stmt 0 view .LVU1054
 4078 028c D6ED017A 		vldr.32	s15, [r6, #4]	@ _51, p1_165->y
 4079              	@ mini3d/render.c:532: 	return (LCDRowRange){ MAX(0, p1->y), endy };
 4080              		.loc 1 532 9 view .LVU1055
 4081 0290 F5EEC07A 		vcmpe.f32	s15, #0	@ _51
 4082 0294 F1EE10FA 		vmrs	APSR_nzcv, FPSCR
 4083 0298 00F1B380 		bmi	.L290		@,
 4084              	@ mini3d/render.c:532: 	return (LCDRowRange){ MAX(0, p1->y), endy };
 4085              		.loc 1 532 9 discriminator 2 view .LVU1056
 4086 029c FDEEE77A 		vcvt.s32.f32	s15, s15	@ tmp325, _51
 4087 02a0 17EE903A 		vmov	r3, s15	@ int	@ tmp325, tmp325
 4088 02a4 1BB2     		sxth	r3, r3	@ iftmp.107_57, tmp325
 4089              	.L284:
 4090              	@ mini3d/render.c:532: 	return (LCDRowRange){ MAX(0, p1->y), endy };
 4091              		.loc 1 532 9 discriminator 4 view .LVU1057
 4092 02a6 ADF83C30 		strh	r3, [sp, #60]	@ movhi	@ iftmp.107_57, D.7813.start
 4093 02aa ADF83EA0 		strh	r10, [sp, #62]	@ movhi	@ iftmp.48_55, D.7813.end
 4094 02ae 3CE0     		b	.L259		@
 4095              	.LVL331:
 4096              	.L247:
 4097              	.LBB353:
 4098              	.LBB323:
 406:mini3d/render.c **** 	{
 4099              		.loc 1 406 7 is_stmt 1 view .LVU1058
 4100              	@ mini3d/render.c:406: 	else if ( y2 < y1 && y2 < y3 )
 406:mini3d/render.c **** 	{
 4101              		.loc 1 406 10 is_stmt 0 view .LVU1059
 4102 02b0 B4EEE77A 		vcmpe.f32	s14, s15	@ y1, y2
 4103 02b4 F1EE10FA 		vmrs	APSR_nzcv, FPSCR
 4104 02b8 14DD     		ble	.L252		@,
 4105              	@ mini3d/render.c:406: 	else if ( y2 < y1 && y2 < y3 )
 406:mini3d/render.c **** 	{
 4106              		.loc 1 406 20 view .LVU1060
 4107 02ba F4EEE67A 		vcmpe.f32	s15, s13	@ y2, y3
 4108 02be F1EE10FA 		vmrs	APSR_nzcv, FPSCR
 4109 02c2 0FD5     		bpl	.L252		@,
 4110              	.LBB317:
 408:mini3d/render.c **** 		*p1 = *p2;
 4111              		.loc 1 408 3 is_stmt 1 view .LVU1061
 4112              	.LVL332:
 409:mini3d/render.c **** 
 4113              		.loc 1 409 3 view .LVU1062
 411:mini3d/render.c **** 		{
 4114              		.loc 1 411 3 view .LVU1063
 4115              	@ mini3d/render.c:411: 		if ( y3 < y1 ) // 2,3,1
 411:mini3d/render.c **** 		{
 4116              		.loc 1 411 6 is_stmt 0 view .LVU1064
 4117 02c4 B4EEE67A 		vcmpe.f32	s14, s13	@ y1, y3
 4118 02c8 3346     		mov	r3, r6	@ p3, p3
 4119              	.LVL333:
ARM GAS  /var/folders/cs/83z6p2tj4w57s6p2rt8nwfp00000gn/T//ccDzWS9O.s 			page 98


 411:mini3d/render.c **** 		{
 4120              		.loc 1 411 6 view .LVU1065
 4121 02ca B0EE676A 		vmov.f32	s12, s15	@ y2, y2
 4122 02ce F1EE10FA 		vmrs	APSR_nzcv, FPSCR
 4123 02d2 00F3B480 		bgt	.L287		@,
 4124              	.LVL334:
 411:mini3d/render.c **** 		{
 4125              		.loc 1 411 6 view .LVU1066
 4126 02d6 F0EE667A 		vmov.f32	s15, s13	@ y2, y3
 4127 02da 2E46     		mov	r6, r5	@ p3, p2
 4128 02dc F0EE466A 		vmov.f32	s13, s12	@ y3, y2
 4129              	.LVL335:
 411:mini3d/render.c **** 		{
 4130              		.loc 1 411 6 view .LVU1067
 4131 02e0 1D46     		mov	r5, r3	@ p2, p3
 4132              	.LVL336:
 411:mini3d/render.c **** 		{
 4133              		.loc 1 411 6 view .LVU1068
 4134 02e2 B4E6     		b	.L250		@
 4135              	.LVL337:
 4136              	.L252:
 411:mini3d/render.c **** 		{
 4137              		.loc 1 411 6 view .LVU1069
 4138              	.LBE317:
 4139              	.LBB318:
 421:mini3d/render.c **** 		*p1 = *p3;
 4140              		.loc 1 421 3 is_stmt 1 view .LVU1070
 422:mini3d/render.c **** 		
 4141              		.loc 1 422 3 view .LVU1071
 424:mini3d/render.c **** 		{
 4142              		.loc 1 424 3 view .LVU1072
 4143              	@ mini3d/render.c:424: 		if ( y1 < y2 ) // 3,1,2
 424:mini3d/render.c **** 		{
 4144              		.loc 1 424 6 is_stmt 0 view .LVU1073
 4145 02e4 B4EEE77A 		vcmpe.f32	s14, s15	@ y1, y2
 4146 02e8 F1EE10FA 		vmrs	APSR_nzcv, FPSCR
 4147 02ec 3FF5AFAE 		bmi	.L250		@,
 4148 02f0 B0EE676A 		vmov.f32	s12, s15	@ y2, y2
 4149 02f4 2346     		mov	r3, r4	@ p1, p1
 4150              	.LVL338:
 424:mini3d/render.c **** 		{
 4151              		.loc 1 424 6 view .LVU1074
 4152 02f6 F0EE477A 		vmov.f32	s15, s14	@ y2, y1
 4153              	.LVL339:
 424:mini3d/render.c **** 		{
 4154              		.loc 1 424 6 view .LVU1075
 4155 02fa 2C46     		mov	r4, r5	@ p1, p2
 4156 02fc 1D46     		mov	r5, r3	@ p2, p1
 4157              	.LVL340:
 424:mini3d/render.c **** 		{
 4158              		.loc 1 424 6 view .LVU1076
 4159              	.LBE318:
 4160              	.LBE323:
 4161              	.LBE353:
 478:mini3d/render.c **** 	int det = (p3->x - p1->x) * (p2->y - p1->y) - (p2->x - p1->x) * (p3->y - p1->y);
 4162              		.loc 1 478 2 is_stmt 1 view .LVU1077
 4163              	.LBB354:
ARM GAS  /var/folders/cs/83z6p2tj4w57s6p2rt8nwfp00000gn/T//ccDzWS9O.s 			page 99


 4164              	.LBB324:
 4165              	.LBB319:
 4166              	@ mini3d/render.c:424: 		if ( y1 < y2 ) // 3,1,2
 424:mini3d/render.c **** 		{
 4167              		.loc 1 424 6 is_stmt 0 view .LVU1078
 4168 02fe B0EE467A 		vmov.f32	s14, s12	@ y1, y2
 4169              	.LBE319:
 4170              	.LBE324:
 4171              	.LBE354:
 4172              	@ mini3d/render.c:478: 	int endy = MIN(LCD_ROWS, p3->y);
 478:mini3d/render.c **** 	int det = (p3->x - p1->x) * (p2->y - p1->y) - (p2->x - p1->x) * (p3->y - p1->y);
 4173              		.loc 1 478 6 view .LVU1079
 4174 0302 9FED376A 		vldr.32	s12, .L320	@ tmp223,
 4175 0306 F4EEC67A 		vcmpe.f32	s15, s12	@ y2, tmp223
 4176 030a F1EE10FA 		vmrs	APSR_nzcv, FPSCR
 4177 030e 7FF7A6AE 		ble	.L317		@,
 4178              	.LVL341:
 4179              	.L288:
 4180              	@ mini3d/render.c:481: 	if ( p1->y > LCD_ROWS || endy < 0 || det == 0 )
 481:mini3d/render.c **** 		return (LCDRowRange){ 0, 0 };
 4181              		.loc 1 481 5 view .LVU1080
 4182 0312 9FED336A 		vldr.32	s12, .L320	@ tmp224,
 4183              	@ mini3d/render.c:478: 	int endy = MIN(LCD_ROWS, p3->y);
 478:mini3d/render.c **** 	int det = (p3->x - p1->x) * (p2->y - p1->y) - (p2->x - p1->x) * (p3->y - p1->y);
 4184              		.loc 1 478 6 view .LVU1081
 4185 0316 4FF0F00A 		mov	r10, #240	@ iftmp.48_55,
 4186              	.LVL342:
 479:mini3d/render.c **** 	
 4187              		.loc 1 479 2 is_stmt 1 view .LVU1082
 481:mini3d/render.c **** 		return (LCDRowRange){ 0, 0 };
 4188              		.loc 1 481 2 view .LVU1083
 4189              	@ mini3d/render.c:481: 	if ( p1->y > LCD_ROWS || endy < 0 || det == 0 )
 481:mini3d/render.c **** 		return (LCDRowRange){ 0, 0 };
 4190              		.loc 1 481 5 is_stmt 0 view .LVU1084
 4191 031a F4EEC66A 		vcmpe.f32	s13, s12	@ y3, tmp224
 4192 031e F1EE10FA 		vmrs	APSR_nzcv, FPSCR
 4193 0322 7FF7A8AE 		ble	.L318		@,
 4194              	.LVL343:
 4195              	.L256:
 4196              	.LBB355:
 482:mini3d/render.c **** 
 4197              		.loc 1 482 3 is_stmt 1 view .LVU1085
 4198              	@ mini3d/render.c:482: 		return (LCDRowRange){ 0, 0 };
 482:mini3d/render.c **** 
 4199              		.loc 1 482 10 is_stmt 0 view .LVU1086
 4200 0326 0023     		movs	r3, #0	@ tmp235,
 4201 0328 0F93     		str	r3, [sp, #60]	@ tmp235, MEM[(short int *)&D.7813]
 4202              	.LVL344:
 4203              	.L259:
 482:mini3d/render.c **** 
 4204              		.loc 1 482 10 view .LVU1087
 4205 032a BDF83C20 		ldrh	r2, [sp, #60]	@ D.7813, D.7813
 4206 032e 0020     		movs	r0, #0	@ D.7813,
 4207 0330 BDF83E30 		ldrh	r3, [sp, #62]	@ D.7813, D.7813
 4208 0334 62F30F00 		bfi	r0, r2, #0, #16	@ D.7813, D.7813,,
 4209 0338 63F31F40 		bfi	r0, r3, #16, #16	@ D.7813, D.7813,,
 4210              	.LBE355:
ARM GAS  /var/folders/cs/83z6p2tj4w57s6p2rt8nwfp00000gn/T//ccDzWS9O.s 			page 100


 4211              	@ mini3d/render.c:533: }
 533:mini3d/render.c **** }
 4212              		.loc 1 533 1 discriminator 1 view .LVU1088
 4213 033c 11B0     		add	sp, sp, #68	@,,
 4214              	.LCFI31:
 4215              		.cfi_remember_state
 4216              		.cfi_def_cfa_offset 36
 4217              		@ sp needed	@
 4218 033e BDE8F08F 		pop	{r4, r5, r6, r7, r8, r9, r10, fp, pc}	@
 4219              	.LVL345:
 4220              	.L266:
 4221              	.LCFI32:
 4222              		.cfi_restore_state
 509:mini3d/render.c **** 		dzdy = slope(z1, p1->y, z2, p2->y);
 4223              		.loc 1 509 3 is_stmt 1 view .LVU1089
 4224              	.LBB356:
 4225              	.LBI356:
 194:mini3d/render.c **** {
 4226              		.loc 1 194 23 view .LVU1090
 4227              	.LBB357:
 196:mini3d/render.c **** 	float dy = y2-y1;
 4228              		.loc 1 196 2 view .LVU1091
 4229              	@ mini3d/render.c:197: 	float dy = y2-y1;
 197:mini3d/render.c **** 	
 4230              		.loc 1 197 8 is_stmt 0 view .LVU1092
 4231 0342 75EEE25A 		vsub.f32	s11, s11, s5	@ dy, mx, _12
 4232              	.LVL346:
 4233              	@ mini3d/render.c:199: 	if ( dy < 1 )
 199:mini3d/render.c **** 		return dx * (1<<16);
 4234              		.loc 1 199 5 view .LVU1093
 4235 0346 F7EE007A 		vmov.f32	s15, #1.0e+0	@ tmp275,
 4236              	.LVL347:
 4237              	@ mini3d/render.c:196: 	float dx = x2-x1;
 196:mini3d/render.c **** 	float dy = y2-y1;
 4238              		.loc 1 196 8 view .LVU1094
 4239 034a 35EE425A 		vsub.f32	s10, s10, s4	@ dx, mz, z2
 4240              	.LVL348:
 197:mini3d/render.c **** 	
 4241              		.loc 1 197 2 is_stmt 1 view .LVU1095
 199:mini3d/render.c **** 		return dx * (1<<16);
 4242              		.loc 1 199 2 view .LVU1096
 4243              	@ mini3d/render.c:199: 	if ( dy < 1 )
 199:mini3d/render.c **** 		return dx * (1<<16);
 4244              		.loc 1 199 5 is_stmt 0 view .LVU1097
 4245 034e F4EEE75A 		vcmpe.f32	s11, s15	@ dy, tmp275
 4246 0352 F1EE10FA 		vmrs	APSR_nzcv, FPSCR
 4247 0356 24D4     		bmi	.L319		@,
 202:mini3d/render.c **** }
 4248              		.loc 1 202 3 is_stmt 1 view .LVU1098
 4249              	@ mini3d/render.c:202: 		return dx / dy * (1<<16);
 202:mini3d/render.c **** }
 4250              		.loc 1 202 13 is_stmt 0 view .LVU1099
 4251 0358 C5EE257A 		vdiv.f32	s15, s10, s11	@ tmp278, dx, dy
 4252              	@ mini3d/render.c:202: 		return dx / dy * (1<<16);
 202:mini3d/render.c **** }
 4253              		.loc 1 202 18 view .LVU1100
 4254 035c F0EE675A 		vmov.f32	s11, s15	@ dzdx, tmp278
ARM GAS  /var/folders/cs/83z6p2tj4w57s6p2rt8nwfp00000gn/T//ccDzWS9O.s 			page 101


 4255              	.LVL349:
 202:mini3d/render.c **** }
 4256              		.loc 1 202 18 view .LVU1101
 4257 0360 FEEEC85A 		vcvt.s32.f32	s11, s11, #16	@ dzdx, dzdx,
 4258 0364 CDED085A 		vstr.32	s11, [sp, #32]	@ int	@ dzdx, %sfp
 4259              	.L275:
 4260              	.LVL350:
 202:mini3d/render.c **** }
 4261              		.loc 1 202 18 view .LVU1102
 4262              	.LBE357:
 4263              	.LBE356:
 510:mini3d/render.c **** 	}
 4264              		.loc 1 510 3 is_stmt 1 view .LVU1103
 4265              	.LBB359:
 4266              	.LBI359:
 194:mini3d/render.c **** {
 4267              		.loc 1 194 23 view .LVU1104
 4268              	.LBB360:
 196:mini3d/render.c **** 	float dy = y2-y1;
 4269              		.loc 1 196 2 view .LVU1105
 4270              	@ mini3d/render.c:199: 	if ( dy < 1 )
 199:mini3d/render.c **** 		return dx * (1<<16);
 4271              		.loc 1 199 5 is_stmt 0 view .LVU1106
 4272 0368 F7EE005A 		vmov.f32	s11, #1.0e+0	@ tmp281,
 4273              	@ mini3d/render.c:196: 	float dx = x2-x1;
 196:mini3d/render.c **** 	float dy = y2-y1;
 4274              		.loc 1 196 8 view .LVU1107
 4275 036c 72EE467A 		vsub.f32	s15, s4, s12	@ dx, z2, z1
 4276              	.LVL351:
 197:mini3d/render.c **** 	
 4277              		.loc 1 197 2 is_stmt 1 view .LVU1108
 199:mini3d/render.c **** 		return dx * (1<<16);
 4278              		.loc 1 199 2 view .LVU1109
 200:mini3d/render.c **** 	else
 4279              		.loc 1 200 3 view .LVU1110
 202:mini3d/render.c **** }
 4280              		.loc 1 202 3 view .LVU1111
 4281              	@ mini3d/render.c:199: 	if ( dy < 1 )
 199:mini3d/render.c **** 		return dx * (1<<16);
 4282              		.loc 1 199 5 is_stmt 0 view .LVU1112
 4283 0370 F4EEE54A 		vcmpe.f32	s9, s11	@ _10, tmp281
 4284 0374 F1EE10FA 		vmrs	APSR_nzcv, FPSCR
 4285              	@ mini3d/render.c:202: 		return dx / dy * (1<<16);
 202:mini3d/render.c **** }
 4286              		.loc 1 202 13 view .LVU1113
 4287 0378 54BF     		ite	pl
 4288 037a C7EEA45A 		vdivpl.f32	s11, s15, s9	@ tmp284, dx, _10
 4289              	@ mini3d/render.c:200: 		return dx * (1<<16);
 200:mini3d/render.c **** 	else
 4290              		.loc 1 200 13 view .LVU1114
 4291 037e F0EE675A 		vmovmi.f32	s11, s15	@ dzdy, dx
 4292              	@ mini3d/render.c:202: 		return dx / dy * (1<<16);
 202:mini3d/render.c **** }
 4293              		.loc 1 202 18 view .LVU1115
 4294 0382 FEEEC85A 		vcvt.s32.f32	s11, s11, #16	@ dzdy, tmp284,
 4295 0386 0DE7     		b	.L272		@
 4296              	.LVL352:
ARM GAS  /var/folders/cs/83z6p2tj4w57s6p2rt8nwfp00000gn/T//ccDzWS9O.s 			page 102


 4297              	.L303:
 202:mini3d/render.c **** }
 4298              		.loc 1 202 18 view .LVU1116
 4299              	.LBE360:
 4300              	.LBE359:
 4301              	.LBB361:
 4302              	.LBB325:
 4303 0388 B0EE676A 		vmov.f32	s12, s15	@ y2, y2
 4304 038c 3346     		mov	r3, r6	@ p3, p3
 4305              	.LVL353:
 202:mini3d/render.c **** }
 4306              		.loc 1 202 18 view .LVU1117
 4307 038e F0EE667A 		vmov.f32	s15, s13	@ y2, y3
 4308              	.LVL354:
 202:mini3d/render.c **** }
 4309              		.loc 1 202 18 view .LVU1118
 4310 0392 2C46     		mov	r4, r5	@ p1, p2
 4311 0394 F0EE476A 		vmov.f32	s13, s14	@ y3, y1
 4312              	.LVL355:
 202:mini3d/render.c **** }
 4313              		.loc 1 202 18 view .LVU1119
 4314 0398 1646     		mov	r6, r2	@ p3, p1
 4315              	.LVL356:
 202:mini3d/render.c **** }
 4316              		.loc 1 202 18 view .LVU1120
 4317 039a B0EE467A 		vmov.f32	s14, s12	@ y1, y2
 4318              	.LVL357:
 202:mini3d/render.c **** }
 4319              		.loc 1 202 18 view .LVU1121
 4320 039e 1D46     		mov	r5, r3	@ p2, p3
 4321              	.LVL358:
 202:mini3d/render.c **** }
 4322              		.loc 1 202 18 view .LVU1122
 4323 03a0 55E6     		b	.L250		@
 4324              	.LVL359:
 4325              	.L319:
 202:mini3d/render.c **** }
 4326              		.loc 1 202 18 view .LVU1123
 4327              	.LBE325:
 4328              	.LBE361:
 4329              	.LBB362:
 4330              	.LBB358:
 200:mini3d/render.c **** 	else
 4331              		.loc 1 200 3 is_stmt 1 view .LVU1124
 4332              	@ mini3d/render.c:200: 		return dx * (1<<16);
 200:mini3d/render.c **** 	else
 4333              		.loc 1 200 13 is_stmt 0 view .LVU1125
 4334 03a2 F0EE457A 		vmov.f32	s15, s10	@ dzdx, dx
 4335 03a6 FEEEC87A 		vcvt.s32.f32	s15, s15, #16	@ dzdx, dzdx,
 4336 03aa CDED087A 		vstr.32	s15, [sp, #32]	@ int	@ dzdx, %sfp
 4337 03ae DBE7     		b	.L275		@
 4338              	.LVL360:
 4339              	.L315:
 200:mini3d/render.c **** 	else
 4340              		.loc 1 200 13 view .LVU1126
 4341              	.LBE358:
 4342              	.LBE362:
ARM GAS  /var/folders/cs/83z6p2tj4w57s6p2rt8nwfp00000gn/T//ccDzWS9O.s 			page 103


 4343              	.LBB363:
 4344              	.LBB339:
 200:mini3d/render.c **** 	else
 4345              		.loc 1 200 3 is_stmt 1 view .LVU1127
 4346              	@ mini3d/render.c:200: 		return dx * (1<<16);
 200:mini3d/render.c **** 	else
 4347              		.loc 1 200 13 is_stmt 0 view .LVU1128
 4348 03b0 F0EE455A 		vmov.f32	s11, s10	@ dzdx, dx
 4349              	.LVL361:
 200:mini3d/render.c **** 	else
 4350              		.loc 1 200 13 view .LVU1129
 4351 03b4 FEEEC85A 		vcvt.s32.f32	s11, s11, #16	@ dzdx, dzdx,
 4352 03b8 CDED085A 		vstr.32	s11, [sp, #32]	@ int	@ dzdx, %sfp
 4353 03bc E5E6     		b	.L269		@
 4354              	.LVL362:
 4355              	.L289:
 200:mini3d/render.c **** 	else
 4356              		.loc 1 200 13 view .LVU1130
 4357              	.LBE339:
 4358              	.LBE363:
 4359              	@ mini3d/render.c:515: 	fillRange_zbuf(bitmap, rowstride, p1->y, MIN(LCD_ROWS, p2->y), &x1, dx1, &x
 515:mini3d/render.c **** 	
 4360              		.loc 1 515 2 view .LVU1131
 4361 03be F023     		movs	r3, #240	@ iftmp.94_56,
 4362 03c0 08E7     		b	.L278		@
 4363              	.LVL363:
 4364              	.L314:
 4365              	.LBB364:
 4366              	.LBB336:
 200:mini3d/render.c **** 	else
 4367              		.loc 1 200 3 is_stmt 1 view .LVU1132
 4368              	@ mini3d/render.c:200: 		return dx * (1<<16);
 200:mini3d/render.c **** 	else
 4369              		.loc 1 200 13 is_stmt 0 view .LVU1133
 4370 03c2 F0EE465A 		vmov.f32	s11, s12	@ _66, _6
 4371 03c6 FEEEC85A 		vcvt.s32.f32	s11, s11, #16	@ _66, _66,
 4372 03ca 15EE909A 		vmov	r9, s11	@ int	@ _66, _66
 4373 03ce 99E6     		b	.L265		@
 4374              	.LVL364:
 4375              	.L313:
 200:mini3d/render.c **** 	else
 4376              		.loc 1 200 13 view .LVU1134
 4377              	.LBE336:
 4378              	.LBE364:
 4379              	.LBB365:
 4380              	.LBB332:
 200:mini3d/render.c **** 	else
 4381              		.loc 1 200 3 is_stmt 1 view .LVU1135
 4382              	@ mini3d/render.c:200: 		return dx * (1<<16);
 200:mini3d/render.c **** 	else
 4383              		.loc 1 200 13 is_stmt 0 view .LVU1136
 4384 03d0 F0EE435A 		vmov.f32	s11, s6	@ _102, _13
 4385 03d4 FEEEC85A 		vcvt.s32.f32	s11, s11, #16	@ _102, _102,
 4386 03d8 15EE908A 		vmov	r8, s11	@ int	@ _102, _102
 4387 03dc 82E6     		b	.L262		@
 4388              	.L321:
 4389 03de 00BF     		.align	2
ARM GAS  /var/folders/cs/83z6p2tj4w57s6p2rt8nwfp00000gn/T//ccDzWS9O.s 			page 104


 4390              	.L320:
 4391 03e0 00007043 		.word	1131413504
 4392 03e4 00000000 		.word	0
 4393 03e8 00000000 		.word	.LANCHOR0
 4394 03ec 00008047 		.word	1199570944
 4395              	.LVL365:
 4396              	.L316:
 200:mini3d/render.c **** 	else
 4397              		.loc 1 200 13 view .LVU1137
 4398              	.LBE332:
 4399              	.LBE365:
 4400              	.LBB366:
 4401              	.LBB346:
 200:mini3d/render.c **** 	else
 4402              		.loc 1 200 3 is_stmt 1 view .LVU1138
 4403              	.LBE346:
 4404              	.LBE366:
 4405              	@ mini3d/render.c:519: 	if ( sb < sc )
 519:mini3d/render.c **** 	{
 4406              		.loc 1 519 5 is_stmt 0 view .LVU1139
 4407 03f0 C145     		cmp	r9, r8	@ _66, _102
 4408              	.LBB367:
 4409              	.LBB347:
 4410              	@ mini3d/render.c:200: 		return dx * (1<<16);
 200:mini3d/render.c **** 	else
 4411              		.loc 1 200 13 view .LVU1140
 4412 03f2 FEEEC86A 		vcvt.s32.f32	s13, s13, #16	@ _137, dx,
 4413              	.LVL366:
 200:mini3d/render.c **** 	else
 4414              		.loc 1 200 13 view .LVU1141
 4415              	.LBE347:
 4416              	.LBE367:
 519:mini3d/render.c **** 	{
 4417              		.loc 1 519 2 is_stmt 1 view .LVU1142
 4418              	@ mini3d/render.c:519: 	if ( sb < sc )
 519:mini3d/render.c **** 	{
 4419              		.loc 1 519 5 is_stmt 0 view .LVU1143
 4420 03f6 06DD     		ble	.L282		@,
 521:mini3d/render.c **** 		x1 = p2->x * (1<<16);
 4421              		.loc 1 521 3 is_stmt 1 view .LVU1144
 4422              	.LVL367:
 4423              	.LBB368:
 194:mini3d/render.c **** {
 4424              		.loc 1 194 23 view .LVU1145
 4425              	.LBB352:
 196:mini3d/render.c **** 	float dy = y2-y1;
 4426              		.loc 1 196 2 view .LVU1146
 197:mini3d/render.c **** 	
 4427              		.loc 1 197 2 view .LVU1147
 199:mini3d/render.c **** 		return dx * (1<<16);
 4428              		.loc 1 199 2 view .LVU1148
 200:mini3d/render.c **** 	else
 4429              		.loc 1 200 3 view .LVU1149
 4430              	@ mini3d/render.c:196: 	float dx = x2-x1;
 196:mini3d/render.c **** 	float dy = y2-y1;
 4431              		.loc 1 196 8 is_stmt 0 view .LVU1150
 4432 03f8 34EE424A 		vsub.f32	s8, s8, s4	@ dx, z3, z2
ARM GAS  /var/folders/cs/83z6p2tj4w57s6p2rt8nwfp00000gn/T//ccDzWS9O.s 			page 105


 4433              	.LVL368:
 4434              	@ mini3d/render.c:200: 		return dx * (1<<16);
 200:mini3d/render.c **** 	else
 4435              		.loc 1 200 13 view .LVU1151
 4436 03fc BEEEC84A 		vcvt.s32.f32	s8, s8, #16	@ _144, dx,
 4437              	.LVL369:
 200:mini3d/render.c **** 	else
 4438              		.loc 1 200 13 view .LVU1152
 4439 0400 21E7     		b	.L285		@
 4440              	.LVL370:
 4441              	.L290:
 200:mini3d/render.c **** 	else
 4442              		.loc 1 200 13 view .LVU1153
 4443              	.LBE352:
 4444              	.LBE368:
 4445              	@ mini3d/render.c:532: 	return (LCDRowRange){ MAX(0, p1->y), endy };
 532:mini3d/render.c **** }
 4446              		.loc 1 532 9 view .LVU1154
 4447 0402 0023     		movs	r3, #0	@ iftmp.107_57,
 4448 0404 4FE7     		b	.L284		@
 4449              	.LVL371:
 4450              	.L282:
 528:mini3d/render.c **** 		fillRange_zbuf(bitmap, rowstride, p2->y, endy, &x1, dx1, &x2, dx, &z, dzdy, dzdx, pattern);
 4451              		.loc 1 528 3 is_stmt 1 view .LVU1155
 4452              	@ mini3d/render.c:529: 		fillRange_zbuf(bitmap, rowstride, p2->y, endy, &x1, dx1, &x2, dx, &z, dzdy
 529:mini3d/render.c **** 	}
 4453              		.loc 1 529 3 is_stmt 0 view .LVU1156
 4454 0406 1B9B     		ldr	r3, [sp, #108]	@ tmp384, pattern
 4455 0408 0DAC     		add	r4, sp, #52	@ tmp387,,
 4456              	.LVL372:
 529:mini3d/render.c **** 	}
 4457              		.loc 1 529 3 view .LVU1157
 4458 040a BDEEC57A 		vcvt.s32.f32	s14, s10	@ tmp386, _38
 4459 040e CDED055A 		vstr.32	s11, [sp, #20]	@ int	@ dzdy,
 4460 0412 0793     		str	r3, [sp, #28]	@ tmp384,
 4461              	@ mini3d/render.c:528: 		x2 = p2->x * (1<<16);
 528:mini3d/render.c **** 		fillRange_zbuf(bitmap, rowstride, p2->y, endy, &x1, dx1, &x2, dx, &z, dzdy, dzdx, pattern);
 4462              		.loc 1 528 6 view .LVU1158
 4463 0414 FEEEC87A 		vcvt.s32.f32	s15, s15, #16	@ tmp318, _37,
 4464              	@ mini3d/render.c:529: 		fillRange_zbuf(bitmap, rowstride, p2->y, endy, &x1, dx1, &x2, dx, &z, dzdy
 529:mini3d/render.c **** 	}
 4465              		.loc 1 529 3 view .LVU1159
 4466 0418 089B     		ldr	r3, [sp, #32]	@ dzdx, %sfp
 4467 041a 0294     		str	r4, [sp, #8]	@ tmp387,
 4468 041c 17EE102A 		vmov	r2, s14	@ int	@, tmp386
 4469 0420 099C     		ldr	r4, [sp, #36]	@ dx1, %sfp
 4470 0422 0693     		str	r3, [sp, #24]	@ dzdx,
 4471 0424 0EAB     		add	r3, sp, #56	@ tmp393,,
 4472 0426 0194     		str	r4, [sp, #4]	@ dx1,
 4473 0428 0CAC     		add	r4, sp, #48	@ tmp389,,
 4474 042a 0493     		str	r3, [sp, #16]	@ tmp393,
 4475 042c 5346     		mov	r3, r10	@, iftmp.48_55
 4476 042e CDED036A 		vstr.32	s13, [sp, #12]	@ int	@ _137,
 4477 0432 0094     		str	r4, [sp]	@ tmp389,
 4478              	@ mini3d/render.c:528: 		x2 = p2->x * (1<<16);
 528:mini3d/render.c **** 		fillRange_zbuf(bitmap, rowstride, p2->y, endy, &x1, dx1, &x2, dx, &z, dzdy, dzdx, pattern);
 4479              		.loc 1 528 6 view .LVU1160
ARM GAS  /var/folders/cs/83z6p2tj4w57s6p2rt8nwfp00000gn/T//ccDzWS9O.s 			page 106


 4480 0434 CDED0D7A 		vstr.32	s15, [sp, #52]	@ int	@ tmp318, x2
 529:mini3d/render.c **** 	}
 4481              		.loc 1 529 3 is_stmt 1 view .LVU1161
 4482 0438 FFF7FEFF 		bl	fillRange_zbuf		@
 4483              	.LVL373:
 4484 043c 26E7     		b	.L283		@
 4485              	.LVL374:
 4486              	.L287:
 4487              	.LBB369:
 4488              	.LBB326:
 4489              	.LBB320:
 529:mini3d/render.c **** 	}
 4490              		.loc 1 529 3 is_stmt 0 view .LVU1162
 4491 043e F0EE477A 		vmov.f32	s15, s14	@ y2, y1
 4492 0442 2E46     		mov	r6, r5	@ p3, p2
 4493 0444 B0EE667A 		vmov.f32	s14, s13	@ y1, y3
 4494              	.LVL375:
 529:mini3d/render.c **** 	}
 4495              		.loc 1 529 3 view .LVU1163
 4496 0448 2546     		mov	r5, r4	@ p2, p1
 4497              	.LVL376:
 529:mini3d/render.c **** 	}
 4498              		.loc 1 529 3 view .LVU1164
 4499 044a F0EE466A 		vmov.f32	s13, s12	@ y3, y2
 4500              	.LVL377:
 529:mini3d/render.c **** 	}
 4501              		.loc 1 529 3 view .LVU1165
 4502 044e 1C46     		mov	r4, r3	@ p1, p3
 4503 0450 FDE5     		b	.L250		@
 4504              	.LBE320:
 4505              	.LBE326:
 4506              	.LBE369:
 4507              		.cfi_endproc
 4508              	.LFE24:
 4509              		.size	fillTriangle_zbuf, .-fillTriangle_zbuf
 4510 0452 00BF     		.section	.text.fillQuad,"ax",%progbits
 4511              		.align	1
 4512              		.p2align 4,,15
 4513              		.global	fillQuad
 4514              		.syntax unified
 4515              		.thumb
 4516              		.thumb_func
 4517              		.fpu fpv5-sp-d16
 4518              		.type	fillQuad, %function
 4519              	fillQuad:
 4520              	.LVL378:
 4521              	.LFB25:
 534:mini3d/render.c **** #endif
 535:mini3d/render.c **** 
 536:mini3d/render.c **** LCDRowRange fillQuad(uint8_t* bitmap, int rowstride, Point3D* p1, Point3D* p2, Point3D* p3, Point3D
 537:mini3d/render.c **** {
 4522              		.loc 1 537 1 is_stmt 1 view -0
 4523              		.cfi_startproc
 4524              		@ args = 12, pretend = 0, frame = 8
 4525              		@ frame_needed = 0, uses_anonymous_args = 0
 538:mini3d/render.c **** 	// XXX - implement with 3 fillRange_zbuf() calls
 539:mini3d/render.c **** 	fillTriangle(bitmap, rowstride, p1, p2, p3, pattern);
ARM GAS  /var/folders/cs/83z6p2tj4w57s6p2rt8nwfp00000gn/T//ccDzWS9O.s 			page 107


 4526              		.loc 1 539 2 view .LVU1167
 4527              	@ mini3d/render.c:537: {
 537:mini3d/render.c **** 	// XXX - implement with 3 fillRange_zbuf() calls
 4528              		.loc 1 537 1 is_stmt 0 view .LVU1168
 4529 0000 2DE9F043 		push	{r4, r5, r6, r7, r8, r9, lr}	@
 4530              	.LCFI33:
 4531              		.cfi_def_cfa_offset 28
 4532              		.cfi_offset 4, -28
 4533              		.cfi_offset 5, -24
 4534              		.cfi_offset 6, -20
 4535              		.cfi_offset 7, -16
 4536              		.cfi_offset 8, -12
 4537              		.cfi_offset 9, -8
 4538              		.cfi_offset 14, -4
 4539 0004 85B0     		sub	sp, sp, #20	@,,
 4540              	.LCFI34:
 4541              		.cfi_def_cfa_offset 48
 4542              	@ mini3d/render.c:537: {
 537:mini3d/render.c **** 	// XXX - implement with 3 fillRange_zbuf() calls
 4543              		.loc 1 537 1 view .LVU1169
 4544 0006 0446     		mov	r4, r0	@ bitmap, tmp119
 4545 0008 0D46     		mov	r5, r1	@ rowstride, tmp120
 4546 000a 1646     		mov	r6, r2	@ p1, tmp121
 4547 000c 0C9F     		ldr	r7, [sp, #48]	@ p3, p3
 4548 000e DDF83880 		ldr	r8, [sp, #56]	@ pattern, pattern
 4549 0012 DDF83490 		ldr	r9, [sp, #52]	@ p4, p4
 4550              	@ mini3d/render.c:539: 	fillTriangle(bitmap, rowstride, p1, p2, p3, pattern);
 4551              		.loc 1 539 2 view .LVU1170
 4552 0016 CDE90078 		strd	r7, r8, [sp]	@ p3, pattern,
 4553 001a FFF7FEFF 		bl	fillTriangle		@
 4554              	.LVL379:
 540:mini3d/render.c **** 	return fillTriangle(bitmap, rowstride, p1, p3, p4, pattern);
 4555              		.loc 1 540 2 is_stmt 1 view .LVU1171
 4556              	@ mini3d/render.c:540: 	return fillTriangle(bitmap, rowstride, p1, p3, p4, pattern);
 4557              		.loc 1 540 9 is_stmt 0 view .LVU1172
 4558 001e 3246     		mov	r2, r6	@, p1
 4559 0020 2946     		mov	r1, r5	@, rowstride
 4560 0022 2046     		mov	r0, r4	@, bitmap
 4561 0024 3B46     		mov	r3, r7	@, p3
 4562 0026 CDF83480 		str	r8, [sp, #52]	@ pattern,
 4563              	.LVL380:
 4564              		.loc 1 540 9 view .LVU1173
 4565 002a CDF83090 		str	r9, [sp, #48]	@ p4,
 4566              	.LVL381:
 4567              	@ mini3d/render.c:541: }
 541:mini3d/render.c **** }
 4568              		.loc 1 541 1 view .LVU1174
 4569 002e 05B0     		add	sp, sp, #20	@,,
 4570              	.LCFI35:
 4571              		.cfi_def_cfa_offset 28
 4572              		@ sp needed	@
 4573 0030 BDE8F043 		pop	{r4, r5, r6, r7, r8, r9, lr}	@
 4574              	.LCFI36:
 4575              		.cfi_restore 14
 4576              		.cfi_restore 9
 4577              		.cfi_restore 8
 4578              		.cfi_restore 7
ARM GAS  /var/folders/cs/83z6p2tj4w57s6p2rt8nwfp00000gn/T//ccDzWS9O.s 			page 108


 4579              		.cfi_restore 6
 4580              		.cfi_restore 5
 4581              		.cfi_restore 4
 4582              		.cfi_def_cfa_offset 0
 4583              	.LVL382:
 4584              	@ mini3d/render.c:540: 	return fillTriangle(bitmap, rowstride, p1, p3, p4, pattern);
 540:mini3d/render.c **** 	return fillTriangle(bitmap, rowstride, p1, p3, p4, pattern);
 4585              		.loc 1 540 9 view .LVU1175
 4586 0034 FFF7FEBF 		b	fillTriangle		@
 4587              	.LVL383:
 540:mini3d/render.c **** 	return fillTriangle(bitmap, rowstride, p1, p3, p4, pattern);
 4588              		.loc 1 540 9 view .LVU1176
 4589              		.cfi_endproc
 4590              	.LFE25:
 4591              		.size	fillQuad, .-fillQuad
 4592              		.section	.text.fillQuad_zbuf,"ax",%progbits
 4593              		.align	1
 4594              		.p2align 4,,15
 4595              		.global	fillQuad_zbuf
 4596              		.syntax unified
 4597              		.thumb
 4598              		.thumb_func
 4599              		.fpu fpv5-sp-d16
 4600              		.type	fillQuad_zbuf, %function
 4601              	fillQuad_zbuf:
 4602              	.LVL384:
 4603              	.LFB26:
 542:mini3d/render.c **** 
 543:mini3d/render.c **** #if ENABLE_Z_BUFFER
 544:mini3d/render.c **** LCDRowRange fillQuad_zbuf(uint8_t* bitmap, int rowstride, Point3D* p1, Point3D* p2, Point3D* p3, Po
 545:mini3d/render.c **** {
 4604              		.loc 1 545 1 is_stmt 1 view -0
 4605              		.cfi_startproc
 4606              		@ args = 12, pretend = 0, frame = 8
 4607              		@ frame_needed = 0, uses_anonymous_args = 0
 546:mini3d/render.c **** 	// XXX - implement with 3 fillRange_zbuf() calls
 547:mini3d/render.c **** 	fillTriangle_zbuf(bitmap, rowstride, p1, p2, p3, pattern);
 4608              		.loc 1 547 2 view .LVU1178
 4609              	@ mini3d/render.c:545: {
 545:mini3d/render.c **** 	// XXX - implement with 3 fillRange_zbuf() calls
 4610              		.loc 1 545 1 is_stmt 0 view .LVU1179
 4611 0000 2DE9F043 		push	{r4, r5, r6, r7, r8, r9, lr}	@
 4612              	.LCFI37:
 4613              		.cfi_def_cfa_offset 28
 4614              		.cfi_offset 4, -28
 4615              		.cfi_offset 5, -24
 4616              		.cfi_offset 6, -20
 4617              		.cfi_offset 7, -16
 4618              		.cfi_offset 8, -12
 4619              		.cfi_offset 9, -8
 4620              		.cfi_offset 14, -4
 4621 0004 85B0     		sub	sp, sp, #20	@,,
 4622              	.LCFI38:
 4623              		.cfi_def_cfa_offset 48
 4624              	@ mini3d/render.c:545: {
 545:mini3d/render.c **** 	// XXX - implement with 3 fillRange_zbuf() calls
 4625              		.loc 1 545 1 view .LVU1180
ARM GAS  /var/folders/cs/83z6p2tj4w57s6p2rt8nwfp00000gn/T//ccDzWS9O.s 			page 109


 4626 0006 0446     		mov	r4, r0	@ bitmap, tmp119
 4627 0008 0D46     		mov	r5, r1	@ rowstride, tmp120
 4628 000a 1646     		mov	r6, r2	@ p1, tmp121
 4629 000c 0C9F     		ldr	r7, [sp, #48]	@ p3, p3
 4630 000e DDF83880 		ldr	r8, [sp, #56]	@ pattern, pattern
 4631 0012 DDF83490 		ldr	r9, [sp, #52]	@ p4, p4
 4632              	@ mini3d/render.c:547: 	fillTriangle_zbuf(bitmap, rowstride, p1, p2, p3, pattern);
 4633              		.loc 1 547 2 view .LVU1181
 4634 0016 CDE90078 		strd	r7, r8, [sp]	@ p3, pattern,
 4635 001a FFF7FEFF 		bl	fillTriangle_zbuf		@
 4636              	.LVL385:
 548:mini3d/render.c **** 	return fillTriangle_zbuf(bitmap, rowstride, p1, p3, p4, pattern);
 4637              		.loc 1 548 2 is_stmt 1 view .LVU1182
 4638              	@ mini3d/render.c:548: 	return fillTriangle_zbuf(bitmap, rowstride, p1, p3, p4, pattern);
 4639              		.loc 1 548 9 is_stmt 0 view .LVU1183
 4640 001e 3246     		mov	r2, r6	@, p1
 4641 0020 2946     		mov	r1, r5	@, rowstride
 4642 0022 2046     		mov	r0, r4	@, bitmap
 4643 0024 3B46     		mov	r3, r7	@, p3
 4644 0026 CDF83480 		str	r8, [sp, #52]	@ pattern,
 4645              	.LVL386:
 4646              		.loc 1 548 9 view .LVU1184
 4647 002a CDF83090 		str	r9, [sp, #48]	@ p4,
 4648              	.LVL387:
 4649              	@ mini3d/render.c:549: }
 549:mini3d/render.c **** }
 4650              		.loc 1 549 1 view .LVU1185
 4651 002e 05B0     		add	sp, sp, #20	@,,
 4652              	.LCFI39:
 4653              		.cfi_def_cfa_offset 28
 4654              		@ sp needed	@
 4655 0030 BDE8F043 		pop	{r4, r5, r6, r7, r8, r9, lr}	@
 4656              	.LCFI40:
 4657              		.cfi_restore 14
 4658              		.cfi_restore 9
 4659              		.cfi_restore 8
 4660              		.cfi_restore 7
 4661              		.cfi_restore 6
 4662              		.cfi_restore 5
 4663              		.cfi_restore 4
 4664              		.cfi_def_cfa_offset 0
 4665              	.LVL388:
 4666              	@ mini3d/render.c:548: 	return fillTriangle_zbuf(bitmap, rowstride, p1, p3, p4, pattern);
 548:mini3d/render.c **** 	return fillTriangle_zbuf(bitmap, rowstride, p1, p3, p4, pattern);
 4667              		.loc 1 548 9 view .LVU1186
 4668 0034 FFF7FEBF 		b	fillTriangle_zbuf		@
 4669              	.LVL389:
 548:mini3d/render.c **** 	return fillTriangle_zbuf(bitmap, rowstride, p1, p3, p4, pattern);
 4670              		.loc 1 548 9 view .LVU1187
 4671              		.cfi_endproc
 4672              	.LFE26:
 4673              		.size	fillQuad_zbuf, .-fillQuad_zbuf
 4674              		.section	.bss.zbuf,"aw",%nobits
 4675              		.align	2
 4676              		.type	zbuf, %object
 4677              		.size	zbuf, 192000
 4678              	zbuf:
ARM GAS  /var/folders/cs/83z6p2tj4w57s6p2rt8nwfp00000gn/T//ccDzWS9O.s 			page 110


 4679 0000 00000000 		.space	192000
 4679      00000000 
 4679      00000000 
 4679      00000000 
 4679      00000000 
 4680              		.section	.bss.zscale,"aw",%nobits
 4681              		.align	2
 4682              		.set	.LANCHOR0,. + 0
 4683              		.type	zscale, %object
 4684              		.size	zscale, 4
 4685              	zscale:
 4686 0000 00000000 		.space	4
 4687              		.text
 4688              	.Letext0:
 4689              		.file 2 "/usr/local/playdate/gcc-arm-none-eabi-9-2019-q4-major/arm-none-eabi/include/machine/_defa
 4690              		.file 3 "/usr/local/playdate/gcc-arm-none-eabi-9-2019-q4-major/arm-none-eabi/include/sys/_stdint.h
 4691              		.file 4 "/usr/local/playdate/gcc-arm-none-eabi-9-2019-q4-major/lib/gcc/arm-none-eabi/9.2.1/include
 4692              		.file 5 "/usr/local/playdate/gcc-arm-none-eabi-9-2019-q4-major/arm-none-eabi/include/sys/lock.h"
 4693              		.file 6 "/usr/local/playdate/gcc-arm-none-eabi-9-2019-q4-major/arm-none-eabi/include/sys/_types.h"
 4694              		.file 7 "/usr/local/playdate/gcc-arm-none-eabi-9-2019-q4-major/arm-none-eabi/include/sys/reent.h"
 4695              		.file 8 "/usr/local/playdate/gcc-arm-none-eabi-9-2019-q4-major/arm-none-eabi/include/math.h"
 4696              		.file 9 "mini3d/3dmath.h"
 4697              		.file 10 "mini3d/mini3d.h"
 4698              		.file 11 "mini3d/render.h"
 4699              		.file 12 "<built-in>"
 4700              		.section	.debug_info,"",%progbits
 4701              	.Ldebug_info0:
 4702 0000 7C290000 		.4byte	0x297c
 4703 0004 0200     		.2byte	0x2
 4704 0006 00000000 		.4byte	.Ldebug_abbrev0
 4705 000a 04       		.byte	0x4
 4706 000b 01       		.uleb128 0x1
 4707 000c 60060000 		.4byte	.LASF180
 4708 0010 0C       		.byte	0xc
 4709 0011 F9010000 		.4byte	.LASF181
 4710 0015 EB050000 		.4byte	.LASF182
 4711 0019 B0040000 		.4byte	.Ldebug_ranges0+0x4b0
 4712 001d 00000000 		.4byte	0
 4713 0021 00000000 		.4byte	0
 4714 0025 00000000 		.4byte	.Ldebug_line0
 4715 0029 02       		.uleb128 0x2
 4716 002a 04       		.byte	0x4
 4717 002b 04       		.byte	0x4
 4718 002c FF000000 		.4byte	.LASF0
 4719 0030 03       		.uleb128 0x3
 4720 0031 04       		.byte	0x4
 4721 0032 05       		.byte	0x5
 4722 0033 696E7400 		.ascii	"int\000"
 4723 0037 02       		.uleb128 0x2
 4724 0038 01       		.byte	0x1
 4725 0039 06       		.byte	0x6
 4726 003a 4D060000 		.4byte	.LASF1
 4727 003e 04       		.uleb128 0x4
 4728 003f C1040000 		.4byte	.LASF3
 4729 0043 02       		.byte	0x2
 4730 0044 2B       		.byte	0x2b
 4731 0045 18       		.byte	0x18
ARM GAS  /var/folders/cs/83z6p2tj4w57s6p2rt8nwfp00000gn/T//ccDzWS9O.s 			page 111


 4732 0046 4A000000 		.4byte	0x4a
 4733 004a 02       		.uleb128 0x2
 4734 004b 01       		.byte	0x1
 4735 004c 08       		.byte	0x8
 4736 004d 6D050000 		.4byte	.LASF2
 4737 0051 04       		.uleb128 0x4
 4738 0052 57030000 		.4byte	.LASF4
 4739 0056 02       		.byte	0x2
 4740 0057 37       		.byte	0x37
 4741 0058 18       		.byte	0x18
 4742 0059 5D000000 		.4byte	0x5d
 4743 005d 02       		.uleb128 0x2
 4744 005e 02       		.byte	0x2
 4745 005f 05       		.byte	0x5
 4746 0060 31040000 		.4byte	.LASF5
 4747 0064 04       		.uleb128 0x4
 4748 0065 73010000 		.4byte	.LASF6
 4749 0069 02       		.byte	0x2
 4750 006a 39       		.byte	0x39
 4751 006b 19       		.byte	0x19
 4752 006c 70000000 		.4byte	0x70
 4753 0070 02       		.uleb128 0x2
 4754 0071 02       		.byte	0x2
 4755 0072 07       		.byte	0x7
 4756 0073 53070000 		.4byte	.LASF7
 4757 0077 04       		.uleb128 0x4
 4758 0078 6B000000 		.4byte	.LASF8
 4759 007c 02       		.byte	0x2
 4760 007d 4D       		.byte	0x4d
 4761 007e 18       		.byte	0x18
 4762 007f 83000000 		.4byte	0x83
 4763 0083 02       		.uleb128 0x2
 4764 0084 04       		.byte	0x4
 4765 0085 05       		.byte	0x5
 4766 0086 3B040000 		.4byte	.LASF9
 4767 008a 04       		.uleb128 0x4
 4768 008b 82050000 		.4byte	.LASF10
 4769 008f 02       		.byte	0x2
 4770 0090 4F       		.byte	0x4f
 4771 0091 19       		.byte	0x19
 4772 0092 96000000 		.4byte	0x96
 4773 0096 02       		.uleb128 0x2
 4774 0097 04       		.byte	0x4
 4775 0098 07       		.byte	0x7
 4776 0099 1C050000 		.4byte	.LASF11
 4777 009d 02       		.uleb128 0x2
 4778 009e 08       		.byte	0x8
 4779 009f 05       		.byte	0x5
 4780 00a0 FD020000 		.4byte	.LASF12
 4781 00a4 02       		.uleb128 0x2
 4782 00a5 08       		.byte	0x8
 4783 00a6 07       		.byte	0x7
 4784 00a7 42010000 		.4byte	.LASF13
 4785 00ab 02       		.uleb128 0x2
 4786 00ac 04       		.byte	0x4
 4787 00ad 07       		.byte	0x7
 4788 00ae 49000000 		.4byte	.LASF14
ARM GAS  /var/folders/cs/83z6p2tj4w57s6p2rt8nwfp00000gn/T//ccDzWS9O.s 			page 112


 4789 00b2 04       		.uleb128 0x4
 4790 00b3 AA020000 		.4byte	.LASF15
 4791 00b7 03       		.byte	0x3
 4792 00b8 18       		.byte	0x18
 4793 00b9 13       		.byte	0x13
 4794 00ba 3E000000 		.4byte	0x3e
 4795 00be 04       		.uleb128 0x4
 4796 00bf 21010000 		.4byte	.LASF16
 4797 00c3 03       		.byte	0x3
 4798 00c4 20       		.byte	0x20
 4799 00c5 13       		.byte	0x13
 4800 00c6 51000000 		.4byte	0x51
 4801 00ca 04       		.uleb128 0x4
 4802 00cb EF030000 		.4byte	.LASF17
 4803 00cf 03       		.byte	0x3
 4804 00d0 24       		.byte	0x24
 4805 00d1 14       		.byte	0x14
 4806 00d2 64000000 		.4byte	0x64
 4807 00d6 04       		.uleb128 0x4
 4808 00d7 3C050000 		.4byte	.LASF18
 4809 00db 03       		.byte	0x3
 4810 00dc 2C       		.byte	0x2c
 4811 00dd 13       		.byte	0x13
 4812 00de 77000000 		.4byte	0x77
 4813 00e2 04       		.uleb128 0x4
 4814 00e3 E4000000 		.4byte	.LASF19
 4815 00e7 03       		.byte	0x3
 4816 00e8 30       		.byte	0x30
 4817 00e9 14       		.byte	0x14
 4818 00ea 8A000000 		.4byte	0x8a
 4819 00ee 04       		.uleb128 0x4
 4820 00ef AD010000 		.4byte	.LASF20
 4821 00f3 04       		.byte	0x4
 4822 00f4 D1       		.byte	0xd1
 4823 00f5 17       		.byte	0x17
 4824 00f6 AB000000 		.4byte	0xab
 4825 00fa 02       		.uleb128 0x2
 4826 00fb 08       		.byte	0x8
 4827 00fc 04       		.byte	0x4
 4828 00fd DB030000 		.4byte	.LASF21
 4829 0101 04       		.uleb128 0x4
 4830 0102 E7030000 		.4byte	.LASF22
 4831 0106 05       		.byte	0x5
 4832 0107 22       		.byte	0x22
 4833 0108 19       		.byte	0x19
 4834 0109 0D010000 		.4byte	0x10d
 4835 010d 05       		.uleb128 0x5
 4836 010e 04       		.byte	0x4
 4837 010f 13010000 		.4byte	0x113
 4838 0113 06       		.uleb128 0x6
 4839 0114 50050000 		.4byte	.LASF129
 4840 0118 01       		.byte	0x1
 4841 0119 04       		.uleb128 0x4
 4842 011a 7C070000 		.4byte	.LASF23
 4843 011e 06       		.byte	0x6
 4844 011f 2C       		.byte	0x2c
 4845 0120 0E       		.byte	0xe
ARM GAS  /var/folders/cs/83z6p2tj4w57s6p2rt8nwfp00000gn/T//ccDzWS9O.s 			page 113


 4846 0121 83000000 		.4byte	0x83
 4847 0125 04       		.uleb128 0x4
 4848 0126 AB000000 		.4byte	.LASF24
 4849 012a 06       		.byte	0x6
 4850 012b 72       		.byte	0x72
 4851 012c 0E       		.byte	0xe
 4852 012d 83000000 		.4byte	0x83
 4853 0131 07       		.uleb128 0x7
 4854 0132 35050000 		.4byte	.LASF25
 4855 0136 04       		.byte	0x4
 4856 0137 5E01     		.2byte	0x15e
 4857 0139 17       		.byte	0x17
 4858 013a AB000000 		.4byte	0xab
 4859 013e 08       		.uleb128 0x8
 4860 013f 04       		.byte	0x4
 4861 0140 06       		.byte	0x6
 4862 0141 A6       		.byte	0xa6
 4863 0142 03       		.byte	0x3
 4864 0143 60010000 		.4byte	0x160
 4865 0147 09       		.uleb128 0x9
 4866 0148 9E020000 		.4byte	.LASF26
 4867 014c 06       		.byte	0x6
 4868 014d A8       		.byte	0xa8
 4869 014e 0C       		.byte	0xc
 4870 014f 31010000 		.4byte	0x131
 4871 0153 09       		.uleb128 0x9
 4872 0154 78040000 		.4byte	.LASF27
 4873 0158 06       		.byte	0x6
 4874 0159 A9       		.byte	0xa9
 4875 015a 13       		.byte	0x13
 4876 015b 60010000 		.4byte	0x160
 4877 015f 00       		.byte	0
 4878 0160 0A       		.uleb128 0xa
 4879 0161 4A000000 		.4byte	0x4a
 4880 0165 70010000 		.4byte	0x170
 4881 0169 0B       		.uleb128 0xb
 4882 016a AB000000 		.4byte	0xab
 4883 016e 03       		.byte	0x3
 4884 016f 00       		.byte	0
 4885 0170 0C       		.uleb128 0xc
 4886 0171 08       		.byte	0x8
 4887 0172 06       		.byte	0x6
 4888 0173 A3       		.byte	0xa3
 4889 0174 09       		.byte	0x9
 4890 0175 98010000 		.4byte	0x198
 4891 0179 0D       		.uleb128 0xd
 4892 017a F7000000 		.4byte	.LASF28
 4893 017e 06       		.byte	0x6
 4894 017f A5       		.byte	0xa5
 4895 0180 07       		.byte	0x7
 4896 0181 30000000 		.4byte	0x30
 4897 0185 02       		.byte	0x2
 4898 0186 23       		.byte	0x23
 4899 0187 00       		.uleb128 0
 4900 0188 0D       		.uleb128 0xd
 4901 0189 09020000 		.4byte	.LASF29
 4902 018d 06       		.byte	0x6
ARM GAS  /var/folders/cs/83z6p2tj4w57s6p2rt8nwfp00000gn/T//ccDzWS9O.s 			page 114


 4903 018e AA       		.byte	0xaa
 4904 018f 05       		.byte	0x5
 4905 0190 3E010000 		.4byte	0x13e
 4906 0194 02       		.byte	0x2
 4907 0195 23       		.byte	0x23
 4908 0196 04       		.uleb128 0x4
 4909 0197 00       		.byte	0
 4910 0198 04       		.uleb128 0x4
 4911 0199 90030000 		.4byte	.LASF30
 4912 019d 06       		.byte	0x6
 4913 019e AB       		.byte	0xab
 4914 019f 03       		.byte	0x3
 4915 01a0 70010000 		.4byte	0x170
 4916 01a4 04       		.uleb128 0x4
 4917 01a5 95020000 		.4byte	.LASF31
 4918 01a9 06       		.byte	0x6
 4919 01aa AF       		.byte	0xaf
 4920 01ab 1B       		.byte	0x1b
 4921 01ac 01010000 		.4byte	0x101
 4922 01b0 0E       		.uleb128 0xe
 4923 01b1 04       		.byte	0x4
 4924 01b2 05       		.uleb128 0x5
 4925 01b3 04       		.byte	0x4
 4926 01b4 B8010000 		.4byte	0x1b8
 4927 01b8 02       		.uleb128 0x2
 4928 01b9 01       		.byte	0x1
 4929 01ba 08       		.byte	0x8
 4930 01bb 53020000 		.4byte	.LASF32
 4931 01bf 0F       		.uleb128 0xf
 4932 01c0 B8010000 		.4byte	0x1b8
 4933 01c4 04       		.uleb128 0x4
 4934 01c5 21030000 		.4byte	.LASF33
 4935 01c9 07       		.byte	0x7
 4936 01ca 16       		.byte	0x16
 4937 01cb 19       		.byte	0x19
 4938 01cc 96000000 		.4byte	0x96
 4939 01d0 10       		.uleb128 0x10
 4940 01d1 CA000000 		.4byte	.LASF38
 4941 01d5 18       		.byte	0x18
 4942 01d6 07       		.byte	0x7
 4943 01d7 2F       		.byte	0x2f
 4944 01d8 08       		.byte	0x8
 4945 01d9 36020000 		.4byte	0x236
 4946 01dd 0D       		.uleb128 0xd
 4947 01de E2010000 		.4byte	.LASF34
 4948 01e2 07       		.byte	0x7
 4949 01e3 31       		.byte	0x31
 4950 01e4 13       		.byte	0x13
 4951 01e5 36020000 		.4byte	0x236
 4952 01e9 02       		.byte	0x2
 4953 01ea 23       		.byte	0x23
 4954 01eb 00       		.uleb128 0
 4955 01ec 11       		.uleb128 0x11
 4956 01ed 5F6B00   		.ascii	"_k\000"
 4957 01f0 07       		.byte	0x7
 4958 01f1 32       		.byte	0x32
 4959 01f2 07       		.byte	0x7
ARM GAS  /var/folders/cs/83z6p2tj4w57s6p2rt8nwfp00000gn/T//ccDzWS9O.s 			page 115


 4960 01f3 30000000 		.4byte	0x30
 4961 01f7 02       		.byte	0x2
 4962 01f8 23       		.byte	0x23
 4963 01f9 04       		.uleb128 0x4
 4964 01fa 0D       		.uleb128 0xd
 4965 01fb D8040000 		.4byte	.LASF35
 4966 01ff 07       		.byte	0x7
 4967 0200 32       		.byte	0x32
 4968 0201 0B       		.byte	0xb
 4969 0202 30000000 		.4byte	0x30
 4970 0206 02       		.byte	0x2
 4971 0207 23       		.byte	0x23
 4972 0208 08       		.uleb128 0x8
 4973 0209 0D       		.uleb128 0xd
 4974 020a 60040000 		.4byte	.LASF36
 4975 020e 07       		.byte	0x7
 4976 020f 32       		.byte	0x32
 4977 0210 14       		.byte	0x14
 4978 0211 30000000 		.4byte	0x30
 4979 0215 02       		.byte	0x2
 4980 0216 23       		.byte	0x23
 4981 0217 0C       		.uleb128 0xc
 4982 0218 0D       		.uleb128 0xd
 4983 0219 6E010000 		.4byte	.LASF37
 4984 021d 07       		.byte	0x7
 4985 021e 32       		.byte	0x32
 4986 021f 1B       		.byte	0x1b
 4987 0220 30000000 		.4byte	0x30
 4988 0224 02       		.byte	0x2
 4989 0225 23       		.byte	0x23
 4990 0226 10       		.uleb128 0x10
 4991 0227 11       		.uleb128 0x11
 4992 0228 5F7800   		.ascii	"_x\000"
 4993 022b 07       		.byte	0x7
 4994 022c 33       		.byte	0x33
 4995 022d 0B       		.byte	0xb
 4996 022e 3C020000 		.4byte	0x23c
 4997 0232 02       		.byte	0x2
 4998 0233 23       		.byte	0x23
 4999 0234 14       		.uleb128 0x14
 5000 0235 00       		.byte	0
 5001 0236 05       		.uleb128 0x5
 5002 0237 04       		.byte	0x4
 5003 0238 D0010000 		.4byte	0x1d0
 5004 023c 0A       		.uleb128 0xa
 5005 023d C4010000 		.4byte	0x1c4
 5006 0241 4C020000 		.4byte	0x24c
 5007 0245 0B       		.uleb128 0xb
 5008 0246 AB000000 		.4byte	0xab
 5009 024a 00       		.byte	0
 5010 024b 00       		.byte	0
 5011 024c 10       		.uleb128 0x10
 5012 024d 11050000 		.4byte	.LASF39
 5013 0251 24       		.byte	0x24
 5014 0252 07       		.byte	0x7
 5015 0253 37       		.byte	0x37
 5016 0254 08       		.byte	0x8
ARM GAS  /var/folders/cs/83z6p2tj4w57s6p2rt8nwfp00000gn/T//ccDzWS9O.s 			page 116


 5017 0255 E1020000 		.4byte	0x2e1
 5018 0259 0D       		.uleb128 0xd
 5019 025a B4010000 		.4byte	.LASF40
 5020 025e 07       		.byte	0x7
 5021 025f 39       		.byte	0x39
 5022 0260 09       		.byte	0x9
 5023 0261 30000000 		.4byte	0x30
 5024 0265 02       		.byte	0x2
 5025 0266 23       		.byte	0x23
 5026 0267 00       		.uleb128 0
 5027 0268 0D       		.uleb128 0xd
 5028 0269 05010000 		.4byte	.LASF41
 5029 026d 07       		.byte	0x7
 5030 026e 3A       		.byte	0x3a
 5031 026f 09       		.byte	0x9
 5032 0270 30000000 		.4byte	0x30
 5033 0274 02       		.byte	0x2
 5034 0275 23       		.byte	0x23
 5035 0276 04       		.uleb128 0x4
 5036 0277 0D       		.uleb128 0xd
 5037 0278 ED000000 		.4byte	.LASF42
 5038 027c 07       		.byte	0x7
 5039 027d 3B       		.byte	0x3b
 5040 027e 09       		.byte	0x9
 5041 027f 30000000 		.4byte	0x30
 5042 0283 02       		.byte	0x2
 5043 0284 23       		.byte	0x23
 5044 0285 08       		.uleb128 0x8
 5045 0286 0D       		.uleb128 0xd
 5046 0287 58020000 		.4byte	.LASF43
 5047 028b 07       		.byte	0x7
 5048 028c 3C       		.byte	0x3c
 5049 028d 09       		.byte	0x9
 5050 028e 30000000 		.4byte	0x30
 5051 0292 02       		.byte	0x2
 5052 0293 23       		.byte	0x23
 5053 0294 0C       		.uleb128 0xc
 5054 0295 0D       		.uleb128 0xd
 5055 0296 D2030000 		.4byte	.LASF44
 5056 029a 07       		.byte	0x7
 5057 029b 3D       		.byte	0x3d
 5058 029c 09       		.byte	0x9
 5059 029d 30000000 		.4byte	0x30
 5060 02a1 02       		.byte	0x2
 5061 02a2 23       		.byte	0x23
 5062 02a3 10       		.uleb128 0x10
 5063 02a4 0D       		.uleb128 0xd
 5064 02a5 92040000 		.4byte	.LASF45
 5065 02a9 07       		.byte	0x7
 5066 02aa 3E       		.byte	0x3e
 5067 02ab 09       		.byte	0x9
 5068 02ac 30000000 		.4byte	0x30
 5069 02b0 02       		.byte	0x2
 5070 02b1 23       		.byte	0x23
 5071 02b2 14       		.uleb128 0x14
 5072 02b3 0D       		.uleb128 0xd
 5073 02b4 D2000000 		.4byte	.LASF46
ARM GAS  /var/folders/cs/83z6p2tj4w57s6p2rt8nwfp00000gn/T//ccDzWS9O.s 			page 117


 5074 02b8 07       		.byte	0x7
 5075 02b9 3F       		.byte	0x3f
 5076 02ba 09       		.byte	0x9
 5077 02bb 30000000 		.4byte	0x30
 5078 02bf 02       		.byte	0x2
 5079 02c0 23       		.byte	0x23
 5080 02c1 18       		.uleb128 0x18
 5081 02c2 0D       		.uleb128 0xd
 5082 02c3 C7010000 		.4byte	.LASF47
 5083 02c7 07       		.byte	0x7
 5084 02c8 40       		.byte	0x40
 5085 02c9 09       		.byte	0x9
 5086 02ca 30000000 		.4byte	0x30
 5087 02ce 02       		.byte	0x2
 5088 02cf 23       		.byte	0x23
 5089 02d0 1C       		.uleb128 0x1c
 5090 02d1 0D       		.uleb128 0xd
 5091 02d2 AA030000 		.4byte	.LASF48
 5092 02d6 07       		.byte	0x7
 5093 02d7 41       		.byte	0x41
 5094 02d8 09       		.byte	0x9
 5095 02d9 30000000 		.4byte	0x30
 5096 02dd 02       		.byte	0x2
 5097 02de 23       		.byte	0x23
 5098 02df 20       		.uleb128 0x20
 5099 02e0 00       		.byte	0
 5100 02e1 12       		.uleb128 0x12
 5101 02e2 17000000 		.4byte	.LASF49
 5102 02e6 0801     		.2byte	0x108
 5103 02e8 07       		.byte	0x7
 5104 02e9 4A       		.byte	0x4a
 5105 02ea 08       		.byte	0x8
 5106 02eb 2F030000 		.4byte	0x32f
 5107 02ef 0D       		.uleb128 0xd
 5108 02f0 45060000 		.4byte	.LASF50
 5109 02f4 07       		.byte	0x7
 5110 02f5 4B       		.byte	0x4b
 5111 02f6 0A       		.byte	0xa
 5112 02f7 2F030000 		.4byte	0x32f
 5113 02fb 02       		.byte	0x2
 5114 02fc 23       		.byte	0x23
 5115 02fd 00       		.uleb128 0
 5116 02fe 0D       		.uleb128 0xd
 5117 02ff 44050000 		.4byte	.LASF51
 5118 0303 07       		.byte	0x7
 5119 0304 4C       		.byte	0x4c
 5120 0305 09       		.byte	0x9
 5121 0306 2F030000 		.4byte	0x32f
 5122 030a 03       		.byte	0x3
 5123 030b 23       		.byte	0x23
 5124 030c 8001     		.uleb128 0x80
 5125 030e 0D       		.uleb128 0xd
 5126 030f 66070000 		.4byte	.LASF52
 5127 0313 07       		.byte	0x7
 5128 0314 4E       		.byte	0x4e
 5129 0315 0A       		.byte	0xa
 5130 0316 C4010000 		.4byte	0x1c4
ARM GAS  /var/folders/cs/83z6p2tj4w57s6p2rt8nwfp00000gn/T//ccDzWS9O.s 			page 118


 5131 031a 03       		.byte	0x3
 5132 031b 23       		.byte	0x23
 5133 031c 8002     		.uleb128 0x100
 5134 031e 0D       		.uleb128 0xd
 5135 031f B7070000 		.4byte	.LASF53
 5136 0323 07       		.byte	0x7
 5137 0324 51       		.byte	0x51
 5138 0325 0A       		.byte	0xa
 5139 0326 C4010000 		.4byte	0x1c4
 5140 032a 03       		.byte	0x3
 5141 032b 23       		.byte	0x23
 5142 032c 8402     		.uleb128 0x104
 5143 032e 00       		.byte	0
 5144 032f 0A       		.uleb128 0xa
 5145 0330 B0010000 		.4byte	0x1b0
 5146 0334 3F030000 		.4byte	0x33f
 5147 0338 0B       		.uleb128 0xb
 5148 0339 AB000000 		.4byte	0xab
 5149 033d 1F       		.byte	0x1f
 5150 033e 00       		.byte	0
 5151 033f 12       		.uleb128 0x12
 5152 0340 11040000 		.4byte	.LASF54
 5153 0344 9001     		.2byte	0x190
 5154 0346 07       		.byte	0x7
 5155 0347 5D       		.byte	0x5d
 5156 0348 08       		.byte	0x8
 5157 0349 8B030000 		.4byte	0x38b
 5158 034d 0D       		.uleb128 0xd
 5159 034e E2010000 		.4byte	.LASF34
 5160 0352 07       		.byte	0x7
 5161 0353 5E       		.byte	0x5e
 5162 0354 12       		.byte	0x12
 5163 0355 8B030000 		.4byte	0x38b
 5164 0359 02       		.byte	0x2
 5165 035a 23       		.byte	0x23
 5166 035b 00       		.uleb128 0
 5167 035c 0D       		.uleb128 0xd
 5168 035d D6010000 		.4byte	.LASF55
 5169 0361 07       		.byte	0x7
 5170 0362 5F       		.byte	0x5f
 5171 0363 06       		.byte	0x6
 5172 0364 30000000 		.4byte	0x30
 5173 0368 02       		.byte	0x2
 5174 0369 23       		.byte	0x23
 5175 036a 04       		.uleb128 0x4
 5176 036b 0D       		.uleb128 0xd
 5177 036c BD000000 		.4byte	.LASF56
 5178 0370 07       		.byte	0x7
 5179 0371 61       		.byte	0x61
 5180 0372 09       		.byte	0x9
 5181 0373 91030000 		.4byte	0x391
 5182 0377 02       		.byte	0x2
 5183 0378 23       		.byte	0x23
 5184 0379 08       		.uleb128 0x8
 5185 037a 0D       		.uleb128 0xd
 5186 037b 17000000 		.4byte	.LASF49
 5187 037f 07       		.byte	0x7
ARM GAS  /var/folders/cs/83z6p2tj4w57s6p2rt8nwfp00000gn/T//ccDzWS9O.s 			page 119


 5188 0380 62       		.byte	0x62
 5189 0381 1E       		.byte	0x1e
 5190 0382 E1020000 		.4byte	0x2e1
 5191 0386 03       		.byte	0x3
 5192 0387 23       		.byte	0x23
 5193 0388 8801     		.uleb128 0x88
 5194 038a 00       		.byte	0
 5195 038b 05       		.uleb128 0x5
 5196 038c 04       		.byte	0x4
 5197 038d 3F030000 		.4byte	0x33f
 5198 0391 0A       		.uleb128 0xa
 5199 0392 A1030000 		.4byte	0x3a1
 5200 0396 A1030000 		.4byte	0x3a1
 5201 039a 0B       		.uleb128 0xb
 5202 039b AB000000 		.4byte	0xab
 5203 039f 1F       		.byte	0x1f
 5204 03a0 00       		.byte	0
 5205 03a1 05       		.uleb128 0x5
 5206 03a2 04       		.byte	0x4
 5207 03a3 A7030000 		.4byte	0x3a7
 5208 03a7 13       		.uleb128 0x13
 5209 03a8 01       		.byte	0x1
 5210 03a9 10       		.uleb128 0x10
 5211 03aa CD050000 		.4byte	.LASF57
 5212 03ae 08       		.byte	0x8
 5213 03af 07       		.byte	0x7
 5214 03b0 75       		.byte	0x75
 5215 03b1 08       		.byte	0x8
 5216 03b2 D5030000 		.4byte	0x3d5
 5217 03b6 0D       		.uleb128 0xd
 5218 03b7 0B030000 		.4byte	.LASF58
 5219 03bb 07       		.byte	0x7
 5220 03bc 76       		.byte	0x76
 5221 03bd 11       		.byte	0x11
 5222 03be D5030000 		.4byte	0x3d5
 5223 03c2 02       		.byte	0x2
 5224 03c3 23       		.byte	0x23
 5225 03c4 00       		.uleb128 0
 5226 03c5 0D       		.uleb128 0xd
 5227 03c6 6F070000 		.4byte	.LASF59
 5228 03ca 07       		.byte	0x7
 5229 03cb 77       		.byte	0x77
 5230 03cc 06       		.byte	0x6
 5231 03cd 30000000 		.4byte	0x30
 5232 03d1 02       		.byte	0x2
 5233 03d2 23       		.byte	0x23
 5234 03d3 04       		.uleb128 0x4
 5235 03d4 00       		.byte	0
 5236 03d5 05       		.uleb128 0x5
 5237 03d6 04       		.byte	0x4
 5238 03d7 4A000000 		.4byte	0x4a
 5239 03db 10       		.uleb128 0x10
 5240 03dc 66010000 		.4byte	.LASF60
 5241 03e0 68       		.byte	0x68
 5242 03e1 07       		.byte	0x7
 5243 03e2 B5       		.byte	0xb5
 5244 03e3 08       		.byte	0x8
ARM GAS  /var/folders/cs/83z6p2tj4w57s6p2rt8nwfp00000gn/T//ccDzWS9O.s 			page 120


 5245 03e4 4E050000 		.4byte	0x54e
 5246 03e8 11       		.uleb128 0x11
 5247 03e9 5F7000   		.ascii	"_p\000"
 5248 03ec 07       		.byte	0x7
 5249 03ed B6       		.byte	0xb6
 5250 03ee 12       		.byte	0x12
 5251 03ef D5030000 		.4byte	0x3d5
 5252 03f3 02       		.byte	0x2
 5253 03f4 23       		.byte	0x23
 5254 03f5 00       		.uleb128 0
 5255 03f6 11       		.uleb128 0x11
 5256 03f7 5F7200   		.ascii	"_r\000"
 5257 03fa 07       		.byte	0x7
 5258 03fb B7       		.byte	0xb7
 5259 03fc 07       		.byte	0x7
 5260 03fd 30000000 		.4byte	0x30
 5261 0401 02       		.byte	0x2
 5262 0402 23       		.byte	0x23
 5263 0403 04       		.uleb128 0x4
 5264 0404 11       		.uleb128 0x11
 5265 0405 5F7700   		.ascii	"_w\000"
 5266 0408 07       		.byte	0x7
 5267 0409 B8       		.byte	0xb8
 5268 040a 07       		.byte	0x7
 5269 040b 30000000 		.4byte	0x30
 5270 040f 02       		.byte	0x2
 5271 0410 23       		.byte	0x23
 5272 0411 08       		.uleb128 0x8
 5273 0412 0D       		.uleb128 0xd
 5274 0413 64000000 		.4byte	.LASF61
 5275 0417 07       		.byte	0x7
 5276 0418 B9       		.byte	0xb9
 5277 0419 09       		.byte	0x9
 5278 041a 5D000000 		.4byte	0x5d
 5279 041e 02       		.byte	0x2
 5280 041f 23       		.byte	0x23
 5281 0420 0C       		.uleb128 0xc
 5282 0421 0D       		.uleb128 0xd
 5283 0422 51030000 		.4byte	.LASF62
 5284 0426 07       		.byte	0x7
 5285 0427 BA       		.byte	0xba
 5286 0428 09       		.byte	0x9
 5287 0429 5D000000 		.4byte	0x5d
 5288 042d 02       		.byte	0x2
 5289 042e 23       		.byte	0x23
 5290 042f 0E       		.uleb128 0xe
 5291 0430 11       		.uleb128 0x11
 5292 0431 5F626600 		.ascii	"_bf\000"
 5293 0435 07       		.byte	0x7
 5294 0436 BB       		.byte	0xbb
 5295 0437 11       		.byte	0x11
 5296 0438 A9030000 		.4byte	0x3a9
 5297 043c 02       		.byte	0x2
 5298 043d 23       		.byte	0x23
 5299 043e 10       		.uleb128 0x10
 5300 043f 0D       		.uleb128 0xd
 5301 0440 5B000000 		.4byte	.LASF63
ARM GAS  /var/folders/cs/83z6p2tj4w57s6p2rt8nwfp00000gn/T//ccDzWS9O.s 			page 121


 5302 0444 07       		.byte	0x7
 5303 0445 BC       		.byte	0xbc
 5304 0446 07       		.byte	0x7
 5305 0447 30000000 		.4byte	0x30
 5306 044b 02       		.byte	0x2
 5307 044c 23       		.byte	0x23
 5308 044d 18       		.uleb128 0x18
 5309 044e 0D       		.uleb128 0xd
 5310 044f C2000000 		.4byte	.LASF64
 5311 0453 07       		.byte	0x7
 5312 0454 C3       		.byte	0xc3
 5313 0455 0A       		.byte	0xa
 5314 0456 B0010000 		.4byte	0x1b0
 5315 045a 02       		.byte	0x2
 5316 045b 23       		.byte	0x23
 5317 045c 1C       		.uleb128 0x1c
 5318 045d 0D       		.uleb128 0xd
 5319 045e 85000000 		.4byte	.LASF65
 5320 0462 07       		.byte	0x7
 5321 0463 C5       		.byte	0xc5
 5322 0464 1D       		.byte	0x1d
 5323 0465 ED060000 		.4byte	0x6ed
 5324 0469 02       		.byte	0x2
 5325 046a 23       		.byte	0x23
 5326 046b 20       		.uleb128 0x20
 5327 046c 0D       		.uleb128 0xd
 5328 046d F8030000 		.4byte	.LASF66
 5329 0471 07       		.byte	0x7
 5330 0472 C7       		.byte	0xc7
 5331 0473 1D       		.byte	0x1d
 5332 0474 18070000 		.4byte	0x718
 5333 0478 02       		.byte	0x2
 5334 0479 23       		.byte	0x23
 5335 047a 24       		.uleb128 0x24
 5336 047b 0D       		.uleb128 0xd
 5337 047c DB070000 		.4byte	.LASF67
 5338 0480 07       		.byte	0x7
 5339 0481 CA       		.byte	0xca
 5340 0482 0D       		.byte	0xd
 5341 0483 3D070000 		.4byte	0x73d
 5342 0487 02       		.byte	0x2
 5343 0488 23       		.byte	0x23
 5344 0489 28       		.uleb128 0x28
 5345 048a 0D       		.uleb128 0xd
 5346 048b B2020000 		.4byte	.LASF68
 5347 048f 07       		.byte	0x7
 5348 0490 CB       		.byte	0xcb
 5349 0491 09       		.byte	0x9
 5350 0492 58070000 		.4byte	0x758
 5351 0496 02       		.byte	0x2
 5352 0497 23       		.byte	0x23
 5353 0498 2C       		.uleb128 0x2c
 5354 0499 11       		.uleb128 0x11
 5355 049a 5F756200 		.ascii	"_ub\000"
 5356 049e 07       		.byte	0x7
 5357 049f CE       		.byte	0xce
 5358 04a0 11       		.byte	0x11
ARM GAS  /var/folders/cs/83z6p2tj4w57s6p2rt8nwfp00000gn/T//ccDzWS9O.s 			page 122


 5359 04a1 A9030000 		.4byte	0x3a9
 5360 04a5 02       		.byte	0x2
 5361 04a6 23       		.byte	0x23
 5362 04a7 30       		.uleb128 0x30
 5363 04a8 11       		.uleb128 0x11
 5364 04a9 5F757000 		.ascii	"_up\000"
 5365 04ad 07       		.byte	0x7
 5366 04ae CF       		.byte	0xcf
 5367 04af 12       		.byte	0x12
 5368 04b0 D5030000 		.4byte	0x3d5
 5369 04b4 02       		.byte	0x2
 5370 04b5 23       		.byte	0x23
 5371 04b6 38       		.uleb128 0x38
 5372 04b7 11       		.uleb128 0x11
 5373 04b8 5F757200 		.ascii	"_ur\000"
 5374 04bc 07       		.byte	0x7
 5375 04bd D0       		.byte	0xd0
 5376 04be 07       		.byte	0x7
 5377 04bf 30000000 		.4byte	0x30
 5378 04c3 02       		.byte	0x2
 5379 04c4 23       		.byte	0x23
 5380 04c5 3C       		.uleb128 0x3c
 5381 04c6 0D       		.uleb128 0xd
 5382 04c7 01080000 		.4byte	.LASF69
 5383 04cb 07       		.byte	0x7
 5384 04cc D3       		.byte	0xd3
 5385 04cd 11       		.byte	0x11
 5386 04ce 5E070000 		.4byte	0x75e
 5387 04d2 02       		.byte	0x2
 5388 04d3 23       		.byte	0x23
 5389 04d4 40       		.uleb128 0x40
 5390 04d5 0D       		.uleb128 0xd
 5391 04d6 83070000 		.4byte	.LASF70
 5392 04da 07       		.byte	0x7
 5393 04db D4       		.byte	0xd4
 5394 04dc 11       		.byte	0x11
 5395 04dd 6E070000 		.4byte	0x76e
 5396 04e1 02       		.byte	0x2
 5397 04e2 23       		.byte	0x23
 5398 04e3 43       		.uleb128 0x43
 5399 04e4 11       		.uleb128 0x11
 5400 04e5 5F6C6200 		.ascii	"_lb\000"
 5401 04e9 07       		.byte	0x7
 5402 04ea D7       		.byte	0xd7
 5403 04eb 11       		.byte	0x11
 5404 04ec A9030000 		.4byte	0x3a9
 5405 04f0 02       		.byte	0x2
 5406 04f1 23       		.byte	0x23
 5407 04f2 44       		.uleb128 0x44
 5408 04f3 0D       		.uleb128 0xd
 5409 04f4 08050000 		.4byte	.LASF71
 5410 04f8 07       		.byte	0x7
 5411 04f9 DA       		.byte	0xda
 5412 04fa 07       		.byte	0x7
 5413 04fb 30000000 		.4byte	0x30
 5414 04ff 02       		.byte	0x2
 5415 0500 23       		.byte	0x23
ARM GAS  /var/folders/cs/83z6p2tj4w57s6p2rt8nwfp00000gn/T//ccDzWS9O.s 			page 123


 5416 0501 4C       		.uleb128 0x4c
 5417 0502 0D       		.uleb128 0xd
 5418 0503 94010000 		.4byte	.LASF72
 5419 0507 07       		.byte	0x7
 5420 0508 DB       		.byte	0xdb
 5421 0509 0A       		.byte	0xa
 5422 050a 19010000 		.4byte	0x119
 5423 050e 02       		.byte	0x2
 5424 050f 23       		.byte	0x23
 5425 0510 50       		.uleb128 0x50
 5426 0511 0D       		.uleb128 0xd
 5427 0512 72040000 		.4byte	.LASF73
 5428 0516 07       		.byte	0x7
 5429 0517 DE       		.byte	0xde
 5430 0518 12       		.byte	0x12
 5431 0519 6D050000 		.4byte	0x56d
 5432 051d 02       		.byte	0x2
 5433 051e 23       		.byte	0x23
 5434 051f 54       		.uleb128 0x54
 5435 0520 0D       		.uleb128 0xd
 5436 0521 16050000 		.4byte	.LASF74
 5437 0525 07       		.byte	0x7
 5438 0526 E2       		.byte	0xe2
 5439 0527 0C       		.byte	0xc
 5440 0528 A4010000 		.4byte	0x1a4
 5441 052c 02       		.byte	0x2
 5442 052d 23       		.byte	0x23
 5443 052e 58       		.uleb128 0x58
 5444 052f 0D       		.uleb128 0xd
 5445 0530 7C000000 		.4byte	.LASF75
 5446 0534 07       		.byte	0x7
 5447 0535 E4       		.byte	0xe4
 5448 0536 0E       		.byte	0xe
 5449 0537 98010000 		.4byte	0x198
 5450 053b 02       		.byte	0x2
 5451 053c 23       		.byte	0x23
 5452 053d 5C       		.uleb128 0x5c
 5453 053e 0D       		.uleb128 0xd
 5454 053f AF070000 		.4byte	.LASF76
 5455 0543 07       		.byte	0x7
 5456 0544 E5       		.byte	0xe5
 5457 0545 09       		.byte	0x9
 5458 0546 30000000 		.4byte	0x30
 5459 054a 02       		.byte	0x2
 5460 054b 23       		.byte	0x23
 5461 054c 64       		.uleb128 0x64
 5462 054d 00       		.byte	0
 5463 054e 14       		.uleb128 0x14
 5464 054f 01       		.byte	0x1
 5465 0550 30000000 		.4byte	0x30
 5466 0554 6D050000 		.4byte	0x56d
 5467 0558 15       		.uleb128 0x15
 5468 0559 6D050000 		.4byte	0x56d
 5469 055d 15       		.uleb128 0x15
 5470 055e B0010000 		.4byte	0x1b0
 5471 0562 15       		.uleb128 0x15
 5472 0563 B2010000 		.4byte	0x1b2
ARM GAS  /var/folders/cs/83z6p2tj4w57s6p2rt8nwfp00000gn/T//ccDzWS9O.s 			page 124


 5473 0567 15       		.uleb128 0x15
 5474 0568 30000000 		.4byte	0x30
 5475 056c 00       		.byte	0
 5476 056d 05       		.uleb128 0x5
 5477 056e 04       		.byte	0x4
 5478 056f 78050000 		.4byte	0x578
 5479 0573 0F       		.uleb128 0xf
 5480 0574 6D050000 		.4byte	0x56d
 5481 0578 16       		.uleb128 0x16
 5482 0579 59060000 		.4byte	.LASF77
 5483 057d 2804     		.2byte	0x428
 5484 057f 07       		.byte	0x7
 5485 0580 6002     		.2byte	0x260
 5486 0582 08       		.byte	0x8
 5487 0583 ED060000 		.4byte	0x6ed
 5488 0587 17       		.uleb128 0x17
 5489 0588 75000000 		.4byte	.LASF78
 5490 058c 07       		.byte	0x7
 5491 058d 6202     		.2byte	0x262
 5492 058f 07       		.byte	0x7
 5493 0590 30000000 		.4byte	0x30
 5494 0594 02       		.byte	0x2
 5495 0595 23       		.byte	0x23
 5496 0596 00       		.uleb128 0
 5497 0597 17       		.uleb128 0x17
 5498 0598 E7020000 		.4byte	.LASF79
 5499 059c 07       		.byte	0x7
 5500 059d 6702     		.2byte	0x267
 5501 059f 0B       		.byte	0xb
 5502 05a0 D0070000 		.4byte	0x7d0
 5503 05a4 02       		.byte	0x2
 5504 05a5 23       		.byte	0x23
 5505 05a6 04       		.uleb128 0x4
 5506 05a7 17       		.uleb128 0x17
 5507 05a8 A3000000 		.4byte	.LASF80
 5508 05ac 07       		.byte	0x7
 5509 05ad 6702     		.2byte	0x267
 5510 05af 14       		.byte	0x14
 5511 05b0 D0070000 		.4byte	0x7d0
 5512 05b4 02       		.byte	0x2
 5513 05b5 23       		.byte	0x23
 5514 05b6 08       		.uleb128 0x8
 5515 05b7 17       		.uleb128 0x17
 5516 05b8 F0070000 		.4byte	.LASF81
 5517 05bc 07       		.byte	0x7
 5518 05bd 6702     		.2byte	0x267
 5519 05bf 1E       		.byte	0x1e
 5520 05c0 D0070000 		.4byte	0x7d0
 5521 05c4 02       		.byte	0x2
 5522 05c5 23       		.byte	0x23
 5523 05c6 0C       		.uleb128 0xc
 5524 05c7 17       		.uleb128 0x17
 5525 05c8 D1010000 		.4byte	.LASF82
 5526 05cc 07       		.byte	0x7
 5527 05cd 6902     		.2byte	0x269
 5528 05cf 08       		.byte	0x8
 5529 05d0 30000000 		.4byte	0x30
ARM GAS  /var/folders/cs/83z6p2tj4w57s6p2rt8nwfp00000gn/T//ccDzWS9O.s 			page 125


 5530 05d4 02       		.byte	0x2
 5531 05d5 23       		.byte	0x23
 5532 05d6 10       		.uleb128 0x10
 5533 05d7 17       		.uleb128 0x17
 5534 05d8 9C010000 		.4byte	.LASF83
 5535 05dc 07       		.byte	0x7
 5536 05dd 6A02     		.2byte	0x26a
 5537 05df 08       		.byte	0x8
 5538 05e0 090A0000 		.4byte	0xa09
 5539 05e4 02       		.byte	0x2
 5540 05e5 23       		.byte	0x23
 5541 05e6 14       		.uleb128 0x14
 5542 05e7 17       		.uleb128 0x17
 5543 05e8 96070000 		.4byte	.LASF84
 5544 05ec 07       		.byte	0x7
 5545 05ed 6D02     		.2byte	0x26d
 5546 05ef 07       		.byte	0x7
 5547 05f0 30000000 		.4byte	0x30
 5548 05f4 02       		.byte	0x2
 5549 05f5 23       		.byte	0x23
 5550 05f6 30       		.uleb128 0x30
 5551 05f7 17       		.uleb128 0x17
 5552 05f8 3D060000 		.4byte	.LASF85
 5553 05fc 07       		.byte	0x7
 5554 05fd 6E02     		.2byte	0x26e
 5555 05ff 16       		.byte	0x16
 5556 0600 1F0A0000 		.4byte	0xa1f
 5557 0604 02       		.byte	0x2
 5558 0605 23       		.byte	0x23
 5559 0606 34       		.uleb128 0x34
 5560 0607 17       		.uleb128 0x17
 5561 0608 C2020000 		.4byte	.LASF86
 5562 060c 07       		.byte	0x7
 5563 060d 7002     		.2byte	0x270
 5564 060f 07       		.byte	0x7
 5565 0610 30000000 		.4byte	0x30
 5566 0614 02       		.byte	0x2
 5567 0615 23       		.byte	0x23
 5568 0616 38       		.uleb128 0x38
 5569 0617 17       		.uleb128 0x17
 5570 0618 68030000 		.4byte	.LASF87
 5571 061c 07       		.byte	0x7
 5572 061d 7202     		.2byte	0x272
 5573 061f 0A       		.byte	0xa
 5574 0620 310A0000 		.4byte	0xa31
 5575 0624 02       		.byte	0x2
 5576 0625 23       		.byte	0x23
 5577 0626 3C       		.uleb128 0x3c
 5578 0627 17       		.uleb128 0x17
 5579 0628 DC000000 		.4byte	.LASF88
 5580 062c 07       		.byte	0x7
 5581 062d 7502     		.2byte	0x275
 5582 062f 13       		.byte	0x13
 5583 0630 36020000 		.4byte	0x236
 5584 0634 02       		.byte	0x2
 5585 0635 23       		.byte	0x23
 5586 0636 40       		.uleb128 0x40
ARM GAS  /var/folders/cs/83z6p2tj4w57s6p2rt8nwfp00000gn/T//ccDzWS9O.s 			page 126


 5587 0637 17       		.uleb128 0x17
 5588 0638 38010000 		.4byte	.LASF89
 5589 063c 07       		.byte	0x7
 5590 063d 7602     		.2byte	0x276
 5591 063f 07       		.byte	0x7
 5592 0640 30000000 		.4byte	0x30
 5593 0644 02       		.byte	0x2
 5594 0645 23       		.byte	0x23
 5595 0646 44       		.uleb128 0x44
 5596 0647 17       		.uleb128 0x17
 5597 0648 11020000 		.4byte	.LASF90
 5598 064c 07       		.byte	0x7
 5599 064d 7702     		.2byte	0x277
 5600 064f 13       		.byte	0x13
 5601 0650 36020000 		.4byte	0x236
 5602 0654 02       		.byte	0x2
 5603 0655 23       		.byte	0x23
 5604 0656 48       		.uleb128 0x48
 5605 0657 17       		.uleb128 0x17
 5606 0658 11030000 		.4byte	.LASF91
 5607 065c 07       		.byte	0x7
 5608 065d 7802     		.2byte	0x278
 5609 065f 14       		.byte	0x14
 5610 0660 370A0000 		.4byte	0xa37
 5611 0664 02       		.byte	0x2
 5612 0665 23       		.byte	0x23
 5613 0666 4C       		.uleb128 0x4c
 5614 0667 17       		.uleb128 0x17
 5615 0668 D0040000 		.4byte	.LASF92
 5616 066c 07       		.byte	0x7
 5617 066d 7B02     		.2byte	0x27b
 5618 066f 07       		.byte	0x7
 5619 0670 30000000 		.4byte	0x30
 5620 0674 02       		.byte	0x2
 5621 0675 23       		.byte	0x23
 5622 0676 50       		.uleb128 0x50
 5623 0677 17       		.uleb128 0x17
 5624 0678 65050000 		.4byte	.LASF93
 5625 067c 07       		.byte	0x7
 5626 067d 7C02     		.2byte	0x27c
 5627 067f 09       		.byte	0x9
 5628 0680 B2010000 		.4byte	0x1b2
 5629 0684 02       		.byte	0x2
 5630 0685 23       		.byte	0x23
 5631 0686 54       		.uleb128 0x54
 5632 0687 17       		.uleb128 0x17
 5633 0688 CB040000 		.4byte	.LASF94
 5634 068c 07       		.byte	0x7
 5635 068d 9F02     		.2byte	0x29f
 5636 068f 07       		.byte	0x7
 5637 0690 E4090000 		.4byte	0x9e4
 5638 0694 02       		.byte	0x2
 5639 0695 23       		.byte	0x23
 5640 0696 58       		.uleb128 0x58
 5641 0697 17       		.uleb128 0x17
 5642 0698 11040000 		.4byte	.LASF54
 5643 069c 07       		.byte	0x7
ARM GAS  /var/folders/cs/83z6p2tj4w57s6p2rt8nwfp00000gn/T//ccDzWS9O.s 			page 127


 5644 069d A302     		.2byte	0x2a3
 5645 069f 13       		.byte	0x13
 5646 06a0 8B030000 		.4byte	0x38b
 5647 06a4 03       		.byte	0x3
 5648 06a5 23       		.byte	0x23
 5649 06a6 C802     		.uleb128 0x148
 5650 06a8 17       		.uleb128 0x17
 5651 06a9 7B020000 		.4byte	.LASF95
 5652 06ad 07       		.byte	0x7
 5653 06ae A402     		.2byte	0x2a4
 5654 06b0 12       		.byte	0x12
 5655 06b1 3F030000 		.4byte	0x33f
 5656 06b5 03       		.byte	0x3
 5657 06b6 23       		.byte	0x23
 5658 06b7 CC02     		.uleb128 0x14c
 5659 06b9 17       		.uleb128 0x17
 5660 06ba 62020000 		.4byte	.LASF96
 5661 06be 07       		.byte	0x7
 5662 06bf A802     		.2byte	0x2a8
 5663 06c1 0C       		.byte	0xc
 5664 06c2 490A0000 		.4byte	0xa49
 5665 06c6 03       		.byte	0x3
 5666 06c7 23       		.byte	0x23
 5667 06c8 DC05     		.uleb128 0x2dc
 5668 06ca 17       		.uleb128 0x17
 5669 06cb 12060000 		.4byte	.LASF97
 5670 06cf 07       		.byte	0x7
 5671 06d0 AD02     		.2byte	0x2ad
 5672 06d2 10       		.byte	0x10
 5673 06d3 8B070000 		.4byte	0x78b
 5674 06d7 03       		.byte	0x3
 5675 06d8 23       		.byte	0x23
 5676 06d9 E005     		.uleb128 0x2e0
 5677 06db 17       		.uleb128 0x17
 5678 06dc 5B040000 		.4byte	.LASF98
 5679 06e0 07       		.byte	0x7
 5680 06e1 AF02     		.2byte	0x2af
 5681 06e3 0A       		.byte	0xa
 5682 06e4 550A0000 		.4byte	0xa55
 5683 06e8 03       		.byte	0x3
 5684 06e9 23       		.byte	0x23
 5685 06ea EC05     		.uleb128 0x2ec
 5686 06ec 00       		.byte	0
 5687 06ed 05       		.uleb128 0x5
 5688 06ee 04       		.byte	0x4
 5689 06ef 4E050000 		.4byte	0x54e
 5690 06f3 14       		.uleb128 0x14
 5691 06f4 01       		.byte	0x1
 5692 06f5 30000000 		.4byte	0x30
 5693 06f9 12070000 		.4byte	0x712
 5694 06fd 15       		.uleb128 0x15
 5695 06fe 6D050000 		.4byte	0x56d
 5696 0702 15       		.uleb128 0x15
 5697 0703 B0010000 		.4byte	0x1b0
 5698 0707 15       		.uleb128 0x15
 5699 0708 12070000 		.4byte	0x712
 5700 070c 15       		.uleb128 0x15
ARM GAS  /var/folders/cs/83z6p2tj4w57s6p2rt8nwfp00000gn/T//ccDzWS9O.s 			page 128


 5701 070d 30000000 		.4byte	0x30
 5702 0711 00       		.byte	0
 5703 0712 05       		.uleb128 0x5
 5704 0713 04       		.byte	0x4
 5705 0714 BF010000 		.4byte	0x1bf
 5706 0718 05       		.uleb128 0x5
 5707 0719 04       		.byte	0x4
 5708 071a F3060000 		.4byte	0x6f3
 5709 071e 14       		.uleb128 0x14
 5710 071f 01       		.byte	0x1
 5711 0720 25010000 		.4byte	0x125
 5712 0724 3D070000 		.4byte	0x73d
 5713 0728 15       		.uleb128 0x15
 5714 0729 6D050000 		.4byte	0x56d
 5715 072d 15       		.uleb128 0x15
 5716 072e B0010000 		.4byte	0x1b0
 5717 0732 15       		.uleb128 0x15
 5718 0733 25010000 		.4byte	0x125
 5719 0737 15       		.uleb128 0x15
 5720 0738 30000000 		.4byte	0x30
 5721 073c 00       		.byte	0
 5722 073d 05       		.uleb128 0x5
 5723 073e 04       		.byte	0x4
 5724 073f 1E070000 		.4byte	0x71e
 5725 0743 14       		.uleb128 0x14
 5726 0744 01       		.byte	0x1
 5727 0745 30000000 		.4byte	0x30
 5728 0749 58070000 		.4byte	0x758
 5729 074d 15       		.uleb128 0x15
 5730 074e 6D050000 		.4byte	0x56d
 5731 0752 15       		.uleb128 0x15
 5732 0753 B0010000 		.4byte	0x1b0
 5733 0757 00       		.byte	0
 5734 0758 05       		.uleb128 0x5
 5735 0759 04       		.byte	0x4
 5736 075a 43070000 		.4byte	0x743
 5737 075e 0A       		.uleb128 0xa
 5738 075f 4A000000 		.4byte	0x4a
 5739 0763 6E070000 		.4byte	0x76e
 5740 0767 0B       		.uleb128 0xb
 5741 0768 AB000000 		.4byte	0xab
 5742 076c 02       		.byte	0x2
 5743 076d 00       		.byte	0
 5744 076e 0A       		.uleb128 0xa
 5745 076f 4A000000 		.4byte	0x4a
 5746 0773 7E070000 		.4byte	0x77e
 5747 0777 0B       		.uleb128 0xb
 5748 0778 AB000000 		.4byte	0xab
 5749 077c 00       		.byte	0
 5750 077d 00       		.byte	0
 5751 077e 07       		.uleb128 0x7
 5752 077f 7E010000 		.4byte	.LASF99
 5753 0783 07       		.byte	0x7
 5754 0784 1F01     		.2byte	0x11f
 5755 0786 1A       		.byte	0x1a
 5756 0787 DB030000 		.4byte	0x3db
 5757 078b 18       		.uleb128 0x18
ARM GAS  /var/folders/cs/83z6p2tj4w57s6p2rt8nwfp00000gn/T//ccDzWS9O.s 			page 129


 5758 078c D4050000 		.4byte	.LASF100
 5759 0790 0C       		.byte	0xc
 5760 0791 07       		.byte	0x7
 5761 0792 2301     		.2byte	0x123
 5762 0794 08       		.byte	0x8
 5763 0795 CA070000 		.4byte	0x7ca
 5764 0799 17       		.uleb128 0x17
 5765 079a E2010000 		.4byte	.LASF34
 5766 079e 07       		.byte	0x7
 5767 079f 2501     		.2byte	0x125
 5768 07a1 11       		.byte	0x11
 5769 07a2 CA070000 		.4byte	0x7ca
 5770 07a6 02       		.byte	0x2
 5771 07a7 23       		.byte	0x23
 5772 07a8 00       		.uleb128 0
 5773 07a9 17       		.uleb128 0x17
 5774 07aa 2E050000 		.4byte	.LASF101
 5775 07ae 07       		.byte	0x7
 5776 07af 2601     		.2byte	0x126
 5777 07b1 07       		.byte	0x7
 5778 07b2 30000000 		.4byte	0x30
 5779 07b6 02       		.byte	0x2
 5780 07b7 23       		.byte	0x23
 5781 07b8 04       		.uleb128 0x4
 5782 07b9 17       		.uleb128 0x17
 5783 07ba A4020000 		.4byte	.LASF102
 5784 07be 07       		.byte	0x7
 5785 07bf 2701     		.2byte	0x127
 5786 07c1 0B       		.byte	0xb
 5787 07c2 D0070000 		.4byte	0x7d0
 5788 07c6 02       		.byte	0x2
 5789 07c7 23       		.byte	0x23
 5790 07c8 08       		.uleb128 0x8
 5791 07c9 00       		.byte	0
 5792 07ca 05       		.uleb128 0x5
 5793 07cb 04       		.byte	0x4
 5794 07cc 8B070000 		.4byte	0x78b
 5795 07d0 05       		.uleb128 0x5
 5796 07d1 04       		.byte	0x4
 5797 07d2 7E070000 		.4byte	0x77e
 5798 07d6 18       		.uleb128 0x18
 5799 07d7 29010000 		.4byte	.LASF103
 5800 07db 0E       		.byte	0xe
 5801 07dc 07       		.byte	0x7
 5802 07dd 3F01     		.2byte	0x13f
 5803 07df 08       		.byte	0x8
 5804 07e0 15080000 		.4byte	0x815
 5805 07e4 17       		.uleb128 0x17
 5806 07e5 BF070000 		.4byte	.LASF104
 5807 07e9 07       		.byte	0x7
 5808 07ea 4001     		.2byte	0x140
 5809 07ec 12       		.byte	0x12
 5810 07ed 15080000 		.4byte	0x815
 5811 07f1 02       		.byte	0x2
 5812 07f2 23       		.byte	0x23
 5813 07f3 00       		.uleb128 0
 5814 07f4 17       		.uleb128 0x17
ARM GAS  /var/folders/cs/83z6p2tj4w57s6p2rt8nwfp00000gn/T//ccDzWS9O.s 			page 130


 5815 07f5 1B030000 		.4byte	.LASF105
 5816 07f9 07       		.byte	0x7
 5817 07fa 4101     		.2byte	0x141
 5818 07fc 12       		.byte	0x12
 5819 07fd 15080000 		.4byte	0x815
 5820 0801 02       		.byte	0x2
 5821 0802 23       		.byte	0x23
 5822 0803 06       		.uleb128 0x6
 5823 0804 17       		.uleb128 0x17
 5824 0805 BE050000 		.4byte	.LASF106
 5825 0809 07       		.byte	0x7
 5826 080a 4201     		.2byte	0x142
 5827 080c 12       		.byte	0x12
 5828 080d 70000000 		.4byte	0x70
 5829 0811 02       		.byte	0x2
 5830 0812 23       		.byte	0x23
 5831 0813 0C       		.uleb128 0xc
 5832 0814 00       		.byte	0
 5833 0815 0A       		.uleb128 0xa
 5834 0816 70000000 		.4byte	0x70
 5835 081a 25080000 		.4byte	0x825
 5836 081e 0B       		.uleb128 0xb
 5837 081f AB000000 		.4byte	0xab
 5838 0823 02       		.byte	0x2
 5839 0824 00       		.byte	0
 5840 0825 19       		.uleb128 0x19
 5841 0826 D0       		.byte	0xd0
 5842 0827 07       		.byte	0x7
 5843 0828 8002     		.2byte	0x280
 5844 082a 07       		.byte	0x7
 5845 082b 69090000 		.4byte	0x969
 5846 082f 17       		.uleb128 0x17
 5847 0830 89070000 		.4byte	.LASF107
 5848 0834 07       		.byte	0x7
 5849 0835 8202     		.2byte	0x282
 5850 0837 18       		.byte	0x18
 5851 0838 AB000000 		.4byte	0xab
 5852 083c 02       		.byte	0x2
 5853 083d 23       		.byte	0x23
 5854 083e 00       		.uleb128 0
 5855 083f 17       		.uleb128 0x17
 5856 0840 22060000 		.4byte	.LASF108
 5857 0844 07       		.byte	0x7
 5858 0845 8302     		.2byte	0x283
 5859 0847 12       		.byte	0x12
 5860 0848 B2010000 		.4byte	0x1b2
 5861 084c 02       		.byte	0x2
 5862 084d 23       		.byte	0x23
 5863 084e 04       		.uleb128 0x4
 5864 084f 17       		.uleb128 0x17
 5865 0850 59010000 		.4byte	.LASF109
 5866 0854 07       		.byte	0x7
 5867 0855 8402     		.2byte	0x284
 5868 0857 10       		.byte	0x10
 5869 0858 69090000 		.4byte	0x969
 5870 085c 02       		.byte	0x2
 5871 085d 23       		.byte	0x23
ARM GAS  /var/folders/cs/83z6p2tj4w57s6p2rt8nwfp00000gn/T//ccDzWS9O.s 			page 131


 5872 085e 08       		.uleb128 0x8
 5873 085f 17       		.uleb128 0x17
 5874 0860 AA040000 		.4byte	.LASF110
 5875 0864 07       		.byte	0x7
 5876 0865 8502     		.2byte	0x285
 5877 0867 17       		.byte	0x17
 5878 0868 4C020000 		.4byte	0x24c
 5879 086c 02       		.byte	0x2
 5880 086d 23       		.byte	0x23
 5881 086e 24       		.uleb128 0x24
 5882 086f 17       		.uleb128 0x17
 5883 0870 EE020000 		.4byte	.LASF111
 5884 0874 07       		.byte	0x7
 5885 0875 8602     		.2byte	0x286
 5886 0877 0F       		.byte	0xf
 5887 0878 30000000 		.4byte	0x30
 5888 087c 02       		.byte	0x2
 5889 087d 23       		.byte	0x23
 5890 087e 48       		.uleb128 0x48
 5891 087f 17       		.uleb128 0x17
 5892 0880 C5070000 		.4byte	.LASF112
 5893 0884 07       		.byte	0x7
 5894 0885 8702     		.2byte	0x287
 5895 0887 2C       		.byte	0x2c
 5896 0888 A4000000 		.4byte	0xa4
 5897 088c 02       		.byte	0x2
 5898 088d 23       		.byte	0x23
 5899 088e 50       		.uleb128 0x50
 5900 088f 17       		.uleb128 0x17
 5901 0890 33000000 		.4byte	.LASF113
 5902 0894 07       		.byte	0x7
 5903 0895 8802     		.2byte	0x288
 5904 0897 1A       		.byte	0x1a
 5905 0898 D6070000 		.4byte	0x7d6
 5906 089c 02       		.byte	0x2
 5907 089d 23       		.byte	0x23
 5908 089e 58       		.uleb128 0x58
 5909 089f 17       		.uleb128 0x17
 5910 08a0 46020000 		.4byte	.LASF114
 5911 08a4 07       		.byte	0x7
 5912 08a5 8902     		.2byte	0x289
 5913 08a7 16       		.byte	0x16
 5914 08a8 98010000 		.4byte	0x198
 5915 08ac 02       		.byte	0x2
 5916 08ad 23       		.byte	0x23
 5917 08ae 68       		.uleb128 0x68
 5918 08af 17       		.uleb128 0x17
 5919 08b0 2F060000 		.4byte	.LASF115
 5920 08b4 07       		.byte	0x7
 5921 08b5 8A02     		.2byte	0x28a
 5922 08b7 16       		.byte	0x16
 5923 08b8 98010000 		.4byte	0x198
 5924 08bc 02       		.byte	0x2
 5925 08bd 23       		.byte	0x23
 5926 08be 70       		.uleb128 0x70
 5927 08bf 17       		.uleb128 0x17
 5928 08c0 25000000 		.4byte	.LASF116
ARM GAS  /var/folders/cs/83z6p2tj4w57s6p2rt8nwfp00000gn/T//ccDzWS9O.s 			page 132


 5929 08c4 07       		.byte	0x7
 5930 08c5 8B02     		.2byte	0x28b
 5931 08c7 16       		.byte	0x16
 5932 08c8 98010000 		.4byte	0x198
 5933 08cc 02       		.byte	0x2
 5934 08cd 23       		.byte	0x23
 5935 08ce 78       		.uleb128 0x78
 5936 08cf 17       		.uleb128 0x17
 5937 08d0 E0040000 		.4byte	.LASF117
 5938 08d4 07       		.byte	0x7
 5939 08d5 8C02     		.2byte	0x28c
 5940 08d7 10       		.byte	0x10
 5941 08d8 79090000 		.4byte	0x979
 5942 08dc 03       		.byte	0x3
 5943 08dd 23       		.byte	0x23
 5944 08de 8001     		.uleb128 0x80
 5945 08e0 17       		.uleb128 0x17
 5946 08e1 3D000000 		.4byte	.LASF118
 5947 08e5 07       		.byte	0x7
 5948 08e6 8D02     		.2byte	0x28d
 5949 08e8 10       		.byte	0x10
 5950 08e9 89090000 		.4byte	0x989
 5951 08ed 03       		.byte	0x3
 5952 08ee 23       		.byte	0x23
 5953 08ef 8801     		.uleb128 0x88
 5954 08f1 17       		.uleb128 0x17
 5955 08f2 B1050000 		.4byte	.LASF119
 5956 08f6 07       		.byte	0x7
 5957 08f7 8E02     		.2byte	0x28e
 5958 08f9 0F       		.byte	0xf
 5959 08fa 30000000 		.4byte	0x30
 5960 08fe 03       		.byte	0x3
 5961 08ff 23       		.byte	0x23
 5962 0900 A001     		.uleb128 0xa0
 5963 0902 17       		.uleb128 0x17
 5964 0903 8B000000 		.4byte	.LASF120
 5965 0907 07       		.byte	0x7
 5966 0908 8F02     		.2byte	0x28f
 5967 090a 16       		.byte	0x16
 5968 090b 98010000 		.4byte	0x198
 5969 090f 03       		.byte	0x3
 5970 0910 23       		.byte	0x23
 5971 0911 A401     		.uleb128 0xa4
 5972 0913 17       		.uleb128 0x17
 5973 0914 6C020000 		.4byte	.LASF121
 5974 0918 07       		.byte	0x7
 5975 0919 9002     		.2byte	0x290
 5976 091b 16       		.byte	0x16
 5977 091c 98010000 		.4byte	0x198
 5978 0920 03       		.byte	0x3
 5979 0921 23       		.byte	0x23
 5980 0922 AC01     		.uleb128 0xac
 5981 0924 17       		.uleb128 0x17
 5982 0925 E8010000 		.4byte	.LASF122
 5983 0929 07       		.byte	0x7
 5984 092a 9102     		.2byte	0x291
 5985 092c 16       		.byte	0x16
ARM GAS  /var/folders/cs/83z6p2tj4w57s6p2rt8nwfp00000gn/T//ccDzWS9O.s 			page 133


 5986 092d 98010000 		.4byte	0x198
 5987 0931 03       		.byte	0x3
 5988 0932 23       		.byte	0x23
 5989 0933 B401     		.uleb128 0xb4
 5990 0935 17       		.uleb128 0x17
 5991 0936 42030000 		.4byte	.LASF123
 5992 093a 07       		.byte	0x7
 5993 093b 9202     		.2byte	0x292
 5994 093d 16       		.byte	0x16
 5995 093e 98010000 		.4byte	0x198
 5996 0942 03       		.byte	0x3
 5997 0943 23       		.byte	0x23
 5998 0944 BC01     		.uleb128 0xbc
 5999 0946 17       		.uleb128 0x17
 6000 0947 35020000 		.4byte	.LASF124
 6001 094b 07       		.byte	0x7
 6002 094c 9302     		.2byte	0x293
 6003 094e 16       		.byte	0x16
 6004 094f 98010000 		.4byte	0x198
 6005 0953 03       		.byte	0x3
 6006 0954 23       		.byte	0x23
 6007 0955 C401     		.uleb128 0xc4
 6008 0957 17       		.uleb128 0x17
 6009 0958 C0030000 		.4byte	.LASF125
 6010 095c 07       		.byte	0x7
 6011 095d 9402     		.2byte	0x294
 6012 095f 08       		.byte	0x8
 6013 0960 30000000 		.4byte	0x30
 6014 0964 03       		.byte	0x3
 6015 0965 23       		.byte	0x23
 6016 0966 CC01     		.uleb128 0xcc
 6017 0968 00       		.byte	0
 6018 0969 0A       		.uleb128 0xa
 6019 096a B8010000 		.4byte	0x1b8
 6020 096e 79090000 		.4byte	0x979
 6021 0972 0B       		.uleb128 0xb
 6022 0973 AB000000 		.4byte	0xab
 6023 0977 19       		.byte	0x19
 6024 0978 00       		.byte	0
 6025 0979 0A       		.uleb128 0xa
 6026 097a B8010000 		.4byte	0x1b8
 6027 097e 89090000 		.4byte	0x989
 6028 0982 0B       		.uleb128 0xb
 6029 0983 AB000000 		.4byte	0xab
 6030 0987 07       		.byte	0x7
 6031 0988 00       		.byte	0
 6032 0989 0A       		.uleb128 0xa
 6033 098a B8010000 		.4byte	0x1b8
 6034 098e 99090000 		.4byte	0x999
 6035 0992 0B       		.uleb128 0xb
 6036 0993 AB000000 		.4byte	0xab
 6037 0997 17       		.byte	0x17
 6038 0998 00       		.byte	0
 6039 0999 19       		.uleb128 0x19
 6040 099a F0       		.byte	0xf0
 6041 099b 07       		.byte	0x7
 6042 099c 9902     		.2byte	0x299
ARM GAS  /var/folders/cs/83z6p2tj4w57s6p2rt8nwfp00000gn/T//ccDzWS9O.s 			page 134


 6043 099e 07       		.byte	0x7
 6044 099f C4090000 		.4byte	0x9c4
 6045 09a3 17       		.uleb128 0x17
 6046 09a4 1A010000 		.4byte	.LASF126
 6047 09a8 07       		.byte	0x7
 6048 09a9 9C02     		.2byte	0x29c
 6049 09ab 1B       		.byte	0x1b
 6050 09ac C4090000 		.4byte	0x9c4
 6051 09b0 02       		.byte	0x2
 6052 09b1 23       		.byte	0x23
 6053 09b2 00       		.uleb128 0
 6054 09b3 17       		.uleb128 0x17
 6055 09b4 F8070000 		.4byte	.LASF127
 6056 09b8 07       		.byte	0x7
 6057 09b9 9D02     		.2byte	0x29d
 6058 09bb 18       		.byte	0x18
 6059 09bc D4090000 		.4byte	0x9d4
 6060 09c0 02       		.byte	0x2
 6061 09c1 23       		.byte	0x23
 6062 09c2 78       		.uleb128 0x78
 6063 09c3 00       		.byte	0
 6064 09c4 0A       		.uleb128 0xa
 6065 09c5 D5030000 		.4byte	0x3d5
 6066 09c9 D4090000 		.4byte	0x9d4
 6067 09cd 0B       		.uleb128 0xb
 6068 09ce AB000000 		.4byte	0xab
 6069 09d2 1D       		.byte	0x1d
 6070 09d3 00       		.byte	0
 6071 09d4 0A       		.uleb128 0xa
 6072 09d5 AB000000 		.4byte	0xab
 6073 09d9 E4090000 		.4byte	0x9e4
 6074 09dd 0B       		.uleb128 0xb
 6075 09de AB000000 		.4byte	0xab
 6076 09e2 1D       		.byte	0x1d
 6077 09e3 00       		.byte	0
 6078 09e4 1A       		.uleb128 0x1a
 6079 09e5 F0       		.byte	0xf0
 6080 09e6 07       		.byte	0x7
 6081 09e7 7E02     		.2byte	0x27e
 6082 09e9 03       		.byte	0x3
 6083 09ea 090A0000 		.4byte	0xa09
 6084 09ee 1B       		.uleb128 0x1b
 6085 09ef 59060000 		.4byte	.LASF77
 6086 09f3 07       		.byte	0x7
 6087 09f4 9502     		.2byte	0x295
 6088 09f6 0B       		.byte	0xb
 6089 09f7 25080000 		.4byte	0x825
 6090 09fb 1B       		.uleb128 0x1b
 6091 09fc B9040000 		.4byte	.LASF128
 6092 0a00 07       		.byte	0x7
 6093 0a01 9E02     		.2byte	0x29e
 6094 0a03 0B       		.byte	0xb
 6095 0a04 99090000 		.4byte	0x999
 6096 0a08 00       		.byte	0
 6097 0a09 0A       		.uleb128 0xa
 6098 0a0a B8010000 		.4byte	0x1b8
 6099 0a0e 190A0000 		.4byte	0xa19
ARM GAS  /var/folders/cs/83z6p2tj4w57s6p2rt8nwfp00000gn/T//ccDzWS9O.s 			page 135


 6100 0a12 0B       		.uleb128 0xb
 6101 0a13 AB000000 		.4byte	0xab
 6102 0a17 18       		.byte	0x18
 6103 0a18 00       		.byte	0
 6104 0a19 06       		.uleb128 0x6
 6105 0a1a D0070000 		.4byte	.LASF130
 6106 0a1e 01       		.byte	0x1
 6107 0a1f 05       		.uleb128 0x5
 6108 0a20 04       		.byte	0x4
 6109 0a21 190A0000 		.4byte	0xa19
 6110 0a25 1C       		.uleb128 0x1c
 6111 0a26 01       		.byte	0x1
 6112 0a27 310A0000 		.4byte	0xa31
 6113 0a2b 15       		.uleb128 0x15
 6114 0a2c 6D050000 		.4byte	0x56d
 6115 0a30 00       		.byte	0
 6116 0a31 05       		.uleb128 0x5
 6117 0a32 04       		.byte	0x4
 6118 0a33 250A0000 		.4byte	0xa25
 6119 0a37 05       		.uleb128 0x5
 6120 0a38 04       		.byte	0x4
 6121 0a39 36020000 		.4byte	0x236
 6122 0a3d 1C       		.uleb128 0x1c
 6123 0a3e 01       		.byte	0x1
 6124 0a3f 490A0000 		.4byte	0xa49
 6125 0a43 15       		.uleb128 0x15
 6126 0a44 30000000 		.4byte	0x30
 6127 0a48 00       		.byte	0
 6128 0a49 05       		.uleb128 0x5
 6129 0a4a 04       		.byte	0x4
 6130 0a4b 4F0A0000 		.4byte	0xa4f
 6131 0a4f 05       		.uleb128 0x5
 6132 0a50 04       		.byte	0x4
 6133 0a51 3D0A0000 		.4byte	0xa3d
 6134 0a55 0A       		.uleb128 0xa
 6135 0a56 7E070000 		.4byte	0x77e
 6136 0a5a 650A0000 		.4byte	0xa65
 6137 0a5e 0B       		.uleb128 0xb
 6138 0a5f AB000000 		.4byte	0xab
 6139 0a63 02       		.byte	0x2
 6140 0a64 00       		.byte	0
 6141 0a65 1D       		.uleb128 0x1d
 6142 0a66 0E010000 		.4byte	.LASF131
 6143 0a6a 07       		.byte	0x7
 6144 0a6b 2E03     		.2byte	0x32e
 6145 0a6d 17       		.byte	0x17
 6146 0a6e 6D050000 		.4byte	0x56d
 6147 0a72 01       		.byte	0x1
 6148 0a73 01       		.byte	0x1
 6149 0a74 1D       		.uleb128 0x1d
 6150 0a75 7F040000 		.4byte	.LASF132
 6151 0a79 07       		.byte	0x7
 6152 0a7a 2F03     		.2byte	0x32f
 6153 0a7c 1D       		.byte	0x1d
 6154 0a7d 73050000 		.4byte	0x573
 6155 0a81 01       		.byte	0x1
 6156 0a82 01       		.byte	0x1
ARM GAS  /var/folders/cs/83z6p2tj4w57s6p2rt8nwfp00000gn/T//ccDzWS9O.s 			page 136


 6157 0a83 02       		.uleb128 0x2
 6158 0a84 08       		.byte	0x8
 6159 0a85 04       		.byte	0x4
 6160 0a86 75070000 		.4byte	.LASF133
 6161 0a8a 1E       		.uleb128 0x1e
 6162 0a8b DA050000 		.4byte	.LASF183
 6163 0a8f 05       		.byte	0x5
 6164 0a90 01       		.byte	0x1
 6165 0a91 37000000 		.4byte	0x37
 6166 0a95 08       		.byte	0x8
 6167 0a96 8202     		.2byte	0x282
 6168 0a98 06       		.byte	0x6
 6169 0a99 B60A0000 		.4byte	0xab6
 6170 0a9d 1F       		.uleb128 0x1f
 6171 0a9e 9C040000 		.4byte	.LASF134
 6172 0aa2 7F       		.sleb128 -1
 6173 0aa3 20       		.uleb128 0x20
 6174 0aa4 29030000 		.4byte	.LASF135
 6175 0aa8 00       		.byte	0
 6176 0aa9 20       		.uleb128 0x20
 6177 0aaa 00000000 		.4byte	.LASF136
 6178 0aae 01       		.byte	0x1
 6179 0aaf 20       		.uleb128 0x20
 6180 0ab0 85010000 		.4byte	.LASF137
 6181 0ab4 02       		.byte	0x2
 6182 0ab5 00       		.byte	0
 6183 0ab6 1D       		.uleb128 0x1d
 6184 0ab7 72030000 		.4byte	.LASF138
 6185 0abb 08       		.byte	0x8
 6186 0abc 8D02     		.2byte	0x28d
 6187 0abe 23       		.byte	0x23
 6188 0abf 8A0A0000 		.4byte	0xa8a
 6189 0ac3 01       		.byte	0x1
 6190 0ac4 01       		.byte	0x1
 6191 0ac5 0C       		.uleb128 0xc
 6192 0ac6 0C       		.byte	0xc
 6193 0ac7 09       		.byte	0x9
 6194 0ac8 1A       		.byte	0x1a
 6195 0ac9 09       		.byte	0x9
 6196 0aca F60A0000 		.4byte	0xaf6
 6197 0ace 11       		.uleb128 0x11
 6198 0acf 7800     		.ascii	"x\000"
 6199 0ad1 09       		.byte	0x9
 6200 0ad2 1C       		.byte	0x1c
 6201 0ad3 08       		.byte	0x8
 6202 0ad4 29000000 		.4byte	0x29
 6203 0ad8 02       		.byte	0x2
 6204 0ad9 23       		.byte	0x23
 6205 0ada 00       		.uleb128 0
 6206 0adb 11       		.uleb128 0x11
 6207 0adc 7900     		.ascii	"y\000"
 6208 0ade 09       		.byte	0x9
 6209 0adf 1D       		.byte	0x1d
 6210 0ae0 08       		.byte	0x8
 6211 0ae1 29000000 		.4byte	0x29
 6212 0ae5 02       		.byte	0x2
 6213 0ae6 23       		.byte	0x23
ARM GAS  /var/folders/cs/83z6p2tj4w57s6p2rt8nwfp00000gn/T//ccDzWS9O.s 			page 137


 6214 0ae7 04       		.uleb128 0x4
 6215 0ae8 11       		.uleb128 0x11
 6216 0ae9 7A00     		.ascii	"z\000"
 6217 0aeb 09       		.byte	0x9
 6218 0aec 1E       		.byte	0x1e
 6219 0aed 08       		.byte	0x8
 6220 0aee 29000000 		.4byte	0x29
 6221 0af2 02       		.byte	0x2
 6222 0af3 23       		.byte	0x23
 6223 0af4 08       		.uleb128 0x8
 6224 0af5 00       		.byte	0
 6225 0af6 04       		.uleb128 0x4
 6226 0af7 9B030000 		.4byte	.LASF139
 6227 0afb 09       		.byte	0x9
 6228 0afc 1F       		.byte	0x1f
 6229 0afd 03       		.byte	0x3
 6230 0afe C50A0000 		.4byte	0xac5
 6231 0b02 0C       		.uleb128 0xc
 6232 0b03 34       		.byte	0x34
 6233 0b04 09       		.byte	0x9
 6234 0b05 54       		.byte	0x54
 6235 0b06 09       		.byte	0x9
 6236 0b07 670B0000 		.4byte	0xb67
 6237 0b0b 21       		.uleb128 0x21
 6238 0b0c 37030000 		.4byte	.LASF140
 6239 0b10 09       		.byte	0x9
 6240 0b11 56       		.byte	0x56
 6241 0b12 06       		.byte	0x6
 6242 0b13 30000000 		.4byte	0x30
 6243 0b17 04       		.byte	0x4
 6244 0b18 01       		.byte	0x1
 6245 0b19 1F       		.byte	0x1f
 6246 0b1a 02       		.byte	0x2
 6247 0b1b 23       		.byte	0x23
 6248 0b1c 00       		.uleb128 0
 6249 0b1d 21       		.uleb128 0x21
 6250 0b1e B3000000 		.4byte	.LASF141
 6251 0b22 09       		.byte	0x9
 6252 0b23 57       		.byte	0x57
 6253 0b24 06       		.byte	0x6
 6254 0b25 30000000 		.4byte	0x30
 6255 0b29 04       		.byte	0x4
 6256 0b2a 01       		.byte	0x1
 6257 0b2b 1E       		.byte	0x1e
 6258 0b2c 02       		.byte	0x2
 6259 0b2d 23       		.byte	0x23
 6260 0b2e 00       		.uleb128 0
 6261 0b2f 11       		.uleb128 0x11
 6262 0b30 6D00     		.ascii	"m\000"
 6263 0b32 09       		.byte	0x9
 6264 0b33 58       		.byte	0x58
 6265 0b34 08       		.byte	0x8
 6266 0b35 670B0000 		.4byte	0xb67
 6267 0b39 02       		.byte	0x2
 6268 0b3a 23       		.byte	0x23
 6269 0b3b 04       		.uleb128 0x4
 6270 0b3c 11       		.uleb128 0x11
ARM GAS  /var/folders/cs/83z6p2tj4w57s6p2rt8nwfp00000gn/T//ccDzWS9O.s 			page 138


 6271 0b3d 647800   		.ascii	"dx\000"
 6272 0b40 09       		.byte	0x9
 6273 0b41 59       		.byte	0x59
 6274 0b42 08       		.byte	0x8
 6275 0b43 29000000 		.4byte	0x29
 6276 0b47 02       		.byte	0x2
 6277 0b48 23       		.byte	0x23
 6278 0b49 28       		.uleb128 0x28
 6279 0b4a 11       		.uleb128 0x11
 6280 0b4b 647900   		.ascii	"dy\000"
 6281 0b4e 09       		.byte	0x9
 6282 0b4f 5A       		.byte	0x5a
 6283 0b50 08       		.byte	0x8
 6284 0b51 29000000 		.4byte	0x29
 6285 0b55 02       		.byte	0x2
 6286 0b56 23       		.byte	0x23
 6287 0b57 2C       		.uleb128 0x2c
 6288 0b58 11       		.uleb128 0x11
 6289 0b59 647A00   		.ascii	"dz\000"
 6290 0b5c 09       		.byte	0x9
 6291 0b5d 5B       		.byte	0x5b
 6292 0b5e 08       		.byte	0x8
 6293 0b5f 29000000 		.4byte	0x29
 6294 0b63 02       		.byte	0x2
 6295 0b64 23       		.byte	0x23
 6296 0b65 30       		.uleb128 0x30
 6297 0b66 00       		.byte	0
 6298 0b67 0A       		.uleb128 0xa
 6299 0b68 29000000 		.4byte	0x29
 6300 0b6c 7D0B0000 		.4byte	0xb7d
 6301 0b70 0B       		.uleb128 0xb
 6302 0b71 AB000000 		.4byte	0xab
 6303 0b75 02       		.byte	0x2
 6304 0b76 0B       		.uleb128 0xb
 6305 0b77 AB000000 		.4byte	0xab
 6306 0b7b 02       		.byte	0x2
 6307 0b7c 00       		.byte	0
 6308 0b7d 04       		.uleb128 0x4
 6309 0b7e C9030000 		.4byte	.LASF142
 6310 0b82 09       		.byte	0x9
 6311 0b83 5C       		.byte	0x5c
 6312 0b84 03       		.byte	0x3
 6313 0b85 020B0000 		.4byte	0xb02
 6314 0b89 22       		.uleb128 0x22
 6315 0b8a D3020000 		.4byte	.LASF143
 6316 0b8e 09       		.byte	0x9
 6317 0b8f 5E       		.byte	0x5e
 6318 0b90 11       		.byte	0x11
 6319 0b91 7D0B0000 		.4byte	0xb7d
 6320 0b95 01       		.byte	0x1
 6321 0b96 01       		.byte	0x1
 6322 0b97 14       		.uleb128 0x14
 6323 0b98 01       		.byte	0x1
 6324 0b99 B0010000 		.4byte	0x1b0
 6325 0b9d AC0B0000 		.4byte	0xbac
 6326 0ba1 15       		.uleb128 0x15
 6327 0ba2 B0010000 		.4byte	0x1b0
ARM GAS  /var/folders/cs/83z6p2tj4w57s6p2rt8nwfp00000gn/T//ccDzWS9O.s 			page 139


 6328 0ba6 15       		.uleb128 0x15
 6329 0ba7 EE000000 		.4byte	0xee
 6330 0bab 00       		.byte	0
 6331 0bac 22       		.uleb128 0x22
 6332 0bad 25040000 		.4byte	.LASF144
 6333 0bb1 0A       		.byte	0xa
 6334 0bb2 17       		.byte	0x17
 6335 0bb3 10       		.byte	0x10
 6336 0bb4 BA0B0000 		.4byte	0xbba
 6337 0bb8 01       		.byte	0x1
 6338 0bb9 01       		.byte	0x1
 6339 0bba 05       		.uleb128 0x5
 6340 0bbb 04       		.byte	0x4
 6341 0bbc 970B0000 		.4byte	0xb97
 6342 0bc0 0C       		.uleb128 0xc
 6343 0bc1 04       		.byte	0x4
 6344 0bc2 0B       		.byte	0xb
 6345 0bc3 10       		.byte	0x10
 6346 0bc4 09       		.byte	0x9
 6347 0bc5 E80B0000 		.4byte	0xbe8
 6348 0bc9 0D       		.uleb128 0xd
 6349 0bca BA030000 		.4byte	.LASF145
 6350 0bce 0B       		.byte	0xb
 6351 0bcf 12       		.byte	0x12
 6352 0bd0 0A       		.byte	0xa
 6353 0bd1 BE000000 		.4byte	0xbe
 6354 0bd5 02       		.byte	0x2
 6355 0bd6 23       		.byte	0x23
 6356 0bd7 00       		.uleb128 0
 6357 0bd8 11       		.uleb128 0x11
 6358 0bd9 656E6400 		.ascii	"end\000"
 6359 0bdd 0B       		.byte	0xb
 6360 0bde 13       		.byte	0x13
 6361 0bdf 0A       		.byte	0xa
 6362 0be0 BE000000 		.4byte	0xbe
 6363 0be4 02       		.byte	0x2
 6364 0be5 23       		.byte	0x23
 6365 0be6 02       		.uleb128 0x2
 6366 0be7 00       		.byte	0
 6367 0be8 04       		.uleb128 0x4
 6368 0be9 66040000 		.4byte	.LASF146
 6369 0bed 0B       		.byte	0xb
 6370 0bee 14       		.byte	0x14
 6371 0bef 03       		.byte	0x3
 6372 0bf0 C00B0000 		.4byte	0xbc0
 6373 0bf4 0A       		.uleb128 0xa
 6374 0bf5 CA000000 		.4byte	0xca
 6375 0bf9 070C0000 		.4byte	0xc07
 6376 0bfd 23       		.uleb128 0x23
 6377 0bfe AB000000 		.4byte	0xab
 6378 0c02 FF760100 		.4byte	0x176ff
 6379 0c06 00       		.byte	0
 6380 0c07 24       		.uleb128 0x24
 6381 0c08 38000000 		.4byte	.LASF147
 6382 0c0c 01       		.byte	0x1
 6383 0c0d 19       		.byte	0x19
 6384 0c0e 11       		.byte	0x11
ARM GAS  /var/folders/cs/83z6p2tj4w57s6p2rt8nwfp00000gn/T//ccDzWS9O.s 			page 140


 6385 0c0f F40B0000 		.4byte	0xbf4
 6386 0c13 05       		.byte	0x5
 6387 0c14 03       		.byte	0x3
 6388 0c15 00000000 		.4byte	zbuf
 6389 0c19 24       		.uleb128 0x24
 6390 0c1a DB010000 		.4byte	.LASF148
 6391 0c1e 01       		.byte	0x1
 6392 0c1f 1A       		.byte	0x1a
 6393 0c20 0E       		.byte	0xe
 6394 0c21 29000000 		.4byte	0x29
 6395 0c25 05       		.byte	0x5
 6396 0c26 03       		.byte	0x3
 6397 0c27 00000000 		.4byte	zscale
 6398 0c2b 25       		.uleb128 0x25
 6399 0c2c 01       		.byte	0x1
 6400 0c2d 57050000 		.4byte	.LASF152
 6401 0c31 01       		.byte	0x1
 6402 0c32 2002     		.2byte	0x220
 6403 0c34 0D       		.byte	0xd
 6404 0c35 01       		.byte	0x1
 6405 0c36 E80B0000 		.4byte	0xbe8
 6406 0c3a 00000000 		.4byte	.LFB26
 6407 0c3e 38000000 		.4byte	.LFE26
 6408 0c42 00000000 		.4byte	.LLST265
 6409 0c46 01       		.byte	0x1
 6410 0c47 380D0000 		.4byte	0xd38
 6411 0c4b 26       		.uleb128 0x26
 6412 0c4c 7B050000 		.4byte	.LASF149
 6413 0c50 01       		.byte	0x1
 6414 0c51 2002     		.2byte	0x220
 6415 0c53 24       		.byte	0x24
 6416 0c54 380D0000 		.4byte	0xd38
 6417 0c58 4C000000 		.4byte	.LLST266
 6418 0c5c 44000000 		.4byte	.LVUS266
 6419 0c60 26       		.uleb128 0x26
 6420 0c61 51040000 		.4byte	.LASF150
 6421 0c65 01       		.byte	0x1
 6422 0c66 2002     		.2byte	0x220
 6423 0c68 30       		.byte	0x30
 6424 0c69 30000000 		.4byte	0x30
 6425 0c6d 8B000000 		.4byte	.LLST267
 6426 0c71 83000000 		.4byte	.LVUS267
 6427 0c75 27       		.uleb128 0x27
 6428 0c76 703100   		.ascii	"p1\000"
 6429 0c79 01       		.byte	0x1
 6430 0c7a 2002     		.2byte	0x220
 6431 0c7c 44       		.byte	0x44
 6432 0c7d 3E0D0000 		.4byte	0xd3e
 6433 0c81 CA000000 		.4byte	.LLST268
 6434 0c85 C2000000 		.4byte	.LVUS268
 6435 0c89 27       		.uleb128 0x27
 6436 0c8a 703200   		.ascii	"p2\000"
 6437 0c8d 01       		.byte	0x1
 6438 0c8e 2002     		.2byte	0x220
 6439 0c90 51       		.byte	0x51
 6440 0c91 3E0D0000 		.4byte	0xd3e
 6441 0c95 05010000 		.4byte	.LLST269
ARM GAS  /var/folders/cs/83z6p2tj4w57s6p2rt8nwfp00000gn/T//ccDzWS9O.s 			page 141


 6442 0c99 01010000 		.4byte	.LVUS269
 6443 0c9d 27       		.uleb128 0x27
 6444 0c9e 703300   		.ascii	"p3\000"
 6445 0ca1 01       		.byte	0x1
 6446 0ca2 2002     		.2byte	0x220
 6447 0ca4 5E       		.byte	0x5e
 6448 0ca5 3E0D0000 		.4byte	0xd3e
 6449 0ca9 28010000 		.4byte	.LLST270
 6450 0cad 26010000 		.4byte	.LVUS270
 6451 0cb1 27       		.uleb128 0x27
 6452 0cb2 703400   		.ascii	"p4\000"
 6453 0cb5 01       		.byte	0x1
 6454 0cb6 2002     		.2byte	0x220
 6455 0cb8 6B       		.byte	0x6b
 6456 0cb9 3E0D0000 		.4byte	0xd3e
 6457 0cbd 3E010000 		.4byte	.LLST271
 6458 0cc1 3C010000 		.4byte	.LVUS271
 6459 0cc5 26       		.uleb128 0x26
 6460 0cc6 9F050000 		.4byte	.LASF151
 6461 0cca 01       		.byte	0x1
 6462 0ccb 2002     		.2byte	0x220
 6463 0ccd 77       		.byte	0x77
 6464 0cce 380D0000 		.4byte	0xd38
 6465 0cd2 56010000 		.4byte	.LLST272
 6466 0cd6 52010000 		.4byte	.LVUS272
 6467 0cda 28       		.uleb128 0x28
 6468 0cdb 1E000000 		.4byte	.LVL385
 6469 0cdf 510E0000 		.4byte	0xe51
 6470 0ce3 0F0D0000 		.4byte	0xd0f
 6471 0ce7 29       		.uleb128 0x29
 6472 0ce8 01       		.byte	0x1
 6473 0ce9 50       		.byte	0x50
 6474 0cea 02       		.byte	0x2
 6475 0ceb 74       		.byte	0x74
 6476 0cec 00       		.sleb128 0
 6477 0ced 29       		.uleb128 0x29
 6478 0cee 01       		.byte	0x1
 6479 0cef 51       		.byte	0x51
 6480 0cf0 02       		.byte	0x2
 6481 0cf1 75       		.byte	0x75
 6482 0cf2 00       		.sleb128 0
 6483 0cf3 29       		.uleb128 0x29
 6484 0cf4 01       		.byte	0x1
 6485 0cf5 52       		.byte	0x52
 6486 0cf6 02       		.byte	0x2
 6487 0cf7 76       		.byte	0x76
 6488 0cf8 00       		.sleb128 0
 6489 0cf9 29       		.uleb128 0x29
 6490 0cfa 01       		.byte	0x1
 6491 0cfb 53       		.byte	0x53
 6492 0cfc 03       		.byte	0x3
 6493 0cfd F3       		.byte	0xf3
 6494 0cfe 01       		.uleb128 0x1
 6495 0cff 53       		.byte	0x53
 6496 0d00 29       		.uleb128 0x29
 6497 0d01 02       		.byte	0x2
 6498 0d02 7D       		.byte	0x7d
ARM GAS  /var/folders/cs/83z6p2tj4w57s6p2rt8nwfp00000gn/T//ccDzWS9O.s 			page 142


 6499 0d03 00       		.sleb128 0
 6500 0d04 02       		.byte	0x2
 6501 0d05 77       		.byte	0x77
 6502 0d06 00       		.sleb128 0
 6503 0d07 29       		.uleb128 0x29
 6504 0d08 02       		.byte	0x2
 6505 0d09 7D       		.byte	0x7d
 6506 0d0a 04       		.sleb128 4
 6507 0d0b 02       		.byte	0x2
 6508 0d0c 78       		.byte	0x78
 6509 0d0d 00       		.sleb128 0
 6510 0d0e 00       		.byte	0
 6511 0d0f 2A       		.uleb128 0x2a
 6512 0d10 38000000 		.4byte	.LVL389
 6513 0d14 01       		.byte	0x1
 6514 0d15 510E0000 		.4byte	0xe51
 6515 0d19 29       		.uleb128 0x29
 6516 0d1a 01       		.byte	0x1
 6517 0d1b 50       		.byte	0x50
 6518 0d1c 03       		.byte	0x3
 6519 0d1d F3       		.byte	0xf3
 6520 0d1e 01       		.uleb128 0x1
 6521 0d1f 50       		.byte	0x50
 6522 0d20 29       		.uleb128 0x29
 6523 0d21 01       		.byte	0x1
 6524 0d22 51       		.byte	0x51
 6525 0d23 03       		.byte	0x3
 6526 0d24 F3       		.byte	0xf3
 6527 0d25 01       		.uleb128 0x1
 6528 0d26 51       		.byte	0x51
 6529 0d27 29       		.uleb128 0x29
 6530 0d28 01       		.byte	0x1
 6531 0d29 52       		.byte	0x52
 6532 0d2a 03       		.byte	0x3
 6533 0d2b F3       		.byte	0xf3
 6534 0d2c 01       		.uleb128 0x1
 6535 0d2d 52       		.byte	0x52
 6536 0d2e 29       		.uleb128 0x29
 6537 0d2f 02       		.byte	0x2
 6538 0d30 91       		.byte	0x91
 6539 0d31 04       		.sleb128 4
 6540 0d32 03       		.byte	0x3
 6541 0d33 7D       		.byte	0x7d
 6542 0d34 08       		.sleb128 8
 6543 0d35 06       		.byte	0x6
 6544 0d36 00       		.byte	0
 6545 0d37 00       		.byte	0
 6546 0d38 05       		.uleb128 0x5
 6547 0d39 04       		.byte	0x4
 6548 0d3a B2000000 		.4byte	0xb2
 6549 0d3e 05       		.uleb128 0x5
 6550 0d3f 04       		.byte	0x4
 6551 0d40 F60A0000 		.4byte	0xaf6
 6552 0d44 25       		.uleb128 0x25
 6553 0d45 01       		.byte	0x1
 6554 0d46 2C020000 		.4byte	.LASF153
 6555 0d4a 01       		.byte	0x1
ARM GAS  /var/folders/cs/83z6p2tj4w57s6p2rt8nwfp00000gn/T//ccDzWS9O.s 			page 143


 6556 0d4b 1802     		.2byte	0x218
 6557 0d4d 0D       		.byte	0xd
 6558 0d4e 01       		.byte	0x1
 6559 0d4f E80B0000 		.4byte	0xbe8
 6560 0d53 00000000 		.4byte	.LFB25
 6561 0d57 38000000 		.4byte	.LFE25
 6562 0d5b 76010000 		.4byte	.LLST257
 6563 0d5f 01       		.byte	0x1
 6564 0d60 510E0000 		.4byte	0xe51
 6565 0d64 26       		.uleb128 0x26
 6566 0d65 7B050000 		.4byte	.LASF149
 6567 0d69 01       		.byte	0x1
 6568 0d6a 1802     		.2byte	0x218
 6569 0d6c 1F       		.byte	0x1f
 6570 0d6d 380D0000 		.4byte	0xd38
 6571 0d71 C2010000 		.4byte	.LLST258
 6572 0d75 BA010000 		.4byte	.LVUS258
 6573 0d79 26       		.uleb128 0x26
 6574 0d7a 51040000 		.4byte	.LASF150
 6575 0d7e 01       		.byte	0x1
 6576 0d7f 1802     		.2byte	0x218
 6577 0d81 2B       		.byte	0x2b
 6578 0d82 30000000 		.4byte	0x30
 6579 0d86 01020000 		.4byte	.LLST259
 6580 0d8a F9010000 		.4byte	.LVUS259
 6581 0d8e 27       		.uleb128 0x27
 6582 0d8f 703100   		.ascii	"p1\000"
 6583 0d92 01       		.byte	0x1
 6584 0d93 1802     		.2byte	0x218
 6585 0d95 3F       		.byte	0x3f
 6586 0d96 3E0D0000 		.4byte	0xd3e
 6587 0d9a 40020000 		.4byte	.LLST260
 6588 0d9e 38020000 		.4byte	.LVUS260
 6589 0da2 27       		.uleb128 0x27
 6590 0da3 703200   		.ascii	"p2\000"
 6591 0da6 01       		.byte	0x1
 6592 0da7 1802     		.2byte	0x218
 6593 0da9 4C       		.byte	0x4c
 6594 0daa 3E0D0000 		.4byte	0xd3e
 6595 0dae 7B020000 		.4byte	.LLST261
 6596 0db2 77020000 		.4byte	.LVUS261
 6597 0db6 27       		.uleb128 0x27
 6598 0db7 703300   		.ascii	"p3\000"
 6599 0dba 01       		.byte	0x1
 6600 0dbb 1802     		.2byte	0x218
 6601 0dbd 59       		.byte	0x59
 6602 0dbe 3E0D0000 		.4byte	0xd3e
 6603 0dc2 9E020000 		.4byte	.LLST262
 6604 0dc6 9C020000 		.4byte	.LVUS262
 6605 0dca 27       		.uleb128 0x27
 6606 0dcb 703400   		.ascii	"p4\000"
 6607 0dce 01       		.byte	0x1
 6608 0dcf 1802     		.2byte	0x218
 6609 0dd1 66       		.byte	0x66
 6610 0dd2 3E0D0000 		.4byte	0xd3e
 6611 0dd6 B4020000 		.4byte	.LLST263
 6612 0dda B2020000 		.4byte	.LVUS263
ARM GAS  /var/folders/cs/83z6p2tj4w57s6p2rt8nwfp00000gn/T//ccDzWS9O.s 			page 144


 6613 0dde 26       		.uleb128 0x26
 6614 0ddf 9F050000 		.4byte	.LASF151
 6615 0de3 01       		.byte	0x1
 6616 0de4 1802     		.2byte	0x218
 6617 0de6 72       		.byte	0x72
 6618 0de7 380D0000 		.4byte	0xd38
 6619 0deb CC020000 		.4byte	.LLST264
 6620 0def C8020000 		.4byte	.LVUS264
 6621 0df3 28       		.uleb128 0x28
 6622 0df4 1E000000 		.4byte	.LVL379
 6623 0df8 99140000 		.4byte	0x1499
 6624 0dfc 280E0000 		.4byte	0xe28
 6625 0e00 29       		.uleb128 0x29
 6626 0e01 01       		.byte	0x1
 6627 0e02 50       		.byte	0x50
 6628 0e03 02       		.byte	0x2
 6629 0e04 74       		.byte	0x74
 6630 0e05 00       		.sleb128 0
 6631 0e06 29       		.uleb128 0x29
 6632 0e07 01       		.byte	0x1
 6633 0e08 51       		.byte	0x51
 6634 0e09 02       		.byte	0x2
 6635 0e0a 75       		.byte	0x75
 6636 0e0b 00       		.sleb128 0
 6637 0e0c 29       		.uleb128 0x29
 6638 0e0d 01       		.byte	0x1
 6639 0e0e 52       		.byte	0x52
 6640 0e0f 02       		.byte	0x2
 6641 0e10 76       		.byte	0x76
 6642 0e11 00       		.sleb128 0
 6643 0e12 29       		.uleb128 0x29
 6644 0e13 01       		.byte	0x1
 6645 0e14 53       		.byte	0x53
 6646 0e15 03       		.byte	0x3
 6647 0e16 F3       		.byte	0xf3
 6648 0e17 01       		.uleb128 0x1
 6649 0e18 53       		.byte	0x53
 6650 0e19 29       		.uleb128 0x29
 6651 0e1a 02       		.byte	0x2
 6652 0e1b 7D       		.byte	0x7d
 6653 0e1c 00       		.sleb128 0
 6654 0e1d 02       		.byte	0x2
 6655 0e1e 77       		.byte	0x77
 6656 0e1f 00       		.sleb128 0
 6657 0e20 29       		.uleb128 0x29
 6658 0e21 02       		.byte	0x2
 6659 0e22 7D       		.byte	0x7d
 6660 0e23 04       		.sleb128 4
 6661 0e24 02       		.byte	0x2
 6662 0e25 78       		.byte	0x78
 6663 0e26 00       		.sleb128 0
 6664 0e27 00       		.byte	0
 6665 0e28 2A       		.uleb128 0x2a
 6666 0e29 38000000 		.4byte	.LVL383
 6667 0e2d 01       		.byte	0x1
 6668 0e2e 99140000 		.4byte	0x1499
 6669 0e32 29       		.uleb128 0x29
ARM GAS  /var/folders/cs/83z6p2tj4w57s6p2rt8nwfp00000gn/T//ccDzWS9O.s 			page 145


 6670 0e33 01       		.byte	0x1
 6671 0e34 50       		.byte	0x50
 6672 0e35 03       		.byte	0x3
 6673 0e36 F3       		.byte	0xf3
 6674 0e37 01       		.uleb128 0x1
 6675 0e38 50       		.byte	0x50
 6676 0e39 29       		.uleb128 0x29
 6677 0e3a 01       		.byte	0x1
 6678 0e3b 51       		.byte	0x51
 6679 0e3c 03       		.byte	0x3
 6680 0e3d F3       		.byte	0xf3
 6681 0e3e 01       		.uleb128 0x1
 6682 0e3f 51       		.byte	0x51
 6683 0e40 29       		.uleb128 0x29
 6684 0e41 01       		.byte	0x1
 6685 0e42 52       		.byte	0x52
 6686 0e43 03       		.byte	0x3
 6687 0e44 F3       		.byte	0xf3
 6688 0e45 01       		.uleb128 0x1
 6689 0e46 52       		.byte	0x52
 6690 0e47 29       		.uleb128 0x29
 6691 0e48 02       		.byte	0x2
 6692 0e49 91       		.byte	0x91
 6693 0e4a 04       		.sleb128 4
 6694 0e4b 03       		.byte	0x3
 6695 0e4c 7D       		.byte	0x7d
 6696 0e4d 08       		.sleb128 8
 6697 0e4e 06       		.byte	0x6
 6698 0e4f 00       		.byte	0
 6699 0e50 00       		.byte	0
 6700 0e51 25       		.uleb128 0x25
 6701 0e52 01       		.byte	0x1
 6702 0e53 FF030000 		.4byte	.LASF154
 6703 0e57 01       		.byte	0x1
 6704 0e58 DA01     		.2byte	0x1da
 6705 0e5a 0D       		.byte	0xd
 6706 0e5b 01       		.byte	0x1
 6707 0e5c E80B0000 		.4byte	0xbe8
 6708 0e60 00000000 		.4byte	.LFB24
 6709 0e64 52040000 		.4byte	.LFE24
 6710 0e68 EC020000 		.4byte	.LLST200
 6711 0e6c 01       		.byte	0x1
 6712 0e6d 99140000 		.4byte	0x1499
 6713 0e71 26       		.uleb128 0x26
 6714 0e72 7B050000 		.4byte	.LASF149
 6715 0e76 01       		.byte	0x1
 6716 0e77 DA01     		.2byte	0x1da
 6717 0e79 28       		.byte	0x28
 6718 0e7a 380D0000 		.4byte	0xd38
 6719 0e7e 40030000 		.4byte	.LLST201
 6720 0e82 32030000 		.4byte	.LVUS201
 6721 0e86 26       		.uleb128 0x26
 6722 0e87 51040000 		.4byte	.LASF150
 6723 0e8b 01       		.byte	0x1
 6724 0e8c DA01     		.2byte	0x1da
 6725 0e8e 34       		.byte	0x34
 6726 0e8f 30000000 		.4byte	0x30
ARM GAS  /var/folders/cs/83z6p2tj4w57s6p2rt8nwfp00000gn/T//ccDzWS9O.s 			page 146


 6727 0e93 A8030000 		.4byte	.LLST202
 6728 0e97 9A030000 		.4byte	.LVUS202
 6729 0e9b 27       		.uleb128 0x27
 6730 0e9c 703100   		.ascii	"p1\000"
 6731 0e9f 01       		.byte	0x1
 6732 0ea0 DA01     		.2byte	0x1da
 6733 0ea2 48       		.byte	0x48
 6734 0ea3 3E0D0000 		.4byte	0xd3e
 6735 0ea7 1A040000 		.4byte	.LLST203
 6736 0eab 02040000 		.4byte	.LVUS203
 6737 0eaf 27       		.uleb128 0x27
 6738 0eb0 703200   		.ascii	"p2\000"
 6739 0eb3 01       		.byte	0x1
 6740 0eb4 DA01     		.2byte	0x1da
 6741 0eb6 55       		.byte	0x55
 6742 0eb7 3E0D0000 		.4byte	0xd3e
 6743 0ebb C6040000 		.4byte	.LLST204
 6744 0ebf A6040000 		.4byte	.LVUS204
 6745 0ec3 27       		.uleb128 0x27
 6746 0ec4 703300   		.ascii	"p3\000"
 6747 0ec7 01       		.byte	0x1
 6748 0ec8 DA01     		.2byte	0x1da
 6749 0eca 62       		.byte	0x62
 6750 0ecb 3E0D0000 		.4byte	0xd3e
 6751 0ecf 8E050000 		.4byte	.LLST205
 6752 0ed3 7E050000 		.4byte	.LVUS205
 6753 0ed7 26       		.uleb128 0x26
 6754 0ed8 9F050000 		.4byte	.LASF151
 6755 0edc 01       		.byte	0x1
 6756 0edd DA01     		.2byte	0x1da
 6757 0edf 6E       		.byte	0x6e
 6758 0ee0 380D0000 		.4byte	0xd38
 6759 0ee4 F6050000 		.4byte	.LLST206
 6760 0ee8 F2050000 		.4byte	.LVUS206
 6761 0eec 2B       		.uleb128 0x2b
 6762 0eed 9E000000 		.4byte	.LASF155
 6763 0ef1 01       		.byte	0x1
 6764 0ef2 DE01     		.2byte	0x1de
 6765 0ef4 06       		.byte	0x6
 6766 0ef5 30000000 		.4byte	0x30
 6767 0ef9 1C060000 		.4byte	.LLST207
 6768 0efd 16060000 		.4byte	.LVUS207
 6769 0f01 2C       		.uleb128 0x2c
 6770 0f02 64657400 		.ascii	"det\000"
 6771 0f06 01       		.byte	0x1
 6772 0f07 DF01     		.2byte	0x1df
 6773 0f09 06       		.byte	0x6
 6774 0f0a 30000000 		.4byte	0x30
 6775 0f0e 49060000 		.4byte	.LLST208
 6776 0f12 45060000 		.4byte	.LVUS208
 6777 0f16 2D       		.uleb128 0x2d
 6778 0f17 783100   		.ascii	"x1\000"
 6779 0f1a 01       		.byte	0x1
 6780 0f1b E401     		.2byte	0x1e4
 6781 0f1d 0A       		.byte	0xa
 6782 0f1e D6000000 		.4byte	0xd6
 6783 0f22 02       		.byte	0x2
ARM GAS  /var/folders/cs/83z6p2tj4w57s6p2rt8nwfp00000gn/T//ccDzWS9O.s 			page 147


 6784 0f23 91       		.byte	0x91
 6785 0f24 48       		.sleb128 -56
 6786 0f25 2D       		.uleb128 0x2d
 6787 0f26 783200   		.ascii	"x2\000"
 6788 0f29 01       		.byte	0x1
 6789 0f2a E501     		.2byte	0x1e5
 6790 0f2c 0A       		.byte	0xa
 6791 0f2d D6000000 		.4byte	0xd6
 6792 0f31 02       		.byte	0x2
 6793 0f32 91       		.byte	0x91
 6794 0f33 4C       		.sleb128 -52
 6795 0f34 2C       		.uleb128 0x2c
 6796 0f35 736200   		.ascii	"sb\000"
 6797 0f38 01       		.byte	0x1
 6798 0f39 E701     		.2byte	0x1e7
 6799 0f3b 0A       		.byte	0xa
 6800 0f3c D6000000 		.4byte	0xd6
 6801 0f40 C5060000 		.4byte	.LLST209
 6802 0f44 BD060000 		.4byte	.LVUS209
 6803 0f48 2C       		.uleb128 0x2c
 6804 0f49 736300   		.ascii	"sc\000"
 6805 0f4c 01       		.byte	0x1
 6806 0f4d E801     		.2byte	0x1e8
 6807 0f4f 0A       		.byte	0xa
 6808 0f50 D6000000 		.4byte	0xd6
 6809 0f54 01070000 		.4byte	.LLST210
 6810 0f58 F9060000 		.4byte	.LVUS210
 6811 0f5c 2C       		.uleb128 0x2c
 6812 0f5d 64783100 		.ascii	"dx1\000"
 6813 0f61 01       		.byte	0x1
 6814 0f62 EA01     		.2byte	0x1ea
 6815 0f64 0A       		.byte	0xa
 6816 0f65 D6000000 		.4byte	0xd6
 6817 0f69 3F070000 		.4byte	.LLST211
 6818 0f6d 35070000 		.4byte	.LVUS211
 6819 0f71 2C       		.uleb128 0x2c
 6820 0f72 64783200 		.ascii	"dx2\000"
 6821 0f76 01       		.byte	0x1
 6822 0f77 EB01     		.2byte	0x1eb
 6823 0f79 0A       		.byte	0xa
 6824 0f7a D6000000 		.4byte	0xd6
 6825 0f7e 8E070000 		.4byte	.LLST212
 6826 0f82 86070000 		.4byte	.LVUS212
 6827 0f86 2C       		.uleb128 0x2c
 6828 0f87 7A3100   		.ascii	"z1\000"
 6829 0f8a 01       		.byte	0x1
 6830 0f8b ED01     		.2byte	0x1ed
 6831 0f8d 08       		.byte	0x8
 6832 0f8e 29000000 		.4byte	0x29
 6833 0f92 CC070000 		.4byte	.LLST213
 6834 0f96 C2070000 		.4byte	.LVUS213
 6835 0f9a 2C       		.uleb128 0x2c
 6836 0f9b 7A3200   		.ascii	"z2\000"
 6837 0f9e 01       		.byte	0x1
 6838 0f9f EE01     		.2byte	0x1ee
 6839 0fa1 08       		.byte	0x8
 6840 0fa2 29000000 		.4byte	0x29
ARM GAS  /var/folders/cs/83z6p2tj4w57s6p2rt8nwfp00000gn/T//ccDzWS9O.s 			page 148


 6841 0fa6 42080000 		.4byte	.LLST214
 6842 0faa 3A080000 		.4byte	.LVUS214
 6843 0fae 2C       		.uleb128 0x2c
 6844 0faf 7A3300   		.ascii	"z3\000"
 6845 0fb2 01       		.byte	0x1
 6846 0fb3 EF01     		.2byte	0x1ef
 6847 0fb5 08       		.byte	0x8
 6848 0fb6 29000000 		.4byte	0x29
 6849 0fba 84080000 		.4byte	.LLST215
 6850 0fbe 7A080000 		.4byte	.LVUS215
 6851 0fc2 2C       		.uleb128 0x2c
 6852 0fc3 6D7800   		.ascii	"mx\000"
 6853 0fc6 01       		.byte	0x1
 6854 0fc7 F101     		.2byte	0x1f1
 6855 0fc9 08       		.byte	0x8
 6856 0fca 29000000 		.4byte	0x29
 6857 0fce D4080000 		.4byte	.LLST216
 6858 0fd2 C8080000 		.4byte	.LVUS216
 6859 0fd6 2C       		.uleb128 0x2c
 6860 0fd7 6D7A00   		.ascii	"mz\000"
 6861 0fda 01       		.byte	0x1
 6862 0fdb F201     		.2byte	0x1f2
 6863 0fdd 08       		.byte	0x8
 6864 0fde 29000000 		.4byte	0x29
 6865 0fe2 94090000 		.4byte	.LLST217
 6866 0fe6 8C090000 		.4byte	.LVUS217
 6867 0fea 2B       		.uleb128 0x2b
 6868 0feb BD010000 		.4byte	.LASF156
 6869 0fef 01       		.byte	0x1
 6870 0ff0 F401     		.2byte	0x1f4
 6871 0ff2 0A       		.byte	0xa
 6872 0ff3 D6000000 		.4byte	0xd6
 6873 0ff7 E8090000 		.4byte	.LLST218
 6874 0ffb E0090000 		.4byte	.LVUS218
 6875 0fff 2B       		.uleb128 0x2b
 6876 1000 C2010000 		.4byte	.LASF157
 6877 1004 01       		.byte	0x1
 6878 1005 F401     		.2byte	0x1f4
 6879 1007 10       		.byte	0x10
 6880 1008 D6000000 		.4byte	0xd6
 6881 100c 2E0A0000 		.4byte	.LLST219
 6882 1010 240A0000 		.4byte	.LVUS219
 6883 1014 2D       		.uleb128 0x2d
 6884 1015 7A00     		.ascii	"z\000"
 6885 1017 01       		.byte	0x1
 6886 1018 0102     		.2byte	0x201
 6887 101a 0B       		.byte	0xb
 6888 101b E2000000 		.4byte	0xe2
 6889 101f 02       		.byte	0x2
 6890 1020 91       		.byte	0x91
 6891 1021 50       		.sleb128 -48
 6892 1022 2C       		.uleb128 0x2c
 6893 1023 647800   		.ascii	"dx\000"
 6894 1026 01       		.byte	0x1
 6895 1027 0502     		.2byte	0x205
 6896 1029 06       		.byte	0x6
 6897 102a 30000000 		.4byte	0x30
ARM GAS  /var/folders/cs/83z6p2tj4w57s6p2rt8nwfp00000gn/T//ccDzWS9O.s 			page 149


 6898 102e 760A0000 		.4byte	.LLST220
 6899 1032 720A0000 		.4byte	.LVUS220
 6900 1036 2E       		.uleb128 0x2e
 6901 1037 82180000 		.4byte	0x1882
 6902 103b 00000000 		.4byte	.LBI315
 6903 103f 0200     		.2byte	.LVU876
 6904 1041 90030000 		.4byte	.Ldebug_ranges0+0x390
 6905 1045 01       		.byte	0x1
 6906 1046 DC01     		.2byte	0x1dc
 6907 1048 02       		.byte	0x2
 6908 1049 D4100000 		.4byte	0x10d4
 6909 104d 2F       		.uleb128 0x2f
 6910 104e A9180000 		.4byte	0x18a9
 6911 1052 9E0A0000 		.4byte	.LLST221
 6912 1056 960A0000 		.4byte	.LVUS221
 6913 105a 2F       		.uleb128 0x2f
 6914 105b 9D180000 		.4byte	0x189d
 6915 105f EE0A0000 		.4byte	.LLST222
 6916 1063 E60A0000 		.4byte	.LVUS222
 6917 1067 2F       		.uleb128 0x2f
 6918 1068 91180000 		.4byte	0x1891
 6919 106c 3E0B0000 		.4byte	.LLST223
 6920 1070 360B0000 		.4byte	.LVUS223
 6921 1074 30       		.uleb128 0x30
 6922 1075 90030000 		.4byte	.Ldebug_ranges0+0x390
 6923 1079 31       		.uleb128 0x31
 6924 107a B5180000 		.4byte	0x18b5
 6925 107e 940B0000 		.4byte	.LLST224
 6926 1082 860B0000 		.4byte	.LVUS224
 6927 1086 31       		.uleb128 0x31
 6928 1087 C1180000 		.4byte	0x18c1
 6929 108b 020C0000 		.4byte	.LLST225
 6930 108f F00B0000 		.4byte	.LVUS225
 6931 1093 31       		.uleb128 0x31
 6932 1094 CD180000 		.4byte	0x18cd
 6933 1098 880C0000 		.4byte	.LLST226
 6934 109c 760C0000 		.4byte	.LVUS226
 6935 10a0 32       		.uleb128 0x32
 6936 10a1 EC180000 		.4byte	0x18ec
 6937 10a5 D0030000 		.4byte	.Ldebug_ranges0+0x3d0
 6938 10a9 BB100000 		.4byte	0x10bb
 6939 10ad 31       		.uleb128 0x31
 6940 10ae F1180000 		.4byte	0x18f1
 6941 10b2 030D0000 		.4byte	.LLST227
 6942 10b6 FF0C0000 		.4byte	.LVUS227
 6943 10ba 00       		.byte	0
 6944 10bb 33       		.uleb128 0x33
 6945 10bc FF180000 		.4byte	0x18ff
 6946 10c0 E8030000 		.4byte	.Ldebug_ranges0+0x3e8
 6947 10c4 31       		.uleb128 0x31
 6948 10c5 00190000 		.4byte	0x1900
 6949 10c9 230D0000 		.4byte	.LLST228
 6950 10cd 210D0000 		.4byte	.LVUS228
 6951 10d1 00       		.byte	0
 6952 10d2 00       		.byte	0
 6953 10d3 00       		.byte	0
 6954 10d4 2E       		.uleb128 0x2e
ARM GAS  /var/folders/cs/83z6p2tj4w57s6p2rt8nwfp00000gn/T//ccDzWS9O.s 			page 150


 6955 10d5 99230000 		.4byte	0x2399
 6956 10d9 C8000000 		.4byte	.LBI329
 6957 10dd 0100     		.2byte	.LVU916
 6958 10df 00040000 		.4byte	.Ldebug_ranges0+0x400
 6959 10e3 01       		.byte	0x1
 6960 10e4 E701     		.2byte	0x1e7
 6961 10e6 0F       		.byte	0xf
 6962 10e7 10110000 		.4byte	0x1110
 6963 10eb 34       		.uleb128 0x34
 6964 10ec CC230000 		.4byte	0x23cc
 6965 10f0 34       		.uleb128 0x34
 6966 10f1 C1230000 		.4byte	0x23c1
 6967 10f5 34       		.uleb128 0x34
 6968 10f6 B6230000 		.4byte	0x23b6
 6969 10fa 34       		.uleb128 0x34
 6970 10fb AB230000 		.4byte	0x23ab
 6971 10ff 30       		.uleb128 0x30
 6972 1100 00040000 		.4byte	.Ldebug_ranges0+0x400
 6973 1104 35       		.uleb128 0x35
 6974 1105 D7230000 		.4byte	0x23d7
 6975 1109 35       		.uleb128 0x35
 6976 110a E2230000 		.4byte	0x23e2
 6977 110e 00       		.byte	0
 6978 110f 00       		.byte	0
 6979 1110 2E       		.uleb128 0x2e
 6980 1111 99230000 		.4byte	0x2399
 6981 1115 E4000000 		.4byte	.LBI334
 6982 1119 0200     		.2byte	.LVU926
 6983 111b 20040000 		.4byte	.Ldebug_ranges0+0x420
 6984 111f 01       		.byte	0x1
 6985 1120 E801     		.2byte	0x1e8
 6986 1122 0F       		.byte	0xf
 6987 1123 4C110000 		.4byte	0x114c
 6988 1127 34       		.uleb128 0x34
 6989 1128 CC230000 		.4byte	0x23cc
 6990 112c 34       		.uleb128 0x34
 6991 112d C1230000 		.4byte	0x23c1
 6992 1131 34       		.uleb128 0x34
 6993 1132 B6230000 		.4byte	0x23b6
 6994 1136 34       		.uleb128 0x34
 6995 1137 AB230000 		.4byte	0x23ab
 6996 113b 30       		.uleb128 0x30
 6997 113c 20040000 		.4byte	.Ldebug_ranges0+0x420
 6998 1140 35       		.uleb128 0x35
 6999 1141 D7230000 		.4byte	0x23d7
 7000 1145 35       		.uleb128 0x35
 7001 1146 E2230000 		.4byte	0x23e2
 7002 114a 00       		.byte	0
 7003 114b 00       		.byte	0
 7004 114c 2E       		.uleb128 0x2e
 7005 114d 99230000 		.4byte	0x2399
 7006 1151 62010000 		.4byte	.LBI337
 7007 1155 0100     		.2byte	.LVU971
 7008 1157 38040000 		.4byte	.Ldebug_ranges0+0x438
 7009 115b 01       		.byte	0x1
 7010 115c F801     		.2byte	0x1f8
 7011 115e 0A       		.byte	0xa
ARM GAS  /var/folders/cs/83z6p2tj4w57s6p2rt8nwfp00000gn/T//ccDzWS9O.s 			page 151


 7012 115f B0110000 		.4byte	0x11b0
 7013 1163 34       		.uleb128 0x34
 7014 1164 CC230000 		.4byte	0x23cc
 7015 1168 2F       		.uleb128 0x2f
 7016 1169 C1230000 		.4byte	0x23c1
 7017 116d 3A0D0000 		.4byte	.LLST229
 7018 1171 360D0000 		.4byte	.LVUS229
 7019 1175 2F       		.uleb128 0x2f
 7020 1176 B6230000 		.4byte	0x23b6
 7021 117a 620D0000 		.4byte	.LLST230
 7022 117e 5A0D0000 		.4byte	.LVUS230
 7023 1182 2F       		.uleb128 0x2f
 7024 1183 AB230000 		.4byte	0x23ab
 7025 1187 F00D0000 		.4byte	.LLST231
 7026 118b EA0D0000 		.4byte	.LVUS231
 7027 118f 30       		.uleb128 0x30
 7028 1190 38040000 		.4byte	.Ldebug_ranges0+0x438
 7029 1194 31       		.uleb128 0x31
 7030 1195 D7230000 		.4byte	0x23d7
 7031 1199 340E0000 		.4byte	.LLST232
 7032 119d 300E0000 		.4byte	.LVUS232
 7033 11a1 31       		.uleb128 0x31
 7034 11a2 E2230000 		.4byte	0x23e2
 7035 11a6 5C0E0000 		.4byte	.LLST233
 7036 11aa 540E0000 		.4byte	.LVUS233
 7037 11ae 00       		.byte	0
 7038 11af 00       		.byte	0
 7039 11b0 36       		.uleb128 0x36
 7040 11b1 99230000 		.4byte	0x2399
 7041 11b5 8A010000 		.4byte	.LBI340
 7042 11b9 0200     		.2byte	.LVU985
 7043 11bb 8A010000 		.4byte	.LBB340
 7044 11bf A4010000 		.4byte	.LBE340
 7045 11c3 01       		.byte	0x1
 7046 11c4 F901     		.2byte	0x1f9
 7047 11c6 0A       		.byte	0xa
 7048 11c7 02120000 		.4byte	0x1202
 7049 11cb 34       		.uleb128 0x34
 7050 11cc CC230000 		.4byte	0x23cc
 7051 11d0 2F       		.uleb128 0x2f
 7052 11d1 C1230000 		.4byte	0x23c1
 7053 11d5 D60E0000 		.4byte	.LLST234
 7054 11d9 D40E0000 		.4byte	.LVUS234
 7055 11dd 34       		.uleb128 0x34
 7056 11de B6230000 		.4byte	0x23b6
 7057 11e2 2F       		.uleb128 0x2f
 7058 11e3 AB230000 		.4byte	0x23ab
 7059 11e7 EC0E0000 		.4byte	.LLST235
 7060 11eb EA0E0000 		.4byte	.LVUS235
 7061 11ef 31       		.uleb128 0x31
 7062 11f0 D7230000 		.4byte	0x23d7
 7063 11f4 020F0000 		.4byte	.LLST236
 7064 11f8 000F0000 		.4byte	.LVUS236
 7065 11fc 35       		.uleb128 0x35
 7066 11fd E2230000 		.4byte	0x23e2
 7067 1201 00       		.byte	0
 7068 1202 2E       		.uleb128 0x2e
ARM GAS  /var/folders/cs/83z6p2tj4w57s6p2rt8nwfp00000gn/T//ccDzWS9O.s 			page 152


 7069 1203 99230000 		.4byte	0x2399
 7070 1207 0C020000 		.4byte	.LBI342
 7071 120b 0000     		.2byte	.LVU1012
 7072 120d 50040000 		.4byte	.Ldebug_ranges0+0x450
 7073 1211 01       		.byte	0x1
 7074 1212 0502     		.2byte	0x205
 7075 1214 0B       		.byte	0xb
 7076 1215 6E120000 		.4byte	0x126e
 7077 1219 2F       		.uleb128 0x2f
 7078 121a CC230000 		.4byte	0x23cc
 7079 121e 1C0F0000 		.4byte	.LLST237
 7080 1222 160F0000 		.4byte	.LVUS237
 7081 1226 2F       		.uleb128 0x2f
 7082 1227 C1230000 		.4byte	0x23c1
 7083 122b 4C0F0000 		.4byte	.LLST238
 7084 122f 480F0000 		.4byte	.LVUS238
 7085 1233 2F       		.uleb128 0x2f
 7086 1234 B6230000 		.4byte	0x23b6
 7087 1238 700F0000 		.4byte	.LLST239
 7088 123c 6C0F0000 		.4byte	.LVUS239
 7089 1240 2F       		.uleb128 0x2f
 7090 1241 AB230000 		.4byte	0x23ab
 7091 1245 940F0000 		.4byte	.LLST240
 7092 1249 900F0000 		.4byte	.LVUS240
 7093 124d 30       		.uleb128 0x30
 7094 124e 50040000 		.4byte	.Ldebug_ranges0+0x450
 7095 1252 31       		.uleb128 0x31
 7096 1253 D7230000 		.4byte	0x23d7
 7097 1257 BA0F0000 		.4byte	.LLST241
 7098 125b B40F0000 		.4byte	.LVUS241
 7099 125f 31       		.uleb128 0x31
 7100 1260 E2230000 		.4byte	0x23e2
 7101 1264 F20F0000 		.4byte	.LLST242
 7102 1268 EE0F0000 		.4byte	.LVUS242
 7103 126c 00       		.byte	0
 7104 126d 00       		.byte	0
 7105 126e 2E       		.uleb128 0x2e
 7106 126f 99230000 		.4byte	0x2399
 7107 1273 3A020000 		.4byte	.LBI350
 7108 1277 0100     		.2byte	.LVU1030
 7109 1279 80040000 		.4byte	.Ldebug_ranges0+0x480
 7110 127d 01       		.byte	0x1
 7111 127e 0902     		.2byte	0x209
 7112 1280 0A       		.byte	0xa
 7113 1281 DA120000 		.4byte	0x12da
 7114 1285 2F       		.uleb128 0x2f
 7115 1286 CC230000 		.4byte	0x23cc
 7116 128a 26100000 		.4byte	.LLST243
 7117 128e 22100000 		.4byte	.LVUS243
 7118 1292 2F       		.uleb128 0x2f
 7119 1293 C1230000 		.4byte	0x23c1
 7120 1297 4A100000 		.4byte	.LLST244
 7121 129b 46100000 		.4byte	.LVUS244
 7122 129f 2F       		.uleb128 0x2f
 7123 12a0 B6230000 		.4byte	0x23b6
 7124 12a4 6E100000 		.4byte	.LLST245
 7125 12a8 6A100000 		.4byte	.LVUS245
ARM GAS  /var/folders/cs/83z6p2tj4w57s6p2rt8nwfp00000gn/T//ccDzWS9O.s 			page 153


 7126 12ac 2F       		.uleb128 0x2f
 7127 12ad AB230000 		.4byte	0x23ab
 7128 12b1 92100000 		.4byte	.LLST246
 7129 12b5 8E100000 		.4byte	.LVUS246
 7130 12b9 30       		.uleb128 0x30
 7131 12ba 80040000 		.4byte	.Ldebug_ranges0+0x480
 7132 12be 31       		.uleb128 0x31
 7133 12bf D7230000 		.4byte	0x23d7
 7134 12c3 BA100000 		.4byte	.LLST247
 7135 12c7 B2100000 		.4byte	.LVUS247
 7136 12cb 31       		.uleb128 0x31
 7137 12cc E2230000 		.4byte	0x23e2
 7138 12d0 02110000 		.4byte	.LLST248
 7139 12d4 FE100000 		.4byte	.LVUS248
 7140 12d8 00       		.byte	0
 7141 12d9 00       		.byte	0
 7142 12da 2E       		.uleb128 0x2e
 7143 12db 99230000 		.4byte	0x2399
 7144 12df 42030000 		.4byte	.LBI356
 7145 12e3 0100     		.2byte	.LVU1090
 7146 12e5 98040000 		.4byte	.Ldebug_ranges0+0x498
 7147 12e9 01       		.byte	0x1
 7148 12ea FD01     		.2byte	0x1fd
 7149 12ec 0A       		.byte	0xa
 7150 12ed 3E130000 		.4byte	0x133e
 7151 12f1 2F       		.uleb128 0x2f
 7152 12f2 CC230000 		.4byte	0x23cc
 7153 12f6 36110000 		.4byte	.LLST249
 7154 12fa 32110000 		.4byte	.LVUS249
 7155 12fe 2F       		.uleb128 0x2f
 7156 12ff C1230000 		.4byte	0x23c1
 7157 1303 70110000 		.4byte	.LLST250
 7158 1307 6E110000 		.4byte	.LVUS250
 7159 130b 34       		.uleb128 0x34
 7160 130c B6230000 		.4byte	0x23b6
 7161 1310 2F       		.uleb128 0x2f
 7162 1311 AB230000 		.4byte	0x23ab
 7163 1315 88110000 		.4byte	.LLST251
 7164 1319 84110000 		.4byte	.LVUS251
 7165 131d 30       		.uleb128 0x30
 7166 131e 98040000 		.4byte	.Ldebug_ranges0+0x498
 7167 1322 31       		.uleb128 0x31
 7168 1323 D7230000 		.4byte	0x23d7
 7169 1327 AC110000 		.4byte	.LLST252
 7170 132b A8110000 		.4byte	.LVUS252
 7171 132f 31       		.uleb128 0x31
 7172 1330 E2230000 		.4byte	0x23e2
 7173 1334 D0110000 		.4byte	.LLST253
 7174 1338 CC110000 		.4byte	.LVUS253
 7175 133c 00       		.byte	0
 7176 133d 00       		.byte	0
 7177 133e 36       		.uleb128 0x36
 7178 133f 99230000 		.4byte	0x2399
 7179 1343 68030000 		.4byte	.LBI359
 7180 1347 0200     		.2byte	.LVU1104
 7181 1349 68030000 		.4byte	.LBB359
 7182 134d 88030000 		.4byte	.LBE359
ARM GAS  /var/folders/cs/83z6p2tj4w57s6p2rt8nwfp00000gn/T//ccDzWS9O.s 			page 154


 7183 1351 01       		.byte	0x1
 7184 1352 FE01     		.2byte	0x1fe
 7185 1354 0A       		.byte	0xa
 7186 1355 90130000 		.4byte	0x1390
 7187 1359 34       		.uleb128 0x34
 7188 135a CC230000 		.4byte	0x23cc
 7189 135e 2F       		.uleb128 0x2f
 7190 135f C1230000 		.4byte	0x23c1
 7191 1363 F2110000 		.4byte	.LLST254
 7192 1367 F0110000 		.4byte	.LVUS254
 7193 136b 34       		.uleb128 0x34
 7194 136c B6230000 		.4byte	0x23b6
 7195 1370 2F       		.uleb128 0x2f
 7196 1371 AB230000 		.4byte	0x23ab
 7197 1375 08120000 		.4byte	.LLST255
 7198 1379 06120000 		.4byte	.LVUS255
 7199 137d 31       		.uleb128 0x31
 7200 137e D7230000 		.4byte	0x23d7
 7201 1382 1E120000 		.4byte	.LLST256
 7202 1386 1C120000 		.4byte	.LVUS256
 7203 138a 35       		.uleb128 0x35
 7204 138b E2230000 		.4byte	0x23e2
 7205 138f 00       		.byte	0
 7206 1390 28       		.uleb128 0x28
 7207 1391 FC010000 		.4byte	.LVL319
 7208 1395 15190000 		.4byte	0x1915
 7209 1399 EA130000 		.4byte	0x13ea
 7210 139d 29       		.uleb128 0x29
 7211 139e 01       		.byte	0x1
 7212 139f 50       		.byte	0x50
 7213 13a0 03       		.byte	0x3
 7214 13a1 91       		.byte	0x91
 7215 13a2 40       		.sleb128 -64
 7216 13a3 06       		.byte	0x6
 7217 13a4 29       		.uleb128 0x29
 7218 13a5 01       		.byte	0x1
 7219 13a6 51       		.byte	0x51
 7220 13a7 03       		.byte	0x3
 7221 13a8 91       		.byte	0x91
 7222 13a9 44       		.sleb128 -60
 7223 13aa 06       		.byte	0x6
 7224 13ab 29       		.uleb128 0x29
 7225 13ac 02       		.byte	0x2
 7226 13ad 7D       		.byte	0x7d
 7227 13ae 00       		.sleb128 0
 7228 13af 02       		.byte	0x2
 7229 13b0 77       		.byte	0x77
 7230 13b1 00       		.sleb128 0
 7231 13b2 29       		.uleb128 0x29
 7232 13b3 02       		.byte	0x2
 7233 13b4 7D       		.byte	0x7d
 7234 13b5 04       		.sleb128 4
 7235 13b6 04       		.byte	0x4
 7236 13b7 91       		.byte	0x91
 7237 13b8 BC7F     		.sleb128 -68
 7238 13ba 06       		.byte	0x6
 7239 13bb 29       		.uleb128 0x29
ARM GAS  /var/folders/cs/83z6p2tj4w57s6p2rt8nwfp00000gn/T//ccDzWS9O.s 			page 155


 7240 13bc 02       		.byte	0x2
 7241 13bd 7D       		.byte	0x7d
 7242 13be 08       		.sleb128 8
 7243 13bf 02       		.byte	0x2
 7244 13c0 91       		.byte	0x91
 7245 13c1 4C       		.sleb128 -52
 7246 13c2 29       		.uleb128 0x29
 7247 13c3 02       		.byte	0x2
 7248 13c4 7D       		.byte	0x7d
 7249 13c5 0C       		.sleb128 12
 7250 13c6 02       		.byte	0x2
 7251 13c7 7B       		.byte	0x7b
 7252 13c8 00       		.sleb128 0
 7253 13c9 29       		.uleb128 0x29
 7254 13ca 02       		.byte	0x2
 7255 13cb 7D       		.byte	0x7d
 7256 13cc 10       		.sleb128 16
 7257 13cd 02       		.byte	0x2
 7258 13ce 91       		.byte	0x91
 7259 13cf 50       		.sleb128 -48
 7260 13d0 29       		.uleb128 0x29
 7261 13d1 02       		.byte	0x2
 7262 13d2 7D       		.byte	0x7d
 7263 13d3 14       		.sleb128 20
 7264 13d4 03       		.byte	0x3
 7265 13d5 92       		.byte	0x92
 7266 13d6 4B       		.uleb128 0x4b
 7267 13d7 00       		.sleb128 0
 7268 13d8 29       		.uleb128 0x29
 7269 13d9 02       		.byte	0x2
 7270 13da 7D       		.byte	0x7d
 7271 13db 18       		.sleb128 24
 7272 13dc 04       		.byte	0x4
 7273 13dd 91       		.byte	0x91
 7274 13de B87F     		.sleb128 -72
 7275 13e0 06       		.byte	0x6
 7276 13e1 29       		.uleb128 0x29
 7277 13e2 02       		.byte	0x2
 7278 13e3 7D       		.byte	0x7d
 7279 13e4 1C       		.sleb128 28
 7280 13e5 03       		.byte	0x3
 7281 13e6 91       		.byte	0x91
 7282 13e7 04       		.sleb128 4
 7283 13e8 06       		.byte	0x6
 7284 13e9 00       		.byte	0
 7285 13ea 28       		.uleb128 0x28
 7286 13eb 8C020000 		.4byte	.LVL330
 7287 13ef 15190000 		.4byte	0x1915
 7288 13f3 42140000 		.4byte	0x1442
 7289 13f7 29       		.uleb128 0x29
 7290 13f8 01       		.byte	0x1
 7291 13f9 52       		.byte	0x52
 7292 13fa 03       		.byte	0x3
 7293 13fb 92       		.byte	0x92
 7294 13fc 4C       		.uleb128 0x4c
 7295 13fd 00       		.sleb128 0
 7296 13fe 29       		.uleb128 0x29
ARM GAS  /var/folders/cs/83z6p2tj4w57s6p2rt8nwfp00000gn/T//ccDzWS9O.s 			page 156


 7297 13ff 01       		.byte	0x1
 7298 1400 53       		.byte	0x53
 7299 1401 02       		.byte	0x2
 7300 1402 7A       		.byte	0x7a
 7301 1403 00       		.sleb128 0
 7302 1404 29       		.uleb128 0x29
 7303 1405 02       		.byte	0x2
 7304 1406 7D       		.byte	0x7d
 7305 1407 00       		.sleb128 0
 7306 1408 02       		.byte	0x2
 7307 1409 77       		.byte	0x77
 7308 140a 00       		.sleb128 0
 7309 140b 29       		.uleb128 0x29
 7310 140c 02       		.byte	0x2
 7311 140d 7D       		.byte	0x7d
 7312 140e 04       		.sleb128 4
 7313 140f 03       		.byte	0x3
 7314 1410 92       		.byte	0x92
 7315 1411 4D       		.uleb128 0x4d
 7316 1412 00       		.sleb128 0
 7317 1413 29       		.uleb128 0x29
 7318 1414 02       		.byte	0x2
 7319 1415 7D       		.byte	0x7d
 7320 1416 08       		.sleb128 8
 7321 1417 02       		.byte	0x2
 7322 1418 91       		.byte	0x91
 7323 1419 4C       		.sleb128 -52
 7324 141a 29       		.uleb128 0x29
 7325 141b 02       		.byte	0x2
 7326 141c 7D       		.byte	0x7d
 7327 141d 0C       		.sleb128 12
 7328 141e 02       		.byte	0x2
 7329 141f 7B       		.byte	0x7b
 7330 1420 00       		.sleb128 0
 7331 1421 29       		.uleb128 0x29
 7332 1422 02       		.byte	0x2
 7333 1423 7D       		.byte	0x7d
 7334 1424 10       		.sleb128 16
 7335 1425 02       		.byte	0x2
 7336 1426 91       		.byte	0x91
 7337 1427 50       		.sleb128 -48
 7338 1428 29       		.uleb128 0x29
 7339 1429 02       		.byte	0x2
 7340 142a 7D       		.byte	0x7d
 7341 142b 14       		.sleb128 20
 7342 142c 03       		.byte	0x3
 7343 142d 92       		.byte	0x92
 7344 142e 48       		.uleb128 0x48
 7345 142f 00       		.sleb128 0
 7346 1430 29       		.uleb128 0x29
 7347 1431 02       		.byte	0x2
 7348 1432 7D       		.byte	0x7d
 7349 1433 18       		.sleb128 24
 7350 1434 04       		.byte	0x4
 7351 1435 91       		.byte	0x91
 7352 1436 B87F     		.sleb128 -72
 7353 1438 06       		.byte	0x6
ARM GAS  /var/folders/cs/83z6p2tj4w57s6p2rt8nwfp00000gn/T//ccDzWS9O.s 			page 157


 7354 1439 29       		.uleb128 0x29
 7355 143a 02       		.byte	0x2
 7356 143b 7D       		.byte	0x7d
 7357 143c 1C       		.sleb128 28
 7358 143d 03       		.byte	0x3
 7359 143e 91       		.byte	0x91
 7360 143f 04       		.sleb128 4
 7361 1440 06       		.byte	0x6
 7362 1441 00       		.byte	0
 7363 1442 37       		.uleb128 0x37
 7364 1443 3C040000 		.4byte	.LVL373
 7365 1447 15190000 		.4byte	0x1915
 7366 144b 29       		.uleb128 0x29
 7367 144c 01       		.byte	0x1
 7368 144d 52       		.byte	0x52
 7369 144e 03       		.byte	0x3
 7370 144f 92       		.byte	0x92
 7371 1450 4E       		.uleb128 0x4e
 7372 1451 00       		.sleb128 0
 7373 1452 29       		.uleb128 0x29
 7374 1453 01       		.byte	0x1
 7375 1454 53       		.byte	0x53
 7376 1455 02       		.byte	0x2
 7377 1456 7A       		.byte	0x7a
 7378 1457 00       		.sleb128 0
 7379 1458 29       		.uleb128 0x29
 7380 1459 02       		.byte	0x2
 7381 145a 7D       		.byte	0x7d
 7382 145b 00       		.sleb128 0
 7383 145c 02       		.byte	0x2
 7384 145d 74       		.byte	0x74
 7385 145e 00       		.sleb128 0
 7386 145f 29       		.uleb128 0x29
 7387 1460 02       		.byte	0x2
 7388 1461 7D       		.byte	0x7d
 7389 1462 04       		.sleb128 4
 7390 1463 04       		.byte	0x4
 7391 1464 91       		.byte	0x91
 7392 1465 BC7F     		.sleb128 -68
 7393 1467 06       		.byte	0x6
 7394 1468 29       		.uleb128 0x29
 7395 1469 02       		.byte	0x2
 7396 146a 7D       		.byte	0x7d
 7397 146b 08       		.sleb128 8
 7398 146c 02       		.byte	0x2
 7399 146d 91       		.byte	0x91
 7400 146e 4C       		.sleb128 -52
 7401 146f 29       		.uleb128 0x29
 7402 1470 02       		.byte	0x2
 7403 1471 7D       		.byte	0x7d
 7404 1472 0C       		.sleb128 12
 7405 1473 03       		.byte	0x3
 7406 1474 92       		.byte	0x92
 7407 1475 4D       		.uleb128 0x4d
 7408 1476 00       		.sleb128 0
 7409 1477 29       		.uleb128 0x29
 7410 1478 02       		.byte	0x2
ARM GAS  /var/folders/cs/83z6p2tj4w57s6p2rt8nwfp00000gn/T//ccDzWS9O.s 			page 158


 7411 1479 7D       		.byte	0x7d
 7412 147a 10       		.sleb128 16
 7413 147b 02       		.byte	0x2
 7414 147c 91       		.byte	0x91
 7415 147d 50       		.sleb128 -48
 7416 147e 29       		.uleb128 0x29
 7417 147f 02       		.byte	0x2
 7418 1480 7D       		.byte	0x7d
 7419 1481 14       		.sleb128 20
 7420 1482 03       		.byte	0x3
 7421 1483 92       		.byte	0x92
 7422 1484 4B       		.uleb128 0x4b
 7423 1485 00       		.sleb128 0
 7424 1486 29       		.uleb128 0x29
 7425 1487 02       		.byte	0x2
 7426 1488 7D       		.byte	0x7d
 7427 1489 18       		.sleb128 24
 7428 148a 04       		.byte	0x4
 7429 148b 91       		.byte	0x91
 7430 148c B87F     		.sleb128 -72
 7431 148e 06       		.byte	0x6
 7432 148f 29       		.uleb128 0x29
 7433 1490 02       		.byte	0x2
 7434 1491 7D       		.byte	0x7d
 7435 1492 1C       		.sleb128 28
 7436 1493 03       		.byte	0x3
 7437 1494 91       		.byte	0x91
 7438 1495 04       		.sleb128 4
 7439 1496 06       		.byte	0x6
 7440 1497 00       		.byte	0
 7441 1498 00       		.byte	0
 7442 1499 25       		.uleb128 0x25
 7443 149a 01       		.byte	0x1
 7444 149b 44040000 		.4byte	.LASF158
 7445 149f 01       		.byte	0x1
 7446 14a0 B301     		.2byte	0x1b3
 7447 14a2 0D       		.byte	0xd
 7448 14a3 01       		.byte	0x1
 7449 14a4 E80B0000 		.4byte	0xbe8
 7450 14a8 00000000 		.4byte	.LFB23
 7451 14ac AC020000 		.4byte	.LFE23
 7452 14b0 32120000 		.4byte	.LLST161
 7453 14b4 01       		.byte	0x1
 7454 14b5 82180000 		.4byte	0x1882
 7455 14b9 26       		.uleb128 0x26
 7456 14ba 7B050000 		.4byte	.LASF149
 7457 14be 01       		.byte	0x1
 7458 14bf B301     		.2byte	0x1b3
 7459 14c1 23       		.byte	0x23
 7460 14c2 380D0000 		.4byte	0xd38
 7461 14c6 84120000 		.4byte	.LLST162
 7462 14ca 78120000 		.4byte	.LVUS162
 7463 14ce 26       		.uleb128 0x26
 7464 14cf 51040000 		.4byte	.LASF150
 7465 14d3 01       		.byte	0x1
 7466 14d4 B301     		.2byte	0x1b3
 7467 14d6 2F       		.byte	0x2f
ARM GAS  /var/folders/cs/83z6p2tj4w57s6p2rt8nwfp00000gn/T//ccDzWS9O.s 			page 159


 7468 14d7 30000000 		.4byte	0x30
 7469 14db DF120000 		.4byte	.LLST163
 7470 14df D3120000 		.4byte	.LVUS163
 7471 14e3 27       		.uleb128 0x27
 7472 14e4 703100   		.ascii	"p1\000"
 7473 14e7 01       		.byte	0x1
 7474 14e8 B301     		.2byte	0x1b3
 7475 14ea 43       		.byte	0x43
 7476 14eb 3E0D0000 		.4byte	0xd3e
 7477 14ef 48130000 		.4byte	.LLST164
 7478 14f3 2E130000 		.4byte	.LVUS164
 7479 14f7 27       		.uleb128 0x27
 7480 14f8 703200   		.ascii	"p2\000"
 7481 14fb 01       		.byte	0x1
 7482 14fc B301     		.2byte	0x1b3
 7483 14fe 50       		.byte	0x50
 7484 14ff 3E0D0000 		.4byte	0xd3e
 7485 1503 FB130000 		.4byte	.LLST165
 7486 1507 DF130000 		.4byte	.LVUS165
 7487 150b 27       		.uleb128 0x27
 7488 150c 703300   		.ascii	"p3\000"
 7489 150f 01       		.byte	0x1
 7490 1510 B301     		.2byte	0x1b3
 7491 1512 5D       		.byte	0x5d
 7492 1513 3E0D0000 		.4byte	0xd3e
 7493 1517 AB140000 		.4byte	.LLST166
 7494 151b 9D140000 		.4byte	.LVUS166
 7495 151f 26       		.uleb128 0x26
 7496 1520 9F050000 		.4byte	.LASF151
 7497 1524 01       		.byte	0x1
 7498 1525 B301     		.2byte	0x1b3
 7499 1527 69       		.byte	0x69
 7500 1528 380D0000 		.4byte	0xd38
 7501 152c 08150000 		.4byte	.LLST167
 7502 1530 04150000 		.4byte	.LVUS167
 7503 1534 2B       		.uleb128 0x2b
 7504 1535 9E000000 		.4byte	.LASF155
 7505 1539 01       		.byte	0x1
 7506 153a B901     		.2byte	0x1b9
 7507 153c 06       		.byte	0x6
 7508 153d 30000000 		.4byte	0x30
 7509 1541 2E150000 		.4byte	.LLST168
 7510 1545 28150000 		.4byte	.LVUS168
 7511 1549 2D       		.uleb128 0x2d
 7512 154a 783100   		.ascii	"x1\000"
 7513 154d 01       		.byte	0x1
 7514 154e BE01     		.2byte	0x1be
 7515 1550 0A       		.byte	0xa
 7516 1551 D6000000 		.4byte	0xd6
 7517 1555 02       		.byte	0x2
 7518 1556 91       		.byte	0x91
 7519 1557 4C       		.sleb128 -52
 7520 1558 2D       		.uleb128 0x2d
 7521 1559 783200   		.ascii	"x2\000"
 7522 155c 01       		.byte	0x1
 7523 155d BF01     		.2byte	0x1bf
 7524 155f 0A       		.byte	0xa
ARM GAS  /var/folders/cs/83z6p2tj4w57s6p2rt8nwfp00000gn/T//ccDzWS9O.s 			page 160


 7525 1560 D6000000 		.4byte	0xd6
 7526 1564 02       		.byte	0x2
 7527 1565 91       		.byte	0x91
 7528 1566 50       		.sleb128 -48
 7529 1567 2C       		.uleb128 0x2c
 7530 1568 736200   		.ascii	"sb\000"
 7531 156b 01       		.byte	0x1
 7532 156c C101     		.2byte	0x1c1
 7533 156e 0A       		.byte	0xa
 7534 156f D6000000 		.4byte	0xd6
 7535 1573 6D150000 		.4byte	.LLST169
 7536 1577 67150000 		.4byte	.LVUS169
 7537 157b 2C       		.uleb128 0x2c
 7538 157c 736300   		.ascii	"sc\000"
 7539 157f 01       		.byte	0x1
 7540 1580 C201     		.2byte	0x1c2
 7541 1582 0A       		.byte	0xa
 7542 1583 D6000000 		.4byte	0xd6
 7543 1587 A0150000 		.4byte	.LLST170
 7544 158b 9C150000 		.4byte	.LVUS170
 7545 158f 2C       		.uleb128 0x2c
 7546 1590 64783100 		.ascii	"dx1\000"
 7547 1594 01       		.byte	0x1
 7548 1595 C401     		.2byte	0x1c4
 7549 1597 0A       		.byte	0xa
 7550 1598 D6000000 		.4byte	0xd6
 7551 159c C4150000 		.4byte	.LLST171
 7552 15a0 BE150000 		.4byte	.LVUS171
 7553 15a4 2C       		.uleb128 0x2c
 7554 15a5 64783200 		.ascii	"dx2\000"
 7555 15a9 01       		.byte	0x1
 7556 15aa C501     		.2byte	0x1c5
 7557 15ac 0A       		.byte	0xa
 7558 15ad D6000000 		.4byte	0xd6
 7559 15b1 FB150000 		.4byte	.LLST172
 7560 15b5 F1150000 		.4byte	.LVUS172
 7561 15b9 2C       		.uleb128 0x2c
 7562 15ba 647800   		.ascii	"dx\000"
 7563 15bd 01       		.byte	0x1
 7564 15be C901     		.2byte	0x1c9
 7565 15c0 06       		.byte	0x6
 7566 15c1 30000000 		.4byte	0x30
 7567 15c5 44160000 		.4byte	.LLST173
 7568 15c9 40160000 		.4byte	.LVUS173
 7569 15cd 2E       		.uleb128 0x2e
 7570 15ce 82180000 		.4byte	0x1882
 7571 15d2 00000000 		.4byte	.LBI249
 7572 15d6 0200     		.2byte	.LVU703
 7573 15d8 B8020000 		.4byte	.Ldebug_ranges0+0x2b8
 7574 15dc 01       		.byte	0x1
 7575 15dd B701     		.2byte	0x1b7
 7576 15df 02       		.byte	0x2
 7577 15e0 6F160000 		.4byte	0x166f
 7578 15e4 2F       		.uleb128 0x2f
 7579 15e5 A9180000 		.4byte	0x18a9
 7580 15e9 6C160000 		.4byte	.LLST174
 7581 15ed 64160000 		.4byte	.LVUS174
ARM GAS  /var/folders/cs/83z6p2tj4w57s6p2rt8nwfp00000gn/T//ccDzWS9O.s 			page 161


 7582 15f1 2F       		.uleb128 0x2f
 7583 15f2 9D180000 		.4byte	0x189d
 7584 15f6 BC160000 		.4byte	.LLST175
 7585 15fa B4160000 		.4byte	.LVUS175
 7586 15fe 2F       		.uleb128 0x2f
 7587 15ff 91180000 		.4byte	0x1891
 7588 1603 0C170000 		.4byte	.LLST176
 7589 1607 04170000 		.4byte	.LVUS176
 7590 160b 30       		.uleb128 0x30
 7591 160c B8020000 		.4byte	.Ldebug_ranges0+0x2b8
 7592 1610 31       		.uleb128 0x31
 7593 1611 B5180000 		.4byte	0x18b5
 7594 1615 60170000 		.4byte	.LLST177
 7595 1619 54170000 		.4byte	.LVUS177
 7596 161d 31       		.uleb128 0x31
 7597 161e C1180000 		.4byte	0x18c1
 7598 1622 CA170000 		.4byte	.LLST178
 7599 1626 B0170000 		.4byte	.LVUS178
 7600 162a 31       		.uleb128 0x31
 7601 162b CD180000 		.4byte	0x18cd
 7602 162f 82180000 		.4byte	.LLST179
 7603 1633 6E180000 		.4byte	.LVUS179
 7604 1637 32       		.uleb128 0x32
 7605 1638 EC180000 		.4byte	0x18ec
 7606 163c F0020000 		.4byte	.Ldebug_ranges0+0x2f0
 7607 1640 52160000 		.4byte	0x1652
 7608 1644 31       		.uleb128 0x31
 7609 1645 F1180000 		.4byte	0x18f1
 7610 1649 0C190000 		.4byte	.LLST180
 7611 164d 08190000 		.4byte	.LVUS180
 7612 1651 00       		.byte	0
 7613 1652 38       		.uleb128 0x38
 7614 1653 FF180000 		.4byte	0x18ff
 7615 1657 E6010000 		.4byte	.LBB252
 7616 165b FE010000 		.4byte	.LBE252
 7617 165f 31       		.uleb128 0x31
 7618 1660 00190000 		.4byte	0x1900
 7619 1664 2C190000 		.4byte	.LLST181
 7620 1668 2A190000 		.4byte	.LVUS181
 7621 166c 00       		.byte	0
 7622 166d 00       		.byte	0
 7623 166e 00       		.byte	0
 7624 166f 2E       		.uleb128 0x2e
 7625 1670 99230000 		.4byte	0x2399
 7626 1674 96000000 		.4byte	.LBI261
 7627 1678 0100     		.2byte	.LVU740
 7628 167a 08030000 		.4byte	.Ldebug_ranges0+0x308
 7629 167e 01       		.byte	0x1
 7630 167f C101     		.2byte	0x1c1
 7631 1681 0F       		.byte	0xf
 7632 1682 DB160000 		.4byte	0x16db
 7633 1686 2F       		.uleb128 0x2f
 7634 1687 CC230000 		.4byte	0x23cc
 7635 168b 43190000 		.4byte	.LLST182
 7636 168f 3F190000 		.4byte	.LVUS182
 7637 1693 2F       		.uleb128 0x2f
 7638 1694 C1230000 		.4byte	0x23c1
ARM GAS  /var/folders/cs/83z6p2tj4w57s6p2rt8nwfp00000gn/T//ccDzWS9O.s 			page 162


 7639 1698 69190000 		.4byte	.LLST183
 7640 169c 63190000 		.4byte	.LVUS183
 7641 16a0 2F       		.uleb128 0x2f
 7642 16a1 B6230000 		.4byte	0x23b6
 7643 16a5 99190000 		.4byte	.LLST184
 7644 16a9 95190000 		.4byte	.LVUS184
 7645 16ad 2F       		.uleb128 0x2f
 7646 16ae AB230000 		.4byte	0x23ab
 7647 16b2 BD190000 		.4byte	.LLST185
 7648 16b6 B9190000 		.4byte	.LVUS185
 7649 16ba 30       		.uleb128 0x30
 7650 16bb 08030000 		.4byte	.Ldebug_ranges0+0x308
 7651 16bf 31       		.uleb128 0x31
 7652 16c0 D7230000 		.4byte	0x23d7
 7653 16c4 E3190000 		.4byte	.LLST186
 7654 16c8 DD190000 		.4byte	.LVUS186
 7655 16cc 31       		.uleb128 0x31
 7656 16cd E2230000 		.4byte	0x23e2
 7657 16d1 1D1A0000 		.4byte	.LLST187
 7658 16d5 171A0000 		.4byte	.LVUS187
 7659 16d9 00       		.byte	0
 7660 16da 00       		.byte	0
 7661 16db 2E       		.uleb128 0x2e
 7662 16dc 99230000 		.4byte	0x2399
 7663 16e0 AE000000 		.4byte	.LBI274
 7664 16e4 0200     		.2byte	.LVU752
 7665 16e6 48030000 		.4byte	.Ldebug_ranges0+0x348
 7666 16ea 01       		.byte	0x1
 7667 16eb C201     		.2byte	0x1c2
 7668 16ed 0F       		.byte	0xf
 7669 16ee 47170000 		.4byte	0x1747
 7670 16f2 2F       		.uleb128 0x2f
 7671 16f3 CC230000 		.4byte	0x23cc
 7672 16f7 531A0000 		.4byte	.LLST188
 7673 16fb 4F1A0000 		.4byte	.LVUS188
 7674 16ff 2F       		.uleb128 0x2f
 7675 1700 C1230000 		.4byte	0x23c1
 7676 1704 771A0000 		.4byte	.LLST189
 7677 1708 731A0000 		.4byte	.LVUS189
 7678 170c 2F       		.uleb128 0x2f
 7679 170d B6230000 		.4byte	0x23b6
 7680 1711 9B1A0000 		.4byte	.LLST190
 7681 1715 971A0000 		.4byte	.LVUS190
 7682 1719 2F       		.uleb128 0x2f
 7683 171a AB230000 		.4byte	0x23ab
 7684 171e C11A0000 		.4byte	.LLST191
 7685 1722 BB1A0000 		.4byte	.LVUS191
 7686 1726 30       		.uleb128 0x30
 7687 1727 48030000 		.4byte	.Ldebug_ranges0+0x348
 7688 172b 31       		.uleb128 0x31
 7689 172c D7230000 		.4byte	0x23d7
 7690 1730 F11A0000 		.4byte	.LLST192
 7691 1734 ED1A0000 		.4byte	.LVUS192
 7692 1738 31       		.uleb128 0x31
 7693 1739 E2230000 		.4byte	0x23e2
 7694 173d 151B0000 		.4byte	.LLST193
 7695 1741 111B0000 		.4byte	.LVUS193
ARM GAS  /var/folders/cs/83z6p2tj4w57s6p2rt8nwfp00000gn/T//ccDzWS9O.s 			page 163


 7696 1745 00       		.byte	0
 7697 1746 00       		.byte	0
 7698 1747 2E       		.uleb128 0x2e
 7699 1748 99230000 		.4byte	0x2399
 7700 174c 3E010000 		.4byte	.LBI277
 7701 1750 0000     		.2byte	.LVU786
 7702 1752 60030000 		.4byte	.Ldebug_ranges0+0x360
 7703 1756 01       		.byte	0x1
 7704 1757 C901     		.2byte	0x1c9
 7705 1759 0B       		.byte	0xb
 7706 175a B3170000 		.4byte	0x17b3
 7707 175e 2F       		.uleb128 0x2f
 7708 175f CC230000 		.4byte	0x23cc
 7709 1763 391B0000 		.4byte	.LLST194
 7710 1767 351B0000 		.4byte	.LVUS194
 7711 176b 2F       		.uleb128 0x2f
 7712 176c C1230000 		.4byte	0x23c1
 7713 1770 5B1B0000 		.4byte	.LLST195
 7714 1774 591B0000 		.4byte	.LVUS195
 7715 1778 2F       		.uleb128 0x2f
 7716 1779 B6230000 		.4byte	0x23b6
 7717 177d 711B0000 		.4byte	.LLST196
 7718 1781 6F1B0000 		.4byte	.LVUS196
 7719 1785 2F       		.uleb128 0x2f
 7720 1786 AB230000 		.4byte	0x23ab
 7721 178a 891B0000 		.4byte	.LLST197
 7722 178e 851B0000 		.4byte	.LVUS197
 7723 1792 30       		.uleb128 0x30
 7724 1793 60030000 		.4byte	.Ldebug_ranges0+0x360
 7725 1797 31       		.uleb128 0x31
 7726 1798 D7230000 		.4byte	0x23d7
 7727 179c AB1B0000 		.4byte	.LLST198
 7728 17a0 A91B0000 		.4byte	.LVUS198
 7729 17a4 31       		.uleb128 0x31
 7730 17a5 E2230000 		.4byte	0x23e2
 7731 17a9 C11B0000 		.4byte	.LLST199
 7732 17ad BF1B0000 		.4byte	.LVUS199
 7733 17b1 00       		.byte	0
 7734 17b2 00       		.byte	0
 7735 17b3 28       		.uleb128 0x28
 7736 17b4 2E010000 		.4byte	.LVL250
 7737 17b8 4C1B0000 		.4byte	0x1b4c
 7738 17bc F7170000 		.4byte	0x17f7
 7739 17c0 29       		.uleb128 0x29
 7740 17c1 01       		.byte	0x1
 7741 17c2 50       		.byte	0x50
 7742 17c3 03       		.byte	0x3
 7743 17c4 91       		.byte	0x91
 7744 17c5 40       		.sleb128 -64
 7745 17c6 06       		.byte	0x6
 7746 17c7 29       		.uleb128 0x29
 7747 17c8 01       		.byte	0x1
 7748 17c9 51       		.byte	0x51
 7749 17ca 03       		.byte	0x3
 7750 17cb 91       		.byte	0x91
 7751 17cc 44       		.sleb128 -60
 7752 17cd 06       		.byte	0x6
ARM GAS  /var/folders/cs/83z6p2tj4w57s6p2rt8nwfp00000gn/T//ccDzWS9O.s 			page 164


 7753 17ce 29       		.uleb128 0x29
 7754 17cf 02       		.byte	0x2
 7755 17d0 7D       		.byte	0x7d
 7756 17d1 00       		.sleb128 0
 7757 17d2 02       		.byte	0x2
 7758 17d3 76       		.byte	0x76
 7759 17d4 00       		.sleb128 0
 7760 17d5 29       		.uleb128 0x29
 7761 17d6 02       		.byte	0x2
 7762 17d7 7D       		.byte	0x7d
 7763 17d8 04       		.sleb128 4
 7764 17d9 04       		.byte	0x4
 7765 17da 91       		.byte	0x91
 7766 17db B87F     		.sleb128 -72
 7767 17dd 06       		.byte	0x6
 7768 17de 29       		.uleb128 0x29
 7769 17df 02       		.byte	0x2
 7770 17e0 7D       		.byte	0x7d
 7771 17e1 08       		.sleb128 8
 7772 17e2 02       		.byte	0x2
 7773 17e3 77       		.byte	0x77
 7774 17e4 00       		.sleb128 0
 7775 17e5 29       		.uleb128 0x29
 7776 17e6 02       		.byte	0x2
 7777 17e7 7D       		.byte	0x7d
 7778 17e8 0C       		.sleb128 12
 7779 17e9 04       		.byte	0x4
 7780 17ea 91       		.byte	0x91
 7781 17eb BC7F     		.sleb128 -68
 7782 17ed 06       		.byte	0x6
 7783 17ee 29       		.uleb128 0x29
 7784 17ef 02       		.byte	0x2
 7785 17f0 7D       		.byte	0x7d
 7786 17f1 10       		.sleb128 16
 7787 17f2 03       		.byte	0x3
 7788 17f3 91       		.byte	0x91
 7789 17f4 04       		.sleb128 4
 7790 17f5 06       		.byte	0x6
 7791 17f6 00       		.byte	0
 7792 17f7 28       		.uleb128 0x28
 7793 17f8 92010000 		.4byte	.LVL257
 7794 17fc 4C1B0000 		.4byte	0x1b4c
 7795 1800 49180000 		.4byte	0x1849
 7796 1804 29       		.uleb128 0x29
 7797 1805 01       		.byte	0x1
 7798 1806 50       		.byte	0x50
 7799 1807 03       		.byte	0x3
 7800 1808 91       		.byte	0x91
 7801 1809 40       		.sleb128 -64
 7802 180a 06       		.byte	0x6
 7803 180b 29       		.uleb128 0x29
 7804 180c 01       		.byte	0x1
 7805 180d 51       		.byte	0x51
 7806 180e 03       		.byte	0x3
 7807 180f 91       		.byte	0x91
 7808 1810 44       		.sleb128 -60
 7809 1811 06       		.byte	0x6
ARM GAS  /var/folders/cs/83z6p2tj4w57s6p2rt8nwfp00000gn/T//ccDzWS9O.s 			page 165


 7810 1812 29       		.uleb128 0x29
 7811 1813 01       		.byte	0x1
 7812 1814 52       		.byte	0x52
 7813 1815 03       		.byte	0x3
 7814 1816 92       		.byte	0x92
 7815 1817 4E       		.uleb128 0x4e
 7816 1818 00       		.sleb128 0
 7817 1819 29       		.uleb128 0x29
 7818 181a 01       		.byte	0x1
 7819 181b 53       		.byte	0x53
 7820 181c 02       		.byte	0x2
 7821 181d 7B       		.byte	0x7b
 7822 181e 00       		.sleb128 0
 7823 181f 29       		.uleb128 0x29
 7824 1820 02       		.byte	0x2
 7825 1821 7D       		.byte	0x7d
 7826 1822 00       		.sleb128 0
 7827 1823 04       		.byte	0x4
 7828 1824 91       		.byte	0x91
 7829 1825 B07F     		.sleb128 -80
 7830 1827 06       		.byte	0x6
 7831 1828 29       		.uleb128 0x29
 7832 1829 02       		.byte	0x2
 7833 182a 7D       		.byte	0x7d
 7834 182b 04       		.sleb128 4
 7835 182c 03       		.byte	0x3
 7836 182d 92       		.byte	0x92
 7837 182e 4C       		.uleb128 0x4c
 7838 182f 00       		.sleb128 0
 7839 1830 29       		.uleb128 0x29
 7840 1831 02       		.byte	0x2
 7841 1832 7D       		.byte	0x7d
 7842 1833 08       		.sleb128 8
 7843 1834 02       		.byte	0x2
 7844 1835 77       		.byte	0x77
 7845 1836 00       		.sleb128 0
 7846 1837 29       		.uleb128 0x29
 7847 1838 02       		.byte	0x2
 7848 1839 7D       		.byte	0x7d
 7849 183a 0C       		.sleb128 12
 7850 183b 04       		.byte	0x4
 7851 183c 91       		.byte	0x91
 7852 183d BC7F     		.sleb128 -68
 7853 183f 06       		.byte	0x6
 7854 1840 29       		.uleb128 0x29
 7855 1841 02       		.byte	0x2
 7856 1842 7D       		.byte	0x7d
 7857 1843 10       		.sleb128 16
 7858 1844 03       		.byte	0x3
 7859 1845 91       		.byte	0x91
 7860 1846 04       		.sleb128 4
 7861 1847 06       		.byte	0x6
 7862 1848 00       		.byte	0
 7863 1849 37       		.uleb128 0x37
 7864 184a 4E020000 		.4byte	.LVL273
 7865 184e 4C1B0000 		.4byte	0x1b4c
 7866 1852 29       		.uleb128 0x29
ARM GAS  /var/folders/cs/83z6p2tj4w57s6p2rt8nwfp00000gn/T//ccDzWS9O.s 			page 166


 7867 1853 01       		.byte	0x1
 7868 1854 52       		.byte	0x52
 7869 1855 03       		.byte	0x3
 7870 1856 92       		.byte	0x92
 7871 1857 4E       		.uleb128 0x4e
 7872 1858 00       		.sleb128 0
 7873 1859 29       		.uleb128 0x29
 7874 185a 01       		.byte	0x1
 7875 185b 53       		.byte	0x53
 7876 185c 02       		.byte	0x2
 7877 185d 7B       		.byte	0x7b
 7878 185e 00       		.sleb128 0
 7879 185f 29       		.uleb128 0x29
 7880 1860 02       		.byte	0x2
 7881 1861 7D       		.byte	0x7d
 7882 1862 00       		.sleb128 0
 7883 1863 04       		.byte	0x4
 7884 1864 91       		.byte	0x91
 7885 1865 B07F     		.sleb128 -80
 7886 1867 06       		.byte	0x6
 7887 1868 29       		.uleb128 0x29
 7888 1869 02       		.byte	0x2
 7889 186a 7D       		.byte	0x7d
 7890 186b 04       		.sleb128 4
 7891 186c 04       		.byte	0x4
 7892 186d 91       		.byte	0x91
 7893 186e B87F     		.sleb128 -72
 7894 1870 06       		.byte	0x6
 7895 1871 29       		.uleb128 0x29
 7896 1872 02       		.byte	0x2
 7897 1873 7D       		.byte	0x7d
 7898 1874 08       		.sleb128 8
 7899 1875 02       		.byte	0x2
 7900 1876 77       		.byte	0x77
 7901 1877 00       		.sleb128 0
 7902 1878 29       		.uleb128 0x29
 7903 1879 02       		.byte	0x2
 7904 187a 7D       		.byte	0x7d
 7905 187b 0C       		.sleb128 12
 7906 187c 03       		.byte	0x3
 7907 187d 92       		.byte	0x92
 7908 187e 4C       		.uleb128 0x4c
 7909 187f 00       		.sleb128 0
 7910 1880 00       		.byte	0
 7911 1881 00       		.byte	0
 7912 1882 39       		.uleb128 0x39
 7913 1883 1A060000 		.4byte	.LASF165
 7914 1887 01       		.byte	0x1
 7915 1888 8901     		.2byte	0x189
 7916 188a 14       		.byte	0x14
 7917 188b 01       		.byte	0x1
 7918 188c 03       		.byte	0x3
 7919 188d 0F190000 		.4byte	0x190f
 7920 1891 3A       		.uleb128 0x3a
 7921 1892 703100   		.ascii	"p1\000"
 7922 1895 01       		.byte	0x1
 7923 1896 8901     		.2byte	0x189
ARM GAS  /var/folders/cs/83z6p2tj4w57s6p2rt8nwfp00000gn/T//ccDzWS9O.s 			page 167


 7924 1898 26       		.byte	0x26
 7925 1899 0F190000 		.4byte	0x190f
 7926 189d 3A       		.uleb128 0x3a
 7927 189e 703200   		.ascii	"p2\000"
 7928 18a1 01       		.byte	0x1
 7929 18a2 8901     		.2byte	0x189
 7930 18a4 34       		.byte	0x34
 7931 18a5 0F190000 		.4byte	0x190f
 7932 18a9 3A       		.uleb128 0x3a
 7933 18aa 703300   		.ascii	"p3\000"
 7934 18ad 01       		.byte	0x1
 7935 18ae 8901     		.2byte	0x189
 7936 18b0 42       		.byte	0x42
 7937 18b1 0F190000 		.4byte	0x190f
 7938 18b5 3B       		.uleb128 0x3b
 7939 18b6 793100   		.ascii	"y1\000"
 7940 18b9 01       		.byte	0x1
 7941 18ba 8B01     		.2byte	0x18b
 7942 18bc 08       		.byte	0x8
 7943 18bd 29000000 		.4byte	0x29
 7944 18c1 3B       		.uleb128 0x3b
 7945 18c2 793200   		.ascii	"y2\000"
 7946 18c5 01       		.byte	0x1
 7947 18c6 8B01     		.2byte	0x18b
 7948 18c8 17       		.byte	0x17
 7949 18c9 29000000 		.4byte	0x29
 7950 18cd 3B       		.uleb128 0x3b
 7951 18ce 793300   		.ascii	"y3\000"
 7952 18d1 01       		.byte	0x1
 7953 18d2 8B01     		.2byte	0x18b
 7954 18d4 26       		.byte	0x26
 7955 18d5 29000000 		.4byte	0x29
 7956 18d9 3C       		.uleb128 0x3c
 7957 18da EC180000 		.4byte	0x18ec
 7958 18de 3B       		.uleb128 0x3b
 7959 18df 746D7000 		.ascii	"tmp\000"
 7960 18e3 01       		.byte	0x1
 7961 18e4 9101     		.2byte	0x191
 7962 18e6 0D       		.byte	0xd
 7963 18e7 3E0D0000 		.4byte	0xd3e
 7964 18eb 00       		.byte	0
 7965 18ec 3C       		.uleb128 0x3c
 7966 18ed FF180000 		.4byte	0x18ff
 7967 18f1 3B       		.uleb128 0x3b
 7968 18f2 746D7000 		.ascii	"tmp\000"
 7969 18f6 01       		.byte	0x1
 7970 18f7 9801     		.2byte	0x198
 7971 18f9 0C       		.byte	0xc
 7972 18fa 3E0D0000 		.4byte	0xd3e
 7973 18fe 00       		.byte	0
 7974 18ff 3D       		.uleb128 0x3d
 7975 1900 3B       		.uleb128 0x3b
 7976 1901 746D7000 		.ascii	"tmp\000"
 7977 1905 01       		.byte	0x1
 7978 1906 A501     		.2byte	0x1a5
 7979 1908 0C       		.byte	0xc
 7980 1909 3E0D0000 		.4byte	0xd3e
ARM GAS  /var/folders/cs/83z6p2tj4w57s6p2rt8nwfp00000gn/T//ccDzWS9O.s 			page 168


 7981 190d 00       		.byte	0
 7982 190e 00       		.byte	0
 7983 190f 05       		.uleb128 0x5
 7984 1910 04       		.byte	0x4
 7985 1911 3E0D0000 		.4byte	0xd3e
 7986 1915 3E       		.uleb128 0x3e
 7987 1916 E1070000 		.4byte	.LASF160
 7988 191a 01       		.byte	0x1
 7989 191b 6001     		.2byte	0x160
 7990 191d 0D       		.byte	0xd
 7991 191e 01       		.byte	0x1
 7992 191f 00000000 		.4byte	.LFB21
 7993 1923 3C010000 		.4byte	.LFE21
 7994 1927 D51B0000 		.4byte	.LLST65
 7995 192b 01       		.byte	0x1
 7996 192c 401B0000 		.4byte	0x1b40
 7997 1930 26       		.uleb128 0x26
 7998 1931 7B050000 		.4byte	.LASF149
 7999 1935 01       		.byte	0x1
 8000 1936 6001     		.2byte	0x160
 8001 1938 25       		.byte	0x25
 8002 1939 380D0000 		.4byte	0xd38
 8003 193d 2D1C0000 		.4byte	.LLST66
 8004 1941 271C0000 		.4byte	.LVUS66
 8005 1945 26       		.uleb128 0x26
 8006 1946 51040000 		.4byte	.LASF150
 8007 194a 01       		.byte	0x1
 8008 194b 6001     		.2byte	0x160
 8009 194d 31       		.byte	0x31
 8010 194e 30000000 		.4byte	0x30
 8011 1952 611C0000 		.4byte	.LLST67
 8012 1956 591C0000 		.4byte	.LVUS67
 8013 195a 27       		.uleb128 0x27
 8014 195b 7900     		.ascii	"y\000"
 8015 195d 01       		.byte	0x1
 8016 195e 6001     		.2byte	0x160
 8017 1960 40       		.byte	0x40
 8018 1961 30000000 		.4byte	0x30
 8019 1965 AE1C0000 		.4byte	.LLST68
 8020 1969 981C0000 		.4byte	.LVUS68
 8021 196d 26       		.uleb128 0x26
 8022 196e 9E000000 		.4byte	.LASF155
 8023 1972 01       		.byte	0x1
 8024 1973 6001     		.2byte	0x160
 8025 1975 47       		.byte	0x47
 8026 1976 30000000 		.4byte	0x30
 8027 197a 461D0000 		.4byte	.LLST69
 8028 197e 381D0000 		.4byte	.LVUS69
 8029 1982 27       		.uleb128 0x27
 8030 1983 78317000 		.ascii	"x1p\000"
 8031 1987 01       		.byte	0x1
 8032 1988 6001     		.2byte	0x160
 8033 198a 56       		.byte	0x56
 8034 198b 401B0000 		.4byte	0x1b40
 8035 198f A41D0000 		.4byte	.LLST70
 8036 1993 9E1D0000 		.4byte	.LVUS70
 8037 1997 27       		.uleb128 0x27
ARM GAS  /var/folders/cs/83z6p2tj4w57s6p2rt8nwfp00000gn/T//ccDzWS9O.s 			page 169


 8038 1998 64783100 		.ascii	"dx1\000"
 8039 199c 01       		.byte	0x1
 8040 199d 6001     		.2byte	0x160
 8041 199f 63       		.byte	0x63
 8042 19a0 D6000000 		.4byte	0xd6
 8043 19a4 D61D0000 		.4byte	.LLST71
 8044 19a8 D01D0000 		.4byte	.LVUS71
 8045 19ac 27       		.uleb128 0x27
 8046 19ad 78327000 		.ascii	"x2p\000"
 8047 19b1 01       		.byte	0x1
 8048 19b2 6001     		.2byte	0x160
 8049 19b4 71       		.byte	0x71
 8050 19b5 401B0000 		.4byte	0x1b40
 8051 19b9 081E0000 		.4byte	.LLST72
 8052 19bd 021E0000 		.4byte	.LVUS72
 8053 19c1 27       		.uleb128 0x27
 8054 19c2 64783200 		.ascii	"dx2\000"
 8055 19c6 01       		.byte	0x1
 8056 19c7 6001     		.2byte	0x160
 8057 19c9 7E       		.byte	0x7e
 8058 19ca D6000000 		.4byte	0xd6
 8059 19ce 3A1E0000 		.4byte	.LLST73
 8060 19d2 341E0000 		.4byte	.LVUS73
 8061 19d6 27       		.uleb128 0x27
 8062 19d7 7A7000   		.ascii	"zp\000"
 8063 19da 01       		.byte	0x1
 8064 19db 6001     		.2byte	0x160
 8065 19dd 8D       		.byte	0x8d
 8066 19de 461B0000 		.4byte	0x1b46
 8067 19e2 6C1E0000 		.4byte	.LLST74
 8068 19e6 661E0000 		.4byte	.LVUS74
 8069 19ea 26       		.uleb128 0x26
 8070 19eb C2010000 		.4byte	.LASF157
 8071 19ef 01       		.byte	0x1
 8072 19f0 6001     		.2byte	0x160
 8073 19f2 99       		.byte	0x99
 8074 19f3 D6000000 		.4byte	0xd6
 8075 19f7 9E1E0000 		.4byte	.LLST75
 8076 19fb 981E0000 		.4byte	.LVUS75
 8077 19ff 26       		.uleb128 0x26
 8078 1a00 BD010000 		.4byte	.LASF156
 8079 1a04 01       		.byte	0x1
 8080 1a05 6001     		.2byte	0x160
 8081 1a07 A7       		.byte	0xa7
 8082 1a08 D6000000 		.4byte	0xd6
 8083 1a0c D01E0000 		.4byte	.LLST76
 8084 1a10 CA1E0000 		.4byte	.LVUS76
 8085 1a14 26       		.uleb128 0x26
 8086 1a15 9F050000 		.4byte	.LASF151
 8087 1a19 01       		.byte	0x1
 8088 1a1a 6001     		.2byte	0x160
 8089 1a1c B5       		.byte	0xb5
 8090 1a1d 380D0000 		.4byte	0xd38
 8091 1a21 021F0000 		.4byte	.LLST77
 8092 1a25 FC1E0000 		.4byte	.LVUS77
 8093 1a29 2C       		.uleb128 0x2c
 8094 1a2a 783100   		.ascii	"x1\000"
ARM GAS  /var/folders/cs/83z6p2tj4w57s6p2rt8nwfp00000gn/T//ccDzWS9O.s 			page 170


 8095 1a2d 01       		.byte	0x1
 8096 1a2e 6201     		.2byte	0x162
 8097 1a30 0A       		.byte	0xa
 8098 1a31 D6000000 		.4byte	0xd6
 8099 1a35 441F0000 		.4byte	.LLST78
 8100 1a39 2E1F0000 		.4byte	.LVUS78
 8101 1a3d 2C       		.uleb128 0x2c
 8102 1a3e 783200   		.ascii	"x2\000"
 8103 1a41 01       		.byte	0x1
 8104 1a42 6201     		.2byte	0x162
 8105 1a44 15       		.byte	0x15
 8106 1a45 D6000000 		.4byte	0xd6
 8107 1a49 E51F0000 		.4byte	.LLST79
 8108 1a4d CF1F0000 		.4byte	.LVUS79
 8109 1a51 2C       		.uleb128 0x2c
 8110 1a52 7A00     		.ascii	"z\000"
 8111 1a54 01       		.byte	0x1
 8112 1a55 6301     		.2byte	0x163
 8113 1a57 0B       		.byte	0xb
 8114 1a58 E2000000 		.4byte	0xe2
 8115 1a5c 84200000 		.4byte	.LLST80
 8116 1a60 70200000 		.4byte	.LVUS80
 8117 1a64 3F       		.uleb128 0x3f
 8118 1a65 0C010000 		.4byte	.LBB182
 8119 1a69 32010000 		.4byte	.LBE182
 8120 1a6d 861A0000 		.4byte	0x1a86
 8121 1a71 2C       		.uleb128 0x2c
 8122 1a72 647900   		.ascii	"dy\000"
 8123 1a75 01       		.byte	0x1
 8124 1a76 6701     		.2byte	0x167
 8125 1a78 07       		.byte	0x7
 8126 1a79 30000000 		.4byte	0x30
 8127 1a7d 07210000 		.4byte	.LLST86
 8128 1a81 01210000 		.4byte	.LVUS86
 8129 1a85 00       		.byte	0
 8130 1a86 40       		.uleb128 0x40
 8131 1a87 40000000 		.4byte	.LBB169
 8132 1a8b 9C000000 		.4byte	.LBE169
 8133 1a8f 3B       		.uleb128 0x3b
 8134 1a90 7000     		.ascii	"p\000"
 8135 1a92 01       		.byte	0x1
 8136 1a93 7801     		.2byte	0x178
 8137 1a95 0B       		.byte	0xb
 8138 1a96 B2000000 		.4byte	0xb2
 8139 1a9a 41       		.uleb128 0x41
 8140 1a9b A7010000 		.4byte	.LASF159
 8141 1a9f 01       		.byte	0x1
 8142 1aa0 7901     		.2byte	0x179
 8143 1aa2 0C       		.byte	0xc
 8144 1aa3 E2000000 		.4byte	0xe2
 8145 1aa7 42       		.uleb128 0x42
 8146 1aa8 EE230000 		.4byte	0x23ee
 8147 1aac 48000000 		.4byte	.LBI170
 8148 1ab0 0000     		.2byte	.LVU316
 8149 1ab2 68010000 		.4byte	.Ldebug_ranges0+0x168
 8150 1ab6 01       		.byte	0x1
 8151 1ab7 7B01     		.2byte	0x17b
ARM GAS  /var/folders/cs/83z6p2tj4w57s6p2rt8nwfp00000gn/T//ccDzWS9O.s 			page 171


 8152 1ab9 03       		.byte	0x3
 8153 1aba 34       		.uleb128 0x34
 8154 1abb 40240000 		.4byte	0x2440
 8155 1abf 34       		.uleb128 0x34
 8156 1ac0 34240000 		.4byte	0x2434
 8157 1ac4 2F       		.uleb128 0x2f
 8158 1ac5 2A240000 		.4byte	0x242a
 8159 1ac9 3F210000 		.4byte	.LLST81
 8160 1acd 3D210000 		.4byte	.LVUS81
 8161 1ad1 2F       		.uleb128 0x2f
 8162 1ad2 1E240000 		.4byte	0x241e
 8163 1ad6 56210000 		.4byte	.LLST82
 8164 1ada 52210000 		.4byte	.LVUS82
 8165 1ade 2F       		.uleb128 0x2f
 8166 1adf 14240000 		.4byte	0x2414
 8167 1ae3 7A210000 		.4byte	.LLST83
 8168 1ae7 76210000 		.4byte	.LVUS83
 8169 1aeb 2F       		.uleb128 0x2f
 8170 1aec 08240000 		.4byte	0x2408
 8171 1af0 9A210000 		.4byte	.LLST84
 8172 1af4 98210000 		.4byte	.LVUS84
 8173 1af8 2F       		.uleb128 0x2f
 8174 1af9 FC230000 		.4byte	0x23fc
 8175 1afd BD210000 		.4byte	.LLST85
 8176 1b01 BB210000 		.4byte	.LVUS85
 8177 1b05 30       		.uleb128 0x30
 8178 1b06 68010000 		.4byte	.Ldebug_ranges0+0x168
 8179 1b0a 35       		.uleb128 0x35
 8180 1b0b 4C240000 		.4byte	0x244c
 8181 1b0f 35       		.uleb128 0x35
 8182 1b10 58240000 		.4byte	0x2458
 8183 1b14 37       		.uleb128 0x37
 8184 1b15 98000000 		.4byte	.LVL118
 8185 1b19 F3270000 		.4byte	0x27f3
 8186 1b1d 29       		.uleb128 0x29
 8187 1b1e 01       		.byte	0x1
 8188 1b1f 51       		.byte	0x51
 8189 1b20 0C       		.byte	0xc
 8190 1b21 74       		.byte	0x74
 8191 1b22 00       		.sleb128 0
 8192 1b23 0A       		.byte	0xa
 8193 1b24 2003     		.2byte	0x320
 8194 1b26 1E       		.byte	0x1e
 8195 1b27 03       		.byte	0x3
 8196 1b28 00000000 		.4byte	zbuf
 8197 1b2c 22       		.byte	0x22
 8198 1b2d 29       		.uleb128 0x29
 8199 1b2e 02       		.byte	0x2
 8200 1b2f 7D       		.byte	0x7d
 8201 1b30 00       		.sleb128 0
 8202 1b31 02       		.byte	0x2
 8203 1b32 78       		.byte	0x78
 8204 1b33 00       		.sleb128 0
 8205 1b34 29       		.uleb128 0x29
 8206 1b35 02       		.byte	0x2
 8207 1b36 7D       		.byte	0x7d
 8208 1b37 04       		.sleb128 4
ARM GAS  /var/folders/cs/83z6p2tj4w57s6p2rt8nwfp00000gn/T//ccDzWS9O.s 			page 172


 8209 1b38 02       		.byte	0x2
 8210 1b39 75       		.byte	0x75
 8211 1b3a 00       		.sleb128 0
 8212 1b3b 00       		.byte	0
 8213 1b3c 00       		.byte	0
 8214 1b3d 00       		.byte	0
 8215 1b3e 00       		.byte	0
 8216 1b3f 00       		.byte	0
 8217 1b40 05       		.uleb128 0x5
 8218 1b41 04       		.byte	0x4
 8219 1b42 D6000000 		.4byte	0xd6
 8220 1b46 05       		.uleb128 0x5
 8221 1b47 04       		.byte	0x4
 8222 1b48 E2000000 		.4byte	0xe2
 8223 1b4c 3E       		.uleb128 0x3e
 8224 1b4d C3050000 		.4byte	.LASF161
 8225 1b51 01       		.byte	0x1
 8226 1b52 3C01     		.2byte	0x13c
 8227 1b54 0D       		.byte	0xd
 8228 1b55 01       		.byte	0x1
 8229 1b56 00000000 		.4byte	.LFB20
 8230 1b5a D8000000 		.4byte	.LFE20
 8231 1b5e D9210000 		.4byte	.LLST29
 8232 1b62 01       		.byte	0x1
 8233 1b63 FC1C0000 		.4byte	0x1cfc
 8234 1b67 26       		.uleb128 0x26
 8235 1b68 7B050000 		.4byte	.LASF149
 8236 1b6c 01       		.byte	0x1
 8237 1b6d 3C01     		.2byte	0x13c
 8238 1b6f 20       		.byte	0x20
 8239 1b70 380D0000 		.4byte	0xd38
 8240 1b74 2F220000 		.4byte	.LLST30
 8241 1b78 29220000 		.4byte	.LVUS30
 8242 1b7c 26       		.uleb128 0x26
 8243 1b7d 51040000 		.4byte	.LASF150
 8244 1b81 01       		.byte	0x1
 8245 1b82 3C01     		.2byte	0x13c
 8246 1b84 2C       		.byte	0x2c
 8247 1b85 30000000 		.4byte	0x30
 8248 1b89 61220000 		.4byte	.LLST31
 8249 1b8d 5B220000 		.4byte	.LVUS31
 8250 1b91 27       		.uleb128 0x27
 8251 1b92 7900     		.ascii	"y\000"
 8252 1b94 01       		.byte	0x1
 8253 1b95 3C01     		.2byte	0x13c
 8254 1b97 3B       		.byte	0x3b
 8255 1b98 30000000 		.4byte	0x30
 8256 1b9c A0220000 		.4byte	.LLST32
 8257 1ba0 8A220000 		.4byte	.LVUS32
 8258 1ba4 26       		.uleb128 0x26
 8259 1ba5 9E000000 		.4byte	.LASF155
 8260 1ba9 01       		.byte	0x1
 8261 1baa 3C01     		.2byte	0x13c
 8262 1bac 42       		.byte	0x42
 8263 1bad 30000000 		.4byte	0x30
 8264 1bb1 36230000 		.4byte	.LLST33
 8265 1bb5 2A230000 		.4byte	.LVUS33
ARM GAS  /var/folders/cs/83z6p2tj4w57s6p2rt8nwfp00000gn/T//ccDzWS9O.s 			page 173


 8266 1bb9 27       		.uleb128 0x27
 8267 1bba 78317000 		.ascii	"x1p\000"
 8268 1bbe 01       		.byte	0x1
 8269 1bbf 3C01     		.2byte	0x13c
 8270 1bc1 51       		.byte	0x51
 8271 1bc2 401B0000 		.4byte	0x1b40
 8272 1bc6 84230000 		.4byte	.LLST34
 8273 1bca 80230000 		.4byte	.LVUS34
 8274 1bce 27       		.uleb128 0x27
 8275 1bcf 64783100 		.ascii	"dx1\000"
 8276 1bd3 01       		.byte	0x1
 8277 1bd4 3C01     		.2byte	0x13c
 8278 1bd6 5E       		.byte	0x5e
 8279 1bd7 D6000000 		.4byte	0xd6
 8280 1bdb A8230000 		.4byte	.LLST35
 8281 1bdf A4230000 		.4byte	.LVUS35
 8282 1be3 27       		.uleb128 0x27
 8283 1be4 78327000 		.ascii	"x2p\000"
 8284 1be8 01       		.byte	0x1
 8285 1be9 3C01     		.2byte	0x13c
 8286 1beb 6C       		.byte	0x6c
 8287 1bec 401B0000 		.4byte	0x1b40
 8288 1bf0 CC230000 		.4byte	.LLST36
 8289 1bf4 C8230000 		.4byte	.LVUS36
 8290 1bf8 27       		.uleb128 0x27
 8291 1bf9 64783200 		.ascii	"dx2\000"
 8292 1bfd 01       		.byte	0x1
 8293 1bfe 3C01     		.2byte	0x13c
 8294 1c00 79       		.byte	0x79
 8295 1c01 D6000000 		.4byte	0xd6
 8296 1c05 F0230000 		.4byte	.LLST37
 8297 1c09 EC230000 		.4byte	.LVUS37
 8298 1c0d 26       		.uleb128 0x26
 8299 1c0e 9F050000 		.4byte	.LASF151
 8300 1c12 01       		.byte	0x1
 8301 1c13 3C01     		.2byte	0x13c
 8302 1c15 86       		.byte	0x86
 8303 1c16 380D0000 		.4byte	0xd38
 8304 1c1a 14240000 		.4byte	.LLST38
 8305 1c1e 10240000 		.4byte	.LVUS38
 8306 1c22 2C       		.uleb128 0x2c
 8307 1c23 783100   		.ascii	"x1\000"
 8308 1c26 01       		.byte	0x1
 8309 1c27 3E01     		.2byte	0x13e
 8310 1c29 0A       		.byte	0xa
 8311 1c2a D6000000 		.4byte	0xd6
 8312 1c2e 48240000 		.4byte	.LLST39
 8313 1c32 34240000 		.4byte	.LVUS39
 8314 1c36 2C       		.uleb128 0x2c
 8315 1c37 783200   		.ascii	"x2\000"
 8316 1c3a 01       		.byte	0x1
 8317 1c3b 3E01     		.2byte	0x13e
 8318 1c3d 15       		.byte	0x15
 8319 1c3e D6000000 		.4byte	0xd6
 8320 1c42 D9240000 		.4byte	.LLST40
 8321 1c46 C7240000 		.4byte	.LVUS40
 8322 1c4a 3F       		.uleb128 0x3f
ARM GAS  /var/folders/cs/83z6p2tj4w57s6p2rt8nwfp00000gn/T//ccDzWS9O.s 			page 174


 8323 1c4b BC000000 		.4byte	.LBB143
 8324 1c4f D2000000 		.4byte	.LBE143
 8325 1c53 6C1C0000 		.4byte	0x1c6c
 8326 1c57 2C       		.uleb128 0x2c
 8327 1c58 647900   		.ascii	"dy\000"
 8328 1c5b 01       		.byte	0x1
 8329 1c5c 4201     		.2byte	0x142
 8330 1c5e 07       		.byte	0x7
 8331 1c5f 30000000 		.4byte	0x30
 8332 1c63 4C250000 		.4byte	.LLST44
 8333 1c67 48250000 		.4byte	.LVUS44
 8334 1c6b 00       		.byte	0
 8335 1c6c 40       		.uleb128 0x40
 8336 1c6d 3A000000 		.4byte	.LBB132
 8337 1c71 74000000 		.4byte	.LBE132
 8338 1c75 3B       		.uleb128 0x3b
 8339 1c76 7000     		.ascii	"p\000"
 8340 1c78 01       		.byte	0x1
 8341 1c79 5101     		.2byte	0x151
 8342 1c7b 0B       		.byte	0xb
 8343 1c7c B2000000 		.4byte	0xb2
 8344 1c80 41       		.uleb128 0x41
 8345 1c81 A7010000 		.4byte	.LASF159
 8346 1c85 01       		.byte	0x1
 8347 1c86 5201     		.2byte	0x152
 8348 1c88 0C       		.byte	0xc
 8349 1c89 E2000000 		.4byte	0xe2
 8350 1c8d 42       		.uleb128 0x42
 8351 1c8e 76240000 		.4byte	0x2476
 8352 1c92 40000000 		.4byte	.LBI133
 8353 1c96 0000     		.2byte	.LVU141
 8354 1c98 B0000000 		.4byte	.Ldebug_ranges0+0xb0
 8355 1c9c 01       		.byte	0x1
 8356 1c9d 5401     		.2byte	0x154
 8357 1c9f 03       		.byte	0x3
 8358 1ca0 34       		.uleb128 0x34
 8359 1ca1 A6240000 		.4byte	0x24a6
 8360 1ca5 2F       		.uleb128 0x2f
 8361 1ca6 9B240000 		.4byte	0x249b
 8362 1caa 74250000 		.4byte	.LLST41
 8363 1cae 70250000 		.4byte	.LVUS41
 8364 1cb2 2F       		.uleb128 0x2f
 8365 1cb3 90240000 		.4byte	0x2490
 8366 1cb7 98250000 		.4byte	.LLST42
 8367 1cbb 94250000 		.4byte	.LVUS42
 8368 1cbf 2F       		.uleb128 0x2f
 8369 1cc0 84240000 		.4byte	0x2484
 8370 1cc4 B8250000 		.4byte	.LLST43
 8371 1cc8 B6250000 		.4byte	.LVUS43
 8372 1ccc 30       		.uleb128 0x30
 8373 1ccd B0000000 		.4byte	.Ldebug_ranges0+0xb0
 8374 1cd1 35       		.uleb128 0x35
 8375 1cd2 B2240000 		.4byte	0x24b2
 8376 1cd6 35       		.uleb128 0x35
 8377 1cd7 BE240000 		.4byte	0x24be
 8378 1cdb 35       		.uleb128 0x35
 8379 1cdc CA240000 		.4byte	0x24ca
ARM GAS  /var/folders/cs/83z6p2tj4w57s6p2rt8nwfp00000gn/T//ccDzWS9O.s 			page 175


 8380 1ce0 35       		.uleb128 0x35
 8381 1ce1 D6240000 		.4byte	0x24d6
 8382 1ce5 35       		.uleb128 0x35
 8383 1ce6 E2240000 		.4byte	0x24e2
 8384 1cea 35       		.uleb128 0x35
 8385 1ceb EE240000 		.4byte	0x24ee
 8386 1cef 43       		.uleb128 0x43
 8387 1cf0 72000000 		.4byte	.LVL55
 8388 1cf4 C2250000 		.4byte	0x25c2
 8389 1cf8 00       		.byte	0
 8390 1cf9 00       		.byte	0
 8391 1cfa 00       		.byte	0
 8392 1cfb 00       		.byte	0
 8393 1cfc 25       		.uleb128 0x25
 8394 1cfd 01       		.byte	0x1
 8395 1cfe 16020000 		.4byte	.LASF162
 8396 1d02 01       		.byte	0x1
 8397 1d03 1001     		.2byte	0x110
 8398 1d05 01       		.byte	0x1
 8399 1d06 01       		.byte	0x1
 8400 1d07 E80B0000 		.4byte	0xbe8
 8401 1d0b 00000000 		.4byte	.LFB19
 8402 1d0f E8010000 		.4byte	.LFE19
 8403 1d13 D4250000 		.4byte	.LLST133
 8404 1d17 01       		.byte	0x1
 8405 1d18 931F0000 		.4byte	0x1f93
 8406 1d1c 26       		.uleb128 0x26
 8407 1d1d 7B050000 		.4byte	.LASF149
 8408 1d21 01       		.byte	0x1
 8409 1d22 1001     		.2byte	0x110
 8410 1d24 13       		.byte	0x13
 8411 1d25 380D0000 		.4byte	0xd38
 8412 1d29 24260000 		.4byte	.LLST134
 8413 1d2d 18260000 		.4byte	.LVUS134
 8414 1d31 26       		.uleb128 0x26
 8415 1d32 51040000 		.4byte	.LASF150
 8416 1d36 01       		.byte	0x1
 8417 1d37 1001     		.2byte	0x110
 8418 1d39 1F       		.byte	0x1f
 8419 1d3a 30000000 		.4byte	0x30
 8420 1d3e 83260000 		.4byte	.LLST135
 8421 1d42 77260000 		.4byte	.LVUS135
 8422 1d46 27       		.uleb128 0x27
 8423 1d47 703100   		.ascii	"p1\000"
 8424 1d4a 01       		.byte	0x1
 8425 1d4b 1001     		.2byte	0x110
 8426 1d4d 33       		.byte	0x33
 8427 1d4e 3E0D0000 		.4byte	0xd3e
 8428 1d52 D9260000 		.4byte	.LLST136
 8429 1d56 CD260000 		.4byte	.LVUS136
 8430 1d5a 27       		.uleb128 0x27
 8431 1d5b 703200   		.ascii	"p2\000"
 8432 1d5e 01       		.byte	0x1
 8433 1d5f 1001     		.2byte	0x110
 8434 1d61 40       		.byte	0x40
 8435 1d62 3E0D0000 		.4byte	0xd3e
 8436 1d66 29270000 		.4byte	.LLST137
ARM GAS  /var/folders/cs/83z6p2tj4w57s6p2rt8nwfp00000gn/T//ccDzWS9O.s 			page 176


 8437 1d6a 25270000 		.4byte	.LVUS137
 8438 1d6e 26       		.uleb128 0x26
 8439 1d6f 1F040000 		.4byte	.LASF163
 8440 1d73 01       		.byte	0x1
 8441 1d74 1001     		.2byte	0x110
 8442 1d76 48       		.byte	0x48
 8443 1d77 30000000 		.4byte	0x30
 8444 1d7b 4B270000 		.4byte	.LLST138
 8445 1d7f 47270000 		.4byte	.LVUS138
 8446 1d83 26       		.uleb128 0x26
 8447 1d84 9F050000 		.4byte	.LASF151
 8448 1d88 01       		.byte	0x1
 8449 1d89 1001     		.2byte	0x110
 8450 1d8b 57       		.byte	0x57
 8451 1d8c 380D0000 		.4byte	0xd38
 8452 1d90 6F270000 		.4byte	.LLST139
 8453 1d94 6B270000 		.4byte	.LVUS139
 8454 1d98 2C       		.uleb128 0x2c
 8455 1d99 7900     		.ascii	"y\000"
 8456 1d9b 01       		.byte	0x1
 8457 1d9c 1901     		.2byte	0x119
 8458 1d9e 06       		.byte	0x6
 8459 1d9f 30000000 		.4byte	0x30
 8460 1da3 95270000 		.4byte	.LLST140
 8461 1da7 8F270000 		.4byte	.LVUS140
 8462 1dab 2B       		.uleb128 0x2b
 8463 1dac 9E000000 		.4byte	.LASF155
 8464 1db0 01       		.byte	0x1
 8465 1db1 1A01     		.2byte	0x11a
 8466 1db3 06       		.byte	0x6
 8467 1db4 30000000 		.4byte	0x30
 8468 1db8 C1270000 		.4byte	.LLST141
 8469 1dbc BF270000 		.4byte	.LVUS141
 8470 1dc0 2C       		.uleb128 0x2c
 8471 1dc1 7800     		.ascii	"x\000"
 8472 1dc3 01       		.byte	0x1
 8473 1dc4 1F01     		.2byte	0x11f
 8474 1dc6 0A       		.byte	0xa
 8475 1dc7 D6000000 		.4byte	0xd6
 8476 1dcb DA270000 		.4byte	.LLST142
 8477 1dcf D4270000 		.4byte	.LVUS142
 8478 1dd3 2C       		.uleb128 0x2c
 8479 1dd4 647800   		.ascii	"dx\000"
 8480 1dd7 01       		.byte	0x1
 8481 1dd8 2001     		.2byte	0x120
 8482 1dda 0A       		.byte	0xa
 8483 1ddb D6000000 		.4byte	0xd6
 8484 1ddf 07280000 		.4byte	.LLST143
 8485 1de3 03280000 		.4byte	.LVUS143
 8486 1de7 3C       		.uleb128 0x3c
 8487 1de8 FA1D0000 		.4byte	0x1dfa
 8488 1dec 3B       		.uleb128 0x3b
 8489 1ded 746D7000 		.ascii	"tmp\000"
 8490 1df1 01       		.byte	0x1
 8491 1df2 1401     		.2byte	0x114
 8492 1df4 0C       		.byte	0xc
 8493 1df5 3E0D0000 		.4byte	0xd3e
ARM GAS  /var/folders/cs/83z6p2tj4w57s6p2rt8nwfp00000gn/T//ccDzWS9O.s 			page 177


 8494 1df9 00       		.byte	0
 8495 1dfa 44       		.uleb128 0x44
 8496 1dfb 80020000 		.4byte	.Ldebug_ranges0+0x280
 8497 1dff 2A1F0000 		.4byte	0x1f2a
 8498 1e03 2C       		.uleb128 0x2c
 8499 1e04 7000     		.ascii	"p\000"
 8500 1e06 01       		.byte	0x1
 8501 1e07 2A01     		.2byte	0x12a
 8502 1e09 0B       		.byte	0xb
 8503 1e0a B2000000 		.4byte	0xb2
 8504 1e0e 2D280000 		.4byte	.LLST150
 8505 1e12 25280000 		.4byte	.LVUS150
 8506 1e16 2B       		.uleb128 0x2b
 8507 1e17 A7010000 		.4byte	.LASF159
 8508 1e1b 01       		.byte	0x1
 8509 1e1c 2B01     		.2byte	0x12b
 8510 1e1e 0C       		.byte	0xc
 8511 1e1f E2000000 		.4byte	0xe2
 8512 1e23 7F280000 		.4byte	.LLST151
 8513 1e27 79280000 		.4byte	.LVUS151
 8514 1e2b 2C       		.uleb128 0x2c
 8515 1e2c 783100   		.ascii	"x1\000"
 8516 1e2f 01       		.byte	0x1
 8517 1e30 2C01     		.2byte	0x12c
 8518 1e32 0B       		.byte	0xb
 8519 1e33 D6000000 		.4byte	0xd6
 8520 1e37 AC280000 		.4byte	.LLST152
 8521 1e3b A8280000 		.4byte	.LVUS152
 8522 1e3f 36       		.uleb128 0x36
 8523 1e40 76240000 		.4byte	0x2476
 8524 1e44 D6000000 		.4byte	.LBI227
 8525 1e48 0000     		.2byte	.LVU640
 8526 1e4a D6000000 		.4byte	.LBB227
 8527 1e4e EC000000 		.4byte	.LBE227
 8528 1e52 01       		.byte	0x1
 8529 1e53 3101     		.2byte	0x131
 8530 1e55 04       		.byte	0x4
 8531 1e56 BD1E0000 		.4byte	0x1ebd
 8532 1e5a 2F       		.uleb128 0x2f
 8533 1e5b A6240000 		.4byte	0x24a6
 8534 1e5f CC280000 		.4byte	.LLST153
 8535 1e63 CA280000 		.4byte	.LVUS153
 8536 1e67 2F       		.uleb128 0x2f
 8537 1e68 9B240000 		.4byte	0x249b
 8538 1e6c E3280000 		.4byte	.LLST154
 8539 1e70 DF280000 		.4byte	.LVUS154
 8540 1e74 2F       		.uleb128 0x2f
 8541 1e75 90240000 		.4byte	0x2490
 8542 1e79 0B290000 		.4byte	.LLST155
 8543 1e7d 09290000 		.4byte	.LVUS155
 8544 1e81 2F       		.uleb128 0x2f
 8545 1e82 84240000 		.4byte	0x2484
 8546 1e86 20290000 		.4byte	.LLST156
 8547 1e8a 1E290000 		.4byte	.LVUS156
 8548 1e8e 35       		.uleb128 0x35
 8549 1e8f B2240000 		.4byte	0x24b2
 8550 1e93 35       		.uleb128 0x35
ARM GAS  /var/folders/cs/83z6p2tj4w57s6p2rt8nwfp00000gn/T//ccDzWS9O.s 			page 178


 8551 1e94 BE240000 		.4byte	0x24be
 8552 1e98 35       		.uleb128 0x35
 8553 1e99 CA240000 		.4byte	0x24ca
 8554 1e9d 35       		.uleb128 0x35
 8555 1e9e D6240000 		.4byte	0x24d6
 8556 1ea2 35       		.uleb128 0x35
 8557 1ea3 E2240000 		.4byte	0x24e2
 8558 1ea7 35       		.uleb128 0x35
 8559 1ea8 EE240000 		.4byte	0x24ee
 8560 1eac 37       		.uleb128 0x37
 8561 1ead EC000000 		.4byte	.LVL211
 8562 1eb1 C2250000 		.4byte	0x25c2
 8563 1eb5 29       		.uleb128 0x29
 8564 1eb6 01       		.byte	0x1
 8565 1eb7 50       		.byte	0x50
 8566 1eb8 02       		.byte	0x2
 8567 1eb9 77       		.byte	0x77
 8568 1eba 00       		.sleb128 0
 8569 1ebb 00       		.byte	0
 8570 1ebc 00       		.byte	0
 8571 1ebd 42       		.uleb128 0x42
 8572 1ebe 76240000 		.4byte	0x2476
 8573 1ec2 34010000 		.4byte	.LBI229
 8574 1ec6 0000     		.2byte	.LVU669
 8575 1ec8 A0020000 		.4byte	.Ldebug_ranges0+0x2a0
 8576 1ecc 01       		.byte	0x1
 8577 1ecd 2F01     		.2byte	0x12f
 8578 1ecf 04       		.byte	0x4
 8579 1ed0 2F       		.uleb128 0x2f
 8580 1ed1 A6240000 		.4byte	0x24a6
 8581 1ed5 3E290000 		.4byte	.LLST157
 8582 1ed9 3C290000 		.4byte	.LVUS157
 8583 1edd 2F       		.uleb128 0x2f
 8584 1ede 9B240000 		.4byte	0x249b
 8585 1ee2 55290000 		.4byte	.LLST158
 8586 1ee6 51290000 		.4byte	.LVUS158
 8587 1eea 2F       		.uleb128 0x2f
 8588 1eeb 90240000 		.4byte	0x2490
 8589 1eef 7C290000 		.4byte	.LLST159
 8590 1ef3 7A290000 		.4byte	.LVUS159
 8591 1ef7 2F       		.uleb128 0x2f
 8592 1ef8 84240000 		.4byte	0x2484
 8593 1efc 91290000 		.4byte	.LLST160
 8594 1f00 8F290000 		.4byte	.LVUS160
 8595 1f04 30       		.uleb128 0x30
 8596 1f05 A0020000 		.4byte	.Ldebug_ranges0+0x2a0
 8597 1f09 35       		.uleb128 0x35
 8598 1f0a B2240000 		.4byte	0x24b2
 8599 1f0e 35       		.uleb128 0x35
 8600 1f0f BE240000 		.4byte	0x24be
 8601 1f13 35       		.uleb128 0x35
 8602 1f14 CA240000 		.4byte	0x24ca
 8603 1f18 35       		.uleb128 0x35
 8604 1f19 D6240000 		.4byte	0x24d6
 8605 1f1d 35       		.uleb128 0x35
 8606 1f1e E2240000 		.4byte	0x24e2
 8607 1f22 35       		.uleb128 0x35
ARM GAS  /var/folders/cs/83z6p2tj4w57s6p2rt8nwfp00000gn/T//ccDzWS9O.s 			page 179


 8608 1f23 EE240000 		.4byte	0x24ee
 8609 1f27 00       		.byte	0
 8610 1f28 00       		.byte	0
 8611 1f29 00       		.byte	0
 8612 1f2a 42       		.uleb128 0x42
 8613 1f2b 99230000 		.4byte	0x2399
 8614 1f2f A8000000 		.4byte	.LBI217
 8615 1f33 0100     		.2byte	.LVU620
 8616 1f35 50020000 		.4byte	.Ldebug_ranges0+0x250
 8617 1f39 01       		.byte	0x1
 8618 1f3a 2001     		.2byte	0x120
 8619 1f3c 0F       		.byte	0xf
 8620 1f3d 2F       		.uleb128 0x2f
 8621 1f3e CC230000 		.4byte	0x23cc
 8622 1f42 B1290000 		.4byte	.LLST144
 8623 1f46 AD290000 		.4byte	.LVUS144
 8624 1f4a 2F       		.uleb128 0x2f
 8625 1f4b C1230000 		.4byte	0x23c1
 8626 1f4f D5290000 		.4byte	.LLST145
 8627 1f53 D1290000 		.4byte	.LVUS145
 8628 1f57 2F       		.uleb128 0x2f
 8629 1f58 B6230000 		.4byte	0x23b6
 8630 1f5c F9290000 		.4byte	.LLST146
 8631 1f60 F5290000 		.4byte	.LVUS146
 8632 1f64 2F       		.uleb128 0x2f
 8633 1f65 AB230000 		.4byte	0x23ab
 8634 1f69 1D2A0000 		.4byte	.LLST147
 8635 1f6d 192A0000 		.4byte	.LVUS147
 8636 1f71 30       		.uleb128 0x30
 8637 1f72 50020000 		.4byte	.Ldebug_ranges0+0x250
 8638 1f76 31       		.uleb128 0x31
 8639 1f77 D7230000 		.4byte	0x23d7
 8640 1f7b 412A0000 		.4byte	.LLST148
 8641 1f7f 3D2A0000 		.4byte	.LVUS148
 8642 1f83 31       		.uleb128 0x31
 8643 1f84 E2230000 		.4byte	0x23e2
 8644 1f88 652A0000 		.4byte	.LLST149
 8645 1f8c 612A0000 		.4byte	.LVUS149
 8646 1f90 00       		.byte	0
 8647 1f91 00       		.byte	0
 8648 1f92 00       		.byte	0
 8649 1f93 45       		.uleb128 0x45
 8650 1f94 01       		.byte	0x1
 8651 1f95 82030000 		.4byte	.LASF164
 8652 1f99 01       		.byte	0x1
 8653 1f9a CF       		.byte	0xcf
 8654 1f9b 01       		.byte	0x1
 8655 1f9c 01       		.byte	0x1
 8656 1f9d E80B0000 		.4byte	0xbe8
 8657 1fa1 00000000 		.4byte	.LFB18
 8658 1fa5 0C030000 		.4byte	.LFE18
 8659 1fa9 852A0000 		.4byte	.LLST89
 8660 1fad 01       		.byte	0x1
 8661 1fae 99230000 		.4byte	0x2399
 8662 1fb2 46       		.uleb128 0x46
 8663 1fb3 7B050000 		.4byte	.LASF149
 8664 1fb7 01       		.byte	0x1
ARM GAS  /var/folders/cs/83z6p2tj4w57s6p2rt8nwfp00000gn/T//ccDzWS9O.s 			page 180


 8665 1fb8 CF       		.byte	0xcf
 8666 1fb9 18       		.byte	0x18
 8667 1fba 380D0000 		.4byte	0xd38
 8668 1fbe DD2A0000 		.4byte	.LLST90
 8669 1fc2 CB2A0000 		.4byte	.LVUS90
 8670 1fc6 46       		.uleb128 0x46
 8671 1fc7 51040000 		.4byte	.LASF150
 8672 1fcb 01       		.byte	0x1
 8673 1fcc CF       		.byte	0xcf
 8674 1fcd 24       		.byte	0x24
 8675 1fce 30000000 		.4byte	0x30
 8676 1fd2 582B0000 		.4byte	.LLST91
 8677 1fd6 542B0000 		.4byte	.LVUS91
 8678 1fda 47       		.uleb128 0x47
 8679 1fdb 703100   		.ascii	"p1\000"
 8680 1fde 01       		.byte	0x1
 8681 1fdf CF       		.byte	0xcf
 8682 1fe0 38       		.byte	0x38
 8683 1fe1 3E0D0000 		.4byte	0xd3e
 8684 1fe5 882B0000 		.4byte	.LLST92
 8685 1fe9 762B0000 		.4byte	.LVUS92
 8686 1fed 47       		.uleb128 0x47
 8687 1fee 703200   		.ascii	"p2\000"
 8688 1ff1 01       		.byte	0x1
 8689 1ff2 CF       		.byte	0xcf
 8690 1ff3 45       		.byte	0x45
 8691 1ff4 3E0D0000 		.4byte	0xd3e
 8692 1ff8 FA2B0000 		.4byte	.LLST93
 8693 1ffc F62B0000 		.4byte	.LVUS93
 8694 2000 46       		.uleb128 0x46
 8695 2001 1F040000 		.4byte	.LASF163
 8696 2005 01       		.byte	0x1
 8697 2006 CF       		.byte	0xcf
 8698 2007 4D       		.byte	0x4d
 8699 2008 30000000 		.4byte	0x30
 8700 200c 1C2C0000 		.4byte	.LLST94
 8701 2010 182C0000 		.4byte	.LVUS94
 8702 2014 46       		.uleb128 0x46
 8703 2015 9F050000 		.4byte	.LASF151
 8704 2019 01       		.byte	0x1
 8705 201a CF       		.byte	0xcf
 8706 201b 5C       		.byte	0x5c
 8707 201c 380D0000 		.4byte	0xd38
 8708 2020 402C0000 		.4byte	.LLST95
 8709 2024 3C2C0000 		.4byte	.LVUS95
 8710 2028 48       		.uleb128 0x48
 8711 2029 7900     		.ascii	"y\000"
 8712 202b 01       		.byte	0x1
 8713 202c D8       		.byte	0xd8
 8714 202d 06       		.byte	0x6
 8715 202e 30000000 		.4byte	0x30
 8716 2032 6A2C0000 		.4byte	.LLST96
 8717 2036 602C0000 		.4byte	.LVUS96
 8718 203a 49       		.uleb128 0x49
 8719 203b 9E000000 		.4byte	.LASF155
 8720 203f 01       		.byte	0x1
 8721 2040 D9       		.byte	0xd9
ARM GAS  /var/folders/cs/83z6p2tj4w57s6p2rt8nwfp00000gn/T//ccDzWS9O.s 			page 181


 8722 2041 06       		.byte	0x6
 8723 2042 30000000 		.4byte	0x30
 8724 2046 BC2C0000 		.4byte	.LLST97
 8725 204a AC2C0000 		.4byte	.LVUS97
 8726 204e 48       		.uleb128 0x48
 8727 204f 7800     		.ascii	"x\000"
 8728 2051 01       		.byte	0x1
 8729 2052 DE       		.byte	0xde
 8730 2053 0A       		.byte	0xa
 8731 2054 D6000000 		.4byte	0xd6
 8732 2058 242D0000 		.4byte	.LLST98
 8733 205c 1C2D0000 		.4byte	.LVUS98
 8734 2060 48       		.uleb128 0x48
 8735 2061 647800   		.ascii	"dx\000"
 8736 2064 01       		.byte	0x1
 8737 2065 DF       		.byte	0xdf
 8738 2066 0A       		.byte	0xa
 8739 2067 D6000000 		.4byte	0xd6
 8740 206b 5C2D0000 		.4byte	.LLST99
 8741 206f 582D0000 		.4byte	.LVUS99
 8742 2073 48       		.uleb128 0x48
 8743 2074 7A3100   		.ascii	"z1\000"
 8744 2077 01       		.byte	0x1
 8745 2078 E2       		.byte	0xe2
 8746 2079 08       		.byte	0x8
 8747 207a 29000000 		.4byte	0x29
 8748 207e 822D0000 		.4byte	.LLST100
 8749 2082 7A2D0000 		.4byte	.LVUS100
 8750 2086 48       		.uleb128 0x48
 8751 2087 7A3200   		.ascii	"z2\000"
 8752 208a 01       		.byte	0x1
 8753 208b E3       		.byte	0xe3
 8754 208c 08       		.byte	0x8
 8755 208d 29000000 		.4byte	0x29
 8756 2091 DE2D0000 		.4byte	.LLST101
 8757 2095 D62D0000 		.4byte	.LVUS101
 8758 2099 49       		.uleb128 0x49
 8759 209a C2010000 		.4byte	.LASF157
 8760 209e 01       		.byte	0x1
 8761 209f E8       		.byte	0xe8
 8762 20a0 0A       		.byte	0xa
 8763 20a1 D6000000 		.4byte	0xd6
 8764 20a5 4C2E0000 		.4byte	.LLST102
 8765 20a9 462E0000 		.4byte	.LVUS102
 8766 20ad 49       		.uleb128 0x49
 8767 20ae BD010000 		.4byte	.LASF156
 8768 20b2 01       		.byte	0x1
 8769 20b3 E9       		.byte	0xe9
 8770 20b4 0A       		.byte	0xa
 8771 20b5 D6000000 		.4byte	0xd6
 8772 20b9 7E2E0000 		.4byte	.LLST103
 8773 20bd 782E0000 		.4byte	.LVUS103
 8774 20c1 48       		.uleb128 0x48
 8775 20c2 7A00     		.ascii	"z\000"
 8776 20c4 01       		.byte	0x1
 8777 20c5 EB       		.byte	0xeb
 8778 20c6 0B       		.byte	0xb
ARM GAS  /var/folders/cs/83z6p2tj4w57s6p2rt8nwfp00000gn/T//ccDzWS9O.s 			page 182


 8779 20c7 E2000000 		.4byte	0xe2
 8780 20cb B22E0000 		.4byte	.LLST104
 8781 20cf AA2E0000 		.4byte	.LVUS104
 8782 20d3 3C       		.uleb128 0x3c
 8783 20d4 E5200000 		.4byte	0x20e5
 8784 20d8 4A       		.uleb128 0x4a
 8785 20d9 746D7000 		.ascii	"tmp\000"
 8786 20dd 01       		.byte	0x1
 8787 20de D3       		.byte	0xd3
 8788 20df 0C       		.byte	0xc
 8789 20e0 3E0D0000 		.4byte	0xd3e
 8790 20e4 00       		.byte	0
 8791 20e5 44       		.uleb128 0x44
 8792 20e6 08020000 		.4byte	.Ldebug_ranges0+0x208
 8793 20ea 7B220000 		.4byte	0x227b
 8794 20ee 48       		.uleb128 0x48
 8795 20ef 7000     		.ascii	"p\000"
 8796 20f1 01       		.byte	0x1
 8797 20f2 F6       		.byte	0xf6
 8798 20f3 0B       		.byte	0xb
 8799 20f4 B2000000 		.4byte	0xb2
 8800 20f8 EC2E0000 		.4byte	.LLST119
 8801 20fc E62E0000 		.4byte	.LVUS119
 8802 2100 49       		.uleb128 0x49
 8803 2101 A7010000 		.4byte	.LASF159
 8804 2105 01       		.byte	0x1
 8805 2106 F7       		.byte	0xf7
 8806 2107 0C       		.byte	0xc
 8807 2108 E2000000 		.4byte	0xe2
 8808 210c 342F0000 		.4byte	.LLST120
 8809 2110 2A2F0000 		.4byte	.LVUS120
 8810 2114 48       		.uleb128 0x48
 8811 2115 783100   		.ascii	"x1\000"
 8812 2118 01       		.byte	0x1
 8813 2119 F8       		.byte	0xf8
 8814 211a 0B       		.byte	0xb
 8815 211b D6000000 		.4byte	0xd6
 8816 211f 7B2F0000 		.4byte	.LLST121
 8817 2123 772F0000 		.4byte	.LVUS121
 8818 2127 36       		.uleb128 0x36
 8819 2128 EE230000 		.4byte	0x23ee
 8820 212c 7E010000 		.4byte	.LBI201
 8821 2130 0000     		.2byte	.LVU504
 8822 2132 7E010000 		.4byte	.LBB201
 8823 2136 A6010000 		.4byte	.LBE201
 8824 213a 01       		.byte	0x1
 8825 213b 0101     		.2byte	0x101
 8826 213d 04       		.byte	0x4
 8827 213e DB210000 		.4byte	0x21db
 8828 2142 2F       		.uleb128 0x2f
 8829 2143 40240000 		.4byte	0x2440
 8830 2147 9D2F0000 		.4byte	.LLST122
 8831 214b 992F0000 		.4byte	.LVUS122
 8832 214f 34       		.uleb128 0x34
 8833 2150 34240000 		.4byte	0x2434
 8834 2154 2F       		.uleb128 0x2f
 8835 2155 2A240000 		.4byte	0x242a
ARM GAS  /var/folders/cs/83z6p2tj4w57s6p2rt8nwfp00000gn/T//ccDzWS9O.s 			page 183


 8836 2159 BF2F0000 		.4byte	.LLST123
 8837 215d BD2F0000 		.4byte	.LVUS123
 8838 2161 2F       		.uleb128 0x2f
 8839 2162 1E240000 		.4byte	0x241e
 8840 2166 D82F0000 		.4byte	.LLST124
 8841 216a D22F0000 		.4byte	.LVUS124
 8842 216e 2F       		.uleb128 0x2f
 8843 216f 14240000 		.4byte	0x2414
 8844 2173 13300000 		.4byte	.LLST125
 8845 2177 11300000 		.4byte	.LVUS125
 8846 217b 2F       		.uleb128 0x2f
 8847 217c 08240000 		.4byte	0x2408
 8848 2180 28300000 		.4byte	.LLST126
 8849 2184 26300000 		.4byte	.LVUS126
 8850 2188 2F       		.uleb128 0x2f
 8851 2189 FC230000 		.4byte	0x23fc
 8852 218d 4B300000 		.4byte	.LLST127
 8853 2191 49300000 		.4byte	.LVUS127
 8854 2195 35       		.uleb128 0x35
 8855 2196 4C240000 		.4byte	0x244c
 8856 219a 35       		.uleb128 0x35
 8857 219b 58240000 		.4byte	0x2458
 8858 219f 37       		.uleb128 0x37
 8859 21a0 A6010000 		.4byte	.LVL169
 8860 21a4 F3270000 		.4byte	0x27f3
 8861 21a8 29       		.uleb128 0x29
 8862 21a9 01       		.byte	0x1
 8863 21aa 50       		.byte	0x50
 8864 21ab 02       		.byte	0x2
 8865 21ac 77       		.byte	0x77
 8866 21ad 00       		.sleb128 0
 8867 21ae 29       		.uleb128 0x29
 8868 21af 01       		.byte	0x1
 8869 21b0 51       		.byte	0x51
 8870 21b1 0C       		.byte	0xc
 8871 21b2 74       		.byte	0x74
 8872 21b3 00       		.sleb128 0
 8873 21b4 0A       		.byte	0xa
 8874 21b5 2003     		.2byte	0x320
 8875 21b7 1E       		.byte	0x1e
 8876 21b8 03       		.byte	0x3
 8877 21b9 00000000 		.4byte	zbuf
 8878 21bd 22       		.byte	0x22
 8879 21be 29       		.uleb128 0x29
 8880 21bf 01       		.byte	0x1
 8881 21c0 53       		.byte	0x53
 8882 21c1 08       		.byte	0x8
 8883 21c2 7B       		.byte	0x7b
 8884 21c3 00       		.sleb128 0
 8885 21c4 40       		.byte	0x40
 8886 21c5 26       		.byte	0x26
 8887 21c6 91       		.byte	0x91
 8888 21c7 00       		.sleb128 0
 8889 21c8 06       		.byte	0x6
 8890 21c9 22       		.byte	0x22
 8891 21ca 29       		.uleb128 0x29
 8892 21cb 02       		.byte	0x2
ARM GAS  /var/folders/cs/83z6p2tj4w57s6p2rt8nwfp00000gn/T//ccDzWS9O.s 			page 184


 8893 21cc 7D       		.byte	0x7d
 8894 21cd 00       		.sleb128 0
 8895 21ce 02       		.byte	0x2
 8896 21cf 75       		.byte	0x75
 8897 21d0 00       		.sleb128 0
 8898 21d1 29       		.uleb128 0x29
 8899 21d2 02       		.byte	0x2
 8900 21d3 7D       		.byte	0x7d
 8901 21d4 04       		.sleb128 4
 8902 21d5 03       		.byte	0x3
 8903 21d6 91       		.byte	0x91
 8904 21d7 48       		.sleb128 -56
 8905 21d8 06       		.byte	0x6
 8906 21d9 00       		.byte	0
 8907 21da 00       		.byte	0
 8908 21db 4B       		.uleb128 0x4b
 8909 21dc EE230000 		.4byte	0x23ee
 8910 21e0 FA010000 		.4byte	.LBI203
 8911 21e4 0000     		.2byte	.LVU543
 8912 21e6 28020000 		.4byte	.Ldebug_ranges0+0x228
 8913 21ea 01       		.byte	0x1
 8914 21eb FD       		.byte	0xfd
 8915 21ec 04       		.byte	0x4
 8916 21ed 2F       		.uleb128 0x2f
 8917 21ee 40240000 		.4byte	0x2440
 8918 21f2 6B300000 		.4byte	.LLST128
 8919 21f6 67300000 		.4byte	.LVUS128
 8920 21fa 34       		.uleb128 0x34
 8921 21fb 34240000 		.4byte	0x2434
 8922 21ff 2F       		.uleb128 0x2f
 8923 2200 2A240000 		.4byte	0x242a
 8924 2204 8D300000 		.4byte	.LLST129
 8925 2208 8B300000 		.4byte	.LVUS129
 8926 220c 34       		.uleb128 0x34
 8927 220d 1E240000 		.4byte	0x241e
 8928 2211 2F       		.uleb128 0x2f
 8929 2212 14240000 		.4byte	0x2414
 8930 2216 A4300000 		.4byte	.LLST130
 8931 221a A0300000 		.4byte	.LVUS130
 8932 221e 2F       		.uleb128 0x2f
 8933 221f 08240000 		.4byte	0x2408
 8934 2223 CA300000 		.4byte	.LLST131
 8935 2227 C6300000 		.4byte	.LVUS131
 8936 222b 2F       		.uleb128 0x2f
 8937 222c FC230000 		.4byte	0x23fc
 8938 2230 08310000 		.4byte	.LLST132
 8939 2234 04310000 		.4byte	.LVUS132
 8940 2238 30       		.uleb128 0x30
 8941 2239 28020000 		.4byte	.Ldebug_ranges0+0x228
 8942 223d 35       		.uleb128 0x35
 8943 223e 4C240000 		.4byte	0x244c
 8944 2242 35       		.uleb128 0x35
 8945 2243 58240000 		.4byte	0x2458
 8946 2247 37       		.uleb128 0x37
 8947 2248 20020000 		.4byte	.LVL182
 8948 224c F3270000 		.4byte	0x27f3
 8949 2250 29       		.uleb128 0x29
ARM GAS  /var/folders/cs/83z6p2tj4w57s6p2rt8nwfp00000gn/T//ccDzWS9O.s 			page 185


 8950 2251 01       		.byte	0x1
 8951 2252 51       		.byte	0x51
 8952 2253 0C       		.byte	0xc
 8953 2254 74       		.byte	0x74
 8954 2255 7F       		.sleb128 -1
 8955 2256 0A       		.byte	0xa
 8956 2257 2003     		.2byte	0x320
 8957 2259 1E       		.byte	0x1e
 8958 225a 03       		.byte	0x3
 8959 225b 00000000 		.4byte	zbuf
 8960 225f 22       		.byte	0x22
 8961 2260 29       		.uleb128 0x29
 8962 2261 01       		.byte	0x1
 8963 2262 52       		.byte	0x52
 8964 2263 04       		.byte	0x4
 8965 2264 7B       		.byte	0x7b
 8966 2265 00       		.sleb128 0
 8967 2266 40       		.byte	0x40
 8968 2267 26       		.byte	0x26
 8969 2268 29       		.uleb128 0x29
 8970 2269 02       		.byte	0x2
 8971 226a 7D       		.byte	0x7d
 8972 226b 00       		.sleb128 0
 8973 226c 02       		.byte	0x2
 8974 226d 75       		.byte	0x75
 8975 226e 00       		.sleb128 0
 8976 226f 29       		.uleb128 0x29
 8977 2270 02       		.byte	0x2
 8978 2271 7D       		.byte	0x7d
 8979 2272 04       		.sleb128 4
 8980 2273 03       		.byte	0x3
 8981 2274 91       		.byte	0x91
 8982 2275 48       		.sleb128 -56
 8983 2276 06       		.byte	0x6
 8984 2277 00       		.byte	0
 8985 2278 00       		.byte	0
 8986 2279 00       		.byte	0
 8987 227a 00       		.byte	0
 8988 227b 4C       		.uleb128 0x4c
 8989 227c 99230000 		.4byte	0x2399
 8990 2280 A2000000 		.4byte	.LBI183
 8991 2284 0100     		.2byte	.LVU434
 8992 2286 A0010000 		.4byte	.Ldebug_ranges0+0x1a0
 8993 228a 01       		.byte	0x1
 8994 228b DF       		.byte	0xdf
 8995 228c 0F       		.byte	0xf
 8996 228d DE220000 		.4byte	0x22de
 8997 2291 34       		.uleb128 0x34
 8998 2292 CC230000 		.4byte	0x23cc
 8999 2296 2F       		.uleb128 0x2f
 9000 2297 C1230000 		.4byte	0x23c1
 9001 229b 3C310000 		.4byte	.LLST105
 9002 229f 38310000 		.4byte	.LVUS105
 9003 22a3 2F       		.uleb128 0x2f
 9004 22a4 B6230000 		.4byte	0x23b6
 9005 22a8 60310000 		.4byte	.LLST106
 9006 22ac 5C310000 		.4byte	.LVUS106
ARM GAS  /var/folders/cs/83z6p2tj4w57s6p2rt8nwfp00000gn/T//ccDzWS9O.s 			page 186


 9007 22b0 2F       		.uleb128 0x2f
 9008 22b1 AB230000 		.4byte	0x23ab
 9009 22b5 86310000 		.4byte	.LLST107
 9010 22b9 80310000 		.4byte	.LVUS107
 9011 22bd 30       		.uleb128 0x30
 9012 22be A0010000 		.4byte	.Ldebug_ranges0+0x1a0
 9013 22c2 31       		.uleb128 0x31
 9014 22c3 D7230000 		.4byte	0x23d7
 9015 22c7 B6310000 		.4byte	.LLST108
 9016 22cb B2310000 		.4byte	.LVUS108
 9017 22cf 31       		.uleb128 0x31
 9018 22d0 E2230000 		.4byte	0x23e2
 9019 22d4 DA310000 		.4byte	.LLST109
 9020 22d8 D6310000 		.4byte	.LVUS109
 9021 22dc 00       		.byte	0
 9022 22dd 00       		.byte	0
 9023 22de 4C       		.uleb128 0x4c
 9024 22df 99230000 		.4byte	0x2399
 9025 22e3 24010000 		.4byte	.LBI190
 9026 22e7 0100     		.2byte	.LVU468
 9027 22e9 C8010000 		.4byte	.Ldebug_ranges0+0x1c8
 9028 22ed 01       		.byte	0x1
 9029 22ee E8       		.byte	0xe8
 9030 22ef 11       		.byte	0x11
 9031 22f0 39230000 		.4byte	0x2339
 9032 22f4 34       		.uleb128 0x34
 9033 22f5 CC230000 		.4byte	0x23cc
 9034 22f9 2F       		.uleb128 0x2f
 9035 22fa C1230000 		.4byte	0x23c1
 9036 22fe FE310000 		.4byte	.LLST110
 9037 2302 FA310000 		.4byte	.LVUS110
 9038 2306 2F       		.uleb128 0x2f
 9039 2307 B6230000 		.4byte	0x23b6
 9040 230b 52320000 		.4byte	.LLST111
 9041 230f 4E320000 		.4byte	.LVUS111
 9042 2313 34       		.uleb128 0x34
 9043 2314 AB230000 		.4byte	0x23ab
 9044 2318 30       		.uleb128 0x30
 9045 2319 C8010000 		.4byte	.Ldebug_ranges0+0x1c8
 9046 231d 31       		.uleb128 0x31
 9047 231e D7230000 		.4byte	0x23d7
 9048 2322 76320000 		.4byte	.LLST112
 9049 2326 72320000 		.4byte	.LVUS112
 9050 232a 31       		.uleb128 0x31
 9051 232b E2230000 		.4byte	0x23e2
 9052 232f 9A320000 		.4byte	.LLST113
 9053 2333 96320000 		.4byte	.LVUS113
 9054 2337 00       		.byte	0
 9055 2338 00       		.byte	0
 9056 2339 4B       		.uleb128 0x4b
 9057 233a 99230000 		.4byte	0x2399
 9058 233e 40010000 		.4byte	.LBI197
 9059 2342 0200     		.2byte	.LVU480
 9060 2344 F0010000 		.4byte	.Ldebug_ranges0+0x1f0
 9061 2348 01       		.byte	0x1
 9062 2349 E9       		.byte	0xe9
 9063 234a 11       		.byte	0x11
ARM GAS  /var/folders/cs/83z6p2tj4w57s6p2rt8nwfp00000gn/T//ccDzWS9O.s 			page 187


 9064 234b 2F       		.uleb128 0x2f
 9065 234c CC230000 		.4byte	0x23cc
 9066 2350 BE320000 		.4byte	.LLST114
 9067 2354 BA320000 		.4byte	.LVUS114
 9068 2358 2F       		.uleb128 0x2f
 9069 2359 C1230000 		.4byte	0x23c1
 9070 235d E2320000 		.4byte	.LLST115
 9071 2361 DE320000 		.4byte	.LVUS115
 9072 2365 2F       		.uleb128 0x2f
 9073 2366 B6230000 		.4byte	0x23b6
 9074 236a 36330000 		.4byte	.LLST116
 9075 236e 32330000 		.4byte	.LVUS116
 9076 2372 34       		.uleb128 0x34
 9077 2373 AB230000 		.4byte	0x23ab
 9078 2377 30       		.uleb128 0x30
 9079 2378 F0010000 		.4byte	.Ldebug_ranges0+0x1f0
 9080 237c 31       		.uleb128 0x31
 9081 237d D7230000 		.4byte	0x23d7
 9082 2381 5A330000 		.4byte	.LLST117
 9083 2385 56330000 		.4byte	.LVUS117
 9084 2389 31       		.uleb128 0x31
 9085 238a E2230000 		.4byte	0x23e2
 9086 238e 7E330000 		.4byte	.LLST118
 9087 2392 7A330000 		.4byte	.LVUS118
 9088 2396 00       		.byte	0
 9089 2397 00       		.byte	0
 9090 2398 00       		.byte	0
 9091 2399 4D       		.uleb128 0x4d
 9092 239a 19040000 		.4byte	.LASF176
 9093 239e 01       		.byte	0x1
 9094 239f C2       		.byte	0xc2
 9095 23a0 17       		.byte	0x17
 9096 23a1 01       		.byte	0x1
 9097 23a2 D6000000 		.4byte	0xd6
 9098 23a6 03       		.byte	0x3
 9099 23a7 EE230000 		.4byte	0x23ee
 9100 23ab 4E       		.uleb128 0x4e
 9101 23ac 783100   		.ascii	"x1\000"
 9102 23af 01       		.byte	0x1
 9103 23b0 C2       		.byte	0xc2
 9104 23b1 23       		.byte	0x23
 9105 23b2 29000000 		.4byte	0x29
 9106 23b6 4E       		.uleb128 0x4e
 9107 23b7 793100   		.ascii	"y1\000"
 9108 23ba 01       		.byte	0x1
 9109 23bb C2       		.byte	0xc2
 9110 23bc 2D       		.byte	0x2d
 9111 23bd 29000000 		.4byte	0x29
 9112 23c1 4E       		.uleb128 0x4e
 9113 23c2 783200   		.ascii	"x2\000"
 9114 23c5 01       		.byte	0x1
 9115 23c6 C2       		.byte	0xc2
 9116 23c7 37       		.byte	0x37
 9117 23c8 29000000 		.4byte	0x29
 9118 23cc 4E       		.uleb128 0x4e
 9119 23cd 793200   		.ascii	"y2\000"
 9120 23d0 01       		.byte	0x1
ARM GAS  /var/folders/cs/83z6p2tj4w57s6p2rt8nwfp00000gn/T//ccDzWS9O.s 			page 188


 9121 23d1 C2       		.byte	0xc2
 9122 23d2 41       		.byte	0x41
 9123 23d3 29000000 		.4byte	0x29
 9124 23d7 4A       		.uleb128 0x4a
 9125 23d8 647800   		.ascii	"dx\000"
 9126 23db 01       		.byte	0x1
 9127 23dc C4       		.byte	0xc4
 9128 23dd 08       		.byte	0x8
 9129 23de 29000000 		.4byte	0x29
 9130 23e2 4A       		.uleb128 0x4a
 9131 23e3 647900   		.ascii	"dy\000"
 9132 23e6 01       		.byte	0x1
 9133 23e7 C5       		.byte	0xc5
 9134 23e8 08       		.byte	0x8
 9135 23e9 29000000 		.4byte	0x29
 9136 23ed 00       		.byte	0
 9137 23ee 4F       		.uleb128 0x4f
 9138 23ef 8D050000 		.4byte	.LASF166
 9139 23f3 01       		.byte	0x1
 9140 23f4 98       		.byte	0x98
 9141 23f5 01       		.byte	0x1
 9142 23f6 01       		.byte	0x1
 9143 23f7 01       		.byte	0x1
 9144 23f8 70240000 		.4byte	0x2470
 9145 23fc 4E       		.uleb128 0x4e
 9146 23fd 726F7700 		.ascii	"row\000"
 9147 2401 01       		.byte	0x1
 9148 2402 98       		.byte	0x98
 9149 2403 1D       		.byte	0x1d
 9150 2404 461B0000 		.4byte	0x1b46
 9151 2408 50       		.uleb128 0x50
 9152 2409 CD020000 		.4byte	.LASF167
 9153 240d 01       		.byte	0x1
 9154 240e 98       		.byte	0x98
 9155 240f 2C       		.byte	0x2c
 9156 2410 70240000 		.4byte	0x2470
 9157 2414 4E       		.uleb128 0x4e
 9158 2415 7800     		.ascii	"x\000"
 9159 2417 01       		.byte	0x1
 9160 2418 98       		.byte	0x98
 9161 2419 37       		.byte	0x37
 9162 241a 30000000 		.4byte	0x30
 9163 241e 50       		.uleb128 0x50
 9164 241f 99000000 		.4byte	.LASF168
 9165 2423 01       		.byte	0x1
 9166 2424 98       		.byte	0x98
 9167 2425 3E       		.byte	0x3e
 9168 2426 30000000 		.4byte	0x30
 9169 242a 4E       		.uleb128 0x4e
 9170 242b 7A00     		.ascii	"z\000"
 9171 242d 01       		.byte	0x1
 9172 242e 98       		.byte	0x98
 9173 242f 4D       		.byte	0x4d
 9174 2430 E2000000 		.4byte	0xe2
 9175 2434 50       		.uleb128 0x50
 9176 2435 BD010000 		.4byte	.LASF156
 9177 2439 01       		.byte	0x1
ARM GAS  /var/folders/cs/83z6p2tj4w57s6p2rt8nwfp00000gn/T//ccDzWS9O.s 			page 189


 9178 243a 98       		.byte	0x98
 9179 243b 58       		.byte	0x58
 9180 243c D6000000 		.4byte	0xd6
 9181 2440 50       		.uleb128 0x50
 9182 2441 A7010000 		.4byte	.LASF159
 9183 2445 01       		.byte	0x1
 9184 2446 98       		.byte	0x98
 9185 2447 67       		.byte	0x67
 9186 2448 E2000000 		.4byte	0xe2
 9187 244c 51       		.uleb128 0x51
 9188 244d B5030000 		.4byte	.LASF169
 9189 2451 01       		.byte	0x1
 9190 2452 A6       		.byte	0xa6
 9191 2453 0B       		.byte	0xb
 9192 2454 E2000000 		.4byte	0xe2
 9193 2458 4A       		.uleb128 0x4a
 9194 2459 7000     		.ascii	"p\000"
 9195 245b 01       		.byte	0x1
 9196 245c A7       		.byte	0xa7
 9197 245d 0C       		.byte	0xc
 9198 245e 461B0000 		.4byte	0x1b46
 9199 2462 3D       		.uleb128 0x3d
 9200 2463 4A       		.uleb128 0x4a
 9201 2464 7A6900   		.ascii	"zi\000"
 9202 2467 01       		.byte	0x1
 9203 2468 AB       		.byte	0xab
 9204 2469 0C       		.byte	0xc
 9205 246a CA000000 		.4byte	0xca
 9206 246e 00       		.byte	0
 9207 246f 00       		.byte	0
 9208 2470 05       		.uleb128 0x5
 9209 2471 04       		.byte	0x4
 9210 2472 CA000000 		.4byte	0xca
 9211 2476 4F       		.uleb128 0x4f
 9212 2477 FB040000 		.4byte	.LASF170
 9213 247b 01       		.byte	0x1
 9214 247c 5C       		.byte	0x5c
 9215 247d 01       		.byte	0x1
 9216 247e 01       		.byte	0x1
 9217 247f 01       		.byte	0x1
 9218 2480 17250000 		.4byte	0x2517
 9219 2484 4E       		.uleb128 0x4e
 9220 2485 726F7700 		.ascii	"row\000"
 9221 2489 01       		.byte	0x1
 9222 248a 5C       		.byte	0x5c
 9223 248b 18       		.byte	0x18
 9224 248c 461B0000 		.4byte	0x1b46
 9225 2490 4E       		.uleb128 0x4e
 9226 2491 783100   		.ascii	"x1\000"
 9227 2494 01       		.byte	0x1
 9228 2495 5C       		.byte	0x5c
 9229 2496 21       		.byte	0x21
 9230 2497 30000000 		.4byte	0x30
 9231 249b 4E       		.uleb128 0x4e
 9232 249c 783200   		.ascii	"x2\000"
 9233 249f 01       		.byte	0x1
 9234 24a0 5C       		.byte	0x5c
ARM GAS  /var/folders/cs/83z6p2tj4w57s6p2rt8nwfp00000gn/T//ccDzWS9O.s 			page 190


 9235 24a1 29       		.byte	0x29
 9236 24a2 30000000 		.4byte	0x30
 9237 24a6 50       		.uleb128 0x50
 9238 24a7 A7010000 		.4byte	.LASF159
 9239 24ab 01       		.byte	0x1
 9240 24ac 5C       		.byte	0x5c
 9241 24ad 36       		.byte	0x36
 9242 24ae E2000000 		.4byte	0xe2
 9243 24b2 51       		.uleb128 0x51
 9244 24b3 B9020000 		.4byte	.LASF171
 9245 24b7 01       		.byte	0x1
 9246 24b8 6C       		.byte	0x6c
 9247 24b9 06       		.byte	0x6
 9248 24ba 30000000 		.4byte	0x30
 9249 24be 51       		.uleb128 0x51
 9250 24bf A7050000 		.4byte	.LASF172
 9251 24c3 01       		.byte	0x1
 9252 24c4 6D       		.byte	0x6d
 9253 24c5 0B       		.byte	0xb
 9254 24c6 E2000000 		.4byte	0xe2
 9255 24ca 51       		.uleb128 0x51
 9256 24cb A3030000 		.4byte	.LASF173
 9257 24cf 01       		.byte	0x1
 9258 24d0 6E       		.byte	0x6e
 9259 24d1 06       		.byte	0x6
 9260 24d2 30000000 		.4byte	0x30
 9261 24d6 51       		.uleb128 0x51
 9262 24d7 0F000000 		.4byte	.LASF174
 9263 24db 01       		.byte	0x1
 9264 24dc 6F       		.byte	0x6f
 9265 24dd 0B       		.byte	0xb
 9266 24de E2000000 		.4byte	0xe2
 9267 24e2 4A       		.uleb128 0x4a
 9268 24e3 636F6C00 		.ascii	"col\000"
 9269 24e7 01       		.byte	0x1
 9270 24e8 71       		.byte	0x71
 9271 24e9 06       		.byte	0x6
 9272 24ea 30000000 		.4byte	0x30
 9273 24ee 4A       		.uleb128 0x4a
 9274 24ef 7000     		.ascii	"p\000"
 9275 24f1 01       		.byte	0x1
 9276 24f2 72       		.byte	0x72
 9277 24f3 0C       		.byte	0xc
 9278 24f4 461B0000 		.4byte	0x1b46
 9279 24f8 3C       		.uleb128 0x3c
 9280 24f9 0A250000 		.4byte	0x250a
 9281 24fd 51       		.uleb128 0x51
 9282 24fe B5030000 		.4byte	.LASF169
 9283 2502 01       		.byte	0x1
 9284 2503 76       		.byte	0x76
 9285 2504 0C       		.byte	0xc
 9286 2505 E2000000 		.4byte	0xe2
 9287 2509 00       		.byte	0
 9288 250a 3D       		.uleb128 0x3d
 9289 250b 4A       		.uleb128 0x4a
 9290 250c 7800     		.ascii	"x\000"
 9291 250e 01       		.byte	0x1
ARM GAS  /var/folders/cs/83z6p2tj4w57s6p2rt8nwfp00000gn/T//ccDzWS9O.s 			page 191


 9292 250f 83       		.byte	0x83
 9293 2510 07       		.byte	0x7
 9294 2511 30000000 		.4byte	0x30
 9295 2515 00       		.byte	0
 9296 2516 00       		.byte	0
 9297 2517 4F       		.uleb128 0x4f
 9298 2518 84020000 		.4byte	.LASF175
 9299 251c 01       		.byte	0x1
 9300 251d 53       		.byte	0x53
 9301 251e 01       		.byte	0x1
 9302 251f 01       		.byte	0x1
 9303 2520 03       		.byte	0x3
 9304 2521 48250000 		.4byte	0x2548
 9305 2525 4E       		.uleb128 0x4e
 9306 2526 7000     		.ascii	"p\000"
 9307 2528 01       		.byte	0x1
 9308 2529 53       		.byte	0x53
 9309 252a 1C       		.byte	0x1c
 9310 252b 461B0000 		.4byte	0x1b46
 9311 252f 50       		.uleb128 0x50
 9312 2530 B5030000 		.4byte	.LASF169
 9313 2534 01       		.byte	0x1
 9314 2535 53       		.byte	0x53
 9315 2536 28       		.byte	0x28
 9316 2537 E2000000 		.4byte	0xe2
 9317 253b 50       		.uleb128 0x50
 9318 253c A7010000 		.4byte	.LASF159
 9319 2540 01       		.byte	0x1
 9320 2541 53       		.byte	0x53
 9321 2542 37       		.byte	0x37
 9322 2543 E2000000 		.4byte	0xe2
 9323 2547 00       		.byte	0
 9324 2548 4D       		.uleb128 0x4d
 9325 2549 E2020000 		.4byte	.LASF177
 9326 254d 01       		.byte	0x1
 9327 254e 25       		.byte	0x25
 9328 254f 18       		.byte	0x18
 9329 2550 01       		.byte	0x1
 9330 2551 E2000000 		.4byte	0xe2
 9331 2555 03       		.byte	0x3
 9332 2556 71250000 		.4byte	0x2571
 9333 255a 4E       		.uleb128 0x4e
 9334 255b 6E00     		.ascii	"n\000"
 9335 255d 01       		.byte	0x1
 9336 255e 25       		.byte	0x25
 9337 255f 26       		.byte	0x26
 9338 2560 E2000000 		.4byte	0xe2
 9339 2564 51       		.uleb128 0x51
 9340 2565 31010000 		.4byte	.LASF178
 9341 2569 01       		.byte	0x1
 9342 256a 29       		.byte	0x29
 9343 256b 0B       		.byte	0xb
 9344 256c E2000000 		.4byte	0xe2
 9345 2570 00       		.byte	0
 9346 2571 52       		.uleb128 0x52
 9347 2572 01       		.byte	0x1
 9348 2573 1F020000 		.4byte	.LASF184
ARM GAS  /var/folders/cs/83z6p2tj4w57s6p2rt8nwfp00000gn/T//ccDzWS9O.s 			page 192


 9349 2577 01       		.byte	0x1
 9350 2578 1E       		.byte	0x1e
 9351 2579 06       		.byte	0x6
 9352 257a 01       		.byte	0x1
 9353 257b 00000000 		.4byte	.LFB12
 9354 257f 44000000 		.4byte	.LFE12
 9355 2583 9E330000 		.4byte	.LLST87
 9356 2587 01       		.byte	0x1
 9357 2588 C2250000 		.4byte	0x25c2
 9358 258c 46       		.uleb128 0x46
 9359 258d 56000000 		.4byte	.LASF179
 9360 2591 01       		.byte	0x1
 9361 2592 1E       		.byte	0x1e
 9362 2593 19       		.byte	0x19
 9363 2594 29000000 		.4byte	0x29
 9364 2598 DC330000 		.4byte	.LLST88
 9365 259c D6330000 		.4byte	.LVUS88
 9366 25a0 37       		.uleb128 0x37
 9367 25a1 14000000 		.4byte	.LVL141
 9368 25a5 72290000 		.4byte	0x2972
 9369 25a9 29       		.uleb128 0x29
 9370 25aa 01       		.byte	0x1
 9371 25ab 50       		.byte	0x50
 9372 25ac 05       		.byte	0x5
 9373 25ad 03       		.byte	0x3
 9374 25ae 00000000 		.4byte	zbuf
 9375 25b2 29       		.uleb128 0x29
 9376 25b3 01       		.byte	0x1
 9377 25b4 51       		.byte	0x51
 9378 25b5 01       		.byte	0x1
 9379 25b6 30       		.byte	0x30
 9380 25b7 29       		.uleb128 0x29
 9381 25b8 01       		.byte	0x1
 9382 25b9 52       		.byte	0x52
 9383 25ba 05       		.byte	0x5
 9384 25bb 0C       		.byte	0xc
 9385 25bc 00EE0200 		.4byte	0x2ee00
 9386 25c0 00       		.byte	0
 9387 25c1 00       		.byte	0
 9388 25c2 53       		.uleb128 0x53
 9389 25c3 76240000 		.4byte	0x2476
 9390 25c7 00000000 		.4byte	.LFB27
 9391 25cb DE000000 		.4byte	.LFE27
 9392 25cf 0C340000 		.4byte	.LLST0
 9393 25d3 01       		.byte	0x1
 9394 25d4 F3270000 		.4byte	0x27f3
 9395 25d8 2F       		.uleb128 0x2f
 9396 25d9 84240000 		.4byte	0x2484
 9397 25dd 4E340000 		.4byte	.LLST1
 9398 25e1 44340000 		.4byte	.LVUS1
 9399 25e5 2F       		.uleb128 0x2f
 9400 25e6 90240000 		.4byte	0x2490
 9401 25ea 9D340000 		.4byte	.LLST2
 9402 25ee 93340000 		.4byte	.LVUS2
 9403 25f2 2F       		.uleb128 0x2f
 9404 25f3 9B240000 		.4byte	0x249b
 9405 25f7 FF340000 		.4byte	.LLST3
ARM GAS  /var/folders/cs/83z6p2tj4w57s6p2rt8nwfp00000gn/T//ccDzWS9O.s 			page 193


 9406 25fb E9340000 		.4byte	.LVUS3
 9407 25ff 2F       		.uleb128 0x2f
 9408 2600 A6240000 		.4byte	0x24a6
 9409 2604 D4350000 		.4byte	.LLST4
 9410 2608 CA350000 		.4byte	.LVUS4
 9411 260c 31       		.uleb128 0x31
 9412 260d B2240000 		.4byte	0x24b2
 9413 2611 27360000 		.4byte	.LLST5
 9414 2615 19360000 		.4byte	.LVUS5
 9415 2619 31       		.uleb128 0x31
 9416 261a BE240000 		.4byte	0x24be
 9417 261e A8360000 		.4byte	.LLST6
 9418 2622 9E360000 		.4byte	.LVUS6
 9419 2626 31       		.uleb128 0x31
 9420 2627 CA240000 		.4byte	0x24ca
 9421 262b EB360000 		.4byte	.LLST7
 9422 262f E7360000 		.4byte	.LVUS7
 9423 2633 31       		.uleb128 0x31
 9424 2634 D6240000 		.4byte	0x24d6
 9425 2638 0D370000 		.4byte	.LLST8
 9426 263c 09370000 		.4byte	.LVUS8
 9427 2640 31       		.uleb128 0x31
 9428 2641 E2240000 		.4byte	0x24e2
 9429 2645 2F370000 		.4byte	.LLST9
 9430 2649 2B370000 		.4byte	.LVUS9
 9431 264d 31       		.uleb128 0x31
 9432 264e EE240000 		.4byte	0x24ee
 9433 2652 59370000 		.4byte	.LLST10
 9434 2656 4D370000 		.4byte	.LVUS10
 9435 265a 4C       		.uleb128 0x4c
 9436 265b 48250000 		.4byte	0x2548
 9437 265f 20000000 		.4byte	.LBI102
 9438 2663 0000     		.2byte	.LVU11
 9439 2665 00000000 		.4byte	.Ldebug_ranges0+0
 9440 2669 01       		.byte	0x1
 9441 266a 6D       		.byte	0x6d
 9442 266b 17       		.byte	0x17
 9443 266c 91260000 		.4byte	0x2691
 9444 2670 2F       		.uleb128 0x2f
 9445 2671 5A250000 		.4byte	0x255a
 9446 2675 AB370000 		.4byte	.LLST11
 9447 2679 A5370000 		.4byte	.LVUS11
 9448 267d 30       		.uleb128 0x30
 9449 267e 00000000 		.4byte	.Ldebug_ranges0+0
 9450 2682 31       		.uleb128 0x31
 9451 2683 64250000 		.4byte	0x2564
 9452 2687 E2370000 		.4byte	.LLST12
 9453 268b E0370000 		.4byte	.LVUS12
 9454 268f 00       		.byte	0
 9455 2690 00       		.byte	0
 9456 2691 4C       		.uleb128 0x4c
 9457 2692 48250000 		.4byte	0x2548
 9458 2696 2C000000 		.4byte	.LBI106
 9459 269a 0100     		.2byte	.LVU22
 9460 269c 18000000 		.4byte	.Ldebug_ranges0+0x18
 9461 26a0 01       		.byte	0x1
 9462 26a1 6F       		.byte	0x6f
ARM GAS  /var/folders/cs/83z6p2tj4w57s6p2rt8nwfp00000gn/T//ccDzWS9O.s 			page 194


 9463 26a2 15       		.byte	0x15
 9464 26a3 C8260000 		.4byte	0x26c8
 9465 26a7 2F       		.uleb128 0x2f
 9466 26a8 5A250000 		.4byte	0x255a
 9467 26ac FB370000 		.4byte	.LLST13
 9468 26b0 F5370000 		.4byte	.LVUS13
 9469 26b4 30       		.uleb128 0x30
 9470 26b5 18000000 		.4byte	.Ldebug_ranges0+0x18
 9471 26b9 31       		.uleb128 0x31
 9472 26ba 64250000 		.4byte	0x2564
 9473 26be 3E380000 		.4byte	.LLST14
 9474 26c2 3C380000 		.4byte	.LVUS14
 9475 26c6 00       		.byte	0
 9476 26c7 00       		.byte	0
 9477 26c8 32       		.uleb128 0x32
 9478 26c9 0A250000 		.4byte	0x250a
 9479 26cd 38000000 		.4byte	.Ldebug_ranges0+0x38
 9480 26d1 A1270000 		.4byte	0x27a1
 9481 26d5 31       		.uleb128 0x31
 9482 26d6 0B250000 		.4byte	0x250b
 9483 26da 57380000 		.4byte	.LLST15
 9484 26de 51380000 		.4byte	.LVUS15
 9485 26e2 4C       		.uleb128 0x4c
 9486 26e3 17250000 		.4byte	0x2517
 9487 26e7 56000000 		.4byte	.LBI112
 9488 26eb 0000     		.2byte	.LVU45
 9489 26ed 58000000 		.4byte	.Ldebug_ranges0+0x58
 9490 26f1 01       		.byte	0x1
 9491 26f2 87       		.byte	0x87
 9492 26f3 04       		.byte	0x4
 9493 26f4 20270000 		.4byte	0x2720
 9494 26f8 2F       		.uleb128 0x2f
 9495 26f9 3B250000 		.4byte	0x253b
 9496 26fd 91380000 		.4byte	.LLST16
 9497 2701 8D380000 		.4byte	.LVUS16
 9498 2705 2F       		.uleb128 0x2f
 9499 2706 2F250000 		.4byte	0x252f
 9500 270a B3380000 		.4byte	.LLST17
 9501 270e AF380000 		.4byte	.LVUS17
 9502 2712 2F       		.uleb128 0x2f
 9503 2713 25250000 		.4byte	0x2525
 9504 2717 D5380000 		.4byte	.LLST18
 9505 271b D1380000 		.4byte	.LVUS18
 9506 271f 00       		.byte	0
 9507 2720 54       		.uleb128 0x54
 9508 2721 17250000 		.4byte	0x2517
 9509 2725 82000000 		.4byte	.LBI117
 9510 2729 0100     		.2byte	.LVU62
 9511 272b 82000000 		.4byte	.LBB117
 9512 272f 86000000 		.4byte	.LBE117
 9513 2733 01       		.byte	0x1
 9514 2734 8D       		.byte	0x8d
 9515 2735 04       		.byte	0x4
 9516 2736 62270000 		.4byte	0x2762
 9517 273a 2F       		.uleb128 0x2f
 9518 273b 3B250000 		.4byte	0x253b
 9519 273f F9380000 		.4byte	.LLST19
ARM GAS  /var/folders/cs/83z6p2tj4w57s6p2rt8nwfp00000gn/T//ccDzWS9O.s 			page 195


 9520 2743 F7380000 		.4byte	.LVUS19
 9521 2747 2F       		.uleb128 0x2f
 9522 2748 2F250000 		.4byte	0x252f
 9523 274c 0E390000 		.4byte	.LLST20
 9524 2750 0C390000 		.4byte	.LVUS20
 9525 2754 2F       		.uleb128 0x2f
 9526 2755 25250000 		.4byte	0x2525
 9527 2759 25390000 		.4byte	.LLST21
 9528 275d 23390000 		.4byte	.LVUS21
 9529 2761 00       		.byte	0
 9530 2762 55       		.uleb128 0x55
 9531 2763 17250000 		.4byte	0x2517
 9532 2767 8C000000 		.4byte	.LBI119
 9533 276b 0100     		.2byte	.LVU72
 9534 276d 8C000000 		.4byte	.LBB119
 9535 2771 9A000000 		.4byte	.LBE119
 9536 2775 01       		.byte	0x1
 9537 2776 92       		.byte	0x92
 9538 2777 04       		.byte	0x4
 9539 2778 2F       		.uleb128 0x2f
 9540 2779 3B250000 		.4byte	0x253b
 9541 277d 3E390000 		.4byte	.LLST22
 9542 2781 3A390000 		.4byte	.LVUS22
 9543 2785 2F       		.uleb128 0x2f
 9544 2786 2F250000 		.4byte	0x252f
 9545 278a 61390000 		.4byte	.LLST23
 9546 278e 5F390000 		.4byte	.LVUS23
 9547 2792 2F       		.uleb128 0x2f
 9548 2793 25250000 		.4byte	0x2525
 9549 2797 76390000 		.4byte	.LLST24
 9550 279b 74390000 		.4byte	.LVUS24
 9551 279f 00       		.byte	0
 9552 27a0 00       		.byte	0
 9553 27a1 33       		.uleb128 0x33
 9554 27a2 F8240000 		.4byte	0x24f8
 9555 27a6 78000000 		.4byte	.Ldebug_ranges0+0x78
 9556 27aa 31       		.uleb128 0x31
 9557 27ab FD240000 		.4byte	0x24fd
 9558 27af 93390000 		.4byte	.LLST25
 9559 27b3 89390000 		.4byte	.LVUS25
 9560 27b7 4B       		.uleb128 0x4b
 9561 27b8 17250000 		.4byte	0x2517
 9562 27bc A8000000 		.4byte	.LBI123
 9563 27c0 0100     		.2byte	.LVU88
 9564 27c2 98000000 		.4byte	.Ldebug_ranges0+0x98
 9565 27c6 01       		.byte	0x1
 9566 27c7 7F       		.byte	0x7f
 9567 27c8 03       		.byte	0x3
 9568 27c9 2F       		.uleb128 0x2f
 9569 27ca 3B250000 		.4byte	0x253b
 9570 27ce D9390000 		.4byte	.LLST26
 9571 27d2 D5390000 		.4byte	.LVUS26
 9572 27d6 2F       		.uleb128 0x2f
 9573 27d7 2F250000 		.4byte	0x252f
 9574 27db FB390000 		.4byte	.LLST27
 9575 27df F7390000 		.4byte	.LVUS27
 9576 27e3 2F       		.uleb128 0x2f
ARM GAS  /var/folders/cs/83z6p2tj4w57s6p2rt8nwfp00000gn/T//ccDzWS9O.s 			page 196


 9577 27e4 25250000 		.4byte	0x2525
 9578 27e8 1D3A0000 		.4byte	.LLST28
 9579 27ec 193A0000 		.4byte	.LVUS28
 9580 27f0 00       		.byte	0
 9581 27f1 00       		.byte	0
 9582 27f2 00       		.byte	0
 9583 27f3 53       		.uleb128 0x53
 9584 27f4 EE230000 		.4byte	0x23ee
 9585 27f8 00000000 		.4byte	.LFB28
 9586 27fc DE000000 		.4byte	.LFE28
 9587 2800 3B3A0000 		.4byte	.LLST45
 9588 2804 01       		.byte	0x1
 9589 2805 72290000 		.4byte	0x2972
 9590 2809 2F       		.uleb128 0x2f
 9591 280a FC230000 		.4byte	0x23fc
 9592 280e 633A0000 		.4byte	.LLST46
 9593 2812 5B3A0000 		.4byte	.LVUS46
 9594 2816 2F       		.uleb128 0x2f
 9595 2817 08240000 		.4byte	0x2408
 9596 281b A53A0000 		.4byte	.LLST47
 9597 281f 9D3A0000 		.4byte	.LVUS47
 9598 2823 2F       		.uleb128 0x2f
 9599 2824 14240000 		.4byte	0x2414
 9600 2828 E93A0000 		.4byte	.LLST48
 9601 282c DF3A0000 		.4byte	.LVUS48
 9602 2830 2F       		.uleb128 0x2f
 9603 2831 1E240000 		.4byte	0x241e
 9604 2835 373B0000 		.4byte	.LLST49
 9605 2839 2B3B0000 		.4byte	.LVUS49
 9606 283d 2F       		.uleb128 0x2f
 9607 283e 2A240000 		.4byte	0x242a
 9608 2842 913B0000 		.4byte	.LLST50
 9609 2846 873B0000 		.4byte	.LVUS50
 9610 284a 2F       		.uleb128 0x2f
 9611 284b 34240000 		.4byte	0x2434
 9612 284f D63B0000 		.4byte	.LLST51
 9613 2853 D23B0000 		.4byte	.LVUS51
 9614 2857 2F       		.uleb128 0x2f
 9615 2858 40240000 		.4byte	0x2440
 9616 285c FA3B0000 		.4byte	.LLST52
 9617 2860 F63B0000 		.4byte	.LVUS52
 9618 2864 31       		.uleb128 0x31
 9619 2865 4C240000 		.4byte	0x244c
 9620 2869 223C0000 		.4byte	.LLST53
 9621 286d 1A3C0000 		.4byte	.LVUS53
 9622 2871 31       		.uleb128 0x31
 9623 2872 58240000 		.4byte	0x2458
 9624 2876 643C0000 		.4byte	.LLST54
 9625 287a 583C0000 		.4byte	.LVUS54
 9626 287e 32       		.uleb128 0x32
 9627 287f 62240000 		.4byte	0x2462
 9628 2883 E0000000 		.4byte	.Ldebug_ranges0+0xe0
 9629 2887 02290000 		.4byte	0x2902
 9630 288b 31       		.uleb128 0x31
 9631 288c 63240000 		.4byte	0x2463
 9632 2890 C03C0000 		.4byte	.LLST55
 9633 2894 BE3C0000 		.4byte	.LVUS55
ARM GAS  /var/folders/cs/83z6p2tj4w57s6p2rt8nwfp00000gn/T//ccDzWS9O.s 			page 197


 9634 2898 4C       		.uleb128 0x4c
 9635 2899 17250000 		.4byte	0x2517
 9636 289d 8A000000 		.4byte	.LBI145
 9637 28a1 0200     		.2byte	.LVU244
 9638 28a3 00010000 		.4byte	.Ldebug_ranges0+0x100
 9639 28a7 01       		.byte	0x1
 9640 28a8 B8       		.byte	0xb8
 9641 28a9 04       		.byte	0x4
 9642 28aa CE280000 		.4byte	0x28ce
 9643 28ae 34       		.uleb128 0x34
 9644 28af 3B250000 		.4byte	0x253b
 9645 28b3 2F       		.uleb128 0x2f
 9646 28b4 2F250000 		.4byte	0x252f
 9647 28b8 D93C0000 		.4byte	.LLST56
 9648 28bc D33C0000 		.4byte	.LVUS56
 9649 28c0 2F       		.uleb128 0x2f
 9650 28c1 25250000 		.4byte	0x2525
 9651 28c5 063D0000 		.4byte	.LLST57
 9652 28c9 023D0000 		.4byte	.LVUS57
 9653 28cd 00       		.byte	0
 9654 28ce 4B       		.uleb128 0x4b
 9655 28cf 48250000 		.4byte	0x2548
 9656 28d3 7C000000 		.4byte	.LBI151
 9657 28d7 0300     		.2byte	.LVU234
 9658 28d9 30010000 		.4byte	.Ldebug_ranges0+0x130
 9659 28dd 01       		.byte	0x1
 9660 28de B8       		.byte	0xb8
 9661 28df 04       		.byte	0x4
 9662 28e0 2F       		.uleb128 0x2f
 9663 28e1 5A250000 		.4byte	0x255a
 9664 28e5 263D0000 		.4byte	.LLST58
 9665 28e9 243D0000 		.4byte	.LVUS58
 9666 28ed 30       		.uleb128 0x30
 9667 28ee 30010000 		.4byte	.Ldebug_ranges0+0x130
 9668 28f2 31       		.uleb128 0x31
 9669 28f3 64250000 		.4byte	0x2564
 9670 28f7 3B3D0000 		.4byte	.LLST59
 9671 28fb 393D0000 		.4byte	.LVUS59
 9672 28ff 00       		.byte	0
 9673 2900 00       		.byte	0
 9674 2901 00       		.byte	0
 9675 2902 54       		.uleb128 0x54
 9676 2903 48250000 		.4byte	0x2548
 9677 2907 9E000000 		.4byte	.LBI163
 9678 290b 0100     		.2byte	.LVU258
 9679 290d 9E000000 		.4byte	.LBB163
 9680 2911 A0000000 		.4byte	.LBE163
 9681 2915 01       		.byte	0x1
 9682 2916 BE       		.byte	0xbe
 9683 2917 03       		.byte	0x3
 9684 2918 37290000 		.4byte	0x2937
 9685 291c 2F       		.uleb128 0x2f
 9686 291d 5A250000 		.4byte	0x255a
 9687 2921 503D0000 		.4byte	.LLST60
 9688 2925 4E3D0000 		.4byte	.LVUS60
 9689 2929 31       		.uleb128 0x31
 9690 292a 64250000 		.4byte	0x2564
ARM GAS  /var/folders/cs/83z6p2tj4w57s6p2rt8nwfp00000gn/T//ccDzWS9O.s 			page 198


 9691 292e 653D0000 		.4byte	.LLST61
 9692 2932 633D0000 		.4byte	.LVUS61
 9693 2936 00       		.byte	0
 9694 2937 4B       		.uleb128 0x4b
 9695 2938 17250000 		.4byte	0x2517
 9696 293c A0000000 		.4byte	.LBI165
 9697 2940 0200     		.2byte	.LVU263
 9698 2942 50010000 		.4byte	.Ldebug_ranges0+0x150
 9699 2946 01       		.byte	0x1
 9700 2947 BE       		.byte	0xbe
 9701 2948 03       		.byte	0x3
 9702 2949 2F       		.uleb128 0x2f
 9703 294a 3B250000 		.4byte	0x253b
 9704 294e 7E3D0000 		.4byte	.LLST62
 9705 2952 783D0000 		.4byte	.LVUS62
 9706 2956 2F       		.uleb128 0x2f
 9707 2957 2F250000 		.4byte	0x252f
 9708 295b AC3D0000 		.4byte	.LLST63
 9709 295f A83D0000 		.4byte	.LVUS63
 9710 2963 2F       		.uleb128 0x2f
 9711 2964 25250000 		.4byte	0x2525
 9712 2968 CE3D0000 		.4byte	.LLST64
 9713 296c CA3D0000 		.4byte	.LVUS64
 9714 2970 00       		.byte	0
 9715 2971 00       		.byte	0
 9716 2972 56       		.uleb128 0x56
 9717 2973 01       		.byte	0x1
 9718 2974 01       		.byte	0x1
 9719 2975 61030000 		.4byte	.LASF185
 9720 2979 EA040000 		.4byte	.LASF186
 9721 297d 0C       		.byte	0xc
 9722 297e 00       		.byte	0
 9723 297f 00       		.byte	0
 9724              		.section	.debug_abbrev,"",%progbits
 9725              	.Ldebug_abbrev0:
 9726 0000 01       		.uleb128 0x1
 9727 0001 11       		.uleb128 0x11
 9728 0002 01       		.byte	0x1
 9729 0003 25       		.uleb128 0x25
 9730 0004 0E       		.uleb128 0xe
 9731 0005 13       		.uleb128 0x13
 9732 0006 0B       		.uleb128 0xb
 9733 0007 03       		.uleb128 0x3
 9734 0008 0E       		.uleb128 0xe
 9735 0009 1B       		.uleb128 0x1b
 9736 000a 0E       		.uleb128 0xe
 9737 000b 55       		.uleb128 0x55
 9738 000c 06       		.uleb128 0x6
 9739 000d 11       		.uleb128 0x11
 9740 000e 01       		.uleb128 0x1
 9741 000f 52       		.uleb128 0x52
 9742 0010 01       		.uleb128 0x1
 9743 0011 10       		.uleb128 0x10
 9744 0012 06       		.uleb128 0x6
 9745 0013 00       		.byte	0
 9746 0014 00       		.byte	0
 9747 0015 02       		.uleb128 0x2
ARM GAS  /var/folders/cs/83z6p2tj4w57s6p2rt8nwfp00000gn/T//ccDzWS9O.s 			page 199


 9748 0016 24       		.uleb128 0x24
 9749 0017 00       		.byte	0
 9750 0018 0B       		.uleb128 0xb
 9751 0019 0B       		.uleb128 0xb
 9752 001a 3E       		.uleb128 0x3e
 9753 001b 0B       		.uleb128 0xb
 9754 001c 03       		.uleb128 0x3
 9755 001d 0E       		.uleb128 0xe
 9756 001e 00       		.byte	0
 9757 001f 00       		.byte	0
 9758 0020 03       		.uleb128 0x3
 9759 0021 24       		.uleb128 0x24
 9760 0022 00       		.byte	0
 9761 0023 0B       		.uleb128 0xb
 9762 0024 0B       		.uleb128 0xb
 9763 0025 3E       		.uleb128 0x3e
 9764 0026 0B       		.uleb128 0xb
 9765 0027 03       		.uleb128 0x3
 9766 0028 08       		.uleb128 0x8
 9767 0029 00       		.byte	0
 9768 002a 00       		.byte	0
 9769 002b 04       		.uleb128 0x4
 9770 002c 16       		.uleb128 0x16
 9771 002d 00       		.byte	0
 9772 002e 03       		.uleb128 0x3
 9773 002f 0E       		.uleb128 0xe
 9774 0030 3A       		.uleb128 0x3a
 9775 0031 0B       		.uleb128 0xb
 9776 0032 3B       		.uleb128 0x3b
 9777 0033 0B       		.uleb128 0xb
 9778 0034 39       		.uleb128 0x39
 9779 0035 0B       		.uleb128 0xb
 9780 0036 49       		.uleb128 0x49
 9781 0037 13       		.uleb128 0x13
 9782 0038 00       		.byte	0
 9783 0039 00       		.byte	0
 9784 003a 05       		.uleb128 0x5
 9785 003b 0F       		.uleb128 0xf
 9786 003c 00       		.byte	0
 9787 003d 0B       		.uleb128 0xb
 9788 003e 0B       		.uleb128 0xb
 9789 003f 49       		.uleb128 0x49
 9790 0040 13       		.uleb128 0x13
 9791 0041 00       		.byte	0
 9792 0042 00       		.byte	0
 9793 0043 06       		.uleb128 0x6
 9794 0044 13       		.uleb128 0x13
 9795 0045 00       		.byte	0
 9796 0046 03       		.uleb128 0x3
 9797 0047 0E       		.uleb128 0xe
 9798 0048 3C       		.uleb128 0x3c
 9799 0049 0C       		.uleb128 0xc
 9800 004a 00       		.byte	0
 9801 004b 00       		.byte	0
 9802 004c 07       		.uleb128 0x7
 9803 004d 16       		.uleb128 0x16
 9804 004e 00       		.byte	0
ARM GAS  /var/folders/cs/83z6p2tj4w57s6p2rt8nwfp00000gn/T//ccDzWS9O.s 			page 200


 9805 004f 03       		.uleb128 0x3
 9806 0050 0E       		.uleb128 0xe
 9807 0051 3A       		.uleb128 0x3a
 9808 0052 0B       		.uleb128 0xb
 9809 0053 3B       		.uleb128 0x3b
 9810 0054 05       		.uleb128 0x5
 9811 0055 39       		.uleb128 0x39
 9812 0056 0B       		.uleb128 0xb
 9813 0057 49       		.uleb128 0x49
 9814 0058 13       		.uleb128 0x13
 9815 0059 00       		.byte	0
 9816 005a 00       		.byte	0
 9817 005b 08       		.uleb128 0x8
 9818 005c 17       		.uleb128 0x17
 9819 005d 01       		.byte	0x1
 9820 005e 0B       		.uleb128 0xb
 9821 005f 0B       		.uleb128 0xb
 9822 0060 3A       		.uleb128 0x3a
 9823 0061 0B       		.uleb128 0xb
 9824 0062 3B       		.uleb128 0x3b
 9825 0063 0B       		.uleb128 0xb
 9826 0064 39       		.uleb128 0x39
 9827 0065 0B       		.uleb128 0xb
 9828 0066 01       		.uleb128 0x1
 9829 0067 13       		.uleb128 0x13
 9830 0068 00       		.byte	0
 9831 0069 00       		.byte	0
 9832 006a 09       		.uleb128 0x9
 9833 006b 0D       		.uleb128 0xd
 9834 006c 00       		.byte	0
 9835 006d 03       		.uleb128 0x3
 9836 006e 0E       		.uleb128 0xe
 9837 006f 3A       		.uleb128 0x3a
 9838 0070 0B       		.uleb128 0xb
 9839 0071 3B       		.uleb128 0x3b
 9840 0072 0B       		.uleb128 0xb
 9841 0073 39       		.uleb128 0x39
 9842 0074 0B       		.uleb128 0xb
 9843 0075 49       		.uleb128 0x49
 9844 0076 13       		.uleb128 0x13
 9845 0077 00       		.byte	0
 9846 0078 00       		.byte	0
 9847 0079 0A       		.uleb128 0xa
 9848 007a 01       		.uleb128 0x1
 9849 007b 01       		.byte	0x1
 9850 007c 49       		.uleb128 0x49
 9851 007d 13       		.uleb128 0x13
 9852 007e 01       		.uleb128 0x1
 9853 007f 13       		.uleb128 0x13
 9854 0080 00       		.byte	0
 9855 0081 00       		.byte	0
 9856 0082 0B       		.uleb128 0xb
 9857 0083 21       		.uleb128 0x21
 9858 0084 00       		.byte	0
 9859 0085 49       		.uleb128 0x49
 9860 0086 13       		.uleb128 0x13
 9861 0087 2F       		.uleb128 0x2f
ARM GAS  /var/folders/cs/83z6p2tj4w57s6p2rt8nwfp00000gn/T//ccDzWS9O.s 			page 201


 9862 0088 0B       		.uleb128 0xb
 9863 0089 00       		.byte	0
 9864 008a 00       		.byte	0
 9865 008b 0C       		.uleb128 0xc
 9866 008c 13       		.uleb128 0x13
 9867 008d 01       		.byte	0x1
 9868 008e 0B       		.uleb128 0xb
 9869 008f 0B       		.uleb128 0xb
 9870 0090 3A       		.uleb128 0x3a
 9871 0091 0B       		.uleb128 0xb
 9872 0092 3B       		.uleb128 0x3b
 9873 0093 0B       		.uleb128 0xb
 9874 0094 39       		.uleb128 0x39
 9875 0095 0B       		.uleb128 0xb
 9876 0096 01       		.uleb128 0x1
 9877 0097 13       		.uleb128 0x13
 9878 0098 00       		.byte	0
 9879 0099 00       		.byte	0
 9880 009a 0D       		.uleb128 0xd
 9881 009b 0D       		.uleb128 0xd
 9882 009c 00       		.byte	0
 9883 009d 03       		.uleb128 0x3
 9884 009e 0E       		.uleb128 0xe
 9885 009f 3A       		.uleb128 0x3a
 9886 00a0 0B       		.uleb128 0xb
 9887 00a1 3B       		.uleb128 0x3b
 9888 00a2 0B       		.uleb128 0xb
 9889 00a3 39       		.uleb128 0x39
 9890 00a4 0B       		.uleb128 0xb
 9891 00a5 49       		.uleb128 0x49
 9892 00a6 13       		.uleb128 0x13
 9893 00a7 38       		.uleb128 0x38
 9894 00a8 0A       		.uleb128 0xa
 9895 00a9 00       		.byte	0
 9896 00aa 00       		.byte	0
 9897 00ab 0E       		.uleb128 0xe
 9898 00ac 0F       		.uleb128 0xf
 9899 00ad 00       		.byte	0
 9900 00ae 0B       		.uleb128 0xb
 9901 00af 0B       		.uleb128 0xb
 9902 00b0 00       		.byte	0
 9903 00b1 00       		.byte	0
 9904 00b2 0F       		.uleb128 0xf
 9905 00b3 26       		.uleb128 0x26
 9906 00b4 00       		.byte	0
 9907 00b5 49       		.uleb128 0x49
 9908 00b6 13       		.uleb128 0x13
 9909 00b7 00       		.byte	0
 9910 00b8 00       		.byte	0
 9911 00b9 10       		.uleb128 0x10
 9912 00ba 13       		.uleb128 0x13
 9913 00bb 01       		.byte	0x1
 9914 00bc 03       		.uleb128 0x3
 9915 00bd 0E       		.uleb128 0xe
 9916 00be 0B       		.uleb128 0xb
 9917 00bf 0B       		.uleb128 0xb
 9918 00c0 3A       		.uleb128 0x3a
ARM GAS  /var/folders/cs/83z6p2tj4w57s6p2rt8nwfp00000gn/T//ccDzWS9O.s 			page 202


 9919 00c1 0B       		.uleb128 0xb
 9920 00c2 3B       		.uleb128 0x3b
 9921 00c3 0B       		.uleb128 0xb
 9922 00c4 39       		.uleb128 0x39
 9923 00c5 0B       		.uleb128 0xb
 9924 00c6 01       		.uleb128 0x1
 9925 00c7 13       		.uleb128 0x13
 9926 00c8 00       		.byte	0
 9927 00c9 00       		.byte	0
 9928 00ca 11       		.uleb128 0x11
 9929 00cb 0D       		.uleb128 0xd
 9930 00cc 00       		.byte	0
 9931 00cd 03       		.uleb128 0x3
 9932 00ce 08       		.uleb128 0x8
 9933 00cf 3A       		.uleb128 0x3a
 9934 00d0 0B       		.uleb128 0xb
 9935 00d1 3B       		.uleb128 0x3b
 9936 00d2 0B       		.uleb128 0xb
 9937 00d3 39       		.uleb128 0x39
 9938 00d4 0B       		.uleb128 0xb
 9939 00d5 49       		.uleb128 0x49
 9940 00d6 13       		.uleb128 0x13
 9941 00d7 38       		.uleb128 0x38
 9942 00d8 0A       		.uleb128 0xa
 9943 00d9 00       		.byte	0
 9944 00da 00       		.byte	0
 9945 00db 12       		.uleb128 0x12
 9946 00dc 13       		.uleb128 0x13
 9947 00dd 01       		.byte	0x1
 9948 00de 03       		.uleb128 0x3
 9949 00df 0E       		.uleb128 0xe
 9950 00e0 0B       		.uleb128 0xb
 9951 00e1 05       		.uleb128 0x5
 9952 00e2 3A       		.uleb128 0x3a
 9953 00e3 0B       		.uleb128 0xb
 9954 00e4 3B       		.uleb128 0x3b
 9955 00e5 0B       		.uleb128 0xb
 9956 00e6 39       		.uleb128 0x39
 9957 00e7 0B       		.uleb128 0xb
 9958 00e8 01       		.uleb128 0x1
 9959 00e9 13       		.uleb128 0x13
 9960 00ea 00       		.byte	0
 9961 00eb 00       		.byte	0
 9962 00ec 13       		.uleb128 0x13
 9963 00ed 15       		.uleb128 0x15
 9964 00ee 00       		.byte	0
 9965 00ef 27       		.uleb128 0x27
 9966 00f0 0C       		.uleb128 0xc
 9967 00f1 00       		.byte	0
 9968 00f2 00       		.byte	0
 9969 00f3 14       		.uleb128 0x14
 9970 00f4 15       		.uleb128 0x15
 9971 00f5 01       		.byte	0x1
 9972 00f6 27       		.uleb128 0x27
 9973 00f7 0C       		.uleb128 0xc
 9974 00f8 49       		.uleb128 0x49
 9975 00f9 13       		.uleb128 0x13
ARM GAS  /var/folders/cs/83z6p2tj4w57s6p2rt8nwfp00000gn/T//ccDzWS9O.s 			page 203


 9976 00fa 01       		.uleb128 0x1
 9977 00fb 13       		.uleb128 0x13
 9978 00fc 00       		.byte	0
 9979 00fd 00       		.byte	0
 9980 00fe 15       		.uleb128 0x15
 9981 00ff 05       		.uleb128 0x5
 9982 0100 00       		.byte	0
 9983 0101 49       		.uleb128 0x49
 9984 0102 13       		.uleb128 0x13
 9985 0103 00       		.byte	0
 9986 0104 00       		.byte	0
 9987 0105 16       		.uleb128 0x16
 9988 0106 13       		.uleb128 0x13
 9989 0107 01       		.byte	0x1
 9990 0108 03       		.uleb128 0x3
 9991 0109 0E       		.uleb128 0xe
 9992 010a 0B       		.uleb128 0xb
 9993 010b 05       		.uleb128 0x5
 9994 010c 3A       		.uleb128 0x3a
 9995 010d 0B       		.uleb128 0xb
 9996 010e 3B       		.uleb128 0x3b
 9997 010f 05       		.uleb128 0x5
 9998 0110 39       		.uleb128 0x39
 9999 0111 0B       		.uleb128 0xb
 10000 0112 01       		.uleb128 0x1
 10001 0113 13       		.uleb128 0x13
 10002 0114 00       		.byte	0
 10003 0115 00       		.byte	0
 10004 0116 17       		.uleb128 0x17
 10005 0117 0D       		.uleb128 0xd
 10006 0118 00       		.byte	0
 10007 0119 03       		.uleb128 0x3
 10008 011a 0E       		.uleb128 0xe
 10009 011b 3A       		.uleb128 0x3a
 10010 011c 0B       		.uleb128 0xb
 10011 011d 3B       		.uleb128 0x3b
 10012 011e 05       		.uleb128 0x5
 10013 011f 39       		.uleb128 0x39
 10014 0120 0B       		.uleb128 0xb
 10015 0121 49       		.uleb128 0x49
 10016 0122 13       		.uleb128 0x13
 10017 0123 38       		.uleb128 0x38
 10018 0124 0A       		.uleb128 0xa
 10019 0125 00       		.byte	0
 10020 0126 00       		.byte	0
 10021 0127 18       		.uleb128 0x18
 10022 0128 13       		.uleb128 0x13
 10023 0129 01       		.byte	0x1
 10024 012a 03       		.uleb128 0x3
 10025 012b 0E       		.uleb128 0xe
 10026 012c 0B       		.uleb128 0xb
 10027 012d 0B       		.uleb128 0xb
 10028 012e 3A       		.uleb128 0x3a
 10029 012f 0B       		.uleb128 0xb
 10030 0130 3B       		.uleb128 0x3b
 10031 0131 05       		.uleb128 0x5
 10032 0132 39       		.uleb128 0x39
ARM GAS  /var/folders/cs/83z6p2tj4w57s6p2rt8nwfp00000gn/T//ccDzWS9O.s 			page 204


 10033 0133 0B       		.uleb128 0xb
 10034 0134 01       		.uleb128 0x1
 10035 0135 13       		.uleb128 0x13
 10036 0136 00       		.byte	0
 10037 0137 00       		.byte	0
 10038 0138 19       		.uleb128 0x19
 10039 0139 13       		.uleb128 0x13
 10040 013a 01       		.byte	0x1
 10041 013b 0B       		.uleb128 0xb
 10042 013c 0B       		.uleb128 0xb
 10043 013d 3A       		.uleb128 0x3a
 10044 013e 0B       		.uleb128 0xb
 10045 013f 3B       		.uleb128 0x3b
 10046 0140 05       		.uleb128 0x5
 10047 0141 39       		.uleb128 0x39
 10048 0142 0B       		.uleb128 0xb
 10049 0143 01       		.uleb128 0x1
 10050 0144 13       		.uleb128 0x13
 10051 0145 00       		.byte	0
 10052 0146 00       		.byte	0
 10053 0147 1A       		.uleb128 0x1a
 10054 0148 17       		.uleb128 0x17
 10055 0149 01       		.byte	0x1
 10056 014a 0B       		.uleb128 0xb
 10057 014b 0B       		.uleb128 0xb
 10058 014c 3A       		.uleb128 0x3a
 10059 014d 0B       		.uleb128 0xb
 10060 014e 3B       		.uleb128 0x3b
 10061 014f 05       		.uleb128 0x5
 10062 0150 39       		.uleb128 0x39
 10063 0151 0B       		.uleb128 0xb
 10064 0152 01       		.uleb128 0x1
 10065 0153 13       		.uleb128 0x13
 10066 0154 00       		.byte	0
 10067 0155 00       		.byte	0
 10068 0156 1B       		.uleb128 0x1b
 10069 0157 0D       		.uleb128 0xd
 10070 0158 00       		.byte	0
 10071 0159 03       		.uleb128 0x3
 10072 015a 0E       		.uleb128 0xe
 10073 015b 3A       		.uleb128 0x3a
 10074 015c 0B       		.uleb128 0xb
 10075 015d 3B       		.uleb128 0x3b
 10076 015e 05       		.uleb128 0x5
 10077 015f 39       		.uleb128 0x39
 10078 0160 0B       		.uleb128 0xb
 10079 0161 49       		.uleb128 0x49
 10080 0162 13       		.uleb128 0x13
 10081 0163 00       		.byte	0
 10082 0164 00       		.byte	0
 10083 0165 1C       		.uleb128 0x1c
 10084 0166 15       		.uleb128 0x15
 10085 0167 01       		.byte	0x1
 10086 0168 27       		.uleb128 0x27
 10087 0169 0C       		.uleb128 0xc
 10088 016a 01       		.uleb128 0x1
 10089 016b 13       		.uleb128 0x13
ARM GAS  /var/folders/cs/83z6p2tj4w57s6p2rt8nwfp00000gn/T//ccDzWS9O.s 			page 205


 10090 016c 00       		.byte	0
 10091 016d 00       		.byte	0
 10092 016e 1D       		.uleb128 0x1d
 10093 016f 34       		.uleb128 0x34
 10094 0170 00       		.byte	0
 10095 0171 03       		.uleb128 0x3
 10096 0172 0E       		.uleb128 0xe
 10097 0173 3A       		.uleb128 0x3a
 10098 0174 0B       		.uleb128 0xb
 10099 0175 3B       		.uleb128 0x3b
 10100 0176 05       		.uleb128 0x5
 10101 0177 39       		.uleb128 0x39
 10102 0178 0B       		.uleb128 0xb
 10103 0179 49       		.uleb128 0x49
 10104 017a 13       		.uleb128 0x13
 10105 017b 3F       		.uleb128 0x3f
 10106 017c 0C       		.uleb128 0xc
 10107 017d 3C       		.uleb128 0x3c
 10108 017e 0C       		.uleb128 0xc
 10109 017f 00       		.byte	0
 10110 0180 00       		.byte	0
 10111 0181 1E       		.uleb128 0x1e
 10112 0182 04       		.uleb128 0x4
 10113 0183 01       		.byte	0x1
 10114 0184 03       		.uleb128 0x3
 10115 0185 0E       		.uleb128 0xe
 10116 0186 3E       		.uleb128 0x3e
 10117 0187 0B       		.uleb128 0xb
 10118 0188 0B       		.uleb128 0xb
 10119 0189 0B       		.uleb128 0xb
 10120 018a 49       		.uleb128 0x49
 10121 018b 13       		.uleb128 0x13
 10122 018c 3A       		.uleb128 0x3a
 10123 018d 0B       		.uleb128 0xb
 10124 018e 3B       		.uleb128 0x3b
 10125 018f 05       		.uleb128 0x5
 10126 0190 39       		.uleb128 0x39
 10127 0191 0B       		.uleb128 0xb
 10128 0192 01       		.uleb128 0x1
 10129 0193 13       		.uleb128 0x13
 10130 0194 00       		.byte	0
 10131 0195 00       		.byte	0
 10132 0196 1F       		.uleb128 0x1f
 10133 0197 28       		.uleb128 0x28
 10134 0198 00       		.byte	0
 10135 0199 03       		.uleb128 0x3
 10136 019a 0E       		.uleb128 0xe
 10137 019b 1C       		.uleb128 0x1c
 10138 019c 0D       		.uleb128 0xd
 10139 019d 00       		.byte	0
 10140 019e 00       		.byte	0
 10141 019f 20       		.uleb128 0x20
 10142 01a0 28       		.uleb128 0x28
 10143 01a1 00       		.byte	0
 10144 01a2 03       		.uleb128 0x3
 10145 01a3 0E       		.uleb128 0xe
 10146 01a4 1C       		.uleb128 0x1c
ARM GAS  /var/folders/cs/83z6p2tj4w57s6p2rt8nwfp00000gn/T//ccDzWS9O.s 			page 206


 10147 01a5 0B       		.uleb128 0xb
 10148 01a6 00       		.byte	0
 10149 01a7 00       		.byte	0
 10150 01a8 21       		.uleb128 0x21
 10151 01a9 0D       		.uleb128 0xd
 10152 01aa 00       		.byte	0
 10153 01ab 03       		.uleb128 0x3
 10154 01ac 0E       		.uleb128 0xe
 10155 01ad 3A       		.uleb128 0x3a
 10156 01ae 0B       		.uleb128 0xb
 10157 01af 3B       		.uleb128 0x3b
 10158 01b0 0B       		.uleb128 0xb
 10159 01b1 39       		.uleb128 0x39
 10160 01b2 0B       		.uleb128 0xb
 10161 01b3 49       		.uleb128 0x49
 10162 01b4 13       		.uleb128 0x13
 10163 01b5 0B       		.uleb128 0xb
 10164 01b6 0B       		.uleb128 0xb
 10165 01b7 0D       		.uleb128 0xd
 10166 01b8 0B       		.uleb128 0xb
 10167 01b9 0C       		.uleb128 0xc
 10168 01ba 0B       		.uleb128 0xb
 10169 01bb 38       		.uleb128 0x38
 10170 01bc 0A       		.uleb128 0xa
 10171 01bd 00       		.byte	0
 10172 01be 00       		.byte	0
 10173 01bf 22       		.uleb128 0x22
 10174 01c0 34       		.uleb128 0x34
 10175 01c1 00       		.byte	0
 10176 01c2 03       		.uleb128 0x3
 10177 01c3 0E       		.uleb128 0xe
 10178 01c4 3A       		.uleb128 0x3a
 10179 01c5 0B       		.uleb128 0xb
 10180 01c6 3B       		.uleb128 0x3b
 10181 01c7 0B       		.uleb128 0xb
 10182 01c8 39       		.uleb128 0x39
 10183 01c9 0B       		.uleb128 0xb
 10184 01ca 49       		.uleb128 0x49
 10185 01cb 13       		.uleb128 0x13
 10186 01cc 3F       		.uleb128 0x3f
 10187 01cd 0C       		.uleb128 0xc
 10188 01ce 3C       		.uleb128 0x3c
 10189 01cf 0C       		.uleb128 0xc
 10190 01d0 00       		.byte	0
 10191 01d1 00       		.byte	0
 10192 01d2 23       		.uleb128 0x23
 10193 01d3 21       		.uleb128 0x21
 10194 01d4 00       		.byte	0
 10195 01d5 49       		.uleb128 0x49
 10196 01d6 13       		.uleb128 0x13
 10197 01d7 2F       		.uleb128 0x2f
 10198 01d8 06       		.uleb128 0x6
 10199 01d9 00       		.byte	0
 10200 01da 00       		.byte	0
 10201 01db 24       		.uleb128 0x24
 10202 01dc 34       		.uleb128 0x34
 10203 01dd 00       		.byte	0
ARM GAS  /var/folders/cs/83z6p2tj4w57s6p2rt8nwfp00000gn/T//ccDzWS9O.s 			page 207


 10204 01de 03       		.uleb128 0x3
 10205 01df 0E       		.uleb128 0xe
 10206 01e0 3A       		.uleb128 0x3a
 10207 01e1 0B       		.uleb128 0xb
 10208 01e2 3B       		.uleb128 0x3b
 10209 01e3 0B       		.uleb128 0xb
 10210 01e4 39       		.uleb128 0x39
 10211 01e5 0B       		.uleb128 0xb
 10212 01e6 49       		.uleb128 0x49
 10213 01e7 13       		.uleb128 0x13
 10214 01e8 02       		.uleb128 0x2
 10215 01e9 0A       		.uleb128 0xa
 10216 01ea 00       		.byte	0
 10217 01eb 00       		.byte	0
 10218 01ec 25       		.uleb128 0x25
 10219 01ed 2E       		.uleb128 0x2e
 10220 01ee 01       		.byte	0x1
 10221 01ef 3F       		.uleb128 0x3f
 10222 01f0 0C       		.uleb128 0xc
 10223 01f1 03       		.uleb128 0x3
 10224 01f2 0E       		.uleb128 0xe
 10225 01f3 3A       		.uleb128 0x3a
 10226 01f4 0B       		.uleb128 0xb
 10227 01f5 3B       		.uleb128 0x3b
 10228 01f6 05       		.uleb128 0x5
 10229 01f7 39       		.uleb128 0x39
 10230 01f8 0B       		.uleb128 0xb
 10231 01f9 27       		.uleb128 0x27
 10232 01fa 0C       		.uleb128 0xc
 10233 01fb 49       		.uleb128 0x49
 10234 01fc 13       		.uleb128 0x13
 10235 01fd 11       		.uleb128 0x11
 10236 01fe 01       		.uleb128 0x1
 10237 01ff 12       		.uleb128 0x12
 10238 0200 01       		.uleb128 0x1
 10239 0201 40       		.uleb128 0x40
 10240 0202 06       		.uleb128 0x6
 10241 0203 9742     		.uleb128 0x2117
 10242 0205 0C       		.uleb128 0xc
 10243 0206 01       		.uleb128 0x1
 10244 0207 13       		.uleb128 0x13
 10245 0208 00       		.byte	0
 10246 0209 00       		.byte	0
 10247 020a 26       		.uleb128 0x26
 10248 020b 05       		.uleb128 0x5
 10249 020c 00       		.byte	0
 10250 020d 03       		.uleb128 0x3
 10251 020e 0E       		.uleb128 0xe
 10252 020f 3A       		.uleb128 0x3a
 10253 0210 0B       		.uleb128 0xb
 10254 0211 3B       		.uleb128 0x3b
 10255 0212 05       		.uleb128 0x5
 10256 0213 39       		.uleb128 0x39
 10257 0214 0B       		.uleb128 0xb
 10258 0215 49       		.uleb128 0x49
 10259 0216 13       		.uleb128 0x13
 10260 0217 02       		.uleb128 0x2
ARM GAS  /var/folders/cs/83z6p2tj4w57s6p2rt8nwfp00000gn/T//ccDzWS9O.s 			page 208


 10261 0218 06       		.uleb128 0x6
 10262 0219 B742     		.uleb128 0x2137
 10263 021b 06       		.uleb128 0x6
 10264 021c 00       		.byte	0
 10265 021d 00       		.byte	0
 10266 021e 27       		.uleb128 0x27
 10267 021f 05       		.uleb128 0x5
 10268 0220 00       		.byte	0
 10269 0221 03       		.uleb128 0x3
 10270 0222 08       		.uleb128 0x8
 10271 0223 3A       		.uleb128 0x3a
 10272 0224 0B       		.uleb128 0xb
 10273 0225 3B       		.uleb128 0x3b
 10274 0226 05       		.uleb128 0x5
 10275 0227 39       		.uleb128 0x39
 10276 0228 0B       		.uleb128 0xb
 10277 0229 49       		.uleb128 0x49
 10278 022a 13       		.uleb128 0x13
 10279 022b 02       		.uleb128 0x2
 10280 022c 06       		.uleb128 0x6
 10281 022d B742     		.uleb128 0x2137
 10282 022f 06       		.uleb128 0x6
 10283 0230 00       		.byte	0
 10284 0231 00       		.byte	0
 10285 0232 28       		.uleb128 0x28
 10286 0233 898201   		.uleb128 0x4109
 10287 0236 01       		.byte	0x1
 10288 0237 11       		.uleb128 0x11
 10289 0238 01       		.uleb128 0x1
 10290 0239 31       		.uleb128 0x31
 10291 023a 13       		.uleb128 0x13
 10292 023b 01       		.uleb128 0x1
 10293 023c 13       		.uleb128 0x13
 10294 023d 00       		.byte	0
 10295 023e 00       		.byte	0
 10296 023f 29       		.uleb128 0x29
 10297 0240 8A8201   		.uleb128 0x410a
 10298 0243 00       		.byte	0
 10299 0244 02       		.uleb128 0x2
 10300 0245 0A       		.uleb128 0xa
 10301 0246 9142     		.uleb128 0x2111
 10302 0248 0A       		.uleb128 0xa
 10303 0249 00       		.byte	0
 10304 024a 00       		.byte	0
 10305 024b 2A       		.uleb128 0x2a
 10306 024c 898201   		.uleb128 0x4109
 10307 024f 01       		.byte	0x1
 10308 0250 11       		.uleb128 0x11
 10309 0251 01       		.uleb128 0x1
 10310 0252 9542     		.uleb128 0x2115
 10311 0254 0C       		.uleb128 0xc
 10312 0255 31       		.uleb128 0x31
 10313 0256 13       		.uleb128 0x13
 10314 0257 00       		.byte	0
 10315 0258 00       		.byte	0
 10316 0259 2B       		.uleb128 0x2b
 10317 025a 34       		.uleb128 0x34
ARM GAS  /var/folders/cs/83z6p2tj4w57s6p2rt8nwfp00000gn/T//ccDzWS9O.s 			page 209


 10318 025b 00       		.byte	0
 10319 025c 03       		.uleb128 0x3
 10320 025d 0E       		.uleb128 0xe
 10321 025e 3A       		.uleb128 0x3a
 10322 025f 0B       		.uleb128 0xb
 10323 0260 3B       		.uleb128 0x3b
 10324 0261 05       		.uleb128 0x5
 10325 0262 39       		.uleb128 0x39
 10326 0263 0B       		.uleb128 0xb
 10327 0264 49       		.uleb128 0x49
 10328 0265 13       		.uleb128 0x13
 10329 0266 02       		.uleb128 0x2
 10330 0267 06       		.uleb128 0x6
 10331 0268 B742     		.uleb128 0x2137
 10332 026a 06       		.uleb128 0x6
 10333 026b 00       		.byte	0
 10334 026c 00       		.byte	0
 10335 026d 2C       		.uleb128 0x2c
 10336 026e 34       		.uleb128 0x34
 10337 026f 00       		.byte	0
 10338 0270 03       		.uleb128 0x3
 10339 0271 08       		.uleb128 0x8
 10340 0272 3A       		.uleb128 0x3a
 10341 0273 0B       		.uleb128 0xb
 10342 0274 3B       		.uleb128 0x3b
 10343 0275 05       		.uleb128 0x5
 10344 0276 39       		.uleb128 0x39
 10345 0277 0B       		.uleb128 0xb
 10346 0278 49       		.uleb128 0x49
 10347 0279 13       		.uleb128 0x13
 10348 027a 02       		.uleb128 0x2
 10349 027b 06       		.uleb128 0x6
 10350 027c B742     		.uleb128 0x2137
 10351 027e 06       		.uleb128 0x6
 10352 027f 00       		.byte	0
 10353 0280 00       		.byte	0
 10354 0281 2D       		.uleb128 0x2d
 10355 0282 34       		.uleb128 0x34
 10356 0283 00       		.byte	0
 10357 0284 03       		.uleb128 0x3
 10358 0285 08       		.uleb128 0x8
 10359 0286 3A       		.uleb128 0x3a
 10360 0287 0B       		.uleb128 0xb
 10361 0288 3B       		.uleb128 0x3b
 10362 0289 05       		.uleb128 0x5
 10363 028a 39       		.uleb128 0x39
 10364 028b 0B       		.uleb128 0xb
 10365 028c 49       		.uleb128 0x49
 10366 028d 13       		.uleb128 0x13
 10367 028e 02       		.uleb128 0x2
 10368 028f 0A       		.uleb128 0xa
 10369 0290 00       		.byte	0
 10370 0291 00       		.byte	0
 10371 0292 2E       		.uleb128 0x2e
 10372 0293 1D       		.uleb128 0x1d
 10373 0294 01       		.byte	0x1
 10374 0295 31       		.uleb128 0x31
ARM GAS  /var/folders/cs/83z6p2tj4w57s6p2rt8nwfp00000gn/T//ccDzWS9O.s 			page 210


 10375 0296 13       		.uleb128 0x13
 10376 0297 52       		.uleb128 0x52
 10377 0298 01       		.uleb128 0x1
 10378 0299 B842     		.uleb128 0x2138
 10379 029b 05       		.uleb128 0x5
 10380 029c 55       		.uleb128 0x55
 10381 029d 06       		.uleb128 0x6
 10382 029e 58       		.uleb128 0x58
 10383 029f 0B       		.uleb128 0xb
 10384 02a0 59       		.uleb128 0x59
 10385 02a1 05       		.uleb128 0x5
 10386 02a2 57       		.uleb128 0x57
 10387 02a3 0B       		.uleb128 0xb
 10388 02a4 01       		.uleb128 0x1
 10389 02a5 13       		.uleb128 0x13
 10390 02a6 00       		.byte	0
 10391 02a7 00       		.byte	0
 10392 02a8 2F       		.uleb128 0x2f
 10393 02a9 05       		.uleb128 0x5
 10394 02aa 00       		.byte	0
 10395 02ab 31       		.uleb128 0x31
 10396 02ac 13       		.uleb128 0x13
 10397 02ad 02       		.uleb128 0x2
 10398 02ae 06       		.uleb128 0x6
 10399 02af B742     		.uleb128 0x2137
 10400 02b1 06       		.uleb128 0x6
 10401 02b2 00       		.byte	0
 10402 02b3 00       		.byte	0
 10403 02b4 30       		.uleb128 0x30
 10404 02b5 0B       		.uleb128 0xb
 10405 02b6 01       		.byte	0x1
 10406 02b7 55       		.uleb128 0x55
 10407 02b8 06       		.uleb128 0x6
 10408 02b9 00       		.byte	0
 10409 02ba 00       		.byte	0
 10410 02bb 31       		.uleb128 0x31
 10411 02bc 34       		.uleb128 0x34
 10412 02bd 00       		.byte	0
 10413 02be 31       		.uleb128 0x31
 10414 02bf 13       		.uleb128 0x13
 10415 02c0 02       		.uleb128 0x2
 10416 02c1 06       		.uleb128 0x6
 10417 02c2 B742     		.uleb128 0x2137
 10418 02c4 06       		.uleb128 0x6
 10419 02c5 00       		.byte	0
 10420 02c6 00       		.byte	0
 10421 02c7 32       		.uleb128 0x32
 10422 02c8 0B       		.uleb128 0xb
 10423 02c9 01       		.byte	0x1
 10424 02ca 31       		.uleb128 0x31
 10425 02cb 13       		.uleb128 0x13
 10426 02cc 55       		.uleb128 0x55
 10427 02cd 06       		.uleb128 0x6
 10428 02ce 01       		.uleb128 0x1
 10429 02cf 13       		.uleb128 0x13
 10430 02d0 00       		.byte	0
 10431 02d1 00       		.byte	0
ARM GAS  /var/folders/cs/83z6p2tj4w57s6p2rt8nwfp00000gn/T//ccDzWS9O.s 			page 211


 10432 02d2 33       		.uleb128 0x33
 10433 02d3 0B       		.uleb128 0xb
 10434 02d4 01       		.byte	0x1
 10435 02d5 31       		.uleb128 0x31
 10436 02d6 13       		.uleb128 0x13
 10437 02d7 55       		.uleb128 0x55
 10438 02d8 06       		.uleb128 0x6
 10439 02d9 00       		.byte	0
 10440 02da 00       		.byte	0
 10441 02db 34       		.uleb128 0x34
 10442 02dc 05       		.uleb128 0x5
 10443 02dd 00       		.byte	0
 10444 02de 31       		.uleb128 0x31
 10445 02df 13       		.uleb128 0x13
 10446 02e0 00       		.byte	0
 10447 02e1 00       		.byte	0
 10448 02e2 35       		.uleb128 0x35
 10449 02e3 34       		.uleb128 0x34
 10450 02e4 00       		.byte	0
 10451 02e5 31       		.uleb128 0x31
 10452 02e6 13       		.uleb128 0x13
 10453 02e7 00       		.byte	0
 10454 02e8 00       		.byte	0
 10455 02e9 36       		.uleb128 0x36
 10456 02ea 1D       		.uleb128 0x1d
 10457 02eb 01       		.byte	0x1
 10458 02ec 31       		.uleb128 0x31
 10459 02ed 13       		.uleb128 0x13
 10460 02ee 52       		.uleb128 0x52
 10461 02ef 01       		.uleb128 0x1
 10462 02f0 B842     		.uleb128 0x2138
 10463 02f2 05       		.uleb128 0x5
 10464 02f3 11       		.uleb128 0x11
 10465 02f4 01       		.uleb128 0x1
 10466 02f5 12       		.uleb128 0x12
 10467 02f6 01       		.uleb128 0x1
 10468 02f7 58       		.uleb128 0x58
 10469 02f8 0B       		.uleb128 0xb
 10470 02f9 59       		.uleb128 0x59
 10471 02fa 05       		.uleb128 0x5
 10472 02fb 57       		.uleb128 0x57
 10473 02fc 0B       		.uleb128 0xb
 10474 02fd 01       		.uleb128 0x1
 10475 02fe 13       		.uleb128 0x13
 10476 02ff 00       		.byte	0
 10477 0300 00       		.byte	0
 10478 0301 37       		.uleb128 0x37
 10479 0302 898201   		.uleb128 0x4109
 10480 0305 01       		.byte	0x1
 10481 0306 11       		.uleb128 0x11
 10482 0307 01       		.uleb128 0x1
 10483 0308 31       		.uleb128 0x31
 10484 0309 13       		.uleb128 0x13
 10485 030a 00       		.byte	0
 10486 030b 00       		.byte	0
 10487 030c 38       		.uleb128 0x38
 10488 030d 0B       		.uleb128 0xb
ARM GAS  /var/folders/cs/83z6p2tj4w57s6p2rt8nwfp00000gn/T//ccDzWS9O.s 			page 212


 10489 030e 01       		.byte	0x1
 10490 030f 31       		.uleb128 0x31
 10491 0310 13       		.uleb128 0x13
 10492 0311 11       		.uleb128 0x11
 10493 0312 01       		.uleb128 0x1
 10494 0313 12       		.uleb128 0x12
 10495 0314 01       		.uleb128 0x1
 10496 0315 00       		.byte	0
 10497 0316 00       		.byte	0
 10498 0317 39       		.uleb128 0x39
 10499 0318 2E       		.uleb128 0x2e
 10500 0319 01       		.byte	0x1
 10501 031a 03       		.uleb128 0x3
 10502 031b 0E       		.uleb128 0xe
 10503 031c 3A       		.uleb128 0x3a
 10504 031d 0B       		.uleb128 0xb
 10505 031e 3B       		.uleb128 0x3b
 10506 031f 05       		.uleb128 0x5
 10507 0320 39       		.uleb128 0x39
 10508 0321 0B       		.uleb128 0xb
 10509 0322 27       		.uleb128 0x27
 10510 0323 0C       		.uleb128 0xc
 10511 0324 20       		.uleb128 0x20
 10512 0325 0B       		.uleb128 0xb
 10513 0326 01       		.uleb128 0x1
 10514 0327 13       		.uleb128 0x13
 10515 0328 00       		.byte	0
 10516 0329 00       		.byte	0
 10517 032a 3A       		.uleb128 0x3a
 10518 032b 05       		.uleb128 0x5
 10519 032c 00       		.byte	0
 10520 032d 03       		.uleb128 0x3
 10521 032e 08       		.uleb128 0x8
 10522 032f 3A       		.uleb128 0x3a
 10523 0330 0B       		.uleb128 0xb
 10524 0331 3B       		.uleb128 0x3b
 10525 0332 05       		.uleb128 0x5
 10526 0333 39       		.uleb128 0x39
 10527 0334 0B       		.uleb128 0xb
 10528 0335 49       		.uleb128 0x49
 10529 0336 13       		.uleb128 0x13
 10530 0337 00       		.byte	0
 10531 0338 00       		.byte	0
 10532 0339 3B       		.uleb128 0x3b
 10533 033a 34       		.uleb128 0x34
 10534 033b 00       		.byte	0
 10535 033c 03       		.uleb128 0x3
 10536 033d 08       		.uleb128 0x8
 10537 033e 3A       		.uleb128 0x3a
 10538 033f 0B       		.uleb128 0xb
 10539 0340 3B       		.uleb128 0x3b
 10540 0341 05       		.uleb128 0x5
 10541 0342 39       		.uleb128 0x39
 10542 0343 0B       		.uleb128 0xb
 10543 0344 49       		.uleb128 0x49
 10544 0345 13       		.uleb128 0x13
 10545 0346 00       		.byte	0
ARM GAS  /var/folders/cs/83z6p2tj4w57s6p2rt8nwfp00000gn/T//ccDzWS9O.s 			page 213


 10546 0347 00       		.byte	0
 10547 0348 3C       		.uleb128 0x3c
 10548 0349 0B       		.uleb128 0xb
 10549 034a 01       		.byte	0x1
 10550 034b 01       		.uleb128 0x1
 10551 034c 13       		.uleb128 0x13
 10552 034d 00       		.byte	0
 10553 034e 00       		.byte	0
 10554 034f 3D       		.uleb128 0x3d
 10555 0350 0B       		.uleb128 0xb
 10556 0351 01       		.byte	0x1
 10557 0352 00       		.byte	0
 10558 0353 00       		.byte	0
 10559 0354 3E       		.uleb128 0x3e
 10560 0355 2E       		.uleb128 0x2e
 10561 0356 01       		.byte	0x1
 10562 0357 03       		.uleb128 0x3
 10563 0358 0E       		.uleb128 0xe
 10564 0359 3A       		.uleb128 0x3a
 10565 035a 0B       		.uleb128 0xb
 10566 035b 3B       		.uleb128 0x3b
 10567 035c 05       		.uleb128 0x5
 10568 035d 39       		.uleb128 0x39
 10569 035e 0B       		.uleb128 0xb
 10570 035f 27       		.uleb128 0x27
 10571 0360 0C       		.uleb128 0xc
 10572 0361 11       		.uleb128 0x11
 10573 0362 01       		.uleb128 0x1
 10574 0363 12       		.uleb128 0x12
 10575 0364 01       		.uleb128 0x1
 10576 0365 40       		.uleb128 0x40
 10577 0366 06       		.uleb128 0x6
 10578 0367 9742     		.uleb128 0x2117
 10579 0369 0C       		.uleb128 0xc
 10580 036a 01       		.uleb128 0x1
 10581 036b 13       		.uleb128 0x13
 10582 036c 00       		.byte	0
 10583 036d 00       		.byte	0
 10584 036e 3F       		.uleb128 0x3f
 10585 036f 0B       		.uleb128 0xb
 10586 0370 01       		.byte	0x1
 10587 0371 11       		.uleb128 0x11
 10588 0372 01       		.uleb128 0x1
 10589 0373 12       		.uleb128 0x12
 10590 0374 01       		.uleb128 0x1
 10591 0375 01       		.uleb128 0x1
 10592 0376 13       		.uleb128 0x13
 10593 0377 00       		.byte	0
 10594 0378 00       		.byte	0
 10595 0379 40       		.uleb128 0x40
 10596 037a 0B       		.uleb128 0xb
 10597 037b 01       		.byte	0x1
 10598 037c 11       		.uleb128 0x11
 10599 037d 01       		.uleb128 0x1
 10600 037e 12       		.uleb128 0x12
 10601 037f 01       		.uleb128 0x1
 10602 0380 00       		.byte	0
ARM GAS  /var/folders/cs/83z6p2tj4w57s6p2rt8nwfp00000gn/T//ccDzWS9O.s 			page 214


 10603 0381 00       		.byte	0
 10604 0382 41       		.uleb128 0x41
 10605 0383 34       		.uleb128 0x34
 10606 0384 00       		.byte	0
 10607 0385 03       		.uleb128 0x3
 10608 0386 0E       		.uleb128 0xe
 10609 0387 3A       		.uleb128 0x3a
 10610 0388 0B       		.uleb128 0xb
 10611 0389 3B       		.uleb128 0x3b
 10612 038a 05       		.uleb128 0x5
 10613 038b 39       		.uleb128 0x39
 10614 038c 0B       		.uleb128 0xb
 10615 038d 49       		.uleb128 0x49
 10616 038e 13       		.uleb128 0x13
 10617 038f 00       		.byte	0
 10618 0390 00       		.byte	0
 10619 0391 42       		.uleb128 0x42
 10620 0392 1D       		.uleb128 0x1d
 10621 0393 01       		.byte	0x1
 10622 0394 31       		.uleb128 0x31
 10623 0395 13       		.uleb128 0x13
 10624 0396 52       		.uleb128 0x52
 10625 0397 01       		.uleb128 0x1
 10626 0398 B842     		.uleb128 0x2138
 10627 039a 05       		.uleb128 0x5
 10628 039b 55       		.uleb128 0x55
 10629 039c 06       		.uleb128 0x6
 10630 039d 58       		.uleb128 0x58
 10631 039e 0B       		.uleb128 0xb
 10632 039f 59       		.uleb128 0x59
 10633 03a0 05       		.uleb128 0x5
 10634 03a1 57       		.uleb128 0x57
 10635 03a2 0B       		.uleb128 0xb
 10636 03a3 00       		.byte	0
 10637 03a4 00       		.byte	0
 10638 03a5 43       		.uleb128 0x43
 10639 03a6 898201   		.uleb128 0x4109
 10640 03a9 00       		.byte	0
 10641 03aa 11       		.uleb128 0x11
 10642 03ab 01       		.uleb128 0x1
 10643 03ac 31       		.uleb128 0x31
 10644 03ad 13       		.uleb128 0x13
 10645 03ae 00       		.byte	0
 10646 03af 00       		.byte	0
 10647 03b0 44       		.uleb128 0x44
 10648 03b1 0B       		.uleb128 0xb
 10649 03b2 01       		.byte	0x1
 10650 03b3 55       		.uleb128 0x55
 10651 03b4 06       		.uleb128 0x6
 10652 03b5 01       		.uleb128 0x1
 10653 03b6 13       		.uleb128 0x13
 10654 03b7 00       		.byte	0
 10655 03b8 00       		.byte	0
 10656 03b9 45       		.uleb128 0x45
 10657 03ba 2E       		.uleb128 0x2e
 10658 03bb 01       		.byte	0x1
 10659 03bc 3F       		.uleb128 0x3f
ARM GAS  /var/folders/cs/83z6p2tj4w57s6p2rt8nwfp00000gn/T//ccDzWS9O.s 			page 215


 10660 03bd 0C       		.uleb128 0xc
 10661 03be 03       		.uleb128 0x3
 10662 03bf 0E       		.uleb128 0xe
 10663 03c0 3A       		.uleb128 0x3a
 10664 03c1 0B       		.uleb128 0xb
 10665 03c2 3B       		.uleb128 0x3b
 10666 03c3 0B       		.uleb128 0xb
 10667 03c4 39       		.uleb128 0x39
 10668 03c5 0B       		.uleb128 0xb
 10669 03c6 27       		.uleb128 0x27
 10670 03c7 0C       		.uleb128 0xc
 10671 03c8 49       		.uleb128 0x49
 10672 03c9 13       		.uleb128 0x13
 10673 03ca 11       		.uleb128 0x11
 10674 03cb 01       		.uleb128 0x1
 10675 03cc 12       		.uleb128 0x12
 10676 03cd 01       		.uleb128 0x1
 10677 03ce 40       		.uleb128 0x40
 10678 03cf 06       		.uleb128 0x6
 10679 03d0 9742     		.uleb128 0x2117
 10680 03d2 0C       		.uleb128 0xc
 10681 03d3 01       		.uleb128 0x1
 10682 03d4 13       		.uleb128 0x13
 10683 03d5 00       		.byte	0
 10684 03d6 00       		.byte	0
 10685 03d7 46       		.uleb128 0x46
 10686 03d8 05       		.uleb128 0x5
 10687 03d9 00       		.byte	0
 10688 03da 03       		.uleb128 0x3
 10689 03db 0E       		.uleb128 0xe
 10690 03dc 3A       		.uleb128 0x3a
 10691 03dd 0B       		.uleb128 0xb
 10692 03de 3B       		.uleb128 0x3b
 10693 03df 0B       		.uleb128 0xb
 10694 03e0 39       		.uleb128 0x39
 10695 03e1 0B       		.uleb128 0xb
 10696 03e2 49       		.uleb128 0x49
 10697 03e3 13       		.uleb128 0x13
 10698 03e4 02       		.uleb128 0x2
 10699 03e5 06       		.uleb128 0x6
 10700 03e6 B742     		.uleb128 0x2137
 10701 03e8 06       		.uleb128 0x6
 10702 03e9 00       		.byte	0
 10703 03ea 00       		.byte	0
 10704 03eb 47       		.uleb128 0x47
 10705 03ec 05       		.uleb128 0x5
 10706 03ed 00       		.byte	0
 10707 03ee 03       		.uleb128 0x3
 10708 03ef 08       		.uleb128 0x8
 10709 03f0 3A       		.uleb128 0x3a
 10710 03f1 0B       		.uleb128 0xb
 10711 03f2 3B       		.uleb128 0x3b
 10712 03f3 0B       		.uleb128 0xb
 10713 03f4 39       		.uleb128 0x39
 10714 03f5 0B       		.uleb128 0xb
 10715 03f6 49       		.uleb128 0x49
 10716 03f7 13       		.uleb128 0x13
ARM GAS  /var/folders/cs/83z6p2tj4w57s6p2rt8nwfp00000gn/T//ccDzWS9O.s 			page 216


 10717 03f8 02       		.uleb128 0x2
 10718 03f9 06       		.uleb128 0x6
 10719 03fa B742     		.uleb128 0x2137
 10720 03fc 06       		.uleb128 0x6
 10721 03fd 00       		.byte	0
 10722 03fe 00       		.byte	0
 10723 03ff 48       		.uleb128 0x48
 10724 0400 34       		.uleb128 0x34
 10725 0401 00       		.byte	0
 10726 0402 03       		.uleb128 0x3
 10727 0403 08       		.uleb128 0x8
 10728 0404 3A       		.uleb128 0x3a
 10729 0405 0B       		.uleb128 0xb
 10730 0406 3B       		.uleb128 0x3b
 10731 0407 0B       		.uleb128 0xb
 10732 0408 39       		.uleb128 0x39
 10733 0409 0B       		.uleb128 0xb
 10734 040a 49       		.uleb128 0x49
 10735 040b 13       		.uleb128 0x13
 10736 040c 02       		.uleb128 0x2
 10737 040d 06       		.uleb128 0x6
 10738 040e B742     		.uleb128 0x2137
 10739 0410 06       		.uleb128 0x6
 10740 0411 00       		.byte	0
 10741 0412 00       		.byte	0
 10742 0413 49       		.uleb128 0x49
 10743 0414 34       		.uleb128 0x34
 10744 0415 00       		.byte	0
 10745 0416 03       		.uleb128 0x3
 10746 0417 0E       		.uleb128 0xe
 10747 0418 3A       		.uleb128 0x3a
 10748 0419 0B       		.uleb128 0xb
 10749 041a 3B       		.uleb128 0x3b
 10750 041b 0B       		.uleb128 0xb
 10751 041c 39       		.uleb128 0x39
 10752 041d 0B       		.uleb128 0xb
 10753 041e 49       		.uleb128 0x49
 10754 041f 13       		.uleb128 0x13
 10755 0420 02       		.uleb128 0x2
 10756 0421 06       		.uleb128 0x6
 10757 0422 B742     		.uleb128 0x2137
 10758 0424 06       		.uleb128 0x6
 10759 0425 00       		.byte	0
 10760 0426 00       		.byte	0
 10761 0427 4A       		.uleb128 0x4a
 10762 0428 34       		.uleb128 0x34
 10763 0429 00       		.byte	0
 10764 042a 03       		.uleb128 0x3
 10765 042b 08       		.uleb128 0x8
 10766 042c 3A       		.uleb128 0x3a
 10767 042d 0B       		.uleb128 0xb
 10768 042e 3B       		.uleb128 0x3b
 10769 042f 0B       		.uleb128 0xb
 10770 0430 39       		.uleb128 0x39
 10771 0431 0B       		.uleb128 0xb
 10772 0432 49       		.uleb128 0x49
 10773 0433 13       		.uleb128 0x13
ARM GAS  /var/folders/cs/83z6p2tj4w57s6p2rt8nwfp00000gn/T//ccDzWS9O.s 			page 217


 10774 0434 00       		.byte	0
 10775 0435 00       		.byte	0
 10776 0436 4B       		.uleb128 0x4b
 10777 0437 1D       		.uleb128 0x1d
 10778 0438 01       		.byte	0x1
 10779 0439 31       		.uleb128 0x31
 10780 043a 13       		.uleb128 0x13
 10781 043b 52       		.uleb128 0x52
 10782 043c 01       		.uleb128 0x1
 10783 043d B842     		.uleb128 0x2138
 10784 043f 05       		.uleb128 0x5
 10785 0440 55       		.uleb128 0x55
 10786 0441 06       		.uleb128 0x6
 10787 0442 58       		.uleb128 0x58
 10788 0443 0B       		.uleb128 0xb
 10789 0444 59       		.uleb128 0x59
 10790 0445 0B       		.uleb128 0xb
 10791 0446 57       		.uleb128 0x57
 10792 0447 0B       		.uleb128 0xb
 10793 0448 00       		.byte	0
 10794 0449 00       		.byte	0
 10795 044a 4C       		.uleb128 0x4c
 10796 044b 1D       		.uleb128 0x1d
 10797 044c 01       		.byte	0x1
 10798 044d 31       		.uleb128 0x31
 10799 044e 13       		.uleb128 0x13
 10800 044f 52       		.uleb128 0x52
 10801 0450 01       		.uleb128 0x1
 10802 0451 B842     		.uleb128 0x2138
 10803 0453 05       		.uleb128 0x5
 10804 0454 55       		.uleb128 0x55
 10805 0455 06       		.uleb128 0x6
 10806 0456 58       		.uleb128 0x58
 10807 0457 0B       		.uleb128 0xb
 10808 0458 59       		.uleb128 0x59
 10809 0459 0B       		.uleb128 0xb
 10810 045a 57       		.uleb128 0x57
 10811 045b 0B       		.uleb128 0xb
 10812 045c 01       		.uleb128 0x1
 10813 045d 13       		.uleb128 0x13
 10814 045e 00       		.byte	0
 10815 045f 00       		.byte	0
 10816 0460 4D       		.uleb128 0x4d
 10817 0461 2E       		.uleb128 0x2e
 10818 0462 01       		.byte	0x1
 10819 0463 03       		.uleb128 0x3
 10820 0464 0E       		.uleb128 0xe
 10821 0465 3A       		.uleb128 0x3a
 10822 0466 0B       		.uleb128 0xb
 10823 0467 3B       		.uleb128 0x3b
 10824 0468 0B       		.uleb128 0xb
 10825 0469 39       		.uleb128 0x39
 10826 046a 0B       		.uleb128 0xb
 10827 046b 27       		.uleb128 0x27
 10828 046c 0C       		.uleb128 0xc
 10829 046d 49       		.uleb128 0x49
 10830 046e 13       		.uleb128 0x13
ARM GAS  /var/folders/cs/83z6p2tj4w57s6p2rt8nwfp00000gn/T//ccDzWS9O.s 			page 218


 10831 046f 20       		.uleb128 0x20
 10832 0470 0B       		.uleb128 0xb
 10833 0471 01       		.uleb128 0x1
 10834 0472 13       		.uleb128 0x13
 10835 0473 00       		.byte	0
 10836 0474 00       		.byte	0
 10837 0475 4E       		.uleb128 0x4e
 10838 0476 05       		.uleb128 0x5
 10839 0477 00       		.byte	0
 10840 0478 03       		.uleb128 0x3
 10841 0479 08       		.uleb128 0x8
 10842 047a 3A       		.uleb128 0x3a
 10843 047b 0B       		.uleb128 0xb
 10844 047c 3B       		.uleb128 0x3b
 10845 047d 0B       		.uleb128 0xb
 10846 047e 39       		.uleb128 0x39
 10847 047f 0B       		.uleb128 0xb
 10848 0480 49       		.uleb128 0x49
 10849 0481 13       		.uleb128 0x13
 10850 0482 00       		.byte	0
 10851 0483 00       		.byte	0
 10852 0484 4F       		.uleb128 0x4f
 10853 0485 2E       		.uleb128 0x2e
 10854 0486 01       		.byte	0x1
 10855 0487 03       		.uleb128 0x3
 10856 0488 0E       		.uleb128 0xe
 10857 0489 3A       		.uleb128 0x3a
 10858 048a 0B       		.uleb128 0xb
 10859 048b 3B       		.uleb128 0x3b
 10860 048c 0B       		.uleb128 0xb
 10861 048d 39       		.uleb128 0x39
 10862 048e 0B       		.uleb128 0xb
 10863 048f 27       		.uleb128 0x27
 10864 0490 0C       		.uleb128 0xc
 10865 0491 20       		.uleb128 0x20
 10866 0492 0B       		.uleb128 0xb
 10867 0493 01       		.uleb128 0x1
 10868 0494 13       		.uleb128 0x13
 10869 0495 00       		.byte	0
 10870 0496 00       		.byte	0
 10871 0497 50       		.uleb128 0x50
 10872 0498 05       		.uleb128 0x5
 10873 0499 00       		.byte	0
 10874 049a 03       		.uleb128 0x3
 10875 049b 0E       		.uleb128 0xe
 10876 049c 3A       		.uleb128 0x3a
 10877 049d 0B       		.uleb128 0xb
 10878 049e 3B       		.uleb128 0x3b
 10879 049f 0B       		.uleb128 0xb
 10880 04a0 39       		.uleb128 0x39
 10881 04a1 0B       		.uleb128 0xb
 10882 04a2 49       		.uleb128 0x49
 10883 04a3 13       		.uleb128 0x13
 10884 04a4 00       		.byte	0
 10885 04a5 00       		.byte	0
 10886 04a6 51       		.uleb128 0x51
 10887 04a7 34       		.uleb128 0x34
ARM GAS  /var/folders/cs/83z6p2tj4w57s6p2rt8nwfp00000gn/T//ccDzWS9O.s 			page 219


 10888 04a8 00       		.byte	0
 10889 04a9 03       		.uleb128 0x3
 10890 04aa 0E       		.uleb128 0xe
 10891 04ab 3A       		.uleb128 0x3a
 10892 04ac 0B       		.uleb128 0xb
 10893 04ad 3B       		.uleb128 0x3b
 10894 04ae 0B       		.uleb128 0xb
 10895 04af 39       		.uleb128 0x39
 10896 04b0 0B       		.uleb128 0xb
 10897 04b1 49       		.uleb128 0x49
 10898 04b2 13       		.uleb128 0x13
 10899 04b3 00       		.byte	0
 10900 04b4 00       		.byte	0
 10901 04b5 52       		.uleb128 0x52
 10902 04b6 2E       		.uleb128 0x2e
 10903 04b7 01       		.byte	0x1
 10904 04b8 3F       		.uleb128 0x3f
 10905 04b9 0C       		.uleb128 0xc
 10906 04ba 03       		.uleb128 0x3
 10907 04bb 0E       		.uleb128 0xe
 10908 04bc 3A       		.uleb128 0x3a
 10909 04bd 0B       		.uleb128 0xb
 10910 04be 3B       		.uleb128 0x3b
 10911 04bf 0B       		.uleb128 0xb
 10912 04c0 39       		.uleb128 0x39
 10913 04c1 0B       		.uleb128 0xb
 10914 04c2 27       		.uleb128 0x27
 10915 04c3 0C       		.uleb128 0xc
 10916 04c4 11       		.uleb128 0x11
 10917 04c5 01       		.uleb128 0x1
 10918 04c6 12       		.uleb128 0x12
 10919 04c7 01       		.uleb128 0x1
 10920 04c8 40       		.uleb128 0x40
 10921 04c9 06       		.uleb128 0x6
 10922 04ca 9742     		.uleb128 0x2117
 10923 04cc 0C       		.uleb128 0xc
 10924 04cd 01       		.uleb128 0x1
 10925 04ce 13       		.uleb128 0x13
 10926 04cf 00       		.byte	0
 10927 04d0 00       		.byte	0
 10928 04d1 53       		.uleb128 0x53
 10929 04d2 2E       		.uleb128 0x2e
 10930 04d3 01       		.byte	0x1
 10931 04d4 31       		.uleb128 0x31
 10932 04d5 13       		.uleb128 0x13
 10933 04d6 11       		.uleb128 0x11
 10934 04d7 01       		.uleb128 0x1
 10935 04d8 12       		.uleb128 0x12
 10936 04d9 01       		.uleb128 0x1
 10937 04da 40       		.uleb128 0x40
 10938 04db 06       		.uleb128 0x6
 10939 04dc 9742     		.uleb128 0x2117
 10940 04de 0C       		.uleb128 0xc
 10941 04df 01       		.uleb128 0x1
 10942 04e0 13       		.uleb128 0x13
 10943 04e1 00       		.byte	0
 10944 04e2 00       		.byte	0
ARM GAS  /var/folders/cs/83z6p2tj4w57s6p2rt8nwfp00000gn/T//ccDzWS9O.s 			page 220


 10945 04e3 54       		.uleb128 0x54
 10946 04e4 1D       		.uleb128 0x1d
 10947 04e5 01       		.byte	0x1
 10948 04e6 31       		.uleb128 0x31
 10949 04e7 13       		.uleb128 0x13
 10950 04e8 52       		.uleb128 0x52
 10951 04e9 01       		.uleb128 0x1
 10952 04ea B842     		.uleb128 0x2138
 10953 04ec 05       		.uleb128 0x5
 10954 04ed 11       		.uleb128 0x11
 10955 04ee 01       		.uleb128 0x1
 10956 04ef 12       		.uleb128 0x12
 10957 04f0 01       		.uleb128 0x1
 10958 04f1 58       		.uleb128 0x58
 10959 04f2 0B       		.uleb128 0xb
 10960 04f3 59       		.uleb128 0x59
 10961 04f4 0B       		.uleb128 0xb
 10962 04f5 57       		.uleb128 0x57
 10963 04f6 0B       		.uleb128 0xb
 10964 04f7 01       		.uleb128 0x1
 10965 04f8 13       		.uleb128 0x13
 10966 04f9 00       		.byte	0
 10967 04fa 00       		.byte	0
 10968 04fb 55       		.uleb128 0x55
 10969 04fc 1D       		.uleb128 0x1d
 10970 04fd 01       		.byte	0x1
 10971 04fe 31       		.uleb128 0x31
 10972 04ff 13       		.uleb128 0x13
 10973 0500 52       		.uleb128 0x52
 10974 0501 01       		.uleb128 0x1
 10975 0502 B842     		.uleb128 0x2138
 10976 0504 05       		.uleb128 0x5
 10977 0505 11       		.uleb128 0x11
 10978 0506 01       		.uleb128 0x1
 10979 0507 12       		.uleb128 0x12
 10980 0508 01       		.uleb128 0x1
 10981 0509 58       		.uleb128 0x58
 10982 050a 0B       		.uleb128 0xb
 10983 050b 59       		.uleb128 0x59
 10984 050c 0B       		.uleb128 0xb
 10985 050d 57       		.uleb128 0x57
 10986 050e 0B       		.uleb128 0xb
 10987 050f 00       		.byte	0
 10988 0510 00       		.byte	0
 10989 0511 56       		.uleb128 0x56
 10990 0512 2E       		.uleb128 0x2e
 10991 0513 00       		.byte	0
 10992 0514 3F       		.uleb128 0x3f
 10993 0515 0C       		.uleb128 0xc
 10994 0516 3C       		.uleb128 0x3c
 10995 0517 0C       		.uleb128 0xc
 10996 0518 8740     		.uleb128 0x2007
 10997 051a 0E       		.uleb128 0xe
 10998 051b 03       		.uleb128 0x3
 10999 051c 0E       		.uleb128 0xe
 11000 051d 3A       		.uleb128 0x3a
 11001 051e 0B       		.uleb128 0xb
ARM GAS  /var/folders/cs/83z6p2tj4w57s6p2rt8nwfp00000gn/T//ccDzWS9O.s 			page 221


 11002 051f 3B       		.uleb128 0x3b
 11003 0520 0B       		.uleb128 0xb
 11004 0521 00       		.byte	0
 11005 0522 00       		.byte	0
 11006 0523 00       		.byte	0
 11007              		.section	.debug_loc,"",%progbits
 11008              	.Ldebug_loc0:
 11009              	.LLST265:
 11010 0000 00000000 		.4byte	.LFB26
 11011 0004 04000000 		.4byte	.LCFI37
 11012 0008 0200     		.2byte	0x2
 11013 000a 7D       		.byte	0x7d
 11014 000b 00       		.sleb128 0
 11015 000c 04000000 		.4byte	.LCFI37
 11016 0010 06000000 		.4byte	.LCFI38
 11017 0014 0200     		.2byte	0x2
 11018 0016 7D       		.byte	0x7d
 11019 0017 1C       		.sleb128 28
 11020 0018 06000000 		.4byte	.LCFI38
 11021 001c 30000000 		.4byte	.LCFI39
 11022 0020 0200     		.2byte	0x2
 11023 0022 7D       		.byte	0x7d
 11024 0023 30       		.sleb128 48
 11025 0024 30000000 		.4byte	.LCFI39
 11026 0028 34000000 		.4byte	.LCFI40
 11027 002c 0200     		.2byte	0x2
 11028 002e 7D       		.byte	0x7d
 11029 002f 1C       		.sleb128 28
 11030 0030 34000000 		.4byte	.LCFI40
 11031 0034 38000000 		.4byte	.LFE26
 11032 0038 0200     		.2byte	0x2
 11033 003a 7D       		.byte	0x7d
 11034 003b 00       		.sleb128 0
 11035 003c 00000000 		.4byte	0
 11036 0040 00000000 		.4byte	0
 11037              	.LVUS266:
 11038 0044 00       		.uleb128 0
 11039 0045 00       		.uleb128 .LVU1182
 11040 0046 00       		.uleb128 .LVU1182
 11041 0047 00       		.uleb128 .LVU1186
 11042 0048 00       		.uleb128 .LVU1186
 11043 0049 00       		.uleb128 .LVU1187
 11044 004a 00       		.uleb128 .LVU1187
 11045 004b 00       		.uleb128 0
 11046              	.LLST266:
 11047 004c 00000000 		.4byte	.LVL384
 11048 0050 1D000000 		.4byte	.LVL385-1
 11049 0054 0100     		.2byte	0x1
 11050 0056 50       		.byte	0x50
 11051 0057 1D000000 		.4byte	.LVL385-1
 11052 005b 34000000 		.4byte	.LVL388
 11053 005f 0100     		.2byte	0x1
 11054 0061 54       		.byte	0x54
 11055 0062 34000000 		.4byte	.LVL388
 11056 0066 37000000 		.4byte	.LVL389-1
 11057 006a 0100     		.2byte	0x1
 11058 006c 50       		.byte	0x50
ARM GAS  /var/folders/cs/83z6p2tj4w57s6p2rt8nwfp00000gn/T//ccDzWS9O.s 			page 222


 11059 006d 37000000 		.4byte	.LVL389-1
 11060 0071 38000000 		.4byte	.LFE26
 11061 0075 0400     		.2byte	0x4
 11062 0077 F3       		.byte	0xf3
 11063 0078 01       		.uleb128 0x1
 11064 0079 50       		.byte	0x50
 11065 007a 9F       		.byte	0x9f
 11066 007b 00000000 		.4byte	0
 11067 007f 00000000 		.4byte	0
 11068              	.LVUS267:
 11069 0083 00       		.uleb128 0
 11070 0084 00       		.uleb128 .LVU1182
 11071 0085 00       		.uleb128 .LVU1182
 11072 0086 00       		.uleb128 .LVU1186
 11073 0087 00       		.uleb128 .LVU1186
 11074 0088 00       		.uleb128 .LVU1187
 11075 0089 00       		.uleb128 .LVU1187
 11076 008a 00       		.uleb128 0
 11077              	.LLST267:
 11078 008b 00000000 		.4byte	.LVL384
 11079 008f 1D000000 		.4byte	.LVL385-1
 11080 0093 0100     		.2byte	0x1
 11081 0095 51       		.byte	0x51
 11082 0096 1D000000 		.4byte	.LVL385-1
 11083 009a 34000000 		.4byte	.LVL388
 11084 009e 0100     		.2byte	0x1
 11085 00a0 55       		.byte	0x55
 11086 00a1 34000000 		.4byte	.LVL388
 11087 00a5 37000000 		.4byte	.LVL389-1
 11088 00a9 0100     		.2byte	0x1
 11089 00ab 51       		.byte	0x51
 11090 00ac 37000000 		.4byte	.LVL389-1
 11091 00b0 38000000 		.4byte	.LFE26
 11092 00b4 0400     		.2byte	0x4
 11093 00b6 F3       		.byte	0xf3
 11094 00b7 01       		.uleb128 0x1
 11095 00b8 51       		.byte	0x51
 11096 00b9 9F       		.byte	0x9f
 11097 00ba 00000000 		.4byte	0
 11098 00be 00000000 		.4byte	0
 11099              	.LVUS268:
 11100 00c2 00       		.uleb128 0
 11101 00c3 00       		.uleb128 .LVU1182
 11102 00c4 00       		.uleb128 .LVU1182
 11103 00c5 00       		.uleb128 .LVU1186
 11104 00c6 00       		.uleb128 .LVU1186
 11105 00c7 00       		.uleb128 .LVU1187
 11106 00c8 00       		.uleb128 .LVU1187
 11107 00c9 00       		.uleb128 0
 11108              	.LLST268:
 11109 00ca 00000000 		.4byte	.LVL384
 11110 00ce 1D000000 		.4byte	.LVL385-1
 11111 00d2 0100     		.2byte	0x1
 11112 00d4 52       		.byte	0x52
 11113 00d5 1D000000 		.4byte	.LVL385-1
 11114 00d9 34000000 		.4byte	.LVL388
 11115 00dd 0100     		.2byte	0x1
ARM GAS  /var/folders/cs/83z6p2tj4w57s6p2rt8nwfp00000gn/T//ccDzWS9O.s 			page 223


 11116 00df 56       		.byte	0x56
 11117 00e0 34000000 		.4byte	.LVL388
 11118 00e4 37000000 		.4byte	.LVL389-1
 11119 00e8 0100     		.2byte	0x1
 11120 00ea 52       		.byte	0x52
 11121 00eb 37000000 		.4byte	.LVL389-1
 11122 00ef 38000000 		.4byte	.LFE26
 11123 00f3 0400     		.2byte	0x4
 11124 00f5 F3       		.byte	0xf3
 11125 00f6 01       		.uleb128 0x1
 11126 00f7 52       		.byte	0x52
 11127 00f8 9F       		.byte	0x9f
 11128 00f9 00000000 		.4byte	0
 11129 00fd 00000000 		.4byte	0
 11130              	.LVUS269:
 11131 0101 00       		.uleb128 0
 11132 0102 00       		.uleb128 .LVU1182
 11133 0103 00       		.uleb128 .LVU1182
 11134 0104 00       		.uleb128 0
 11135              	.LLST269:
 11136 0105 00000000 		.4byte	.LVL384
 11137 0109 1D000000 		.4byte	.LVL385-1
 11138 010d 0100     		.2byte	0x1
 11139 010f 53       		.byte	0x53
 11140 0110 1D000000 		.4byte	.LVL385-1
 11141 0114 38000000 		.4byte	.LFE26
 11142 0118 0400     		.2byte	0x4
 11143 011a F3       		.byte	0xf3
 11144 011b 01       		.uleb128 0x1
 11145 011c 53       		.byte	0x53
 11146 011d 9F       		.byte	0x9f
 11147 011e 00000000 		.4byte	0
 11148 0122 00000000 		.4byte	0
 11149              	.LVUS270:
 11150 0126 00       		.uleb128 0
 11151 0127 00       		.uleb128 .LVU1185
 11152              	.LLST270:
 11153 0128 00000000 		.4byte	.LVL384
 11154 012c 2E000000 		.4byte	.LVL387
 11155 0130 0200     		.2byte	0x2
 11156 0132 91       		.byte	0x91
 11157 0133 00       		.sleb128 0
 11158 0134 00000000 		.4byte	0
 11159 0138 00000000 		.4byte	0
 11160              	.LVUS271:
 11161 013c 00       		.uleb128 0
 11162 013d 00       		.uleb128 .LVU1184
 11163              	.LLST271:
 11164 013e 00000000 		.4byte	.LVL384
 11165 0142 2A000000 		.4byte	.LVL386
 11166 0146 0200     		.2byte	0x2
 11167 0148 91       		.byte	0x91
 11168 0149 04       		.sleb128 4
 11169 014a 00000000 		.4byte	0
 11170 014e 00000000 		.4byte	0
 11171              	.LVUS272:
 11172 0152 00       		.uleb128 0
ARM GAS  /var/folders/cs/83z6p2tj4w57s6p2rt8nwfp00000gn/T//ccDzWS9O.s 			page 224


 11173 0153 00       		.uleb128 .LVU1186
 11174 0154 00       		.uleb128 .LVU1186
 11175 0155 00       		.uleb128 0
 11176              	.LLST272:
 11177 0156 00000000 		.4byte	.LVL384
 11178 015a 34000000 		.4byte	.LVL388
 11179 015e 0200     		.2byte	0x2
 11180 0160 91       		.byte	0x91
 11181 0161 08       		.sleb128 8
 11182 0162 34000000 		.4byte	.LVL388
 11183 0166 38000000 		.4byte	.LFE26
 11184 016a 0200     		.2byte	0x2
 11185 016c 7D       		.byte	0x7d
 11186 016d 08       		.sleb128 8
 11187 016e 00000000 		.4byte	0
 11188 0172 00000000 		.4byte	0
 11189              	.LLST257:
 11190 0176 00000000 		.4byte	.LFB25
 11191 017a 04000000 		.4byte	.LCFI33
 11192 017e 0200     		.2byte	0x2
 11193 0180 7D       		.byte	0x7d
 11194 0181 00       		.sleb128 0
 11195 0182 04000000 		.4byte	.LCFI33
 11196 0186 06000000 		.4byte	.LCFI34
 11197 018a 0200     		.2byte	0x2
 11198 018c 7D       		.byte	0x7d
 11199 018d 1C       		.sleb128 28
 11200 018e 06000000 		.4byte	.LCFI34
 11201 0192 30000000 		.4byte	.LCFI35
 11202 0196 0200     		.2byte	0x2
 11203 0198 7D       		.byte	0x7d
 11204 0199 30       		.sleb128 48
 11205 019a 30000000 		.4byte	.LCFI35
 11206 019e 34000000 		.4byte	.LCFI36
 11207 01a2 0200     		.2byte	0x2
 11208 01a4 7D       		.byte	0x7d
 11209 01a5 1C       		.sleb128 28
 11210 01a6 34000000 		.4byte	.LCFI36
 11211 01aa 38000000 		.4byte	.LFE25
 11212 01ae 0200     		.2byte	0x2
 11213 01b0 7D       		.byte	0x7d
 11214 01b1 00       		.sleb128 0
 11215 01b2 00000000 		.4byte	0
 11216 01b6 00000000 		.4byte	0
 11217              	.LVUS258:
 11218 01ba 00       		.uleb128 0
 11219 01bb 00       		.uleb128 .LVU1171
 11220 01bc 00       		.uleb128 .LVU1171
 11221 01bd 00       		.uleb128 .LVU1175
 11222 01be 00       		.uleb128 .LVU1175
 11223 01bf 00       		.uleb128 .LVU1176
 11224 01c0 00       		.uleb128 .LVU1176
 11225 01c1 00       		.uleb128 0
 11226              	.LLST258:
 11227 01c2 00000000 		.4byte	.LVL378
 11228 01c6 1D000000 		.4byte	.LVL379-1
 11229 01ca 0100     		.2byte	0x1
ARM GAS  /var/folders/cs/83z6p2tj4w57s6p2rt8nwfp00000gn/T//ccDzWS9O.s 			page 225


 11230 01cc 50       		.byte	0x50
 11231 01cd 1D000000 		.4byte	.LVL379-1
 11232 01d1 34000000 		.4byte	.LVL382
 11233 01d5 0100     		.2byte	0x1
 11234 01d7 54       		.byte	0x54
 11235 01d8 34000000 		.4byte	.LVL382
 11236 01dc 37000000 		.4byte	.LVL383-1
 11237 01e0 0100     		.2byte	0x1
 11238 01e2 50       		.byte	0x50
 11239 01e3 37000000 		.4byte	.LVL383-1
 11240 01e7 38000000 		.4byte	.LFE25
 11241 01eb 0400     		.2byte	0x4
 11242 01ed F3       		.byte	0xf3
 11243 01ee 01       		.uleb128 0x1
 11244 01ef 50       		.byte	0x50
 11245 01f0 9F       		.byte	0x9f
 11246 01f1 00000000 		.4byte	0
 11247 01f5 00000000 		.4byte	0
 11248              	.LVUS259:
 11249 01f9 00       		.uleb128 0
 11250 01fa 00       		.uleb128 .LVU1171
 11251 01fb 00       		.uleb128 .LVU1171
 11252 01fc 00       		.uleb128 .LVU1175
 11253 01fd 00       		.uleb128 .LVU1175
 11254 01fe 00       		.uleb128 .LVU1176
 11255 01ff 00       		.uleb128 .LVU1176
 11256 0200 00       		.uleb128 0
 11257              	.LLST259:
 11258 0201 00000000 		.4byte	.LVL378
 11259 0205 1D000000 		.4byte	.LVL379-1
 11260 0209 0100     		.2byte	0x1
 11261 020b 51       		.byte	0x51
 11262 020c 1D000000 		.4byte	.LVL379-1
 11263 0210 34000000 		.4byte	.LVL382
 11264 0214 0100     		.2byte	0x1
 11265 0216 55       		.byte	0x55
 11266 0217 34000000 		.4byte	.LVL382
 11267 021b 37000000 		.4byte	.LVL383-1
 11268 021f 0100     		.2byte	0x1
 11269 0221 51       		.byte	0x51
 11270 0222 37000000 		.4byte	.LVL383-1
 11271 0226 38000000 		.4byte	.LFE25
 11272 022a 0400     		.2byte	0x4
 11273 022c F3       		.byte	0xf3
 11274 022d 01       		.uleb128 0x1
 11275 022e 51       		.byte	0x51
 11276 022f 9F       		.byte	0x9f
 11277 0230 00000000 		.4byte	0
 11278 0234 00000000 		.4byte	0
 11279              	.LVUS260:
 11280 0238 00       		.uleb128 0
 11281 0239 00       		.uleb128 .LVU1171
 11282 023a 00       		.uleb128 .LVU1171
 11283 023b 00       		.uleb128 .LVU1175
 11284 023c 00       		.uleb128 .LVU1175
 11285 023d 00       		.uleb128 .LVU1176
 11286 023e 00       		.uleb128 .LVU1176
ARM GAS  /var/folders/cs/83z6p2tj4w57s6p2rt8nwfp00000gn/T//ccDzWS9O.s 			page 226


 11287 023f 00       		.uleb128 0
 11288              	.LLST260:
 11289 0240 00000000 		.4byte	.LVL378
 11290 0244 1D000000 		.4byte	.LVL379-1
 11291 0248 0100     		.2byte	0x1
 11292 024a 52       		.byte	0x52
 11293 024b 1D000000 		.4byte	.LVL379-1
 11294 024f 34000000 		.4byte	.LVL382
 11295 0253 0100     		.2byte	0x1
 11296 0255 56       		.byte	0x56
 11297 0256 34000000 		.4byte	.LVL382
 11298 025a 37000000 		.4byte	.LVL383-1
 11299 025e 0100     		.2byte	0x1
 11300 0260 52       		.byte	0x52
 11301 0261 37000000 		.4byte	.LVL383-1
 11302 0265 38000000 		.4byte	.LFE25
 11303 0269 0400     		.2byte	0x4
 11304 026b F3       		.byte	0xf3
 11305 026c 01       		.uleb128 0x1
 11306 026d 52       		.byte	0x52
 11307 026e 9F       		.byte	0x9f
 11308 026f 00000000 		.4byte	0
 11309 0273 00000000 		.4byte	0
 11310              	.LVUS261:
 11311 0277 00       		.uleb128 0
 11312 0278 00       		.uleb128 .LVU1171
 11313 0279 00       		.uleb128 .LVU1171
 11314 027a 00       		.uleb128 0
 11315              	.LLST261:
 11316 027b 00000000 		.4byte	.LVL378
 11317 027f 1D000000 		.4byte	.LVL379-1
 11318 0283 0100     		.2byte	0x1
 11319 0285 53       		.byte	0x53
 11320 0286 1D000000 		.4byte	.LVL379-1
 11321 028a 38000000 		.4byte	.LFE25
 11322 028e 0400     		.2byte	0x4
 11323 0290 F3       		.byte	0xf3
 11324 0291 01       		.uleb128 0x1
 11325 0292 53       		.byte	0x53
 11326 0293 9F       		.byte	0x9f
 11327 0294 00000000 		.4byte	0
 11328 0298 00000000 		.4byte	0
 11329              	.LVUS262:
 11330 029c 00       		.uleb128 0
 11331 029d 00       		.uleb128 .LVU1174
 11332              	.LLST262:
 11333 029e 00000000 		.4byte	.LVL378
 11334 02a2 2E000000 		.4byte	.LVL381
 11335 02a6 0200     		.2byte	0x2
 11336 02a8 91       		.byte	0x91
 11337 02a9 00       		.sleb128 0
 11338 02aa 00000000 		.4byte	0
 11339 02ae 00000000 		.4byte	0
 11340              	.LVUS263:
 11341 02b2 00       		.uleb128 0
 11342 02b3 00       		.uleb128 .LVU1173
 11343              	.LLST263:
ARM GAS  /var/folders/cs/83z6p2tj4w57s6p2rt8nwfp00000gn/T//ccDzWS9O.s 			page 227


 11344 02b4 00000000 		.4byte	.LVL378
 11345 02b8 2A000000 		.4byte	.LVL380
 11346 02bc 0200     		.2byte	0x2
 11347 02be 91       		.byte	0x91
 11348 02bf 04       		.sleb128 4
 11349 02c0 00000000 		.4byte	0
 11350 02c4 00000000 		.4byte	0
 11351              	.LVUS264:
 11352 02c8 00       		.uleb128 0
 11353 02c9 00       		.uleb128 .LVU1175
 11354 02ca 00       		.uleb128 .LVU1175
 11355 02cb 00       		.uleb128 0
 11356              	.LLST264:
 11357 02cc 00000000 		.4byte	.LVL378
 11358 02d0 34000000 		.4byte	.LVL382
 11359 02d4 0200     		.2byte	0x2
 11360 02d6 91       		.byte	0x91
 11361 02d7 08       		.sleb128 8
 11362 02d8 34000000 		.4byte	.LVL382
 11363 02dc 38000000 		.4byte	.LFE25
 11364 02e0 0200     		.2byte	0x2
 11365 02e2 7D       		.byte	0x7d
 11366 02e3 08       		.sleb128 8
 11367 02e4 00000000 		.4byte	0
 11368 02e8 00000000 		.4byte	0
 11369              	.LLST200:
 11370 02ec 00000000 		.4byte	.LFB24
 11371 02f0 10000000 		.4byte	.LCFI29
 11372 02f4 0200     		.2byte	0x2
 11373 02f6 7D       		.byte	0x7d
 11374 02f7 00       		.sleb128 0
 11375 02f8 10000000 		.4byte	.LCFI29
 11376 02fc 12000000 		.4byte	.LCFI30
 11377 0300 0200     		.2byte	0x2
 11378 0302 7D       		.byte	0x7d
 11379 0303 24       		.sleb128 36
 11380 0304 12000000 		.4byte	.LCFI30
 11381 0308 3E030000 		.4byte	.LCFI31
 11382 030c 0300     		.2byte	0x3
 11383 030e 7D       		.byte	0x7d
 11384 030f E800     		.sleb128 104
 11385 0311 3E030000 		.4byte	.LCFI31
 11386 0315 42030000 		.4byte	.LCFI32
 11387 0319 0200     		.2byte	0x2
 11388 031b 7D       		.byte	0x7d
 11389 031c 24       		.sleb128 36
 11390 031d 42030000 		.4byte	.LCFI32
 11391 0321 52040000 		.4byte	.LFE24
 11392 0325 0300     		.2byte	0x3
 11393 0327 7D       		.byte	0x7d
 11394 0328 E800     		.sleb128 104
 11395 032a 00000000 		.4byte	0
 11396 032e 00000000 		.4byte	0
 11397              	.LVUS201:
 11398 0332 00       		.uleb128 0
 11399 0333 00       		.uleb128 .LVU1007
 11400 0334 00       		.uleb128 .LVU1007
ARM GAS  /var/folders/cs/83z6p2tj4w57s6p2rt8nwfp00000gn/T//ccDzWS9O.s 			page 228


 11401 0335 00       		.uleb128 .LVU1058
 11402 0336 00       		.uleb128 .LVU1058
 11403 0337 00       		.uleb128 .LVU1087
 11404 0338 00       		.uleb128 .LVU1087
 11405 0339 00       		.uleb128 .LVU1089
 11406 033a 00       		.uleb128 .LVU1089
 11407 033b 00       		.uleb128 .LVU1137
 11408 033c 00       		.uleb128 .LVU1137
 11409 033d 00       		.uleb128 .LVU1162
 11410 033e 00       		.uleb128 .LVU1162
 11411 033f 00       		.uleb128 0
 11412              	.LLST201:
 11413 0340 00000000 		.4byte	.LVL291
 11414 0344 FB010000 		.4byte	.LVL319-1
 11415 0348 0100     		.2byte	0x1
 11416 034a 50       		.byte	0x50
 11417 034b FB010000 		.4byte	.LVL319-1
 11418 034f B0020000 		.4byte	.LVL331
 11419 0353 0200     		.2byte	0x2
 11420 0355 91       		.byte	0x91
 11421 0356 40       		.sleb128 -64
 11422 0357 B0020000 		.4byte	.LVL331
 11423 035b 2A030000 		.4byte	.LVL344
 11424 035f 0100     		.2byte	0x1
 11425 0361 50       		.byte	0x50
 11426 0362 2A030000 		.4byte	.LVL344
 11427 0366 42030000 		.4byte	.LVL345
 11428 036a 0400     		.2byte	0x4
 11429 036c F3       		.byte	0xf3
 11430 036d 01       		.uleb128 0x1
 11431 036e 50       		.byte	0x50
 11432 036f 9F       		.byte	0x9f
 11433 0370 42030000 		.4byte	.LVL345
 11434 0374 F0030000 		.4byte	.LVL365
 11435 0378 0100     		.2byte	0x1
 11436 037a 50       		.byte	0x50
 11437 037b F0030000 		.4byte	.LVL365
 11438 037f 3E040000 		.4byte	.LVL374
 11439 0383 0200     		.2byte	0x2
 11440 0385 91       		.byte	0x91
 11441 0386 40       		.sleb128 -64
 11442 0387 3E040000 		.4byte	.LVL374
 11443 038b 52040000 		.4byte	.LFE24
 11444 038f 0100     		.2byte	0x1
 11445 0391 50       		.byte	0x50
 11446 0392 00000000 		.4byte	0
 11447 0396 00000000 		.4byte	0
 11448              	.LVUS202:
 11449 039a 00       		.uleb128 0
 11450 039b 00       		.uleb128 .LVU1007
 11451 039c 00       		.uleb128 .LVU1007
 11452 039d 00       		.uleb128 .LVU1058
 11453 039e 00       		.uleb128 .LVU1058
 11454 039f 00       		.uleb128 .LVU1087
 11455 03a0 00       		.uleb128 .LVU1087
 11456 03a1 00       		.uleb128 .LVU1089
 11457 03a2 00       		.uleb128 .LVU1089
ARM GAS  /var/folders/cs/83z6p2tj4w57s6p2rt8nwfp00000gn/T//ccDzWS9O.s 			page 229


 11458 03a3 00       		.uleb128 .LVU1137
 11459 03a4 00       		.uleb128 .LVU1137
 11460 03a5 00       		.uleb128 .LVU1162
 11461 03a6 00       		.uleb128 .LVU1162
 11462 03a7 00       		.uleb128 0
 11463              	.LLST202:
 11464 03a8 00000000 		.4byte	.LVL291
 11465 03ac FB010000 		.4byte	.LVL319-1
 11466 03b0 0100     		.2byte	0x1
 11467 03b2 51       		.byte	0x51
 11468 03b3 FB010000 		.4byte	.LVL319-1
 11469 03b7 B0020000 		.4byte	.LVL331
 11470 03bb 0200     		.2byte	0x2
 11471 03bd 91       		.byte	0x91
 11472 03be 44       		.sleb128 -60
 11473 03bf B0020000 		.4byte	.LVL331
 11474 03c3 2A030000 		.4byte	.LVL344
 11475 03c7 0100     		.2byte	0x1
 11476 03c9 51       		.byte	0x51
 11477 03ca 2A030000 		.4byte	.LVL344
 11478 03ce 42030000 		.4byte	.LVL345
 11479 03d2 0400     		.2byte	0x4
 11480 03d4 F3       		.byte	0xf3
 11481 03d5 01       		.uleb128 0x1
 11482 03d6 51       		.byte	0x51
 11483 03d7 9F       		.byte	0x9f
 11484 03d8 42030000 		.4byte	.LVL345
 11485 03dc F0030000 		.4byte	.LVL365
 11486 03e0 0100     		.2byte	0x1
 11487 03e2 51       		.byte	0x51
 11488 03e3 F0030000 		.4byte	.LVL365
 11489 03e7 3E040000 		.4byte	.LVL374
 11490 03eb 0200     		.2byte	0x2
 11491 03ed 91       		.byte	0x91
 11492 03ee 44       		.sleb128 -60
 11493 03ef 3E040000 		.4byte	.LVL374
 11494 03f3 52040000 		.4byte	.LFE24
 11495 03f7 0100     		.2byte	0x1
 11496 03f9 51       		.byte	0x51
 11497 03fa 00000000 		.4byte	0
 11498 03fe 00000000 		.4byte	0
 11499              	.LVUS203:
 11500 0402 00       		.uleb128 0
 11501 0403 00       		.uleb128 .LVU892
 11502 0404 00       		.uleb128 .LVU892
 11503 0405 00       		.uleb128 .LVU1058
 11504 0406 00       		.uleb128 .LVU1058
 11505 0407 02       		.uleb128 .LVU1063
 11506 0408 02       		.uleb128 .LVU1063
 11507 0409 00       		.uleb128 .LVU1065
 11508 040a 00       		.uleb128 .LVU1065
 11509 040b 00       		.uleb128 .LVU1068
 11510 040c 00       		.uleb128 .LVU1068
 11511 040d 00       		.uleb128 .LVU1069
 11512 040e 00       		.uleb128 .LVU1069
 11513 040f 03       		.uleb128 .LVU1072
 11514 0410 03       		.uleb128 .LVU1072
ARM GAS  /var/folders/cs/83z6p2tj4w57s6p2rt8nwfp00000gn/T//ccDzWS9O.s 			page 230


 11515 0411 00       		.uleb128 .LVU1116
 11516 0412 00       		.uleb128 .LVU1116
 11517 0413 00       		.uleb128 .LVU1123
 11518 0414 00       		.uleb128 .LVU1123
 11519 0415 00       		.uleb128 .LVU1162
 11520 0416 00       		.uleb128 .LVU1162
 11521 0417 00       		.uleb128 .LVU1164
 11522 0418 00       		.uleb128 .LVU1164
 11523 0419 00       		.uleb128 0
 11524              	.LLST203:
 11525 041a 00000000 		.4byte	.LVL291
 11526 041e 4E000000 		.4byte	.LVL297
 11527 0422 0100     		.2byte	0x1
 11528 0424 52       		.byte	0x52
 11529 0425 4E000000 		.4byte	.LVL297
 11530 0429 B0020000 		.4byte	.LVL331
 11531 042d 0100     		.2byte	0x1
 11532 042f 56       		.byte	0x56
 11533 0430 B0020000 		.4byte	.LVL331
 11534 0434 C4020000 		.4byte	.LVL332
 11535 0438 0100     		.2byte	0x1
 11536 043a 52       		.byte	0x52
 11537 043b C4020000 		.4byte	.LVL332
 11538 043f CA020000 		.4byte	.LVL333
 11539 0443 0100     		.2byte	0x1
 11540 0445 53       		.byte	0x53
 11541 0446 CA020000 		.4byte	.LVL333
 11542 044a E2020000 		.4byte	.LVL336
 11543 044e 0100     		.2byte	0x1
 11544 0450 55       		.byte	0x55
 11545 0451 E2020000 		.4byte	.LVL336
 11546 0455 E4020000 		.4byte	.LVL337
 11547 0459 0100     		.2byte	0x1
 11548 045b 56       		.byte	0x56
 11549 045c E4020000 		.4byte	.LVL337
 11550 0460 E4020000 		.4byte	.LVL337
 11551 0464 0100     		.2byte	0x1
 11552 0466 52       		.byte	0x52
 11553 0467 E4020000 		.4byte	.LVL337
 11554 046b 88030000 		.4byte	.LVL352
 11555 046f 0100     		.2byte	0x1
 11556 0471 56       		.byte	0x56
 11557 0472 88030000 		.4byte	.LVL352
 11558 0476 A2030000 		.4byte	.LVL359
 11559 047a 0100     		.2byte	0x1
 11560 047c 52       		.byte	0x52
 11561 047d A2030000 		.4byte	.LVL359
 11562 0481 3E040000 		.4byte	.LVL374
 11563 0485 0100     		.2byte	0x1
 11564 0487 56       		.byte	0x56
 11565 0488 3E040000 		.4byte	.LVL374
 11566 048c 4A040000 		.4byte	.LVL376
 11567 0490 0100     		.2byte	0x1
 11568 0492 55       		.byte	0x55
 11569 0493 4A040000 		.4byte	.LVL376
 11570 0497 52040000 		.4byte	.LFE24
 11571 049b 0100     		.2byte	0x1
ARM GAS  /var/folders/cs/83z6p2tj4w57s6p2rt8nwfp00000gn/T//ccDzWS9O.s 			page 231


 11572 049d 56       		.byte	0x56
 11573 049e 00000000 		.4byte	0
 11574 04a2 00000000 		.4byte	0
 11575              	.LVUS204:
 11576 04a6 00       		.uleb128 0
 11577 04a7 00       		.uleb128 .LVU890
 11578 04a8 00       		.uleb128 .LVU890
 11579 04a9 00       		.uleb128 .LVU892
 11580 04aa 00       		.uleb128 .LVU892
 11581 04ab 00       		.uleb128 .LVU1044
 11582 04ac 00       		.uleb128 .LVU1058
 11583 04ad 00       		.uleb128 .LVU1065
 11584 04ae 00       		.uleb128 .LVU1065
 11585 04af 00       		.uleb128 .LVU1068
 11586 04b0 00       		.uleb128 .LVU1068
 11587 04b1 00       		.uleb128 .LVU1069
 11588 04b2 00       		.uleb128 .LVU1069
 11589 04b3 00       		.uleb128 .LVU1074
 11590 04b4 00       		.uleb128 .LVU1074
 11591 04b5 00       		.uleb128 .LVU1076
 11592 04b6 00       		.uleb128 .LVU1076
 11593 04b7 00       		.uleb128 .LVU1087
 11594 04b8 00       		.uleb128 .LVU1089
 11595 04b9 00       		.uleb128 .LVU1116
 11596 04ba 00       		.uleb128 .LVU1116
 11597 04bb 00       		.uleb128 .LVU1117
 11598 04bc 00       		.uleb128 .LVU1117
 11599 04bd 00       		.uleb128 .LVU1122
 11600 04be 00       		.uleb128 .LVU1122
 11601 04bf 00       		.uleb128 .LVU1153
 11602 04c0 00       		.uleb128 .LVU1155
 11603 04c1 00       		.uleb128 .LVU1157
 11604 04c2 00       		.uleb128 .LVU1162
 11605 04c3 00       		.uleb128 .LVU1164
 11606 04c4 00       		.uleb128 .LVU1164
 11607 04c5 00       		.uleb128 0
 11608              	.LLST204:
 11609 04c6 00000000 		.4byte	.LVL291
 11610 04ca 42000000 		.4byte	.LVL295
 11611 04ce 0100     		.2byte	0x1
 11612 04d0 53       		.byte	0x53
 11613 04d1 42000000 		.4byte	.LVL295
 11614 04d5 4E000000 		.4byte	.LVL297
 11615 04d9 0100     		.2byte	0x1
 11616 04db 55       		.byte	0x55
 11617 04dc 4E000000 		.4byte	.LVL297
 11618 04e0 58020000 		.4byte	.LVL329
 11619 04e4 0100     		.2byte	0x1
 11620 04e6 54       		.byte	0x54
 11621 04e7 B0020000 		.4byte	.LVL331
 11622 04eb CA020000 		.4byte	.LVL333
 11623 04ef 0100     		.2byte	0x1
 11624 04f1 53       		.byte	0x53
 11625 04f2 CA020000 		.4byte	.LVL333
 11626 04f6 E2020000 		.4byte	.LVL336
 11627 04fa 0100     		.2byte	0x1
 11628 04fc 55       		.byte	0x55
ARM GAS  /var/folders/cs/83z6p2tj4w57s6p2rt8nwfp00000gn/T//ccDzWS9O.s 			page 232


 11629 04fd E2020000 		.4byte	.LVL336
 11630 0501 E4020000 		.4byte	.LVL337
 11631 0505 0100     		.2byte	0x1
 11632 0507 56       		.byte	0x56
 11633 0508 E4020000 		.4byte	.LVL337
 11634 050c F6020000 		.4byte	.LVL338
 11635 0510 0100     		.2byte	0x1
 11636 0512 53       		.byte	0x53
 11637 0513 F6020000 		.4byte	.LVL338
 11638 0517 FE020000 		.4byte	.LVL340
 11639 051b 0100     		.2byte	0x1
 11640 051d 55       		.byte	0x55
 11641 051e FE020000 		.4byte	.LVL340
 11642 0522 2A030000 		.4byte	.LVL344
 11643 0526 0100     		.2byte	0x1
 11644 0528 54       		.byte	0x54
 11645 0529 42030000 		.4byte	.LVL345
 11646 052d 88030000 		.4byte	.LVL352
 11647 0531 0100     		.2byte	0x1
 11648 0533 54       		.byte	0x54
 11649 0534 88030000 		.4byte	.LVL352
 11650 0538 8E030000 		.4byte	.LVL353
 11651 053c 0100     		.2byte	0x1
 11652 053e 53       		.byte	0x53
 11653 053f 8E030000 		.4byte	.LVL353
 11654 0543 A0030000 		.4byte	.LVL358
 11655 0547 0100     		.2byte	0x1
 11656 0549 55       		.byte	0x55
 11657 054a A0030000 		.4byte	.LVL358
 11658 054e 02040000 		.4byte	.LVL370
 11659 0552 0100     		.2byte	0x1
 11660 0554 54       		.byte	0x54
 11661 0555 06040000 		.4byte	.LVL371
 11662 0559 0A040000 		.4byte	.LVL372
 11663 055d 0100     		.2byte	0x1
 11664 055f 54       		.byte	0x54
 11665 0560 3E040000 		.4byte	.LVL374
 11666 0564 4A040000 		.4byte	.LVL376
 11667 0568 0100     		.2byte	0x1
 11668 056a 55       		.byte	0x55
 11669 056b 4A040000 		.4byte	.LVL376
 11670 056f 52040000 		.4byte	.LFE24
 11671 0573 0100     		.2byte	0x1
 11672 0575 56       		.byte	0x56
 11673 0576 00000000 		.4byte	0
 11674 057a 00000000 		.4byte	0
 11675              	.LVUS205:
 11676 057e 00       		.uleb128 0
 11677 057f 00       		.uleb128 .LVU892
 11678 0580 00       		.uleb128 .LVU892
 11679 0581 00       		.uleb128 .LVU1058
 11680 0582 00       		.uleb128 .LVU1058
 11681 0583 00       		.uleb128 .LVU1076
 11682 0584 00       		.uleb128 .LVU1076
 11683 0585 00       		.uleb128 .LVU1080
 11684 0586 00       		.uleb128 .LVU1080
 11685 0587 00       		.uleb128 .LVU1116
ARM GAS  /var/folders/cs/83z6p2tj4w57s6p2rt8nwfp00000gn/T//ccDzWS9O.s 			page 233


 11686 0588 00       		.uleb128 .LVU1116
 11687 0589 00       		.uleb128 .LVU1123
 11688 058a 00       		.uleb128 .LVU1123
 11689 058b 00       		.uleb128 .LVU1162
 11690 058c 00       		.uleb128 .LVU1162
 11691 058d 00       		.uleb128 0
 11692              	.LLST205:
 11693 058e 00000000 		.4byte	.LVL291
 11694 0592 4E000000 		.4byte	.LVL297
 11695 0596 0200     		.2byte	0x2
 11696 0598 91       		.byte	0x91
 11697 0599 00       		.sleb128 0
 11698 059a 4E000000 		.4byte	.LVL297
 11699 059e B0020000 		.4byte	.LVL331
 11700 05a2 0100     		.2byte	0x1
 11701 05a4 55       		.byte	0x55
 11702 05a5 B0020000 		.4byte	.LVL331
 11703 05a9 FE020000 		.4byte	.LVL340
 11704 05ad 0200     		.2byte	0x2
 11705 05af 91       		.byte	0x91
 11706 05b0 00       		.sleb128 0
 11707 05b1 FE020000 		.4byte	.LVL340
 11708 05b5 12030000 		.4byte	.LVL341
 11709 05b9 0100     		.2byte	0x1
 11710 05bb 52       		.byte	0x52
 11711 05bc 12030000 		.4byte	.LVL341
 11712 05c0 88030000 		.4byte	.LVL352
 11713 05c4 0100     		.2byte	0x1
 11714 05c6 55       		.byte	0x55
 11715 05c7 88030000 		.4byte	.LVL352
 11716 05cb A2030000 		.4byte	.LVL359
 11717 05cf 0200     		.2byte	0x2
 11718 05d1 91       		.byte	0x91
 11719 05d2 00       		.sleb128 0
 11720 05d3 A2030000 		.4byte	.LVL359
 11721 05d7 3E040000 		.4byte	.LVL374
 11722 05db 0100     		.2byte	0x1
 11723 05dd 55       		.byte	0x55
 11724 05de 3E040000 		.4byte	.LVL374
 11725 05e2 52040000 		.4byte	.LFE24
 11726 05e6 0200     		.2byte	0x2
 11727 05e8 91       		.byte	0x91
 11728 05e9 00       		.sleb128 0
 11729 05ea 00000000 		.4byte	0
 11730 05ee 00000000 		.4byte	0
 11731              	.LVUS206:
 11732 05f2 00       		.uleb128 0
 11733 05f3 00       		.uleb128 .LVU1089
 11734 05f4 00       		.uleb128 .LVU1089
 11735 05f5 00       		.uleb128 0
 11736              	.LLST206:
 11737 05f6 00000000 		.4byte	.LVL291
 11738 05fa 42030000 		.4byte	.LVL345
 11739 05fe 0200     		.2byte	0x2
 11740 0600 91       		.byte	0x91
 11741 0601 04       		.sleb128 4
 11742 0602 42030000 		.4byte	.LVL345
ARM GAS  /var/folders/cs/83z6p2tj4w57s6p2rt8nwfp00000gn/T//ccDzWS9O.s 			page 234


 11743 0606 52040000 		.4byte	.LFE24
 11744 060a 0200     		.2byte	0x2
 11745 060c 91       		.byte	0x91
 11746 060d 04       		.sleb128 4
 11747 060e 00000000 		.4byte	0
 11748 0612 00000000 		.4byte	0
 11749              	.LVUS207:
 11750 0616 00       		.uleb128 .LVU896
 11751 0617 00       		.uleb128 .LVU1058
 11752 0618 00       		.uleb128 .LVU1082
 11753 0619 00       		.uleb128 .LVU1116
 11754 061a 00       		.uleb128 .LVU1123
 11755 061b 00       		.uleb128 .LVU1162
 11756              	.LLST207:
 11757 061c 66000000 		.4byte	.LVL298
 11758 0620 B0020000 		.4byte	.LVL331
 11759 0624 0100     		.2byte	0x1
 11760 0626 5A       		.byte	0x5a
 11761 0627 1A030000 		.4byte	.LVL342
 11762 062b 88030000 		.4byte	.LVL352
 11763 062f 0100     		.2byte	0x1
 11764 0631 5A       		.byte	0x5a
 11765 0632 A2030000 		.4byte	.LVL359
 11766 0636 3E040000 		.4byte	.LVL374
 11767 063a 0100     		.2byte	0x1
 11768 063c 5A       		.byte	0x5a
 11769 063d 00000000 		.4byte	0
 11770 0641 00000000 		.4byte	0
 11771              	.LVUS208:
 11772 0645 01       		.uleb128 .LVU897
 11773 0646 00       		.uleb128 .LVU899
 11774 0647 01       		.uleb128 .LVU1083
 11775 0648 00       		.uleb128 .LVU1085
 11776              	.LLST208:
 11777 0649 66000000 		.4byte	.LVL298
 11778 064d 76000000 		.4byte	.LVL299
 11779 0651 2C00     		.2byte	0x2c
 11780 0653 75       		.byte	0x75
 11781 0654 00       		.sleb128 0
 11782 0655 F6       		.byte	0xf6
 11783 0656 04       		.byte	0x4
 11784 0657 29       		.uleb128 0x29
 11785 0658 76       		.byte	0x76
 11786 0659 00       		.sleb128 0
 11787 065a F6       		.byte	0xf6
 11788 065b 04       		.byte	0x4
 11789 065c 29       		.uleb128 0x29
 11790 065d 1C       		.byte	0x1c
 11791 065e F5       		.byte	0xf5
 11792 065f 4E       		.uleb128 0x4e
 11793 0660 29       		.uleb128 0x29
 11794 0661 F5       		.byte	0xf5
 11795 0662 4D       		.uleb128 0x4d
 11796 0663 29       		.uleb128 0x29
 11797 0664 1C       		.byte	0x1c
 11798 0665 1E       		.byte	0x1e
 11799 0666 74       		.byte	0x74
ARM GAS  /var/folders/cs/83z6p2tj4w57s6p2rt8nwfp00000gn/T//ccDzWS9O.s 			page 235


 11800 0667 00       		.sleb128 0
 11801 0668 F6       		.byte	0xf6
 11802 0669 04       		.byte	0x4
 11803 066a 29       		.uleb128 0x29
 11804 066b 76       		.byte	0x76
 11805 066c 00       		.sleb128 0
 11806 066d F6       		.byte	0xf6
 11807 066e 04       		.byte	0x4
 11808 066f 29       		.uleb128 0x29
 11809 0670 1C       		.byte	0x1c
 11810 0671 F5       		.byte	0xf5
 11811 0672 4F       		.uleb128 0x4f
 11812 0673 29       		.uleb128 0x29
 11813 0674 F5       		.byte	0xf5
 11814 0675 4D       		.uleb128 0x4d
 11815 0676 29       		.uleb128 0x29
 11816 0677 1C       		.byte	0x1c
 11817 0678 1E       		.byte	0x1e
 11818 0679 1C       		.byte	0x1c
 11819 067a F7       		.byte	0xf7
 11820 067b 30       		.uleb128 0x30
 11821 067c F7       		.byte	0xf7
 11822 067d 00       		.uleb128 0
 11823 067e 9F       		.byte	0x9f
 11824 067f 1A030000 		.4byte	.LVL342
 11825 0683 26030000 		.4byte	.LVL343
 11826 0687 2C00     		.2byte	0x2c
 11827 0689 75       		.byte	0x75
 11828 068a 00       		.sleb128 0
 11829 068b F6       		.byte	0xf6
 11830 068c 04       		.byte	0x4
 11831 068d 29       		.uleb128 0x29
 11832 068e 76       		.byte	0x76
 11833 068f 00       		.sleb128 0
 11834 0690 F6       		.byte	0xf6
 11835 0691 04       		.byte	0x4
 11836 0692 29       		.uleb128 0x29
 11837 0693 1C       		.byte	0x1c
 11838 0694 F5       		.byte	0xf5
 11839 0695 4E       		.uleb128 0x4e
 11840 0696 29       		.uleb128 0x29
 11841 0697 F5       		.byte	0xf5
 11842 0698 4D       		.uleb128 0x4d
 11843 0699 29       		.uleb128 0x29
 11844 069a 1C       		.byte	0x1c
 11845 069b 1E       		.byte	0x1e
 11846 069c 74       		.byte	0x74
 11847 069d 00       		.sleb128 0
 11848 069e F6       		.byte	0xf6
 11849 069f 04       		.byte	0x4
 11850 06a0 29       		.uleb128 0x29
 11851 06a1 76       		.byte	0x76
 11852 06a2 00       		.sleb128 0
 11853 06a3 F6       		.byte	0xf6
 11854 06a4 04       		.byte	0x4
 11855 06a5 29       		.uleb128 0x29
 11856 06a6 1C       		.byte	0x1c
ARM GAS  /var/folders/cs/83z6p2tj4w57s6p2rt8nwfp00000gn/T//ccDzWS9O.s 			page 236


 11857 06a7 F5       		.byte	0xf5
 11858 06a8 4F       		.uleb128 0x4f
 11859 06a9 29       		.uleb128 0x29
 11860 06aa F5       		.byte	0xf5
 11861 06ab 4D       		.uleb128 0x4d
 11862 06ac 29       		.uleb128 0x29
 11863 06ad 1C       		.byte	0x1c
 11864 06ae 1E       		.byte	0x1e
 11865 06af 1C       		.byte	0x1c
 11866 06b0 F7       		.byte	0xf7
 11867 06b1 30       		.uleb128 0x30
 11868 06b2 F7       		.byte	0xf7
 11869 06b3 00       		.uleb128 0
 11870 06b4 9F       		.byte	0x9f
 11871 06b5 00000000 		.4byte	0
 11872 06b9 00000000 		.4byte	0
 11873              	.LVUS209:
 11874 06bd 00       		.uleb128 .LVU924
 11875 06be 00       		.uleb128 .LVU1058
 11876 06bf 00       		.uleb128 .LVU1089
 11877 06c0 00       		.uleb128 .LVU1116
 11878 06c1 00       		.uleb128 .LVU1123
 11879 06c2 00       		.uleb128 .LVU1134
 11880 06c3 00       		.uleb128 .LVU1137
 11881 06c4 00       		.uleb128 .LVU1162
 11882              	.LLST209:
 11883 06c5 E4000000 		.4byte	.LVL301
 11884 06c9 B0020000 		.4byte	.LVL331
 11885 06cd 0100     		.2byte	0x1
 11886 06cf 58       		.byte	0x58
 11887 06d0 42030000 		.4byte	.LVL345
 11888 06d4 88030000 		.4byte	.LVL352
 11889 06d8 0100     		.2byte	0x1
 11890 06da 58       		.byte	0x58
 11891 06db A2030000 		.4byte	.LVL359
 11892 06df D0030000 		.4byte	.LVL364
 11893 06e3 0100     		.2byte	0x1
 11894 06e5 58       		.byte	0x58
 11895 06e6 F0030000 		.4byte	.LVL365
 11896 06ea 3E040000 		.4byte	.LVL374
 11897 06ee 0100     		.2byte	0x1
 11898 06f0 58       		.byte	0x58
 11899 06f1 00000000 		.4byte	0
 11900 06f5 00000000 		.4byte	0
 11901              	.LVUS210:
 11902 06f9 00       		.uleb128 .LVU934
 11903 06fa 00       		.uleb128 .LVU1058
 11904 06fb 00       		.uleb128 .LVU1089
 11905 06fc 00       		.uleb128 .LVU1116
 11906 06fd 00       		.uleb128 .LVU1123
 11907 06fe 00       		.uleb128 .LVU1132
 11908 06ff 00       		.uleb128 .LVU1137
 11909 0700 00       		.uleb128 .LVU1162
 11910              	.LLST210:
 11911 0701 04010000 		.4byte	.LVL302
 11912 0705 B0020000 		.4byte	.LVL331
 11913 0709 0100     		.2byte	0x1
ARM GAS  /var/folders/cs/83z6p2tj4w57s6p2rt8nwfp00000gn/T//ccDzWS9O.s 			page 237


 11914 070b 59       		.byte	0x59
 11915 070c 42030000 		.4byte	.LVL345
 11916 0710 88030000 		.4byte	.LVL352
 11917 0714 0100     		.2byte	0x1
 11918 0716 59       		.byte	0x59
 11919 0717 A2030000 		.4byte	.LVL359
 11920 071b C2030000 		.4byte	.LVL363
 11921 071f 0100     		.2byte	0x1
 11922 0721 59       		.byte	0x59
 11923 0722 F0030000 		.4byte	.LVL365
 11924 0726 3E040000 		.4byte	.LVL374
 11925 072a 0100     		.2byte	0x1
 11926 072c 59       		.byte	0x59
 11927 072d 00000000 		.4byte	0
 11928 0731 00000000 		.4byte	0
 11929              	.LVUS211:
 11930 0735 00       		.uleb128 .LVU944
 11931 0736 00       		.uleb128 .LVU947
 11932 0737 00       		.uleb128 .LVU947
 11933 0738 00       		.uleb128 .LVU1058
 11934 0739 00       		.uleb128 .LVU1089
 11935 073a 00       		.uleb128 .LVU1116
 11936 073b 00       		.uleb128 .LVU1123
 11937 073c 00       		.uleb128 .LVU1132
 11938 073d 00       		.uleb128 .LVU1137
 11939 073e 00       		.uleb128 .LVU1162
 11940              	.LLST211:
 11941 073f 20010000 		.4byte	.LVL303
 11942 0743 24010000 		.4byte	.LVL304
 11943 0747 0100     		.2byte	0x1
 11944 0749 53       		.byte	0x53
 11945 074a 24010000 		.4byte	.LVL304
 11946 074e B0020000 		.4byte	.LVL331
 11947 0752 0300     		.2byte	0x3
 11948 0754 91       		.byte	0x91
 11949 0755 BC7F     		.sleb128 -68
 11950 0757 42030000 		.4byte	.LVL345
 11951 075b 88030000 		.4byte	.LVL352
 11952 075f 0300     		.2byte	0x3
 11953 0761 91       		.byte	0x91
 11954 0762 BC7F     		.sleb128 -68
 11955 0764 A2030000 		.4byte	.LVL359
 11956 0768 C2030000 		.4byte	.LVL363
 11957 076c 0300     		.2byte	0x3
 11958 076e 91       		.byte	0x91
 11959 076f BC7F     		.sleb128 -68
 11960 0771 F0030000 		.4byte	.LVL365
 11961 0775 3E040000 		.4byte	.LVL374
 11962 0779 0300     		.2byte	0x3
 11963 077b 91       		.byte	0x91
 11964 077c BC7F     		.sleb128 -68
 11965 077e 00000000 		.4byte	0
 11966 0782 00000000 		.4byte	0
 11967              	.LVUS212:
 11968 0786 00       		.uleb128 .LVU948
 11969 0787 00       		.uleb128 .LVU1058
 11970 0788 00       		.uleb128 .LVU1089
ARM GAS  /var/folders/cs/83z6p2tj4w57s6p2rt8nwfp00000gn/T//ccDzWS9O.s 			page 238


 11971 0789 00       		.uleb128 .LVU1116
 11972 078a 00       		.uleb128 .LVU1123
 11973 078b 00       		.uleb128 .LVU1132
 11974 078c 00       		.uleb128 .LVU1137
 11975 078d 00       		.uleb128 .LVU1162
 11976              	.LLST212:
 11977 078e 28010000 		.4byte	.LVL305
 11978 0792 B0020000 		.4byte	.LVL331
 11979 0796 0100     		.2byte	0x1
 11980 0798 5B       		.byte	0x5b
 11981 0799 42030000 		.4byte	.LVL345
 11982 079d 88030000 		.4byte	.LVL352
 11983 07a1 0100     		.2byte	0x1
 11984 07a3 5B       		.byte	0x5b
 11985 07a4 A2030000 		.4byte	.LVL359
 11986 07a8 C2030000 		.4byte	.LVL363
 11987 07ac 0100     		.2byte	0x1
 11988 07ae 5B       		.byte	0x5b
 11989 07af F0030000 		.4byte	.LVL365
 11990 07b3 3E040000 		.4byte	.LVL374
 11991 07b7 0100     		.2byte	0x1
 11992 07b9 5B       		.byte	0x5b
 11993 07ba 00000000 		.4byte	0
 11994 07be 00000000 		.4byte	0
 11995              	.LVUS213:
 11996 07c2 00       		.uleb128 .LVU956
 11997 07c3 00       		.uleb128 .LVU999
 11998 07c4 00       		.uleb128 .LVU999
 11999 07c5 00       		.uleb128 .LVU1006
 12000 07c6 00       		.uleb128 .LVU1089
 12001 07c7 00       		.uleb128 .LVU1116
 12002 07c8 00       		.uleb128 .LVU1123
 12003 07c9 00       		.uleb128 .LVU1130
 12004 07ca 00       		.uleb128 .LVU1130
 12005 07cb 00       		.uleb128 .LVU1132
 12006              	.LLST213:
 12007 07cc 42010000 		.4byte	.LVL306
 12008 07d0 B0010000 		.4byte	.LVL317
 12009 07d4 0200     		.2byte	0x2
 12010 07d6 90       		.byte	0x90
 12011 07d7 4C       		.uleb128 0x4c
 12012 07d8 B0010000 		.4byte	.LVL317
 12013 07dc DA010000 		.4byte	.LVL318
 12014 07e0 1700     		.2byte	0x17
 12015 07e2 03       		.byte	0x3
 12016 07e3 00000000 		.4byte	zscale
 12017 07e7 F6       		.byte	0xf6
 12018 07e8 04       		.byte	0x4
 12019 07e9 29       		.uleb128 0x29
 12020 07ea 76       		.byte	0x76
 12021 07eb 08       		.sleb128 8
 12022 07ec F6       		.byte	0xf6
 12023 07ed 04       		.byte	0x4
 12024 07ee 29       		.uleb128 0x29
 12025 07ef F4       		.byte	0xf4
 12026 07f0 29       		.uleb128 0x29
 12027 07f1 04       		.byte	0x4
ARM GAS  /var/folders/cs/83z6p2tj4w57s6p2rt8nwfp00000gn/T//ccDzWS9O.s 			page 239


 12028 07f2 00000000 		.4byte	0
 12029 07f6 22       		.byte	0x22
 12030 07f7 1B       		.byte	0x1b
 12031 07f8 9F       		.byte	0x9f
 12032 07f9 42030000 		.4byte	.LVL345
 12033 07fd 88030000 		.4byte	.LVL352
 12034 0801 0200     		.2byte	0x2
 12035 0803 90       		.byte	0x90
 12036 0804 4C       		.uleb128 0x4c
 12037 0805 A2030000 		.4byte	.LVL359
 12038 0809 BE030000 		.4byte	.LVL362
 12039 080d 0200     		.2byte	0x2
 12040 080f 90       		.byte	0x90
 12041 0810 4C       		.uleb128 0x4c
 12042 0811 BE030000 		.4byte	.LVL362
 12043 0815 C2030000 		.4byte	.LVL363
 12044 0819 1700     		.2byte	0x17
 12045 081b 03       		.byte	0x3
 12046 081c 00000000 		.4byte	zscale
 12047 0820 F6       		.byte	0xf6
 12048 0821 04       		.byte	0x4
 12049 0822 29       		.uleb128 0x29
 12050 0823 76       		.byte	0x76
 12051 0824 08       		.sleb128 8
 12052 0825 F6       		.byte	0xf6
 12053 0826 04       		.byte	0x4
 12054 0827 29       		.uleb128 0x29
 12055 0828 F4       		.byte	0xf4
 12056 0829 29       		.uleb128 0x29
 12057 082a 04       		.byte	0x4
 12058 082b 00000000 		.4byte	0
 12059 082f 22       		.byte	0x22
 12060 0830 1B       		.byte	0x1b
 12061 0831 9F       		.byte	0x9f
 12062 0832 00000000 		.4byte	0
 12063 0836 00000000 		.4byte	0
 12064              	.LVUS214:
 12065 083a 00       		.uleb128 .LVU959
 12066 083b 00       		.uleb128 .LVU1058
 12067 083c 00       		.uleb128 .LVU1089
 12068 083d 00       		.uleb128 .LVU1116
 12069 083e 00       		.uleb128 .LVU1123
 12070 083f 00       		.uleb128 .LVU1132
 12071 0840 00       		.uleb128 .LVU1137
 12072 0841 00       		.uleb128 .LVU1162
 12073              	.LLST214:
 12074 0842 4A010000 		.4byte	.LVL307
 12075 0846 B0020000 		.4byte	.LVL331
 12076 084a 0200     		.2byte	0x2
 12077 084c 90       		.byte	0x90
 12078 084d 44       		.uleb128 0x44
 12079 084e 42030000 		.4byte	.LVL345
 12080 0852 88030000 		.4byte	.LVL352
 12081 0856 0200     		.2byte	0x2
 12082 0858 90       		.byte	0x90
 12083 0859 44       		.uleb128 0x44
 12084 085a A2030000 		.4byte	.LVL359
ARM GAS  /var/folders/cs/83z6p2tj4w57s6p2rt8nwfp00000gn/T//ccDzWS9O.s 			page 240


 12085 085e C2030000 		.4byte	.LVL363
 12086 0862 0200     		.2byte	0x2
 12087 0864 90       		.byte	0x90
 12088 0865 44       		.uleb128 0x44
 12089 0866 F0030000 		.4byte	.LVL365
 12090 086a 3E040000 		.4byte	.LVL374
 12091 086e 0200     		.2byte	0x2
 12092 0870 90       		.byte	0x90
 12093 0871 44       		.uleb128 0x44
 12094 0872 00000000 		.4byte	0
 12095 0876 00000000 		.4byte	0
 12096              	.LVUS215:
 12097 087a 01       		.uleb128 .LVU960
 12098 087b 00       		.uleb128 .LVU1037
 12099 087c 00       		.uleb128 .LVU1089
 12100 087d 00       		.uleb128 .LVU1116
 12101 087e 00       		.uleb128 .LVU1123
 12102 087f 00       		.uleb128 .LVU1132
 12103 0880 00       		.uleb128 .LVU1137
 12104 0881 00       		.uleb128 .LVU1151
 12105 0882 00       		.uleb128 .LVU1155
 12106 0883 00       		.uleb128 .LVU1162
 12107              	.LLST215:
 12108 0884 4A010000 		.4byte	.LVL307
 12109 0888 42020000 		.4byte	.LVL327
 12110 088c 0200     		.2byte	0x2
 12111 088e 90       		.byte	0x90
 12112 088f 48       		.uleb128 0x48
 12113 0890 42030000 		.4byte	.LVL345
 12114 0894 88030000 		.4byte	.LVL352
 12115 0898 0200     		.2byte	0x2
 12116 089a 90       		.byte	0x90
 12117 089b 48       		.uleb128 0x48
 12118 089c A2030000 		.4byte	.LVL359
 12119 08a0 C2030000 		.4byte	.LVL363
 12120 08a4 0200     		.2byte	0x2
 12121 08a6 90       		.byte	0x90
 12122 08a7 48       		.uleb128 0x48
 12123 08a8 F0030000 		.4byte	.LVL365
 12124 08ac FC030000 		.4byte	.LVL368
 12125 08b0 0200     		.2byte	0x2
 12126 08b2 90       		.byte	0x90
 12127 08b3 48       		.uleb128 0x48
 12128 08b4 06040000 		.4byte	.LVL371
 12129 08b8 3E040000 		.4byte	.LVL374
 12130 08bc 0200     		.2byte	0x2
 12131 08be 90       		.byte	0x90
 12132 08bf 48       		.uleb128 0x48
 12133 08c0 00000000 		.4byte	0
 12134 08c4 00000000 		.4byte	0
 12135              	.LVUS216:
 12136 08c8 00       		.uleb128 .LVU962
 12137 08c9 00       		.uleb128 .LVU974
 12138 08ca 00       		.uleb128 .LVU974
 12139 08cb 00       		.uleb128 .LVU975
 12140 08cc 00       		.uleb128 .LVU975
 12141 08cd 00       		.uleb128 .LVU995
ARM GAS  /var/folders/cs/83z6p2tj4w57s6p2rt8nwfp00000gn/T//ccDzWS9O.s 			page 241


 12142 08ce 00       		.uleb128 .LVU1089
 12143 08cf 00       		.uleb128 .LVU1093
 12144 08d0 00       		.uleb128 .LVU1093
 12145 08d1 00       		.uleb128 .LVU1094
 12146 08d2 00       		.uleb128 .LVU1126
 12147 08d3 00       		.uleb128 .LVU1130
 12148              	.LLST216:
 12149 08d4 4E010000 		.4byte	.LVL308
 12150 08d8 66010000 		.4byte	.LVL311
 12151 08dc 0200     		.2byte	0x2
 12152 08de 90       		.byte	0x90
 12153 08df 4B       		.uleb128 0x4b
 12154 08e0 66010000 		.4byte	.LVL311
 12155 08e4 6A010000 		.4byte	.LVL312
 12156 08e8 1A00     		.2byte	0x1a
 12157 08ea 75       		.byte	0x75
 12158 08eb 00       		.sleb128 0
 12159 08ec F6       		.byte	0xf6
 12160 08ed 04       		.byte	0x4
 12161 08ee 29       		.uleb128 0x29
 12162 08ef 76       		.byte	0x76
 12163 08f0 00       		.sleb128 0
 12164 08f1 F6       		.byte	0xf6
 12165 08f2 04       		.byte	0x4
 12166 08f3 29       		.uleb128 0x29
 12167 08f4 1C       		.byte	0x1c
 12168 08f5 F5       		.byte	0xf5
 12169 08f6 49       		.uleb128 0x49
 12170 08f7 29       		.uleb128 0x29
 12171 08f8 1E       		.byte	0x1e
 12172 08f9 F5       		.byte	0xf5
 12173 08fa 4F       		.uleb128 0x4f
 12174 08fb 29       		.uleb128 0x29
 12175 08fc 1B       		.byte	0x1b
 12176 08fd 76       		.byte	0x76
 12177 08fe 00       		.sleb128 0
 12178 08ff F6       		.byte	0xf6
 12179 0900 04       		.byte	0x4
 12180 0901 29       		.uleb128 0x29
 12181 0902 22       		.byte	0x22
 12182 0903 9F       		.byte	0x9f
 12183 0904 6A010000 		.4byte	.LVL312
 12184 0908 A4010000 		.4byte	.LVL316
 12185 090c 1E00     		.2byte	0x1e
 12186 090e 75       		.byte	0x75
 12187 090f 00       		.sleb128 0
 12188 0910 F6       		.byte	0xf6
 12189 0911 04       		.byte	0x4
 12190 0912 29       		.uleb128 0x29
 12191 0913 76       		.byte	0x76
 12192 0914 00       		.sleb128 0
 12193 0915 F6       		.byte	0xf6
 12194 0916 04       		.byte	0x4
 12195 0917 29       		.uleb128 0x29
 12196 0918 1C       		.byte	0x1c
 12197 0919 F5       		.byte	0xf5
 12198 091a 4E       		.uleb128 0x4e
ARM GAS  /var/folders/cs/83z6p2tj4w57s6p2rt8nwfp00000gn/T//ccDzWS9O.s 			page 242


 12199 091b 29       		.uleb128 0x29
 12200 091c F5       		.byte	0xf5
 12201 091d 4D       		.uleb128 0x4d
 12202 091e 29       		.uleb128 0x29
 12203 091f 1C       		.byte	0x1c
 12204 0920 1E       		.byte	0x1e
 12205 0921 F5       		.byte	0xf5
 12206 0922 4F       		.uleb128 0x4f
 12207 0923 29       		.uleb128 0x29
 12208 0924 1B       		.byte	0x1b
 12209 0925 76       		.byte	0x76
 12210 0926 00       		.sleb128 0
 12211 0927 F6       		.byte	0xf6
 12212 0928 04       		.byte	0x4
 12213 0929 29       		.uleb128 0x29
 12214 092a 22       		.byte	0x22
 12215 092b 9F       		.byte	0x9f
 12216 092c 42030000 		.4byte	.LVL345
 12217 0930 46030000 		.4byte	.LVL346
 12218 0934 0200     		.2byte	0x2
 12219 0936 90       		.byte	0x90
 12220 0937 4B       		.uleb128 0x4b
 12221 0938 46030000 		.4byte	.LVL346
 12222 093c 4A030000 		.4byte	.LVL347
 12223 0940 1A00     		.2byte	0x1a
 12224 0942 75       		.byte	0x75
 12225 0943 00       		.sleb128 0
 12226 0944 F6       		.byte	0xf6
 12227 0945 04       		.byte	0x4
 12228 0946 29       		.uleb128 0x29
 12229 0947 76       		.byte	0x76
 12230 0948 00       		.sleb128 0
 12231 0949 F6       		.byte	0xf6
 12232 094a 04       		.byte	0x4
 12233 094b 29       		.uleb128 0x29
 12234 094c 1C       		.byte	0x1c
 12235 094d F5       		.byte	0xf5
 12236 094e 49       		.uleb128 0x49
 12237 094f 29       		.uleb128 0x29
 12238 0950 1E       		.byte	0x1e
 12239 0951 F5       		.byte	0xf5
 12240 0952 4F       		.uleb128 0x4f
 12241 0953 29       		.uleb128 0x29
 12242 0954 1B       		.byte	0x1b
 12243 0955 76       		.byte	0x76
 12244 0956 00       		.sleb128 0
 12245 0957 F6       		.byte	0xf6
 12246 0958 04       		.byte	0x4
 12247 0959 29       		.uleb128 0x29
 12248 095a 22       		.byte	0x22
 12249 095b 9F       		.byte	0x9f
 12250 095c B0030000 		.4byte	.LVL360
 12251 0960 BE030000 		.4byte	.LVL362
 12252 0964 1E00     		.2byte	0x1e
 12253 0966 75       		.byte	0x75
 12254 0967 00       		.sleb128 0
 12255 0968 F6       		.byte	0xf6
ARM GAS  /var/folders/cs/83z6p2tj4w57s6p2rt8nwfp00000gn/T//ccDzWS9O.s 			page 243


 12256 0969 04       		.byte	0x4
 12257 096a 29       		.uleb128 0x29
 12258 096b 76       		.byte	0x76
 12259 096c 00       		.sleb128 0
 12260 096d F6       		.byte	0xf6
 12261 096e 04       		.byte	0x4
 12262 096f 29       		.uleb128 0x29
 12263 0970 1C       		.byte	0x1c
 12264 0971 F5       		.byte	0xf5
 12265 0972 4E       		.uleb128 0x4e
 12266 0973 29       		.uleb128 0x29
 12267 0974 F5       		.byte	0xf5
 12268 0975 4D       		.uleb128 0x4d
 12269 0976 29       		.uleb128 0x29
 12270 0977 1C       		.byte	0x1c
 12271 0978 1E       		.byte	0x1e
 12272 0979 F5       		.byte	0xf5
 12273 097a 4F       		.uleb128 0x4f
 12274 097b 29       		.uleb128 0x29
 12275 097c 1B       		.byte	0x1b
 12276 097d 76       		.byte	0x76
 12277 097e 00       		.sleb128 0
 12278 097f F6       		.byte	0xf6
 12279 0980 04       		.byte	0x4
 12280 0981 29       		.uleb128 0x29
 12281 0982 22       		.byte	0x22
 12282 0983 9F       		.byte	0x9f
 12283 0984 00000000 		.4byte	0
 12284 0988 00000000 		.4byte	0
 12285              	.LVUS217:
 12286 098c 00       		.uleb128 .LVU967
 12287 098d 00       		.uleb128 .LVU976
 12288 098e 00       		.uleb128 .LVU976
 12289 098f 00       		.uleb128 .LVU995
 12290 0990 00       		.uleb128 .LVU1089
 12291 0991 00       		.uleb128 .LVU1095
 12292 0992 00       		.uleb128 .LVU1126
 12293 0993 00       		.uleb128 .LVU1130
 12294              	.LLST217:
 12295 0994 5E010000 		.4byte	.LVL309
 12296 0998 6E010000 		.4byte	.LVL313
 12297 099c 0200     		.2byte	0x2
 12298 099e 90       		.byte	0x90
 12299 099f 4A       		.uleb128 0x4a
 12300 09a0 6E010000 		.4byte	.LVL313
 12301 09a4 A4010000 		.4byte	.LVL316
 12302 09a8 0C00     		.2byte	0xc
 12303 09aa F5       		.byte	0xf5
 12304 09ab 46       		.uleb128 0x46
 12305 09ac 29       		.uleb128 0x29
 12306 09ad F5       		.byte	0xf5
 12307 09ae 4F       		.uleb128 0x4f
 12308 09af 29       		.uleb128 0x29
 12309 09b0 1B       		.byte	0x1b
 12310 09b1 F5       		.byte	0xf5
 12311 09b2 4C       		.uleb128 0x4c
 12312 09b3 29       		.uleb128 0x29
ARM GAS  /var/folders/cs/83z6p2tj4w57s6p2rt8nwfp00000gn/T//ccDzWS9O.s 			page 244


 12313 09b4 22       		.byte	0x22
 12314 09b5 9F       		.byte	0x9f
 12315 09b6 42030000 		.4byte	.LVL345
 12316 09ba 4E030000 		.4byte	.LVL348
 12317 09be 0200     		.2byte	0x2
 12318 09c0 90       		.byte	0x90
 12319 09c1 4A       		.uleb128 0x4a
 12320 09c2 B0030000 		.4byte	.LVL360
 12321 09c6 BE030000 		.4byte	.LVL362
 12322 09ca 0C00     		.2byte	0xc
 12323 09cc F5       		.byte	0xf5
 12324 09cd 46       		.uleb128 0x46
 12325 09ce 29       		.uleb128 0x29
 12326 09cf F5       		.byte	0xf5
 12327 09d0 4F       		.uleb128 0x4f
 12328 09d1 29       		.uleb128 0x29
 12329 09d2 1B       		.byte	0x1b
 12330 09d3 F5       		.byte	0xf5
 12331 09d4 4C       		.uleb128 0x4c
 12332 09d5 29       		.uleb128 0x29
 12333 09d6 22       		.byte	0x22
 12334 09d7 9F       		.byte	0x9f
 12335 09d8 00000000 		.4byte	0
 12336 09dc 00000000 		.4byte	0
 12337              	.LVUS218:
 12338 09e0 00       		.uleb128 .LVU983
 12339 09e1 00       		.uleb128 .LVU1058
 12340 09e2 00       		.uleb128 .LVU1102
 12341 09e3 00       		.uleb128 .LVU1116
 12342 09e4 00       		.uleb128 .LVU1130
 12343 09e5 00       		.uleb128 .LVU1132
 12344 09e6 00       		.uleb128 .LVU1137
 12345 09e7 00       		.uleb128 .LVU1162
 12346              	.LLST218:
 12347 09e8 8A010000 		.4byte	.LVL315
 12348 09ec B0020000 		.4byte	.LVL331
 12349 09f0 0300     		.2byte	0x3
 12350 09f2 91       		.byte	0x91
 12351 09f3 B87F     		.sleb128 -72
 12352 09f5 68030000 		.4byte	.LVL350
 12353 09f9 88030000 		.4byte	.LVL352
 12354 09fd 0300     		.2byte	0x3
 12355 09ff 91       		.byte	0x91
 12356 0a00 B87F     		.sleb128 -72
 12357 0a02 BE030000 		.4byte	.LVL362
 12358 0a06 C2030000 		.4byte	.LVL363
 12359 0a0a 0300     		.2byte	0x3
 12360 0a0c 91       		.byte	0x91
 12361 0a0d B87F     		.sleb128 -72
 12362 0a0f F0030000 		.4byte	.LVL365
 12363 0a13 3E040000 		.4byte	.LVL374
 12364 0a17 0300     		.2byte	0x3
 12365 0a19 91       		.byte	0x91
 12366 0a1a B87F     		.sleb128 -72
 12367 0a1c 00000000 		.4byte	0
 12368 0a20 00000000 		.4byte	0
 12369              	.LVUS219:
ARM GAS  /var/folders/cs/83z6p2tj4w57s6p2rt8nwfp00000gn/T//ccDzWS9O.s 			page 245


 12370 0a24 00       		.uleb128 .LVU995
 12371 0a25 00       		.uleb128 .LVU1038
 12372 0a26 00       		.uleb128 .LVU1038
 12373 0a27 00       		.uleb128 .LVU1053
 12374 0a28 00       		.uleb128 .LVU1130
 12375 0a29 00       		.uleb128 .LVU1132
 12376 0a2a 00       		.uleb128 .LVU1137
 12377 0a2b 00       		.uleb128 .LVU1153
 12378 0a2c 00       		.uleb128 .LVU1155
 12379 0a2d 00       		.uleb128 .LVU1162
 12380              	.LLST219:
 12381 0a2e A4010000 		.4byte	.LVL316
 12382 0a32 46020000 		.4byte	.LVL328
 12383 0a36 0200     		.2byte	0x2
 12384 0a38 90       		.byte	0x90
 12385 0a39 4B       		.uleb128 0x4b
 12386 0a3a 46020000 		.4byte	.LVL328
 12387 0a3e 8C020000 		.4byte	.LVL330
 12388 0a42 0200     		.2byte	0x2
 12389 0a44 90       		.byte	0x90
 12390 0a45 48       		.uleb128 0x48
 12391 0a46 BE030000 		.4byte	.LVL362
 12392 0a4a C2030000 		.4byte	.LVL363
 12393 0a4e 0200     		.2byte	0x2
 12394 0a50 90       		.byte	0x90
 12395 0a51 4B       		.uleb128 0x4b
 12396 0a52 F0030000 		.4byte	.LVL365
 12397 0a56 02040000 		.4byte	.LVL370
 12398 0a5a 0200     		.2byte	0x2
 12399 0a5c 90       		.byte	0x90
 12400 0a5d 4B       		.uleb128 0x4b
 12401 0a5e 06040000 		.4byte	.LVL371
 12402 0a62 3E040000 		.4byte	.LVL374
 12403 0a66 0200     		.2byte	0x2
 12404 0a68 90       		.byte	0x90
 12405 0a69 4B       		.uleb128 0x4b
 12406 0a6a 00000000 		.4byte	0
 12407 0a6e 00000000 		.4byte	0
 12408              	.LVUS220:
 12409 0a72 00       		.uleb128 .LVU1026
 12410 0a73 00       		.uleb128 .LVU1058
 12411 0a74 00       		.uleb128 .LVU1141
 12412 0a75 00       		.uleb128 .LVU1162
 12413              	.LLST220:
 12414 0a76 36020000 		.4byte	.LVL324
 12415 0a7a B0020000 		.4byte	.LVL331
 12416 0a7e 0200     		.2byte	0x2
 12417 0a80 90       		.byte	0x90
 12418 0a81 4D       		.uleb128 0x4d
 12419 0a82 F6030000 		.4byte	.LVL366
 12420 0a86 3E040000 		.4byte	.LVL374
 12421 0a8a 0200     		.2byte	0x2
 12422 0a8c 90       		.byte	0x90
 12423 0a8d 4D       		.uleb128 0x4d
 12424 0a8e 00000000 		.4byte	0
 12425 0a92 00000000 		.4byte	0
 12426              	.LVUS221:
ARM GAS  /var/folders/cs/83z6p2tj4w57s6p2rt8nwfp00000gn/T//ccDzWS9O.s 			page 246


 12427 0a96 02       		.uleb128 .LVU876
 12428 0a97 00       		.uleb128 .LVU892
 12429 0a98 00       		.uleb128 .LVU1058
 12430 0a99 00       		.uleb128 .LVU1076
 12431 0a9a 00       		.uleb128 .LVU1116
 12432 0a9b 00       		.uleb128 .LVU1123
 12433 0a9c 00       		.uleb128 .LVU1162
 12434 0a9d 00       		.uleb128 0
 12435              	.LLST221:
 12436 0a9e 00000000 		.4byte	.LVL291
 12437 0aa2 4E000000 		.4byte	.LVL297
 12438 0aa6 0600     		.2byte	0x6
 12439 0aa8 F2       		.byte	0xf2
 12440 0aa9 C30E0000 		.4byte	.Ldebug_info0+3779
 12441 0aad 00       		.sleb128 0
 12442 0aae B0020000 		.4byte	.LVL331
 12443 0ab2 FE020000 		.4byte	.LVL340
 12444 0ab6 0600     		.2byte	0x6
 12445 0ab8 F2       		.byte	0xf2
 12446 0ab9 C30E0000 		.4byte	.Ldebug_info0+3779
 12447 0abd 00       		.sleb128 0
 12448 0abe 88030000 		.4byte	.LVL352
 12449 0ac2 A2030000 		.4byte	.LVL359
 12450 0ac6 0600     		.2byte	0x6
 12451 0ac8 F2       		.byte	0xf2
 12452 0ac9 C30E0000 		.4byte	.Ldebug_info0+3779
 12453 0acd 00       		.sleb128 0
 12454 0ace 3E040000 		.4byte	.LVL374
 12455 0ad2 52040000 		.4byte	.LFE24
 12456 0ad6 0600     		.2byte	0x6
 12457 0ad8 F2       		.byte	0xf2
 12458 0ad9 C30E0000 		.4byte	.Ldebug_info0+3779
 12459 0add 00       		.sleb128 0
 12460 0ade 00000000 		.4byte	0
 12461 0ae2 00000000 		.4byte	0
 12462              	.LVUS222:
 12463 0ae6 02       		.uleb128 .LVU876
 12464 0ae7 00       		.uleb128 .LVU892
 12465 0ae8 00       		.uleb128 .LVU1058
 12466 0ae9 00       		.uleb128 .LVU1076
 12467 0aea 00       		.uleb128 .LVU1116
 12468 0aeb 00       		.uleb128 .LVU1123
 12469 0aec 00       		.uleb128 .LVU1162
 12470 0aed 00       		.uleb128 0
 12471              	.LLST222:
 12472 0aee 00000000 		.4byte	.LVL291
 12473 0af2 4E000000 		.4byte	.LVL297
 12474 0af6 0600     		.2byte	0x6
 12475 0af8 F2       		.byte	0xf2
 12476 0af9 AF0E0000 		.4byte	.Ldebug_info0+3759
 12477 0afd 00       		.sleb128 0
 12478 0afe B0020000 		.4byte	.LVL331
 12479 0b02 FE020000 		.4byte	.LVL340
 12480 0b06 0600     		.2byte	0x6
 12481 0b08 F2       		.byte	0xf2
 12482 0b09 AF0E0000 		.4byte	.Ldebug_info0+3759
 12483 0b0d 00       		.sleb128 0
ARM GAS  /var/folders/cs/83z6p2tj4w57s6p2rt8nwfp00000gn/T//ccDzWS9O.s 			page 247


 12484 0b0e 88030000 		.4byte	.LVL352
 12485 0b12 A2030000 		.4byte	.LVL359
 12486 0b16 0600     		.2byte	0x6
 12487 0b18 F2       		.byte	0xf2
 12488 0b19 AF0E0000 		.4byte	.Ldebug_info0+3759
 12489 0b1d 00       		.sleb128 0
 12490 0b1e 3E040000 		.4byte	.LVL374
 12491 0b22 52040000 		.4byte	.LFE24
 12492 0b26 0600     		.2byte	0x6
 12493 0b28 F2       		.byte	0xf2
 12494 0b29 AF0E0000 		.4byte	.Ldebug_info0+3759
 12495 0b2d 00       		.sleb128 0
 12496 0b2e 00000000 		.4byte	0
 12497 0b32 00000000 		.4byte	0
 12498              	.LVUS223:
 12499 0b36 02       		.uleb128 .LVU876
 12500 0b37 00       		.uleb128 .LVU892
 12501 0b38 00       		.uleb128 .LVU1058
 12502 0b39 00       		.uleb128 .LVU1076
 12503 0b3a 00       		.uleb128 .LVU1116
 12504 0b3b 00       		.uleb128 .LVU1123
 12505 0b3c 00       		.uleb128 .LVU1162
 12506 0b3d 00       		.uleb128 0
 12507              	.LLST223:
 12508 0b3e 00000000 		.4byte	.LVL291
 12509 0b42 4E000000 		.4byte	.LVL297
 12510 0b46 0600     		.2byte	0x6
 12511 0b48 F2       		.byte	0xf2
 12512 0b49 9B0E0000 		.4byte	.Ldebug_info0+3739
 12513 0b4d 00       		.sleb128 0
 12514 0b4e B0020000 		.4byte	.LVL331
 12515 0b52 FE020000 		.4byte	.LVL340
 12516 0b56 0600     		.2byte	0x6
 12517 0b58 F2       		.byte	0xf2
 12518 0b59 9B0E0000 		.4byte	.Ldebug_info0+3739
 12519 0b5d 00       		.sleb128 0
 12520 0b5e 88030000 		.4byte	.LVL352
 12521 0b62 A2030000 		.4byte	.LVL359
 12522 0b66 0600     		.2byte	0x6
 12523 0b68 F2       		.byte	0xf2
 12524 0b69 9B0E0000 		.4byte	.Ldebug_info0+3739
 12525 0b6d 00       		.sleb128 0
 12526 0b6e 3E040000 		.4byte	.LVL374
 12527 0b72 52040000 		.4byte	.LFE24
 12528 0b76 0600     		.2byte	0x6
 12529 0b78 F2       		.byte	0xf2
 12530 0b79 9B0E0000 		.4byte	.Ldebug_info0+3739
 12531 0b7d 00       		.sleb128 0
 12532 0b7e 00000000 		.4byte	0
 12533 0b82 00000000 		.4byte	0
 12534              	.LVUS224:
 12535 0b86 00       		.uleb128 .LVU879
 12536 0b87 00       		.uleb128 .LVU891
 12537 0b88 00       		.uleb128 .LVU891
 12538 0b89 00       		.uleb128 .LVU892
 12539 0b8a 00       		.uleb128 .LVU1058
 12540 0b8b 00       		.uleb128 .LVU1076
ARM GAS  /var/folders/cs/83z6p2tj4w57s6p2rt8nwfp00000gn/T//ccDzWS9O.s 			page 248


 12541 0b8c 00       		.uleb128 .LVU1116
 12542 0b8d 00       		.uleb128 .LVU1121
 12543 0b8e 00       		.uleb128 .LVU1121
 12544 0b8f 00       		.uleb128 .LVU1123
 12545 0b90 00       		.uleb128 .LVU1162
 12546 0b91 00       		.uleb128 .LVU1163
 12547 0b92 00       		.uleb128 .LVU1163
 12548 0b93 00       		.uleb128 0
 12549              	.LLST224:
 12550 0b94 04000000 		.4byte	.LVL292
 12551 0b98 46000000 		.4byte	.LVL296
 12552 0b9c 0200     		.2byte	0x2
 12553 0b9e 90       		.byte	0x90
 12554 0b9f 4E       		.uleb128 0x4e
 12555 0ba0 46000000 		.4byte	.LVL296
 12556 0ba4 4E000000 		.4byte	.LVL297
 12557 0ba8 0200     		.2byte	0x2
 12558 0baa 90       		.byte	0x90
 12559 0bab 4C       		.uleb128 0x4c
 12560 0bac B0020000 		.4byte	.LVL331
 12561 0bb0 FE020000 		.4byte	.LVL340
 12562 0bb4 0200     		.2byte	0x2
 12563 0bb6 90       		.byte	0x90
 12564 0bb7 4E       		.uleb128 0x4e
 12565 0bb8 88030000 		.4byte	.LVL352
 12566 0bbc 9E030000 		.4byte	.LVL357
 12567 0bc0 0200     		.2byte	0x2
 12568 0bc2 90       		.byte	0x90
 12569 0bc3 4E       		.uleb128 0x4e
 12570 0bc4 9E030000 		.4byte	.LVL357
 12571 0bc8 A2030000 		.4byte	.LVL359
 12572 0bcc 0200     		.2byte	0x2
 12573 0bce 72       		.byte	0x72
 12574 0bcf 04       		.sleb128 4
 12575 0bd0 3E040000 		.4byte	.LVL374
 12576 0bd4 48040000 		.4byte	.LVL375
 12577 0bd8 0200     		.2byte	0x2
 12578 0bda 90       		.byte	0x90
 12579 0bdb 4E       		.uleb128 0x4e
 12580 0bdc 48040000 		.4byte	.LVL375
 12581 0be0 52040000 		.4byte	.LFE24
 12582 0be4 0200     		.2byte	0x2
 12583 0be6 72       		.byte	0x72
 12584 0be7 04       		.sleb128 4
 12585 0be8 00000000 		.4byte	0
 12586 0bec 00000000 		.4byte	0
 12587              	.LVUS225:
 12588 0bf0 00       		.uleb128 .LVU880
 12589 0bf1 00       		.uleb128 .LVU892
 12590 0bf2 00       		.uleb128 .LVU1058
 12591 0bf3 00       		.uleb128 .LVU1066
 12592 0bf4 00       		.uleb128 .LVU1066
 12593 0bf5 00       		.uleb128 .LVU1069
 12594 0bf6 00       		.uleb128 .LVU1069
 12595 0bf7 00       		.uleb128 .LVU1075
 12596 0bf8 00       		.uleb128 .LVU1075
 12597 0bf9 00       		.uleb128 .LVU1076
ARM GAS  /var/folders/cs/83z6p2tj4w57s6p2rt8nwfp00000gn/T//ccDzWS9O.s 			page 249


 12598 0bfa 00       		.uleb128 .LVU1116
 12599 0bfb 00       		.uleb128 .LVU1118
 12600 0bfc 00       		.uleb128 .LVU1118
 12601 0bfd 00       		.uleb128 .LVU1122
 12602 0bfe 00       		.uleb128 .LVU1122
 12603 0bff 00       		.uleb128 .LVU1123
 12604 0c00 00       		.uleb128 .LVU1162
 12605 0c01 00       		.uleb128 0
 12606              	.LLST225:
 12607 0c02 08000000 		.4byte	.LVL293
 12608 0c06 4E000000 		.4byte	.LVL297
 12609 0c0a 0200     		.2byte	0x2
 12610 0c0c 90       		.byte	0x90
 12611 0c0d 4F       		.uleb128 0x4f
 12612 0c0e B0020000 		.4byte	.LVL331
 12613 0c12 D6020000 		.4byte	.LVL334
 12614 0c16 0200     		.2byte	0x2
 12615 0c18 90       		.byte	0x90
 12616 0c19 4F       		.uleb128 0x4f
 12617 0c1a D6020000 		.4byte	.LVL334
 12618 0c1e E4020000 		.4byte	.LVL337
 12619 0c22 0200     		.2byte	0x2
 12620 0c24 90       		.byte	0x90
 12621 0c25 4C       		.uleb128 0x4c
 12622 0c26 E4020000 		.4byte	.LVL337
 12623 0c2a FA020000 		.4byte	.LVL339
 12624 0c2e 0200     		.2byte	0x2
 12625 0c30 90       		.byte	0x90
 12626 0c31 4F       		.uleb128 0x4f
 12627 0c32 FA020000 		.4byte	.LVL339
 12628 0c36 FE020000 		.4byte	.LVL340
 12629 0c3a 0200     		.2byte	0x2
 12630 0c3c 75       		.byte	0x75
 12631 0c3d 04       		.sleb128 4
 12632 0c3e 88030000 		.4byte	.LVL352
 12633 0c42 92030000 		.4byte	.LVL354
 12634 0c46 0200     		.2byte	0x2
 12635 0c48 90       		.byte	0x90
 12636 0c49 4F       		.uleb128 0x4f
 12637 0c4a 92030000 		.4byte	.LVL354
 12638 0c4e A0030000 		.4byte	.LVL358
 12639 0c52 0200     		.2byte	0x2
 12640 0c54 75       		.byte	0x75
 12641 0c55 04       		.sleb128 4
 12642 0c56 A0030000 		.4byte	.LVL358
 12643 0c5a A2030000 		.4byte	.LVL359
 12644 0c5e 0200     		.2byte	0x2
 12645 0c60 74       		.byte	0x74
 12646 0c61 04       		.sleb128 4
 12647 0c62 3E040000 		.4byte	.LVL374
 12648 0c66 52040000 		.4byte	.LFE24
 12649 0c6a 0200     		.2byte	0x2
 12650 0c6c 90       		.byte	0x90
 12651 0c6d 4C       		.uleb128 0x4c
 12652 0c6e 00000000 		.4byte	0
 12653 0c72 00000000 		.4byte	0
 12654              	.LVUS226:
ARM GAS  /var/folders/cs/83z6p2tj4w57s6p2rt8nwfp00000gn/T//ccDzWS9O.s 			page 250


 12655 0c76 00       		.uleb128 .LVU885
 12656 0c77 00       		.uleb128 .LVU892
 12657 0c78 00       		.uleb128 .LVU1058
 12658 0c79 00       		.uleb128 .LVU1067
 12659 0c7a 00       		.uleb128 .LVU1067
 12660 0c7b 00       		.uleb128 .LVU1069
 12661 0c7c 00       		.uleb128 .LVU1069
 12662 0c7d 00       		.uleb128 .LVU1076
 12663 0c7e 00       		.uleb128 .LVU1116
 12664 0c7f 00       		.uleb128 .LVU1119
 12665 0c80 00       		.uleb128 .LVU1119
 12666 0c81 00       		.uleb128 .LVU1120
 12667 0c82 00       		.uleb128 .LVU1120
 12668 0c83 00       		.uleb128 .LVU1123
 12669 0c84 00       		.uleb128 .LVU1162
 12670 0c85 00       		.uleb128 .LVU1165
 12671 0c86 00       		.uleb128 .LVU1165
 12672 0c87 00       		.uleb128 0
 12673              	.LLST226:
 12674 0c88 20000000 		.4byte	.LVL294
 12675 0c8c 4E000000 		.4byte	.LVL297
 12676 0c90 0200     		.2byte	0x2
 12677 0c92 90       		.byte	0x90
 12678 0c93 4D       		.uleb128 0x4d
 12679 0c94 B0020000 		.4byte	.LVL331
 12680 0c98 E0020000 		.4byte	.LVL335
 12681 0c9c 0200     		.2byte	0x2
 12682 0c9e 90       		.byte	0x90
 12683 0c9f 4D       		.uleb128 0x4d
 12684 0ca0 E0020000 		.4byte	.LVL335
 12685 0ca4 E4020000 		.4byte	.LVL337
 12686 0ca8 0200     		.2byte	0x2
 12687 0caa 73       		.byte	0x73
 12688 0cab 04       		.sleb128 4
 12689 0cac E4020000 		.4byte	.LVL337
 12690 0cb0 FE020000 		.4byte	.LVL340
 12691 0cb4 0200     		.2byte	0x2
 12692 0cb6 90       		.byte	0x90
 12693 0cb7 4D       		.uleb128 0x4d
 12694 0cb8 88030000 		.4byte	.LVL352
 12695 0cbc 98030000 		.4byte	.LVL355
 12696 0cc0 0200     		.2byte	0x2
 12697 0cc2 90       		.byte	0x90
 12698 0cc3 4D       		.uleb128 0x4d
 12699 0cc4 98030000 		.4byte	.LVL355
 12700 0cc8 9A030000 		.4byte	.LVL356
 12701 0ccc 0200     		.2byte	0x2
 12702 0cce 76       		.byte	0x76
 12703 0ccf 04       		.sleb128 4
 12704 0cd0 9A030000 		.4byte	.LVL356
 12705 0cd4 A2030000 		.4byte	.LVL359
 12706 0cd8 0500     		.2byte	0x5
 12707 0cda 91       		.byte	0x91
 12708 0cdb 00       		.sleb128 0
 12709 0cdc 06       		.byte	0x6
 12710 0cdd 23       		.byte	0x23
 12711 0cde 04       		.uleb128 0x4
ARM GAS  /var/folders/cs/83z6p2tj4w57s6p2rt8nwfp00000gn/T//ccDzWS9O.s 			page 251


 12712 0cdf 3E040000 		.4byte	.LVL374
 12713 0ce3 4E040000 		.4byte	.LVL377
 12714 0ce7 0200     		.2byte	0x2
 12715 0ce9 90       		.byte	0x90
 12716 0cea 4D       		.uleb128 0x4d
 12717 0ceb 4E040000 		.4byte	.LVL377
 12718 0cef 52040000 		.4byte	.LFE24
 12719 0cf3 0200     		.2byte	0x2
 12720 0cf5 73       		.byte	0x73
 12721 0cf6 04       		.sleb128 4
 12722 0cf7 00000000 		.4byte	0
 12723 0cfb 00000000 		.4byte	0
 12724              	.LVUS227:
 12725 0cff 01       		.uleb128 .LVU1062
 12726 0d00 00       		.uleb128 .LVU1069
 12727 0d01 00       		.uleb128 .LVU1162
 12728 0d02 00       		.uleb128 0
 12729              	.LLST227:
 12730 0d03 C4020000 		.4byte	.LVL332
 12731 0d07 E4020000 		.4byte	.LVL337
 12732 0d0b 0100     		.2byte	0x1
 12733 0d0d 52       		.byte	0x52
 12734 0d0e 3E040000 		.4byte	.LVL374
 12735 0d12 52040000 		.4byte	.LFE24
 12736 0d16 0100     		.2byte	0x1
 12737 0d18 52       		.byte	0x52
 12738 0d19 00000000 		.4byte	0
 12739 0d1d 00000000 		.4byte	0
 12740              	.LVUS228:
 12741 0d21 02       		.uleb128 .LVU1071
 12742 0d22 00       		.uleb128 .LVU1080
 12743              	.LLST228:
 12744 0d23 E4020000 		.4byte	.LVL337
 12745 0d27 12030000 		.4byte	.LVL341
 12746 0d2b 0100     		.2byte	0x1
 12747 0d2d 52       		.byte	0x52
 12748 0d2e 00000000 		.4byte	0
 12749 0d32 00000000 		.4byte	0
 12750              	.LVUS229:
 12751 0d36 01       		.uleb128 .LVU971
 12752 0d37 00       		.uleb128 .LVU983
 12753 0d38 00       		.uleb128 .LVU1126
 12754 0d39 00       		.uleb128 .LVU1130
 12755              	.LLST229:
 12756 0d3a 62010000 		.4byte	.LVL310
 12757 0d3e 8A010000 		.4byte	.LVL315
 12758 0d42 0200     		.2byte	0x2
 12759 0d44 90       		.byte	0x90
 12760 0d45 44       		.uleb128 0x44
 12761 0d46 B0030000 		.4byte	.LVL360
 12762 0d4a BE030000 		.4byte	.LVL362
 12763 0d4e 0200     		.2byte	0x2
 12764 0d50 90       		.byte	0x90
 12765 0d51 44       		.uleb128 0x44
 12766 0d52 00000000 		.4byte	0
 12767 0d56 00000000 		.4byte	0
 12768              	.LVUS230:
ARM GAS  /var/folders/cs/83z6p2tj4w57s6p2rt8nwfp00000gn/T//ccDzWS9O.s 			page 252


 12769 0d5a 01       		.uleb128 .LVU971
 12770 0d5b 00       		.uleb128 .LVU974
 12771 0d5c 00       		.uleb128 .LVU974
 12772 0d5d 00       		.uleb128 .LVU975
 12773 0d5e 00       		.uleb128 .LVU975
 12774 0d5f 00       		.uleb128 .LVU983
 12775 0d60 00       		.uleb128 .LVU1126
 12776 0d61 00       		.uleb128 .LVU1130
 12777              	.LLST230:
 12778 0d62 62010000 		.4byte	.LVL310
 12779 0d66 66010000 		.4byte	.LVL311
 12780 0d6a 0200     		.2byte	0x2
 12781 0d6c 90       		.byte	0x90
 12782 0d6d 4B       		.uleb128 0x4b
 12783 0d6e 66010000 		.4byte	.LVL311
 12784 0d72 6A010000 		.4byte	.LVL312
 12785 0d76 1A00     		.2byte	0x1a
 12786 0d78 75       		.byte	0x75
 12787 0d79 00       		.sleb128 0
 12788 0d7a F6       		.byte	0xf6
 12789 0d7b 04       		.byte	0x4
 12790 0d7c 29       		.uleb128 0x29
 12791 0d7d 76       		.byte	0x76
 12792 0d7e 00       		.sleb128 0
 12793 0d7f F6       		.byte	0xf6
 12794 0d80 04       		.byte	0x4
 12795 0d81 29       		.uleb128 0x29
 12796 0d82 1C       		.byte	0x1c
 12797 0d83 F5       		.byte	0xf5
 12798 0d84 49       		.uleb128 0x49
 12799 0d85 29       		.uleb128 0x29
 12800 0d86 1E       		.byte	0x1e
 12801 0d87 F5       		.byte	0xf5
 12802 0d88 4F       		.uleb128 0x4f
 12803 0d89 29       		.uleb128 0x29
 12804 0d8a 1B       		.byte	0x1b
 12805 0d8b 76       		.byte	0x76
 12806 0d8c 00       		.sleb128 0
 12807 0d8d F6       		.byte	0xf6
 12808 0d8e 04       		.byte	0x4
 12809 0d8f 29       		.uleb128 0x29
 12810 0d90 22       		.byte	0x22
 12811 0d91 9F       		.byte	0x9f
 12812 0d92 6A010000 		.4byte	.LVL312
 12813 0d96 8A010000 		.4byte	.LVL315
 12814 0d9a 1E00     		.2byte	0x1e
 12815 0d9c 75       		.byte	0x75
 12816 0d9d 00       		.sleb128 0
 12817 0d9e F6       		.byte	0xf6
 12818 0d9f 04       		.byte	0x4
 12819 0da0 29       		.uleb128 0x29
 12820 0da1 76       		.byte	0x76
 12821 0da2 00       		.sleb128 0
 12822 0da3 F6       		.byte	0xf6
 12823 0da4 04       		.byte	0x4
 12824 0da5 29       		.uleb128 0x29
 12825 0da6 1C       		.byte	0x1c
ARM GAS  /var/folders/cs/83z6p2tj4w57s6p2rt8nwfp00000gn/T//ccDzWS9O.s 			page 253


 12826 0da7 F5       		.byte	0xf5
 12827 0da8 4E       		.uleb128 0x4e
 12828 0da9 29       		.uleb128 0x29
 12829 0daa F5       		.byte	0xf5
 12830 0dab 4D       		.uleb128 0x4d
 12831 0dac 29       		.uleb128 0x29
 12832 0dad 1C       		.byte	0x1c
 12833 0dae 1E       		.byte	0x1e
 12834 0daf F5       		.byte	0xf5
 12835 0db0 4F       		.uleb128 0x4f
 12836 0db1 29       		.uleb128 0x29
 12837 0db2 1B       		.byte	0x1b
 12838 0db3 76       		.byte	0x76
 12839 0db4 00       		.sleb128 0
 12840 0db5 F6       		.byte	0xf6
 12841 0db6 04       		.byte	0x4
 12842 0db7 29       		.uleb128 0x29
 12843 0db8 22       		.byte	0x22
 12844 0db9 9F       		.byte	0x9f
 12845 0dba B0030000 		.4byte	.LVL360
 12846 0dbe BE030000 		.4byte	.LVL362
 12847 0dc2 1E00     		.2byte	0x1e
 12848 0dc4 75       		.byte	0x75
 12849 0dc5 00       		.sleb128 0
 12850 0dc6 F6       		.byte	0xf6
 12851 0dc7 04       		.byte	0x4
 12852 0dc8 29       		.uleb128 0x29
 12853 0dc9 76       		.byte	0x76
 12854 0dca 00       		.sleb128 0
 12855 0dcb F6       		.byte	0xf6
 12856 0dcc 04       		.byte	0x4
 12857 0dcd 29       		.uleb128 0x29
 12858 0dce 1C       		.byte	0x1c
 12859 0dcf F5       		.byte	0xf5
 12860 0dd0 4E       		.uleb128 0x4e
 12861 0dd1 29       		.uleb128 0x29
 12862 0dd2 F5       		.byte	0xf5
 12863 0dd3 4D       		.uleb128 0x4d
 12864 0dd4 29       		.uleb128 0x29
 12865 0dd5 1C       		.byte	0x1c
 12866 0dd6 1E       		.byte	0x1e
 12867 0dd7 F5       		.byte	0xf5
 12868 0dd8 4F       		.uleb128 0x4f
 12869 0dd9 29       		.uleb128 0x29
 12870 0dda 1B       		.byte	0x1b
 12871 0ddb 76       		.byte	0x76
 12872 0ddc 00       		.sleb128 0
 12873 0ddd F6       		.byte	0xf6
 12874 0dde 04       		.byte	0x4
 12875 0ddf 29       		.uleb128 0x29
 12876 0de0 22       		.byte	0x22
 12877 0de1 9F       		.byte	0x9f
 12878 0de2 00000000 		.4byte	0
 12879 0de6 00000000 		.4byte	0
 12880              	.LVUS231:
 12881 0dea 01       		.uleb128 .LVU971
 12882 0deb 00       		.uleb128 .LVU976
ARM GAS  /var/folders/cs/83z6p2tj4w57s6p2rt8nwfp00000gn/T//ccDzWS9O.s 			page 254


 12883 0dec 00       		.uleb128 .LVU976
 12884 0ded 00       		.uleb128 .LVU983
 12885 0dee 00       		.uleb128 .LVU1126
 12886 0def 00       		.uleb128 .LVU1130
 12887              	.LLST231:
 12888 0df0 62010000 		.4byte	.LVL310
 12889 0df4 6E010000 		.4byte	.LVL313
 12890 0df8 0200     		.2byte	0x2
 12891 0dfa 90       		.byte	0x90
 12892 0dfb 4A       		.uleb128 0x4a
 12893 0dfc 6E010000 		.4byte	.LVL313
 12894 0e00 8A010000 		.4byte	.LVL315
 12895 0e04 0C00     		.2byte	0xc
 12896 0e06 F5       		.byte	0xf5
 12897 0e07 46       		.uleb128 0x46
 12898 0e08 29       		.uleb128 0x29
 12899 0e09 F5       		.byte	0xf5
 12900 0e0a 4F       		.uleb128 0x4f
 12901 0e0b 29       		.uleb128 0x29
 12902 0e0c 1B       		.byte	0x1b
 12903 0e0d F5       		.byte	0xf5
 12904 0e0e 4C       		.uleb128 0x4c
 12905 0e0f 29       		.uleb128 0x29
 12906 0e10 22       		.byte	0x22
 12907 0e11 9F       		.byte	0x9f
 12908 0e12 B0030000 		.4byte	.LVL360
 12909 0e16 BE030000 		.4byte	.LVL362
 12910 0e1a 0C00     		.2byte	0xc
 12911 0e1c F5       		.byte	0xf5
 12912 0e1d 46       		.uleb128 0x46
 12913 0e1e 29       		.uleb128 0x29
 12914 0e1f F5       		.byte	0xf5
 12915 0e20 4F       		.uleb128 0x4f
 12916 0e21 29       		.uleb128 0x29
 12917 0e22 1B       		.byte	0x1b
 12918 0e23 F5       		.byte	0xf5
 12919 0e24 4C       		.uleb128 0x4c
 12920 0e25 29       		.uleb128 0x29
 12921 0e26 22       		.byte	0x22
 12922 0e27 9F       		.byte	0x9f
 12923 0e28 00000000 		.4byte	0
 12924 0e2c 00000000 		.4byte	0
 12925              	.LVUS232:
 12926 0e30 00       		.uleb128 .LVU976
 12927 0e31 00       		.uleb128 .LVU983
 12928 0e32 00       		.uleb128 .LVU1126
 12929 0e33 00       		.uleb128 .LVU1130
 12930              	.LLST232:
 12931 0e34 6E010000 		.4byte	.LVL313
 12932 0e38 8A010000 		.4byte	.LVL315
 12933 0e3c 0200     		.2byte	0x2
 12934 0e3e 90       		.byte	0x90
 12935 0e3f 4A       		.uleb128 0x4a
 12936 0e40 B0030000 		.4byte	.LVL360
 12937 0e44 BE030000 		.4byte	.LVL362
 12938 0e48 0200     		.2byte	0x2
 12939 0e4a 90       		.byte	0x90
ARM GAS  /var/folders/cs/83z6p2tj4w57s6p2rt8nwfp00000gn/T//ccDzWS9O.s 			page 255


 12940 0e4b 4A       		.uleb128 0x4a
 12941 0e4c 00000000 		.4byte	0
 12942 0e50 00000000 		.4byte	0
 12943              	.LVUS233:
 12944 0e54 01       		.uleb128 .LVU977
 12945 0e55 00       		.uleb128 .LVU982
 12946 0e56 00       		.uleb128 .LVU982
 12947 0e57 00       		.uleb128 .LVU983
 12948 0e58 00       		.uleb128 .LVU1126
 12949 0e59 00       		.uleb128 .LVU1129
 12950 0e5a 00       		.uleb128 .LVU1129
 12951 0e5b 00       		.uleb128 .LVU1130
 12952              	.LLST233:
 12953 0e5c 6E010000 		.4byte	.LVL313
 12954 0e60 82010000 		.4byte	.LVL314
 12955 0e64 0200     		.2byte	0x2
 12956 0e66 90       		.byte	0x90
 12957 0e67 4B       		.uleb128 0x4b
 12958 0e68 82010000 		.4byte	.LVL314
 12959 0e6c 8A010000 		.4byte	.LVL315
 12960 0e70 2200     		.2byte	0x22
 12961 0e72 F5       		.byte	0xf5
 12962 0e73 45       		.uleb128 0x45
 12963 0e74 29       		.uleb128 0x29
 12964 0e75 75       		.byte	0x75
 12965 0e76 00       		.sleb128 0
 12966 0e77 F6       		.byte	0xf6
 12967 0e78 04       		.byte	0x4
 12968 0e79 29       		.uleb128 0x29
 12969 0e7a 76       		.byte	0x76
 12970 0e7b 00       		.sleb128 0
 12971 0e7c F6       		.byte	0xf6
 12972 0e7d 04       		.byte	0x4
 12973 0e7e 29       		.uleb128 0x29
 12974 0e7f 1C       		.byte	0x1c
 12975 0e80 F5       		.byte	0xf5
 12976 0e81 4E       		.uleb128 0x4e
 12977 0e82 29       		.uleb128 0x29
 12978 0e83 F5       		.byte	0xf5
 12979 0e84 4D       		.uleb128 0x4d
 12980 0e85 29       		.uleb128 0x29
 12981 0e86 1C       		.byte	0x1c
 12982 0e87 1E       		.byte	0x1e
 12983 0e88 F5       		.byte	0xf5
 12984 0e89 4F       		.uleb128 0x4f
 12985 0e8a 29       		.uleb128 0x29
 12986 0e8b 1B       		.byte	0x1b
 12987 0e8c 76       		.byte	0x76
 12988 0e8d 00       		.sleb128 0
 12989 0e8e F6       		.byte	0xf6
 12990 0e8f 04       		.byte	0x4
 12991 0e90 29       		.uleb128 0x29
 12992 0e91 22       		.byte	0x22
 12993 0e92 1C       		.byte	0x1c
 12994 0e93 9F       		.byte	0x9f
 12995 0e94 B0030000 		.4byte	.LVL360
 12996 0e98 B4030000 		.4byte	.LVL361
ARM GAS  /var/folders/cs/83z6p2tj4w57s6p2rt8nwfp00000gn/T//ccDzWS9O.s 			page 256


 12997 0e9c 0200     		.2byte	0x2
 12998 0e9e 90       		.byte	0x90
 12999 0e9f 4B       		.uleb128 0x4b
 13000 0ea0 B4030000 		.4byte	.LVL361
 13001 0ea4 BE030000 		.4byte	.LVL362
 13002 0ea8 2200     		.2byte	0x22
 13003 0eaa F5       		.byte	0xf5
 13004 0eab 45       		.uleb128 0x45
 13005 0eac 29       		.uleb128 0x29
 13006 0ead 75       		.byte	0x75
 13007 0eae 00       		.sleb128 0
 13008 0eaf F6       		.byte	0xf6
 13009 0eb0 04       		.byte	0x4
 13010 0eb1 29       		.uleb128 0x29
 13011 0eb2 76       		.byte	0x76
 13012 0eb3 00       		.sleb128 0
 13013 0eb4 F6       		.byte	0xf6
 13014 0eb5 04       		.byte	0x4
 13015 0eb6 29       		.uleb128 0x29
 13016 0eb7 1C       		.byte	0x1c
 13017 0eb8 F5       		.byte	0xf5
 13018 0eb9 4E       		.uleb128 0x4e
 13019 0eba 29       		.uleb128 0x29
 13020 0ebb F5       		.byte	0xf5
 13021 0ebc 4D       		.uleb128 0x4d
 13022 0ebd 29       		.uleb128 0x29
 13023 0ebe 1C       		.byte	0x1c
 13024 0ebf 1E       		.byte	0x1e
 13025 0ec0 F5       		.byte	0xf5
 13026 0ec1 4F       		.uleb128 0x4f
 13027 0ec2 29       		.uleb128 0x29
 13028 0ec3 1B       		.byte	0x1b
 13029 0ec4 76       		.byte	0x76
 13030 0ec5 00       		.sleb128 0
 13031 0ec6 F6       		.byte	0xf6
 13032 0ec7 04       		.byte	0x4
 13033 0ec8 29       		.uleb128 0x29
 13034 0ec9 22       		.byte	0x22
 13035 0eca 1C       		.byte	0x1c
 13036 0ecb 9F       		.byte	0x9f
 13037 0ecc 00000000 		.4byte	0
 13038 0ed0 00000000 		.4byte	0
 13039              	.LVUS234:
 13040 0ed4 02       		.uleb128 .LVU985
 13041 0ed5 00       		.uleb128 .LVU995
 13042              	.LLST234:
 13043 0ed6 8A010000 		.4byte	.LVL315
 13044 0eda A4010000 		.4byte	.LVL316
 13045 0ede 0200     		.2byte	0x2
 13046 0ee0 90       		.byte	0x90
 13047 0ee1 48       		.uleb128 0x48
 13048 0ee2 00000000 		.4byte	0
 13049 0ee6 00000000 		.4byte	0
 13050              	.LVUS235:
 13051 0eea 02       		.uleb128 .LVU985
 13052 0eeb 00       		.uleb128 .LVU995
 13053              	.LLST235:
ARM GAS  /var/folders/cs/83z6p2tj4w57s6p2rt8nwfp00000gn/T//ccDzWS9O.s 			page 257


 13054 0eec 8A010000 		.4byte	.LVL315
 13055 0ef0 A4010000 		.4byte	.LVL316
 13056 0ef4 0200     		.2byte	0x2
 13057 0ef6 90       		.byte	0x90
 13058 0ef7 4C       		.uleb128 0x4c
 13059 0ef8 00000000 		.4byte	0
 13060 0efc 00000000 		.4byte	0
 13061              	.LVUS236:
 13062 0f00 04       		.uleb128 .LVU987
 13063 0f01 00       		.uleb128 .LVU995
 13064              	.LLST236:
 13065 0f02 8A010000 		.4byte	.LVL315
 13066 0f06 A4010000 		.4byte	.LVL316
 13067 0f0a 0200     		.2byte	0x2
 13068 0f0c 90       		.byte	0x90
 13069 0f0d 47       		.uleb128 0x47
 13070 0f0e 00000000 		.4byte	0
 13071 0f12 00000000 		.4byte	0
 13072              	.LVUS237:
 13073 0f16 00       		.uleb128 .LVU1012
 13074 0f17 00       		.uleb128 .LVU1015
 13075 0f18 00       		.uleb128 .LVU1015
 13076 0f19 00       		.uleb128 .LVU1026
 13077 0f1a 00       		.uleb128 .LVU1137
 13078 0f1b 00       		.uleb128 .LVU1141
 13079              	.LLST237:
 13080 0f1c 0C020000 		.4byte	.LVL320
 13081 0f20 10020000 		.4byte	.LVL321
 13082 0f24 0200     		.2byte	0x2
 13083 0f26 90       		.byte	0x90
 13084 0f27 4E       		.uleb128 0x4e
 13085 0f28 10020000 		.4byte	.LVL321
 13086 0f2c 36020000 		.4byte	.LVL324
 13087 0f30 0200     		.2byte	0x2
 13088 0f32 75       		.byte	0x75
 13089 0f33 04       		.sleb128 4
 13090 0f34 F0030000 		.4byte	.LVL365
 13091 0f38 F6030000 		.4byte	.LVL366
 13092 0f3c 0200     		.2byte	0x2
 13093 0f3e 75       		.byte	0x75
 13094 0f3f 04       		.sleb128 4
 13095 0f40 00000000 		.4byte	0
 13096 0f44 00000000 		.4byte	0
 13097              	.LVUS238:
 13098 0f48 00       		.uleb128 .LVU1012
 13099 0f49 00       		.uleb128 .LVU1026
 13100 0f4a 00       		.uleb128 .LVU1137
 13101 0f4b 00       		.uleb128 .LVU1141
 13102              	.LLST238:
 13103 0f4c 0C020000 		.4byte	.LVL320
 13104 0f50 36020000 		.4byte	.LVL324
 13105 0f54 0200     		.2byte	0x2
 13106 0f56 75       		.byte	0x75
 13107 0f57 00       		.sleb128 0
 13108 0f58 F0030000 		.4byte	.LVL365
 13109 0f5c F6030000 		.4byte	.LVL366
 13110 0f60 0200     		.2byte	0x2
ARM GAS  /var/folders/cs/83z6p2tj4w57s6p2rt8nwfp00000gn/T//ccDzWS9O.s 			page 258


 13111 0f62 75       		.byte	0x75
 13112 0f63 00       		.sleb128 0
 13113 0f64 00000000 		.4byte	0
 13114 0f68 00000000 		.4byte	0
 13115              	.LVUS239:
 13116 0f6c 00       		.uleb128 .LVU1012
 13117 0f6d 00       		.uleb128 .LVU1026
 13118 0f6e 00       		.uleb128 .LVU1137
 13119 0f6f 00       		.uleb128 .LVU1141
 13120              	.LLST239:
 13121 0f70 0C020000 		.4byte	.LVL320
 13122 0f74 36020000 		.4byte	.LVL324
 13123 0f78 0200     		.2byte	0x2
 13124 0f7a 90       		.byte	0x90
 13125 0f7b 4A       		.uleb128 0x4a
 13126 0f7c F0030000 		.4byte	.LVL365
 13127 0f80 F6030000 		.4byte	.LVL366
 13128 0f84 0200     		.2byte	0x2
 13129 0f86 90       		.byte	0x90
 13130 0f87 4A       		.uleb128 0x4a
 13131 0f88 00000000 		.4byte	0
 13132 0f8c 00000000 		.4byte	0
 13133              	.LVUS240:
 13134 0f90 00       		.uleb128 .LVU1012
 13135 0f91 00       		.uleb128 .LVU1026
 13136 0f92 00       		.uleb128 .LVU1137
 13137 0f93 00       		.uleb128 .LVU1141
 13138              	.LLST240:
 13139 0f94 0C020000 		.4byte	.LVL320
 13140 0f98 36020000 		.4byte	.LVL324
 13141 0f9c 0200     		.2byte	0x2
 13142 0f9e 90       		.byte	0x90
 13143 0f9f 4F       		.uleb128 0x4f
 13144 0fa0 F0030000 		.4byte	.LVL365
 13145 0fa4 F6030000 		.4byte	.LVL366
 13146 0fa8 0200     		.2byte	0x2
 13147 0faa 90       		.byte	0x90
 13148 0fab 4F       		.uleb128 0x4f
 13149 0fac 00000000 		.4byte	0
 13150 0fb0 00000000 		.4byte	0
 13151              	.LVUS241:
 13152 0fb4 00       		.uleb128 .LVU1018
 13153 0fb5 00       		.uleb128 .LVU1025
 13154 0fb6 00       		.uleb128 .LVU1025
 13155 0fb7 00       		.uleb128 .LVU1026
 13156 0fb8 00       		.uleb128 .LVU1137
 13157 0fb9 00       		.uleb128 .LVU1141
 13158              	.LLST241:
 13159 0fba 20020000 		.4byte	.LVL322
 13160 0fbe 32020000 		.4byte	.LVL323
 13161 0fc2 0200     		.2byte	0x2
 13162 0fc4 90       		.byte	0x90
 13163 0fc5 4D       		.uleb128 0x4d
 13164 0fc6 32020000 		.4byte	.LVL323
 13165 0fca 36020000 		.4byte	.LVL324
 13166 0fce 0A00     		.2byte	0xa
 13167 0fd0 75       		.byte	0x75
ARM GAS  /var/folders/cs/83z6p2tj4w57s6p2rt8nwfp00000gn/T//ccDzWS9O.s 			page 259


 13168 0fd1 00       		.sleb128 0
 13169 0fd2 F6       		.byte	0xf6
 13170 0fd3 04       		.byte	0x4
 13171 0fd4 29       		.uleb128 0x29
 13172 0fd5 F5       		.byte	0xf5
 13173 0fd6 4F       		.uleb128 0x4f
 13174 0fd7 29       		.uleb128 0x29
 13175 0fd8 1C       		.byte	0x1c
 13176 0fd9 9F       		.byte	0x9f
 13177 0fda F0030000 		.4byte	.LVL365
 13178 0fde F6030000 		.4byte	.LVL366
 13179 0fe2 0200     		.2byte	0x2
 13180 0fe4 90       		.byte	0x90
 13181 0fe5 4D       		.uleb128 0x4d
 13182 0fe6 00000000 		.4byte	0
 13183 0fea 00000000 		.4byte	0
 13184              	.LVUS242:
 13185 0fee 01       		.uleb128 .LVU1019
 13186 0fef 00       		.uleb128 .LVU1026
 13187 0ff0 00       		.uleb128 .LVU1137
 13188 0ff1 00       		.uleb128 .LVU1141
 13189              	.LLST242:
 13190 0ff2 20020000 		.4byte	.LVL322
 13191 0ff6 36020000 		.4byte	.LVL324
 13192 0ffa 0A00     		.2byte	0xa
 13193 0ffc 75       		.byte	0x75
 13194 0ffd 04       		.sleb128 4
 13195 0ffe F6       		.byte	0xf6
 13196 0fff 04       		.byte	0x4
 13197 1000 29       		.uleb128 0x29
 13198 1001 F5       		.byte	0xf5
 13199 1002 4A       		.uleb128 0x4a
 13200 1003 29       		.uleb128 0x29
 13201 1004 1C       		.byte	0x1c
 13202 1005 9F       		.byte	0x9f
 13203 1006 F0030000 		.4byte	.LVL365
 13204 100a F6030000 		.4byte	.LVL366
 13205 100e 0A00     		.2byte	0xa
 13206 1010 75       		.byte	0x75
 13207 1011 04       		.sleb128 4
 13208 1012 F6       		.byte	0xf6
 13209 1013 04       		.byte	0x4
 13210 1014 29       		.uleb128 0x29
 13211 1015 F5       		.byte	0xf5
 13212 1016 4A       		.uleb128 0x4a
 13213 1017 29       		.uleb128 0x29
 13214 1018 1C       		.byte	0x1c
 13215 1019 9F       		.byte	0x9f
 13216 101a 00000000 		.4byte	0
 13217 101e 00000000 		.4byte	0
 13218              	.LVUS243:
 13219 1022 01       		.uleb128 .LVU1030
 13220 1023 00       		.uleb128 .LVU1038
 13221 1024 01       		.uleb128 .LVU1145
 13222 1025 00       		.uleb128 .LVU1153
 13223              	.LLST243:
 13224 1026 3A020000 		.4byte	.LVL325
ARM GAS  /var/folders/cs/83z6p2tj4w57s6p2rt8nwfp00000gn/T//ccDzWS9O.s 			page 260


 13225 102a 46020000 		.4byte	.LVL328
 13226 102e 0200     		.2byte	0x2
 13227 1030 75       		.byte	0x75
 13228 1031 04       		.sleb128 4
 13229 1032 F8030000 		.4byte	.LVL367
 13230 1036 02040000 		.4byte	.LVL370
 13231 103a 0200     		.2byte	0x2
 13232 103c 75       		.byte	0x75
 13233 103d 04       		.sleb128 4
 13234 103e 00000000 		.4byte	0
 13235 1042 00000000 		.4byte	0
 13236              	.LVUS244:
 13237 1046 01       		.uleb128 .LVU1030
 13238 1047 00       		.uleb128 .LVU1037
 13239 1048 01       		.uleb128 .LVU1145
 13240 1049 00       		.uleb128 .LVU1151
 13241              	.LLST244:
 13242 104a 3A020000 		.4byte	.LVL325
 13243 104e 42020000 		.4byte	.LVL327
 13244 1052 0200     		.2byte	0x2
 13245 1054 90       		.byte	0x90
 13246 1055 48       		.uleb128 0x48
 13247 1056 F8030000 		.4byte	.LVL367
 13248 105a FC030000 		.4byte	.LVL368
 13249 105e 0200     		.2byte	0x2
 13250 1060 90       		.byte	0x90
 13251 1061 48       		.uleb128 0x48
 13252 1062 00000000 		.4byte	0
 13253 1066 00000000 		.4byte	0
 13254              	.LVUS245:
 13255 106a 01       		.uleb128 .LVU1030
 13256 106b 00       		.uleb128 .LVU1038
 13257 106c 01       		.uleb128 .LVU1145
 13258 106d 00       		.uleb128 .LVU1153
 13259              	.LLST245:
 13260 106e 3A020000 		.4byte	.LVL325
 13261 1072 46020000 		.4byte	.LVL328
 13262 1076 0200     		.2byte	0x2
 13263 1078 90       		.byte	0x90
 13264 1079 4A       		.uleb128 0x4a
 13265 107a F8030000 		.4byte	.LVL367
 13266 107e 02040000 		.4byte	.LVL370
 13267 1082 0200     		.2byte	0x2
 13268 1084 90       		.byte	0x90
 13269 1085 4A       		.uleb128 0x4a
 13270 1086 00000000 		.4byte	0
 13271 108a 00000000 		.4byte	0
 13272              	.LVUS246:
 13273 108e 01       		.uleb128 .LVU1030
 13274 108f 00       		.uleb128 .LVU1038
 13275 1090 01       		.uleb128 .LVU1145
 13276 1091 00       		.uleb128 .LVU1153
 13277              	.LLST246:
 13278 1092 3A020000 		.4byte	.LVL325
 13279 1096 46020000 		.4byte	.LVL328
 13280 109a 0200     		.2byte	0x2
 13281 109c 90       		.byte	0x90
ARM GAS  /var/folders/cs/83z6p2tj4w57s6p2rt8nwfp00000gn/T//ccDzWS9O.s 			page 261


 13282 109d 44       		.uleb128 0x44
 13283 109e F8030000 		.4byte	.LVL367
 13284 10a2 02040000 		.4byte	.LVL370
 13285 10a6 0200     		.2byte	0x2
 13286 10a8 90       		.byte	0x90
 13287 10a9 44       		.uleb128 0x44
 13288 10aa 00000000 		.4byte	0
 13289 10ae 00000000 		.4byte	0
 13290              	.LVUS247:
 13291 10b2 03       		.uleb128 .LVU1032
 13292 10b3 00       		.uleb128 .LVU1036
 13293 10b4 00       		.uleb128 .LVU1036
 13294 10b5 00       		.uleb128 .LVU1038
 13295 10b6 03       		.uleb128 .LVU1147
 13296 10b7 00       		.uleb128 .LVU1151
 13297 10b8 00       		.uleb128 .LVU1151
 13298 10b9 00       		.uleb128 .LVU1152
 13299              	.LLST247:
 13300 10ba 3A020000 		.4byte	.LVL325
 13301 10be 3E020000 		.4byte	.LVL326
 13302 10c2 0800     		.2byte	0x8
 13303 10c4 F5       		.byte	0xf5
 13304 10c5 48       		.uleb128 0x48
 13305 10c6 29       		.uleb128 0x29
 13306 10c7 F5       		.byte	0xf5
 13307 10c8 44       		.uleb128 0x44
 13308 10c9 29       		.uleb128 0x29
 13309 10ca 1C       		.byte	0x1c
 13310 10cb 9F       		.byte	0x9f
 13311 10cc 3E020000 		.4byte	.LVL326
 13312 10d0 46020000 		.4byte	.LVL328
 13313 10d4 0200     		.2byte	0x2
 13314 10d6 90       		.byte	0x90
 13315 10d7 4C       		.uleb128 0x4c
 13316 10d8 F8030000 		.4byte	.LVL367
 13317 10dc FC030000 		.4byte	.LVL368
 13318 10e0 0800     		.2byte	0x8
 13319 10e2 F5       		.byte	0xf5
 13320 10e3 48       		.uleb128 0x48
 13321 10e4 29       		.uleb128 0x29
 13322 10e5 F5       		.byte	0xf5
 13323 10e6 44       		.uleb128 0x44
 13324 10e7 29       		.uleb128 0x29
 13325 10e8 1C       		.byte	0x1c
 13326 10e9 9F       		.byte	0x9f
 13327 10ea FC030000 		.4byte	.LVL368
 13328 10ee 00040000 		.4byte	.LVL369
 13329 10f2 0200     		.2byte	0x2
 13330 10f4 90       		.byte	0x90
 13331 10f5 48       		.uleb128 0x48
 13332 10f6 00000000 		.4byte	0
 13333 10fa 00000000 		.4byte	0
 13334              	.LVUS248:
 13335 10fe 04       		.uleb128 .LVU1033
 13336 10ff 00       		.uleb128 .LVU1038
 13337 1100 04       		.uleb128 .LVU1148
 13338 1101 00       		.uleb128 .LVU1153
ARM GAS  /var/folders/cs/83z6p2tj4w57s6p2rt8nwfp00000gn/T//ccDzWS9O.s 			page 262


 13339              	.LLST248:
 13340 1102 3A020000 		.4byte	.LVL325
 13341 1106 46020000 		.4byte	.LVL328
 13342 110a 0A00     		.2byte	0xa
 13343 110c 75       		.byte	0x75
 13344 110d 04       		.sleb128 4
 13345 110e F6       		.byte	0xf6
 13346 110f 04       		.byte	0x4
 13347 1110 29       		.uleb128 0x29
 13348 1111 F5       		.byte	0xf5
 13349 1112 4A       		.uleb128 0x4a
 13350 1113 29       		.uleb128 0x29
 13351 1114 1C       		.byte	0x1c
 13352 1115 9F       		.byte	0x9f
 13353 1116 F8030000 		.4byte	.LVL367
 13354 111a 02040000 		.4byte	.LVL370
 13355 111e 0A00     		.2byte	0xa
 13356 1120 75       		.byte	0x75
 13357 1121 04       		.sleb128 4
 13358 1122 F6       		.byte	0xf6
 13359 1123 04       		.byte	0x4
 13360 1124 29       		.uleb128 0x29
 13361 1125 F5       		.byte	0xf5
 13362 1126 4A       		.uleb128 0x4a
 13363 1127 29       		.uleb128 0x29
 13364 1128 1C       		.byte	0x1c
 13365 1129 9F       		.byte	0x9f
 13366 112a 00000000 		.4byte	0
 13367 112e 00000000 		.4byte	0
 13368              	.LVUS249:
 13369 1132 01       		.uleb128 .LVU1090
 13370 1133 00       		.uleb128 .LVU1093
 13371 1134 00       		.uleb128 .LVU1093
 13372 1135 00       		.uleb128 .LVU1094
 13373              	.LLST249:
 13374 1136 42030000 		.4byte	.LVL345
 13375 113a 46030000 		.4byte	.LVL346
 13376 113e 0200     		.2byte	0x2
 13377 1140 90       		.byte	0x90
 13378 1141 4B       		.uleb128 0x4b
 13379 1142 46030000 		.4byte	.LVL346
 13380 1146 4A030000 		.4byte	.LVL347
 13381 114a 1A00     		.2byte	0x1a
 13382 114c 75       		.byte	0x75
 13383 114d 00       		.sleb128 0
 13384 114e F6       		.byte	0xf6
 13385 114f 04       		.byte	0x4
 13386 1150 29       		.uleb128 0x29
 13387 1151 76       		.byte	0x76
 13388 1152 00       		.sleb128 0
 13389 1153 F6       		.byte	0xf6
 13390 1154 04       		.byte	0x4
 13391 1155 29       		.uleb128 0x29
 13392 1156 1C       		.byte	0x1c
 13393 1157 F5       		.byte	0xf5
 13394 1158 49       		.uleb128 0x49
 13395 1159 29       		.uleb128 0x29
ARM GAS  /var/folders/cs/83z6p2tj4w57s6p2rt8nwfp00000gn/T//ccDzWS9O.s 			page 263


 13396 115a 1E       		.byte	0x1e
 13397 115b F5       		.byte	0xf5
 13398 115c 4F       		.uleb128 0x4f
 13399 115d 29       		.uleb128 0x29
 13400 115e 1B       		.byte	0x1b
 13401 115f 76       		.byte	0x76
 13402 1160 00       		.sleb128 0
 13403 1161 F6       		.byte	0xf6
 13404 1162 04       		.byte	0x4
 13405 1163 29       		.uleb128 0x29
 13406 1164 22       		.byte	0x22
 13407 1165 9F       		.byte	0x9f
 13408 1166 00000000 		.4byte	0
 13409 116a 00000000 		.4byte	0
 13410              	.LVUS250:
 13411 116e 01       		.uleb128 .LVU1090
 13412 116f 00       		.uleb128 .LVU1095
 13413              	.LLST250:
 13414 1170 42030000 		.4byte	.LVL345
 13415 1174 4E030000 		.4byte	.LVL348
 13416 1178 0200     		.2byte	0x2
 13417 117a 90       		.byte	0x90
 13418 117b 4A       		.uleb128 0x4a
 13419 117c 00000000 		.4byte	0
 13420 1180 00000000 		.4byte	0
 13421              	.LVUS251:
 13422 1184 01       		.uleb128 .LVU1090
 13423 1185 00       		.uleb128 .LVU1102
 13424 1186 00       		.uleb128 .LVU1123
 13425 1187 00       		.uleb128 .LVU1126
 13426              	.LLST251:
 13427 1188 42030000 		.4byte	.LVL345
 13428 118c 68030000 		.4byte	.LVL350
 13429 1190 0200     		.2byte	0x2
 13430 1192 90       		.byte	0x90
 13431 1193 44       		.uleb128 0x44
 13432 1194 A2030000 		.4byte	.LVL359
 13433 1198 B0030000 		.4byte	.LVL360
 13434 119c 0200     		.2byte	0x2
 13435 119e 90       		.byte	0x90
 13436 119f 44       		.uleb128 0x44
 13437 11a0 00000000 		.4byte	0
 13438 11a4 00000000 		.4byte	0
 13439              	.LVUS252:
 13440 11a8 00       		.uleb128 .LVU1095
 13441 11a9 00       		.uleb128 .LVU1102
 13442 11aa 00       		.uleb128 .LVU1123
 13443 11ab 00       		.uleb128 .LVU1126
 13444              	.LLST252:
 13445 11ac 4E030000 		.4byte	.LVL348
 13446 11b0 68030000 		.4byte	.LVL350
 13447 11b4 0200     		.2byte	0x2
 13448 11b6 90       		.byte	0x90
 13449 11b7 4A       		.uleb128 0x4a
 13450 11b8 A2030000 		.4byte	.LVL359
 13451 11bc B0030000 		.4byte	.LVL360
 13452 11c0 0200     		.2byte	0x2
ARM GAS  /var/folders/cs/83z6p2tj4w57s6p2rt8nwfp00000gn/T//ccDzWS9O.s 			page 264


 13453 11c2 90       		.byte	0x90
 13454 11c3 4A       		.uleb128 0x4a
 13455 11c4 00000000 		.4byte	0
 13456 11c8 00000000 		.4byte	0
 13457              	.LVUS253:
 13458 11cc 01       		.uleb128 .LVU1096
 13459 11cd 00       		.uleb128 .LVU1101
 13460 11ce 00       		.uleb128 .LVU1123
 13461 11cf 00       		.uleb128 .LVU1126
 13462              	.LLST253:
 13463 11d0 4E030000 		.4byte	.LVL348
 13464 11d4 60030000 		.4byte	.LVL349
 13465 11d8 0200     		.2byte	0x2
 13466 11da 90       		.byte	0x90
 13467 11db 4B       		.uleb128 0x4b
 13468 11dc A2030000 		.4byte	.LVL359
 13469 11e0 B0030000 		.4byte	.LVL360
 13470 11e4 0200     		.2byte	0x2
 13471 11e6 90       		.byte	0x90
 13472 11e7 4B       		.uleb128 0x4b
 13473 11e8 00000000 		.4byte	0
 13474 11ec 00000000 		.4byte	0
 13475              	.LVUS254:
 13476 11f0 02       		.uleb128 .LVU1104
 13477 11f1 00       		.uleb128 .LVU1116
 13478              	.LLST254:
 13479 11f2 68030000 		.4byte	.LVL350
 13480 11f6 88030000 		.4byte	.LVL352
 13481 11fa 0200     		.2byte	0x2
 13482 11fc 90       		.byte	0x90
 13483 11fd 44       		.uleb128 0x44
 13484 11fe 00000000 		.4byte	0
 13485 1202 00000000 		.4byte	0
 13486              	.LVUS255:
 13487 1206 02       		.uleb128 .LVU1104
 13488 1207 00       		.uleb128 .LVU1116
 13489              	.LLST255:
 13490 1208 68030000 		.4byte	.LVL350
 13491 120c 88030000 		.4byte	.LVL352
 13492 1210 0200     		.2byte	0x2
 13493 1212 90       		.byte	0x90
 13494 1213 4C       		.uleb128 0x4c
 13495 1214 00000000 		.4byte	0
 13496 1218 00000000 		.4byte	0
 13497              	.LVUS256:
 13498 121c 00       		.uleb128 .LVU1108
 13499 121d 00       		.uleb128 .LVU1116
 13500              	.LLST256:
 13501 121e 70030000 		.4byte	.LVL351
 13502 1222 88030000 		.4byte	.LVL352
 13503 1226 0200     		.2byte	0x2
 13504 1228 90       		.byte	0x90
 13505 1229 4F       		.uleb128 0x4f
 13506 122a 00000000 		.4byte	0
 13507 122e 00000000 		.4byte	0
 13508              	.LLST161:
 13509 1232 00000000 		.4byte	.LFB23
ARM GAS  /var/folders/cs/83z6p2tj4w57s6p2rt8nwfp00000gn/T//ccDzWS9O.s 			page 265


 13510 1236 10000000 		.4byte	.LCFI25
 13511 123a 0200     		.2byte	0x2
 13512 123c 7D       		.byte	0x7d
 13513 123d 00       		.sleb128 0
 13514 123e 10000000 		.4byte	.LCFI25
 13515 1242 12000000 		.4byte	.LCFI26
 13516 1246 0200     		.2byte	0x2
 13517 1248 7D       		.byte	0x7d
 13518 1249 24       		.sleb128 36
 13519 124a 12000000 		.4byte	.LCFI26
 13520 124e 2A020000 		.4byte	.LCFI27
 13521 1252 0300     		.2byte	0x3
 13522 1254 7D       		.byte	0x7d
 13523 1255 E800     		.sleb128 104
 13524 1257 2A020000 		.4byte	.LCFI27
 13525 125b 2E020000 		.4byte	.LCFI28
 13526 125f 0200     		.2byte	0x2
 13527 1261 7D       		.byte	0x7d
 13528 1262 24       		.sleb128 36
 13529 1263 2E020000 		.4byte	.LCFI28
 13530 1267 AC020000 		.4byte	.LFE23
 13531 126b 0300     		.2byte	0x3
 13532 126d 7D       		.byte	0x7d
 13533 126e E800     		.sleb128 104
 13534 1270 00000000 		.4byte	0
 13535 1274 00000000 		.4byte	0
 13536              	.LVUS162:
 13537 1278 00       		.uleb128 0
 13538 1279 00       		.uleb128 .LVU781
 13539 127a 00       		.uleb128 .LVU781
 13540 127b 00       		.uleb128 .LVU816
 13541 127c 00       		.uleb128 .LVU816
 13542 127d 00       		.uleb128 .LVU843
 13543 127e 00       		.uleb128 .LVU843
 13544 127f 00       		.uleb128 .LVU845
 13545 1280 00       		.uleb128 .LVU845
 13546 1281 00       		.uleb128 .LVU853
 13547 1282 00       		.uleb128 .LVU853
 13548 1283 00       		.uleb128 0
 13549              	.LLST162:
 13550 1284 00000000 		.4byte	.LVL230
 13551 1288 2D010000 		.4byte	.LVL250-1
 13552 128c 0100     		.2byte	0x1
 13553 128e 50       		.byte	0x50
 13554 128f 2D010000 		.4byte	.LVL250-1
 13555 1293 B4010000 		.4byte	.LVL258
 13556 1297 0200     		.2byte	0x2
 13557 1299 91       		.byte	0x91
 13558 129a 40       		.sleb128 -64
 13559 129b B4010000 		.4byte	.LVL258
 13560 129f 16020000 		.4byte	.LVL271
 13561 12a3 0100     		.2byte	0x1
 13562 12a5 50       		.byte	0x50
 13563 12a6 16020000 		.4byte	.LVL271
 13564 12aa 2E020000 		.4byte	.LVL272
 13565 12ae 0400     		.2byte	0x4
 13566 12b0 F3       		.byte	0xf3
ARM GAS  /var/folders/cs/83z6p2tj4w57s6p2rt8nwfp00000gn/T//ccDzWS9O.s 			page 266


 13567 12b1 01       		.uleb128 0x1
 13568 12b2 50       		.byte	0x50
 13569 12b3 9F       		.byte	0x9f
 13570 12b4 2E020000 		.4byte	.LVL272
 13571 12b8 60020000 		.4byte	.LVL274
 13572 12bc 0200     		.2byte	0x2
 13573 12be 91       		.byte	0x91
 13574 12bf 40       		.sleb128 -64
 13575 12c0 60020000 		.4byte	.LVL274
 13576 12c4 AC020000 		.4byte	.LFE23
 13577 12c8 0100     		.2byte	0x1
 13578 12ca 50       		.byte	0x50
 13579 12cb 00000000 		.4byte	0
 13580 12cf 00000000 		.4byte	0
 13581              	.LVUS163:
 13582 12d3 00       		.uleb128 0
 13583 12d4 00       		.uleb128 .LVU781
 13584 12d5 00       		.uleb128 .LVU781
 13585 12d6 00       		.uleb128 .LVU816
 13586 12d7 00       		.uleb128 .LVU816
 13587 12d8 00       		.uleb128 .LVU843
 13588 12d9 00       		.uleb128 .LVU843
 13589 12da 00       		.uleb128 .LVU845
 13590 12db 00       		.uleb128 .LVU845
 13591 12dc 00       		.uleb128 .LVU853
 13592 12dd 00       		.uleb128 .LVU853
 13593 12de 00       		.uleb128 0
 13594              	.LLST163:
 13595 12df 00000000 		.4byte	.LVL230
 13596 12e3 2D010000 		.4byte	.LVL250-1
 13597 12e7 0100     		.2byte	0x1
 13598 12e9 51       		.byte	0x51
 13599 12ea 2D010000 		.4byte	.LVL250-1
 13600 12ee B4010000 		.4byte	.LVL258
 13601 12f2 0200     		.2byte	0x2
 13602 12f4 91       		.byte	0x91
 13603 12f5 44       		.sleb128 -60
 13604 12f6 B4010000 		.4byte	.LVL258
 13605 12fa 16020000 		.4byte	.LVL271
 13606 12fe 0100     		.2byte	0x1
 13607 1300 51       		.byte	0x51
 13608 1301 16020000 		.4byte	.LVL271
 13609 1305 2E020000 		.4byte	.LVL272
 13610 1309 0400     		.2byte	0x4
 13611 130b F3       		.byte	0xf3
 13612 130c 01       		.uleb128 0x1
 13613 130d 51       		.byte	0x51
 13614 130e 9F       		.byte	0x9f
 13615 130f 2E020000 		.4byte	.LVL272
 13616 1313 60020000 		.4byte	.LVL274
 13617 1317 0200     		.2byte	0x2
 13618 1319 91       		.byte	0x91
 13619 131a 44       		.sleb128 -60
 13620 131b 60020000 		.4byte	.LVL274
 13621 131f AC020000 		.4byte	.LFE23
 13622 1323 0100     		.2byte	0x1
 13623 1325 51       		.byte	0x51
ARM GAS  /var/folders/cs/83z6p2tj4w57s6p2rt8nwfp00000gn/T//ccDzWS9O.s 			page 267


 13624 1326 00000000 		.4byte	0
 13625 132a 00000000 		.4byte	0
 13626              	.LVUS164:
 13627 132e 00       		.uleb128 0
 13628 132f 00       		.uleb128 .LVU719
 13629 1330 00       		.uleb128 .LVU719
 13630 1331 00       		.uleb128 .LVU816
 13631 1332 00       		.uleb128 .LVU816
 13632 1333 02       		.uleb128 .LVU821
 13633 1334 02       		.uleb128 .LVU821
 13634 1335 00       		.uleb128 .LVU824
 13635 1336 00       		.uleb128 .LVU824
 13636 1337 00       		.uleb128 .LVU826
 13637 1338 00       		.uleb128 .LVU826
 13638 1339 00       		.uleb128 .LVU828
 13639 133a 00       		.uleb128 .LVU828
 13640 133b 03       		.uleb128 .LVU831
 13641 133c 03       		.uleb128 .LVU831
 13642 133d 00       		.uleb128 .LVU856
 13643 133e 00       		.uleb128 .LVU856
 13644 133f 00       		.uleb128 .LVU860
 13645 1340 00       		.uleb128 .LVU860
 13646 1341 00       		.uleb128 .LVU868
 13647 1342 00       		.uleb128 .LVU868
 13648 1343 00       		.uleb128 .LVU869
 13649 1344 00       		.uleb128 .LVU869
 13650 1345 00       		.uleb128 .LVU873
 13651 1346 00       		.uleb128 .LVU873
 13652 1347 00       		.uleb128 0
 13653              	.LLST164:
 13654 1348 00000000 		.4byte	.LVL230
 13655 134c 48000000 		.4byte	.LVL236
 13656 1350 0100     		.2byte	0x1
 13657 1352 52       		.byte	0x52
 13658 1353 48000000 		.4byte	.LVL236
 13659 1357 B4010000 		.4byte	.LVL258
 13660 135b 0100     		.2byte	0x1
 13661 135d 58       		.byte	0x58
 13662 135e B4010000 		.4byte	.LVL258
 13663 1362 C8010000 		.4byte	.LVL259
 13664 1366 0100     		.2byte	0x1
 13665 1368 52       		.byte	0x52
 13666 1369 C8010000 		.4byte	.LVL259
 13667 136d D8010000 		.4byte	.LVL261
 13668 1371 0100     		.2byte	0x1
 13669 1373 53       		.byte	0x53
 13670 1374 D8010000 		.4byte	.LVL261
 13671 1378 E0010000 		.4byte	.LVL263
 13672 137c 0100     		.2byte	0x1
 13673 137e 55       		.byte	0x55
 13674 137f E0010000 		.4byte	.LVL263
 13675 1383 E6010000 		.4byte	.LVL265
 13676 1387 0100     		.2byte	0x1
 13677 1389 58       		.byte	0x58
 13678 138a E6010000 		.4byte	.LVL265
 13679 138e E6010000 		.4byte	.LVL265
 13680 1392 0100     		.2byte	0x1
ARM GAS  /var/folders/cs/83z6p2tj4w57s6p2rt8nwfp00000gn/T//ccDzWS9O.s 			page 268


 13681 1394 52       		.byte	0x52
 13682 1395 E6010000 		.4byte	.LVL265
 13683 1399 6A020000 		.4byte	.LVL277
 13684 139d 0100     		.2byte	0x1
 13685 139f 58       		.byte	0x58
 13686 13a0 6A020000 		.4byte	.LVL277
 13687 13a4 7A020000 		.4byte	.LVL281
 13688 13a8 0100     		.2byte	0x1
 13689 13aa 52       		.byte	0x52
 13690 13ab 7A020000 		.4byte	.LVL281
 13691 13af 96020000 		.4byte	.LVL285
 13692 13b3 0100     		.2byte	0x1
 13693 13b5 58       		.byte	0x58
 13694 13b6 96020000 		.4byte	.LVL285
 13695 13ba 98020000 		.4byte	.LVL286
 13696 13be 0100     		.2byte	0x1
 13697 13c0 53       		.byte	0x53
 13698 13c1 98020000 		.4byte	.LVL286
 13699 13c5 A4020000 		.4byte	.LVL290
 13700 13c9 0100     		.2byte	0x1
 13701 13cb 55       		.byte	0x55
 13702 13cc A4020000 		.4byte	.LVL290
 13703 13d0 AC020000 		.4byte	.LFE23
 13704 13d4 0100     		.2byte	0x1
 13705 13d6 58       		.byte	0x58
 13706 13d7 00000000 		.4byte	0
 13707 13db 00000000 		.4byte	0
 13708              	.LVUS165:
 13709 13df 00       		.uleb128 0
 13710 13e0 00       		.uleb128 .LVU717
 13711 13e1 00       		.uleb128 .LVU717
 13712 13e2 00       		.uleb128 .LVU719
 13713 13e3 00       		.uleb128 .LVU719
 13714 13e4 00       		.uleb128 .LVU816
 13715 13e5 00       		.uleb128 .LVU816
 13716 13e6 00       		.uleb128 .LVU824
 13717 13e7 00       		.uleb128 .LVU824
 13718 13e8 00       		.uleb128 .LVU826
 13719 13e9 00       		.uleb128 .LVU826
 13720 13ea 00       		.uleb128 .LVU828
 13721 13eb 00       		.uleb128 .LVU828
 13722 13ec 00       		.uleb128 .LVU833
 13723 13ed 00       		.uleb128 .LVU833
 13724 13ee 00       		.uleb128 .LVU835
 13725 13ef 00       		.uleb128 .LVU835
 13726 13f0 00       		.uleb128 .LVU856
 13727 13f1 00       		.uleb128 .LVU856
 13728 13f2 00       		.uleb128 .LVU859
 13729 13f3 00       		.uleb128 .LVU859
 13730 13f4 00       		.uleb128 .LVU868
 13731 13f5 00       		.uleb128 .LVU868
 13732 13f6 00       		.uleb128 .LVU869
 13733 13f7 00       		.uleb128 .LVU869
 13734 13f8 00       		.uleb128 .LVU873
 13735 13f9 00       		.uleb128 .LVU873
 13736 13fa 00       		.uleb128 0
 13737              	.LLST165:
ARM GAS  /var/folders/cs/83z6p2tj4w57s6p2rt8nwfp00000gn/T//ccDzWS9O.s 			page 269


 13738 13fb 00000000 		.4byte	.LVL230
 13739 13ff 38000000 		.4byte	.LVL234
 13740 1403 0100     		.2byte	0x1
 13741 1405 53       		.byte	0x53
 13742 1406 38000000 		.4byte	.LVL234
 13743 140a 48000000 		.4byte	.LVL236
 13744 140e 0100     		.2byte	0x1
 13745 1410 55       		.byte	0x55
 13746 1411 48000000 		.4byte	.LVL236
 13747 1415 B4010000 		.4byte	.LVL258
 13748 1419 0100     		.2byte	0x1
 13749 141b 54       		.byte	0x54
 13750 141c B4010000 		.4byte	.LVL258
 13751 1420 D8010000 		.4byte	.LVL261
 13752 1424 0100     		.2byte	0x1
 13753 1426 53       		.byte	0x53
 13754 1427 D8010000 		.4byte	.LVL261
 13755 142b E0010000 		.4byte	.LVL263
 13756 142f 0100     		.2byte	0x1
 13757 1431 55       		.byte	0x55
 13758 1432 E0010000 		.4byte	.LVL263
 13759 1436 E6010000 		.4byte	.LVL265
 13760 143a 0100     		.2byte	0x1
 13761 143c 58       		.byte	0x58
 13762 143d E6010000 		.4byte	.LVL265
 13763 1441 F4010000 		.4byte	.LVL266
 13764 1445 0100     		.2byte	0x1
 13765 1447 53       		.byte	0x53
 13766 1448 F4010000 		.4byte	.LVL266
 13767 144c FC010000 		.4byte	.LVL268
 13768 1450 0100     		.2byte	0x1
 13769 1452 55       		.byte	0x55
 13770 1453 FC010000 		.4byte	.LVL268
 13771 1457 6A020000 		.4byte	.LVL277
 13772 145b 0100     		.2byte	0x1
 13773 145d 54       		.byte	0x54
 13774 145e 6A020000 		.4byte	.LVL277
 13775 1462 78020000 		.4byte	.LVL280
 13776 1466 0100     		.2byte	0x1
 13777 1468 55       		.byte	0x55
 13778 1469 78020000 		.4byte	.LVL280
 13779 146d 96020000 		.4byte	.LVL285
 13780 1471 0100     		.2byte	0x1
 13781 1473 54       		.byte	0x54
 13782 1474 96020000 		.4byte	.LVL285
 13783 1478 98020000 		.4byte	.LVL286
 13784 147c 0100     		.2byte	0x1
 13785 147e 53       		.byte	0x53
 13786 147f 98020000 		.4byte	.LVL286
 13787 1483 A4020000 		.4byte	.LVL290
 13788 1487 0100     		.2byte	0x1
 13789 1489 55       		.byte	0x55
 13790 148a A4020000 		.4byte	.LVL290
 13791 148e AC020000 		.4byte	.LFE23
 13792 1492 0100     		.2byte	0x1
 13793 1494 58       		.byte	0x58
 13794 1495 00000000 		.4byte	0
ARM GAS  /var/folders/cs/83z6p2tj4w57s6p2rt8nwfp00000gn/T//ccDzWS9O.s 			page 270


 13795 1499 00000000 		.4byte	0
 13796              	.LVUS166:
 13797 149d 00       		.uleb128 0
 13798 149e 00       		.uleb128 .LVU719
 13799 149f 00       		.uleb128 .LVU719
 13800 14a0 00       		.uleb128 .LVU816
 13801 14a1 00       		.uleb128 .LVU816
 13802 14a2 00       		.uleb128 .LVU836
 13803 14a3 00       		.uleb128 .LVU836
 13804 14a4 00       		.uleb128 .LVU856
 13805 14a5 00       		.uleb128 .LVU856
 13806 14a6 00       		.uleb128 .LVU860
 13807 14a7 00       		.uleb128 .LVU860
 13808 14a8 00       		.uleb128 .LVU868
 13809 14a9 00       		.uleb128 .LVU868
 13810 14aa 00       		.uleb128 0
 13811              	.LLST166:
 13812 14ab 00000000 		.4byte	.LVL230
 13813 14af 48000000 		.4byte	.LVL236
 13814 14b3 0200     		.2byte	0x2
 13815 14b5 91       		.byte	0x91
 13816 14b6 00       		.sleb128 0
 13817 14b7 48000000 		.4byte	.LVL236
 13818 14bb B4010000 		.4byte	.LVL258
 13819 14bf 0100     		.2byte	0x1
 13820 14c1 55       		.byte	0x55
 13821 14c2 B4010000 		.4byte	.LVL258
 13822 14c6 FE010000 		.4byte	.LVL269
 13823 14ca 0200     		.2byte	0x2
 13824 14cc 91       		.byte	0x91
 13825 14cd 00       		.sleb128 0
 13826 14ce FE010000 		.4byte	.LVL269
 13827 14d2 6A020000 		.4byte	.LVL277
 13828 14d6 0100     		.2byte	0x1
 13829 14d8 55       		.byte	0x55
 13830 14d9 6A020000 		.4byte	.LVL277
 13831 14dd 7A020000 		.4byte	.LVL281
 13832 14e1 0200     		.2byte	0x2
 13833 14e3 91       		.byte	0x91
 13834 14e4 00       		.sleb128 0
 13835 14e5 7A020000 		.4byte	.LVL281
 13836 14e9 96020000 		.4byte	.LVL285
 13837 14ed 0100     		.2byte	0x1
 13838 14ef 55       		.byte	0x55
 13839 14f0 96020000 		.4byte	.LVL285
 13840 14f4 AC020000 		.4byte	.LFE23
 13841 14f8 0200     		.2byte	0x2
 13842 14fa 91       		.byte	0x91
 13843 14fb 00       		.sleb128 0
 13844 14fc 00000000 		.4byte	0
 13845 1500 00000000 		.4byte	0
 13846              	.LVUS167:
 13847 1504 00       		.uleb128 0
 13848 1505 00       		.uleb128 .LVU845
 13849 1506 00       		.uleb128 .LVU845
 13850 1507 00       		.uleb128 0
 13851              	.LLST167:
ARM GAS  /var/folders/cs/83z6p2tj4w57s6p2rt8nwfp00000gn/T//ccDzWS9O.s 			page 271


 13852 1508 00000000 		.4byte	.LVL230
 13853 150c 2E020000 		.4byte	.LVL272
 13854 1510 0200     		.2byte	0x2
 13855 1512 91       		.byte	0x91
 13856 1513 04       		.sleb128 4
 13857 1514 2E020000 		.4byte	.LVL272
 13858 1518 AC020000 		.4byte	.LFE23
 13859 151c 0200     		.2byte	0x2
 13860 151e 91       		.byte	0x91
 13861 151f 04       		.sleb128 4
 13862 1520 00000000 		.4byte	0
 13863 1524 00000000 		.4byte	0
 13864              	.LVUS168:
 13865 1528 00       		.uleb128 .LVU724
 13866 1529 00       		.uleb128 .LVU727
 13867 152a 00       		.uleb128 .LVU836
 13868 152b 00       		.uleb128 .LVU841
 13869 152c 00       		.uleb128 .LVU855
 13870 152d 00       		.uleb128 .LVU856
 13871              	.LLST168:
 13872 152e 5C000000 		.4byte	.LVL237
 13873 1532 6A000000 		.4byte	.LVL238
 13874 1536 0300     		.2byte	0x3
 13875 1538 08       		.byte	0x8
 13876 1539 F0       		.byte	0xf0
 13877 153a 9F       		.byte	0x9f
 13878 153b FE010000 		.4byte	.LVL269
 13879 153f 12020000 		.4byte	.LVL270
 13880 1543 0800     		.2byte	0x8
 13881 1545 F5       		.byte	0xf5
 13882 1546 4F       		.uleb128 0x4f
 13883 1547 29       		.uleb128 0x29
 13884 1548 F7       		.byte	0xf7
 13885 1549 30       		.uleb128 0x30
 13886 154a F7       		.byte	0xf7
 13887 154b 00       		.uleb128 0
 13888 154c 9F       		.byte	0x9f
 13889 154d 64020000 		.4byte	.LVL276
 13890 1551 6A020000 		.4byte	.LVL277
 13891 1555 0800     		.2byte	0x8
 13892 1557 F5       		.byte	0xf5
 13893 1558 4F       		.uleb128 0x4f
 13894 1559 29       		.uleb128 0x29
 13895 155a F7       		.byte	0xf7
 13896 155b 30       		.uleb128 0x30
 13897 155c F7       		.byte	0xf7
 13898 155d 00       		.uleb128 0
 13899 155e 9F       		.byte	0x9f
 13900 155f 00000000 		.4byte	0
 13901 1563 00000000 		.4byte	0
 13902              	.LVUS169:
 13903 1567 00       		.uleb128 .LVU750
 13904 1568 00       		.uleb128 .LVU816
 13905 1569 00       		.uleb128 .LVU845
 13906 156a 00       		.uleb128 .LVU855
 13907 156b 00       		.uleb128 .LVU860
 13908 156c 00       		.uleb128 .LVU864
ARM GAS  /var/folders/cs/83z6p2tj4w57s6p2rt8nwfp00000gn/T//ccDzWS9O.s 			page 272


 13909              	.LLST169:
 13910 156d AE000000 		.4byte	.LVL242
 13911 1571 B4010000 		.4byte	.LVL258
 13912 1575 0300     		.2byte	0x3
 13913 1577 91       		.byte	0x91
 13914 1578 B47F     		.sleb128 -76
 13915 157a 2E020000 		.4byte	.LVL272
 13916 157e 64020000 		.4byte	.LVL276
 13917 1582 0300     		.2byte	0x3
 13918 1584 91       		.byte	0x91
 13919 1585 B47F     		.sleb128 -76
 13920 1587 7A020000 		.4byte	.LVL281
 13921 158b 88020000 		.4byte	.LVL283
 13922 158f 0300     		.2byte	0x3
 13923 1591 91       		.byte	0x91
 13924 1592 B47F     		.sleb128 -76
 13925 1594 00000000 		.4byte	0
 13926 1598 00000000 		.4byte	0
 13927              	.LVUS170:
 13928 159c 00       		.uleb128 .LVU765
 13929 159d 00       		.uleb128 .LVU816
 13930 159e 00       		.uleb128 .LVU845
 13931 159f 00       		.uleb128 .LVU855
 13932              	.LLST170:
 13933 15a0 DA000000 		.4byte	.LVL245
 13934 15a4 B4010000 		.4byte	.LVL258
 13935 15a8 0100     		.2byte	0x1
 13936 15aa 59       		.byte	0x59
 13937 15ab 2E020000 		.4byte	.LVL272
 13938 15af 64020000 		.4byte	.LVL276
 13939 15b3 0100     		.2byte	0x1
 13940 15b5 59       		.byte	0x59
 13941 15b6 00000000 		.4byte	0
 13942 15ba 00000000 		.4byte	0
 13943              	.LVUS171:
 13944 15be 00       		.uleb128 .LVU775
 13945 15bf 00       		.uleb128 .LVU777
 13946 15c0 00       		.uleb128 .LVU777
 13947 15c1 00       		.uleb128 .LVU816
 13948 15c2 00       		.uleb128 .LVU845
 13949 15c3 00       		.uleb128 .LVU855
 13950              	.LLST171:
 13951 15c4 FC000000 		.4byte	.LVL246
 13952 15c8 00010000 		.4byte	.LVL247
 13953 15cc 0100     		.2byte	0x1
 13954 15ce 52       		.byte	0x52
 13955 15cf 00010000 		.4byte	.LVL247
 13956 15d3 B4010000 		.4byte	.LVL258
 13957 15d7 0300     		.2byte	0x3
 13958 15d9 91       		.byte	0x91
 13959 15da B87F     		.sleb128 -72
 13960 15dc 2E020000 		.4byte	.LVL272
 13961 15e0 64020000 		.4byte	.LVL276
 13962 15e4 0300     		.2byte	0x3
 13963 15e6 91       		.byte	0x91
 13964 15e7 B87F     		.sleb128 -72
 13965 15e9 00000000 		.4byte	0
ARM GAS  /var/folders/cs/83z6p2tj4w57s6p2rt8nwfp00000gn/T//ccDzWS9O.s 			page 273


 13966 15ed 00000000 		.4byte	0
 13967              	.LVUS172:
 13968 15f1 00       		.uleb128 .LVU778
 13969 15f2 00       		.uleb128 .LVU780
 13970 15f3 00       		.uleb128 .LVU780
 13971 15f4 00       		.uleb128 .LVU816
 13972 15f5 00       		.uleb128 .LVU845
 13973 15f6 00       		.uleb128 .LVU853
 13974 15f7 00       		.uleb128 .LVU853
 13975 15f8 00       		.uleb128 .LVU854
 13976 15f9 00       		.uleb128 .LVU854
 13977 15fa 00       		.uleb128 .LVU855
 13978              	.LLST172:
 13979 15fb 02010000 		.4byte	.LVL248
 13980 15ff 0E010000 		.4byte	.LVL249
 13981 1603 0100     		.2byte	0x1
 13982 1605 53       		.byte	0x53
 13983 1606 0E010000 		.4byte	.LVL249
 13984 160a B4010000 		.4byte	.LVL258
 13985 160e 0300     		.2byte	0x3
 13986 1610 91       		.byte	0x91
 13987 1611 BC7F     		.sleb128 -68
 13988 1613 2E020000 		.4byte	.LVL272
 13989 1617 60020000 		.4byte	.LVL274
 13990 161b 0300     		.2byte	0x3
 13991 161d 91       		.byte	0x91
 13992 161e BC7F     		.sleb128 -68
 13993 1620 60020000 		.4byte	.LVL274
 13994 1624 62020000 		.4byte	.LVL275
 13995 1628 0100     		.2byte	0x1
 13996 162a 53       		.byte	0x53
 13997 162b 62020000 		.4byte	.LVL275
 13998 162f 64020000 		.4byte	.LVL276
 13999 1633 0300     		.2byte	0x3
 14000 1635 91       		.byte	0x91
 14001 1636 BC7F     		.sleb128 -68
 14002 1638 00000000 		.4byte	0
 14003 163c 00000000 		.4byte	0
 14004              	.LVUS173:
 14005 1640 00       		.uleb128 .LVU804
 14006 1641 00       		.uleb128 .LVU816
 14007 1642 00       		.uleb128 .LVU845
 14008 1643 00       		.uleb128 .LVU853
 14009              	.LLST173:
 14010 1644 70010000 		.4byte	.LVL256
 14011 1648 B4010000 		.4byte	.LVL258
 14012 164c 0200     		.2byte	0x2
 14013 164e 90       		.byte	0x90
 14014 164f 4C       		.uleb128 0x4c
 14015 1650 2E020000 		.4byte	.LVL272
 14016 1654 60020000 		.4byte	.LVL274
 14017 1658 0200     		.2byte	0x2
 14018 165a 90       		.byte	0x90
 14019 165b 4C       		.uleb128 0x4c
 14020 165c 00000000 		.4byte	0
 14021 1660 00000000 		.4byte	0
 14022              	.LVUS174:
ARM GAS  /var/folders/cs/83z6p2tj4w57s6p2rt8nwfp00000gn/T//ccDzWS9O.s 			page 274


 14023 1664 02       		.uleb128 .LVU703
 14024 1665 00       		.uleb128 .LVU719
 14025 1666 00       		.uleb128 .LVU816
 14026 1667 00       		.uleb128 .LVU836
 14027 1668 00       		.uleb128 .LVU856
 14028 1669 00       		.uleb128 .LVU860
 14029 166a 00       		.uleb128 .LVU868
 14030 166b 00       		.uleb128 0
 14031              	.LLST174:
 14032 166c 00000000 		.4byte	.LVL230
 14033 1670 48000000 		.4byte	.LVL236
 14034 1674 0600     		.2byte	0x6
 14035 1676 F2       		.byte	0xf2
 14036 1677 0B150000 		.4byte	.Ldebug_info0+5387
 14037 167b 00       		.sleb128 0
 14038 167c B4010000 		.4byte	.LVL258
 14039 1680 FE010000 		.4byte	.LVL269
 14040 1684 0600     		.2byte	0x6
 14041 1686 F2       		.byte	0xf2
 14042 1687 0B150000 		.4byte	.Ldebug_info0+5387
 14043 168b 00       		.sleb128 0
 14044 168c 6A020000 		.4byte	.LVL277
 14045 1690 7A020000 		.4byte	.LVL281
 14046 1694 0600     		.2byte	0x6
 14047 1696 F2       		.byte	0xf2
 14048 1697 0B150000 		.4byte	.Ldebug_info0+5387
 14049 169b 00       		.sleb128 0
 14050 169c 96020000 		.4byte	.LVL285
 14051 16a0 AC020000 		.4byte	.LFE23
 14052 16a4 0600     		.2byte	0x6
 14053 16a6 F2       		.byte	0xf2
 14054 16a7 0B150000 		.4byte	.Ldebug_info0+5387
 14055 16ab 00       		.sleb128 0
 14056 16ac 00000000 		.4byte	0
 14057 16b0 00000000 		.4byte	0
 14058              	.LVUS175:
 14059 16b4 02       		.uleb128 .LVU703
 14060 16b5 00       		.uleb128 .LVU719
 14061 16b6 00       		.uleb128 .LVU816
 14062 16b7 00       		.uleb128 .LVU836
 14063 16b8 00       		.uleb128 .LVU856
 14064 16b9 00       		.uleb128 .LVU860
 14065 16ba 00       		.uleb128 .LVU868
 14066 16bb 00       		.uleb128 0
 14067              	.LLST175:
 14068 16bc 00000000 		.4byte	.LVL230
 14069 16c0 48000000 		.4byte	.LVL236
 14070 16c4 0600     		.2byte	0x6
 14071 16c6 F2       		.byte	0xf2
 14072 16c7 F7140000 		.4byte	.Ldebug_info0+5367
 14073 16cb 00       		.sleb128 0
 14074 16cc B4010000 		.4byte	.LVL258
 14075 16d0 FE010000 		.4byte	.LVL269
 14076 16d4 0600     		.2byte	0x6
 14077 16d6 F2       		.byte	0xf2
 14078 16d7 F7140000 		.4byte	.Ldebug_info0+5367
 14079 16db 00       		.sleb128 0
ARM GAS  /var/folders/cs/83z6p2tj4w57s6p2rt8nwfp00000gn/T//ccDzWS9O.s 			page 275


 14080 16dc 6A020000 		.4byte	.LVL277
 14081 16e0 7A020000 		.4byte	.LVL281
 14082 16e4 0600     		.2byte	0x6
 14083 16e6 F2       		.byte	0xf2
 14084 16e7 F7140000 		.4byte	.Ldebug_info0+5367
 14085 16eb 00       		.sleb128 0
 14086 16ec 96020000 		.4byte	.LVL285
 14087 16f0 AC020000 		.4byte	.LFE23
 14088 16f4 0600     		.2byte	0x6
 14089 16f6 F2       		.byte	0xf2
 14090 16f7 F7140000 		.4byte	.Ldebug_info0+5367
 14091 16fb 00       		.sleb128 0
 14092 16fc 00000000 		.4byte	0
 14093 1700 00000000 		.4byte	0
 14094              	.LVUS176:
 14095 1704 02       		.uleb128 .LVU703
 14096 1705 00       		.uleb128 .LVU719
 14097 1706 00       		.uleb128 .LVU816
 14098 1707 00       		.uleb128 .LVU836
 14099 1708 00       		.uleb128 .LVU856
 14100 1709 00       		.uleb128 .LVU860
 14101 170a 00       		.uleb128 .LVU868
 14102 170b 00       		.uleb128 0
 14103              	.LLST176:
 14104 170c 00000000 		.4byte	.LVL230
 14105 1710 48000000 		.4byte	.LVL236
 14106 1714 0600     		.2byte	0x6
 14107 1716 F2       		.byte	0xf2
 14108 1717 E3140000 		.4byte	.Ldebug_info0+5347
 14109 171b 00       		.sleb128 0
 14110 171c B4010000 		.4byte	.LVL258
 14111 1720 FE010000 		.4byte	.LVL269
 14112 1724 0600     		.2byte	0x6
 14113 1726 F2       		.byte	0xf2
 14114 1727 E3140000 		.4byte	.Ldebug_info0+5347
 14115 172b 00       		.sleb128 0
 14116 172c 6A020000 		.4byte	.LVL277
 14117 1730 7A020000 		.4byte	.LVL281
 14118 1734 0600     		.2byte	0x6
 14119 1736 F2       		.byte	0xf2
 14120 1737 E3140000 		.4byte	.Ldebug_info0+5347
 14121 173b 00       		.sleb128 0
 14122 173c 96020000 		.4byte	.LVL285
 14123 1740 AC020000 		.4byte	.LFE23
 14124 1744 0600     		.2byte	0x6
 14125 1746 F2       		.byte	0xf2
 14126 1747 E3140000 		.4byte	.Ldebug_info0+5347
 14127 174b 00       		.sleb128 0
 14128 174c 00000000 		.4byte	0
 14129 1750 00000000 		.4byte	0
 14130              	.LVUS177:
 14131 1754 00       		.uleb128 .LVU706
 14132 1755 00       		.uleb128 .LVU719
 14133 1756 00       		.uleb128 .LVU816
 14134 1757 00       		.uleb128 .LVU823
 14135 1758 00       		.uleb128 .LVU823
 14136 1759 00       		.uleb128 .LVU828
ARM GAS  /var/folders/cs/83z6p2tj4w57s6p2rt8nwfp00000gn/T//ccDzWS9O.s 			page 276


 14137 175a 00       		.uleb128 .LVU828
 14138 175b 00       		.uleb128 .LVU836
 14139 175c 00       		.uleb128 .LVU856
 14140 175d 00       		.uleb128 .LVU860
 14141 175e 00       		.uleb128 .LVU868
 14142 175f 00       		.uleb128 0
 14143              	.LLST177:
 14144 1760 04000000 		.4byte	.LVL231
 14145 1764 48000000 		.4byte	.LVL236
 14146 1768 0200     		.2byte	0x2
 14147 176a 90       		.byte	0x90
 14148 176b 4D       		.uleb128 0x4d
 14149 176c B4010000 		.4byte	.LVL258
 14150 1770 D6010000 		.4byte	.LVL260
 14151 1774 0200     		.2byte	0x2
 14152 1776 90       		.byte	0x90
 14153 1777 4D       		.uleb128 0x4d
 14154 1778 D6010000 		.4byte	.LVL260
 14155 177c E6010000 		.4byte	.LVL265
 14156 1780 0200     		.2byte	0x2
 14157 1782 72       		.byte	0x72
 14158 1783 04       		.sleb128 4
 14159 1784 E6010000 		.4byte	.LVL265
 14160 1788 FE010000 		.4byte	.LVL269
 14161 178c 0200     		.2byte	0x2
 14162 178e 90       		.byte	0x90
 14163 178f 4D       		.uleb128 0x4d
 14164 1790 6A020000 		.4byte	.LVL277
 14165 1794 7A020000 		.4byte	.LVL281
 14166 1798 0200     		.2byte	0x2
 14167 179a 90       		.byte	0x90
 14168 179b 4D       		.uleb128 0x4d
 14169 179c 96020000 		.4byte	.LVL285
 14170 17a0 AC020000 		.4byte	.LFE23
 14171 17a4 0200     		.2byte	0x2
 14172 17a6 90       		.byte	0x90
 14173 17a7 4D       		.uleb128 0x4d
 14174 17a8 00000000 		.4byte	0
 14175 17ac 00000000 		.4byte	0
 14176              	.LVUS178:
 14177 17b0 00       		.uleb128 .LVU707
 14178 17b1 00       		.uleb128 .LVU719
 14179 17b2 00       		.uleb128 .LVU816
 14180 17b3 00       		.uleb128 .LVU825
 14181 17b4 00       		.uleb128 .LVU825
 14182 17b5 00       		.uleb128 .LVU826
 14183 17b6 00       		.uleb128 .LVU826
 14184 17b7 00       		.uleb128 .LVU828
 14185 17b8 00       		.uleb128 .LVU828
 14186 17b9 00       		.uleb128 .LVU834
 14187 17ba 00       		.uleb128 .LVU834
 14188 17bb 00       		.uleb128 .LVU835
 14189 17bc 00       		.uleb128 .LVU835
 14190 17bd 00       		.uleb128 .LVU836
 14191 17be 00       		.uleb128 .LVU856
 14192 17bf 00       		.uleb128 .LVU857
 14193 17c0 00       		.uleb128 .LVU857
ARM GAS  /var/folders/cs/83z6p2tj4w57s6p2rt8nwfp00000gn/T//ccDzWS9O.s 			page 277


 14194 17c1 00       		.uleb128 .LVU859
 14195 17c2 00       		.uleb128 .LVU859
 14196 17c3 00       		.uleb128 .LVU860
 14197 17c4 00       		.uleb128 .LVU868
 14198 17c5 00       		.uleb128 .LVU872
 14199 17c6 00       		.uleb128 .LVU872
 14200 17c7 00       		.uleb128 .LVU873
 14201 17c8 00       		.uleb128 .LVU873
 14202 17c9 00       		.uleb128 0
 14203              	.LLST178:
 14204 17ca 08000000 		.4byte	.LVL232
 14205 17ce 48000000 		.4byte	.LVL236
 14206 17d2 0200     		.2byte	0x2
 14207 17d4 90       		.byte	0x90
 14208 17d5 4F       		.uleb128 0x4f
 14209 17d6 B4010000 		.4byte	.LVL258
 14210 17da DC010000 		.4byte	.LVL262
 14211 17de 0200     		.2byte	0x2
 14212 17e0 90       		.byte	0x90
 14213 17e1 4F       		.uleb128 0x4f
 14214 17e2 DC010000 		.4byte	.LVL262
 14215 17e6 E0010000 		.4byte	.LVL263
 14216 17ea 0200     		.2byte	0x2
 14217 17ec 75       		.byte	0x75
 14218 17ed 04       		.sleb128 4
 14219 17ee E0010000 		.4byte	.LVL263
 14220 17f2 E6010000 		.4byte	.LVL265
 14221 17f6 0200     		.2byte	0x2
 14222 17f8 78       		.byte	0x78
 14223 17f9 04       		.sleb128 4
 14224 17fa E6010000 		.4byte	.LVL265
 14225 17fe F8010000 		.4byte	.LVL267
 14226 1802 0200     		.2byte	0x2
 14227 1804 90       		.byte	0x90
 14228 1805 4F       		.uleb128 0x4f
 14229 1806 F8010000 		.4byte	.LVL267
 14230 180a FC010000 		.4byte	.LVL268
 14231 180e 0200     		.2byte	0x2
 14232 1810 75       		.byte	0x75
 14233 1811 04       		.sleb128 4
 14234 1812 FC010000 		.4byte	.LVL268
 14235 1816 FE010000 		.4byte	.LVL269
 14236 181a 0200     		.2byte	0x2
 14237 181c 74       		.byte	0x74
 14238 181d 04       		.sleb128 4
 14239 181e 6A020000 		.4byte	.LVL277
 14240 1822 6E020000 		.4byte	.LVL278
 14241 1826 0200     		.2byte	0x2
 14242 1828 90       		.byte	0x90
 14243 1829 4F       		.uleb128 0x4f
 14244 182a 6E020000 		.4byte	.LVL278
 14245 182e 78020000 		.4byte	.LVL280
 14246 1832 0200     		.2byte	0x2
 14247 1834 75       		.byte	0x75
 14248 1835 04       		.sleb128 4
 14249 1836 78020000 		.4byte	.LVL280
 14250 183a 7A020000 		.4byte	.LVL281
ARM GAS  /var/folders/cs/83z6p2tj4w57s6p2rt8nwfp00000gn/T//ccDzWS9O.s 			page 278


 14251 183e 0200     		.2byte	0x2
 14252 1840 74       		.byte	0x74
 14253 1841 04       		.sleb128 4
 14254 1842 96020000 		.4byte	.LVL285
 14255 1846 A2020000 		.4byte	.LVL289
 14256 184a 0200     		.2byte	0x2
 14257 184c 90       		.byte	0x90
 14258 184d 4F       		.uleb128 0x4f
 14259 184e A2020000 		.4byte	.LVL289
 14260 1852 A4020000 		.4byte	.LVL290
 14261 1856 0200     		.2byte	0x2
 14262 1858 75       		.byte	0x75
 14263 1859 04       		.sleb128 4
 14264 185a A4020000 		.4byte	.LVL290
 14265 185e AC020000 		.4byte	.LFE23
 14266 1862 0200     		.2byte	0x2
 14267 1864 78       		.byte	0x78
 14268 1865 04       		.sleb128 4
 14269 1866 00000000 		.4byte	0
 14270 186a 00000000 		.4byte	0
 14271              	.LVUS179:
 14272 186e 00       		.uleb128 .LVU712
 14273 186f 00       		.uleb128 .LVU718
 14274 1870 00       		.uleb128 .LVU718
 14275 1871 00       		.uleb128 .LVU719
 14276 1872 00       		.uleb128 .LVU816
 14277 1873 00       		.uleb128 .LVU827
 14278 1874 00       		.uleb128 .LVU827
 14279 1875 00       		.uleb128 .LVU828
 14280 1876 00       		.uleb128 .LVU828
 14281 1877 00       		.uleb128 .LVU836
 14282 1878 00       		.uleb128 .LVU856
 14283 1879 00       		.uleb128 .LVU858
 14284 187a 00       		.uleb128 .LVU858
 14285 187b 00       		.uleb128 .LVU860
 14286 187c 00       		.uleb128 .LVU868
 14287 187d 00       		.uleb128 .LVU870
 14288 187e 00       		.uleb128 .LVU870
 14289 187f 00       		.uleb128 .LVU871
 14290 1880 00       		.uleb128 .LVU871
 14291 1881 00       		.uleb128 0
 14292              	.LLST179:
 14293 1882 22000000 		.4byte	.LVL233
 14294 1886 44000000 		.4byte	.LVL235
 14295 188a 0200     		.2byte	0x2
 14296 188c 90       		.byte	0x90
 14297 188d 4E       		.uleb128 0x4e
 14298 188e 44000000 		.4byte	.LVL235
 14299 1892 48000000 		.4byte	.LVL236
 14300 1896 0200     		.2byte	0x2
 14301 1898 73       		.byte	0x73
 14302 1899 04       		.sleb128 4
 14303 189a B4010000 		.4byte	.LVL258
 14304 189e E4010000 		.4byte	.LVL264
 14305 18a2 0200     		.2byte	0x2
 14306 18a4 90       		.byte	0x90
 14307 18a5 4E       		.uleb128 0x4e
ARM GAS  /var/folders/cs/83z6p2tj4w57s6p2rt8nwfp00000gn/T//ccDzWS9O.s 			page 279


 14308 18a6 E4010000 		.4byte	.LVL264
 14309 18aa E6010000 		.4byte	.LVL265
 14310 18ae 0500     		.2byte	0x5
 14311 18b0 91       		.byte	0x91
 14312 18b1 00       		.sleb128 0
 14313 18b2 06       		.byte	0x6
 14314 18b3 23       		.byte	0x23
 14315 18b4 04       		.uleb128 0x4
 14316 18b5 E6010000 		.4byte	.LVL265
 14317 18b9 FE010000 		.4byte	.LVL269
 14318 18bd 0200     		.2byte	0x2
 14319 18bf 90       		.byte	0x90
 14320 18c0 4E       		.uleb128 0x4e
 14321 18c1 6A020000 		.4byte	.LVL277
 14322 18c5 74020000 		.4byte	.LVL279
 14323 18c9 0200     		.2byte	0x2
 14324 18cb 90       		.byte	0x90
 14325 18cc 4E       		.uleb128 0x4e
 14326 18cd 74020000 		.4byte	.LVL279
 14327 18d1 7A020000 		.4byte	.LVL281
 14328 18d5 0200     		.2byte	0x2
 14329 18d7 73       		.byte	0x73
 14330 18d8 04       		.sleb128 4
 14331 18d9 96020000 		.4byte	.LVL285
 14332 18dd 9C020000 		.4byte	.LVL287
 14333 18e1 0200     		.2byte	0x2
 14334 18e3 90       		.byte	0x90
 14335 18e4 4E       		.uleb128 0x4e
 14336 18e5 9C020000 		.4byte	.LVL287
 14337 18e9 9E020000 		.4byte	.LVL288
 14338 18ed 0200     		.2byte	0x2
 14339 18ef 78       		.byte	0x78
 14340 18f0 04       		.sleb128 4
 14341 18f1 9E020000 		.4byte	.LVL288
 14342 18f5 AC020000 		.4byte	.LFE23
 14343 18f9 0500     		.2byte	0x5
 14344 18fb 91       		.byte	0x91
 14345 18fc 00       		.sleb128 0
 14346 18fd 06       		.byte	0x6
 14347 18fe 23       		.byte	0x23
 14348 18ff 04       		.uleb128 0x4
 14349 1900 00000000 		.4byte	0
 14350 1904 00000000 		.4byte	0
 14351              	.LVUS180:
 14352 1908 01       		.uleb128 .LVU820
 14353 1909 00       		.uleb128 .LVU828
 14354 190a 00       		.uleb128 .LVU868
 14355 190b 00       		.uleb128 0
 14356              	.LLST180:
 14357 190c C8010000 		.4byte	.LVL259
 14358 1910 E6010000 		.4byte	.LVL265
 14359 1914 0100     		.2byte	0x1
 14360 1916 52       		.byte	0x52
 14361 1917 96020000 		.4byte	.LVL285
 14362 191b AC020000 		.4byte	.LFE23
 14363 191f 0100     		.2byte	0x1
 14364 1921 52       		.byte	0x52
ARM GAS  /var/folders/cs/83z6p2tj4w57s6p2rt8nwfp00000gn/T//ccDzWS9O.s 			page 280


 14365 1922 00000000 		.4byte	0
 14366 1926 00000000 		.4byte	0
 14367              	.LVUS181:
 14368 192a 02       		.uleb128 .LVU830
 14369 192b 00       		.uleb128 .LVU836
 14370              	.LLST181:
 14371 192c E6010000 		.4byte	.LVL265
 14372 1930 FE010000 		.4byte	.LVL269
 14373 1934 0100     		.2byte	0x1
 14374 1936 52       		.byte	0x52
 14375 1937 00000000 		.4byte	0
 14376 193b 00000000 		.4byte	0
 14377              	.LVUS182:
 14378 193f 01       		.uleb128 .LVU740
 14379 1940 00       		.uleb128 .LVU750
 14380 1941 00       		.uleb128 .LVU864
 14381 1942 00       		.uleb128 .LVU868
 14382              	.LLST182:
 14383 1943 96000000 		.4byte	.LVL239
 14384 1947 AE000000 		.4byte	.LVL242
 14385 194b 0200     		.2byte	0x2
 14386 194d 90       		.byte	0x90
 14387 194e 4D       		.uleb128 0x4d
 14388 194f 88020000 		.4byte	.LVL283
 14389 1953 96020000 		.4byte	.LVL285
 14390 1957 0200     		.2byte	0x2
 14391 1959 90       		.byte	0x90
 14392 195a 4D       		.uleb128 0x4d
 14393 195b 00000000 		.4byte	0
 14394 195f 00000000 		.4byte	0
 14395              	.LVUS183:
 14396 1963 01       		.uleb128 .LVU740
 14397 1964 00       		.uleb128 .LVU743
 14398 1965 00       		.uleb128 .LVU743
 14399 1966 00       		.uleb128 .LVU750
 14400 1967 00       		.uleb128 .LVU864
 14401 1968 00       		.uleb128 .LVU868
 14402              	.LLST183:
 14403 1969 96000000 		.4byte	.LVL239
 14404 196d 9A000000 		.4byte	.LVL240
 14405 1971 0200     		.2byte	0x2
 14406 1973 90       		.byte	0x90
 14407 1974 4B       		.uleb128 0x4b
 14408 1975 9A000000 		.4byte	.LVL240
 14409 1979 AE000000 		.4byte	.LVL242
 14410 197d 0200     		.2byte	0x2
 14411 197f 74       		.byte	0x74
 14412 1980 00       		.sleb128 0
 14413 1981 88020000 		.4byte	.LVL283
 14414 1985 96020000 		.4byte	.LVL285
 14415 1989 0200     		.2byte	0x2
 14416 198b 74       		.byte	0x74
 14417 198c 00       		.sleb128 0
 14418 198d 00000000 		.4byte	0
 14419 1991 00000000 		.4byte	0
 14420              	.LVUS184:
 14421 1995 01       		.uleb128 .LVU740
ARM GAS  /var/folders/cs/83z6p2tj4w57s6p2rt8nwfp00000gn/T//ccDzWS9O.s 			page 281


 14422 1996 00       		.uleb128 .LVU750
 14423 1997 00       		.uleb128 .LVU864
 14424 1998 00       		.uleb128 .LVU868
 14425              	.LLST184:
 14426 1999 96000000 		.4byte	.LVL239
 14427 199d AE000000 		.4byte	.LVL242
 14428 19a1 0200     		.2byte	0x2
 14429 19a3 90       		.byte	0x90
 14430 19a4 4E       		.uleb128 0x4e
 14431 19a5 88020000 		.4byte	.LVL283
 14432 19a9 96020000 		.4byte	.LVL285
 14433 19ad 0200     		.2byte	0x2
 14434 19af 90       		.byte	0x90
 14435 19b0 4E       		.uleb128 0x4e
 14436 19b1 00000000 		.4byte	0
 14437 19b5 00000000 		.4byte	0
 14438              	.LVUS185:
 14439 19b9 01       		.uleb128 .LVU740
 14440 19ba 00       		.uleb128 .LVU750
 14441 19bb 00       		.uleb128 .LVU864
 14442 19bc 00       		.uleb128 .LVU868
 14443              	.LLST185:
 14444 19bd 96000000 		.4byte	.LVL239
 14445 19c1 AE000000 		.4byte	.LVL242
 14446 19c5 0200     		.2byte	0x2
 14447 19c7 90       		.byte	0x90
 14448 19c8 4C       		.uleb128 0x4c
 14449 19c9 88020000 		.4byte	.LVL283
 14450 19cd 96020000 		.4byte	.LVL285
 14451 19d1 0200     		.2byte	0x2
 14452 19d3 90       		.byte	0x90
 14453 19d4 4C       		.uleb128 0x4c
 14454 19d5 00000000 		.4byte	0
 14455 19d9 00000000 		.4byte	0
 14456              	.LVUS186:
 14457 19dd 00       		.uleb128 .LVU743
 14458 19de 00       		.uleb128 .LVU749
 14459 19df 00       		.uleb128 .LVU749
 14460 19e0 00       		.uleb128 .LVU750
 14461 19e1 00       		.uleb128 .LVU864
 14462 19e2 00       		.uleb128 .LVU868
 14463              	.LLST186:
 14464 19e3 9A000000 		.4byte	.LVL240
 14465 19e7 A6000000 		.4byte	.LVL241
 14466 19eb 0200     		.2byte	0x2
 14467 19ed 90       		.byte	0x90
 14468 19ee 4B       		.uleb128 0x4b
 14469 19ef A6000000 		.4byte	.LVL241
 14470 19f3 AE000000 		.4byte	.LVL242
 14471 19f7 0A00     		.2byte	0xa
 14472 19f9 74       		.byte	0x74
 14473 19fa 00       		.sleb128 0
 14474 19fb F6       		.byte	0xf6
 14475 19fc 04       		.byte	0x4
 14476 19fd 29       		.uleb128 0x29
 14477 19fe F5       		.byte	0xf5
 14478 19ff 4C       		.uleb128 0x4c
ARM GAS  /var/folders/cs/83z6p2tj4w57s6p2rt8nwfp00000gn/T//ccDzWS9O.s 			page 282


 14479 1a00 29       		.uleb128 0x29
 14480 1a01 1C       		.byte	0x1c
 14481 1a02 9F       		.byte	0x9f
 14482 1a03 88020000 		.4byte	.LVL283
 14483 1a07 96020000 		.4byte	.LVL285
 14484 1a0b 0200     		.2byte	0x2
 14485 1a0d 90       		.byte	0x90
 14486 1a0e 4B       		.uleb128 0x4b
 14487 1a0f 00000000 		.4byte	0
 14488 1a13 00000000 		.4byte	0
 14489              	.LVUS187:
 14490 1a17 01       		.uleb128 .LVU744
 14491 1a18 00       		.uleb128 .LVU750
 14492 1a19 00       		.uleb128 .LVU864
 14493 1a1a 00       		.uleb128 .LVU867
 14494 1a1b 00       		.uleb128 .LVU867
 14495 1a1c 00       		.uleb128 .LVU868
 14496              	.LLST187:
 14497 1a1d 9A000000 		.4byte	.LVL240
 14498 1a21 AE000000 		.4byte	.LVL242
 14499 1a25 0200     		.2byte	0x2
 14500 1a27 90       		.byte	0x90
 14501 1a28 4A       		.uleb128 0x4a
 14502 1a29 88020000 		.4byte	.LVL283
 14503 1a2d 8C020000 		.4byte	.LVL284
 14504 1a31 0200     		.2byte	0x2
 14505 1a33 90       		.byte	0x90
 14506 1a34 4A       		.uleb128 0x4a
 14507 1a35 8C020000 		.4byte	.LVL284
 14508 1a39 96020000 		.4byte	.LVL285
 14509 1a3d 0800     		.2byte	0x8
 14510 1a3f F5       		.byte	0xf5
 14511 1a40 4D       		.uleb128 0x4d
 14512 1a41 29       		.uleb128 0x29
 14513 1a42 F5       		.byte	0xf5
 14514 1a43 4E       		.uleb128 0x4e
 14515 1a44 29       		.uleb128 0x29
 14516 1a45 1C       		.byte	0x1c
 14517 1a46 9F       		.byte	0x9f
 14518 1a47 00000000 		.4byte	0
 14519 1a4b 00000000 		.4byte	0
 14520              	.LVUS188:
 14521 1a4f 02       		.uleb128 .LVU752
 14522 1a50 00       		.uleb128 .LVU765
 14523 1a51 00       		.uleb128 .LVU860
 14524 1a52 00       		.uleb128 .LVU864
 14525              	.LLST188:
 14526 1a53 AE000000 		.4byte	.LVL242
 14527 1a57 DA000000 		.4byte	.LVL245
 14528 1a5b 0200     		.2byte	0x2
 14529 1a5d 75       		.byte	0x75
 14530 1a5e 04       		.sleb128 4
 14531 1a5f 7A020000 		.4byte	.LVL281
 14532 1a63 88020000 		.4byte	.LVL283
 14533 1a67 0200     		.2byte	0x2
 14534 1a69 75       		.byte	0x75
 14535 1a6a 04       		.sleb128 4
ARM GAS  /var/folders/cs/83z6p2tj4w57s6p2rt8nwfp00000gn/T//ccDzWS9O.s 			page 283


 14536 1a6b 00000000 		.4byte	0
 14537 1a6f 00000000 		.4byte	0
 14538              	.LVUS189:
 14539 1a73 02       		.uleb128 .LVU752
 14540 1a74 00       		.uleb128 .LVU765
 14541 1a75 00       		.uleb128 .LVU860
 14542 1a76 00       		.uleb128 .LVU864
 14543              	.LLST189:
 14544 1a77 AE000000 		.4byte	.LVL242
 14545 1a7b DA000000 		.4byte	.LVL245
 14546 1a7f 0200     		.2byte	0x2
 14547 1a81 75       		.byte	0x75
 14548 1a82 00       		.sleb128 0
 14549 1a83 7A020000 		.4byte	.LVL281
 14550 1a87 88020000 		.4byte	.LVL283
 14551 1a8b 0200     		.2byte	0x2
 14552 1a8d 90       		.byte	0x90
 14553 1a8e 4B       		.uleb128 0x4b
 14554 1a8f 00000000 		.4byte	0
 14555 1a93 00000000 		.4byte	0
 14556              	.LVUS190:
 14557 1a97 02       		.uleb128 .LVU752
 14558 1a98 00       		.uleb128 .LVU765
 14559 1a99 00       		.uleb128 .LVU860
 14560 1a9a 00       		.uleb128 .LVU864
 14561              	.LLST190:
 14562 1a9b AE000000 		.4byte	.LVL242
 14563 1a9f DA000000 		.4byte	.LVL245
 14564 1aa3 0200     		.2byte	0x2
 14565 1aa5 90       		.byte	0x90
 14566 1aa6 4E       		.uleb128 0x4e
 14567 1aa7 7A020000 		.4byte	.LVL281
 14568 1aab 88020000 		.4byte	.LVL283
 14569 1aaf 0200     		.2byte	0x2
 14570 1ab1 90       		.byte	0x90
 14571 1ab2 4E       		.uleb128 0x4e
 14572 1ab3 00000000 		.4byte	0
 14573 1ab7 00000000 		.4byte	0
 14574              	.LVUS191:
 14575 1abb 02       		.uleb128 .LVU752
 14576 1abc 00       		.uleb128 .LVU758
 14577 1abd 00       		.uleb128 .LVU758
 14578 1abe 00       		.uleb128 .LVU765
 14579 1abf 00       		.uleb128 .LVU860
 14580 1ac0 00       		.uleb128 .LVU864
 14581              	.LLST191:
 14582 1ac1 AE000000 		.4byte	.LVL242
 14583 1ac5 BE000000 		.4byte	.LVL243
 14584 1ac9 0200     		.2byte	0x2
 14585 1acb 90       		.byte	0x90
 14586 1acc 4C       		.uleb128 0x4c
 14587 1acd BE000000 		.4byte	.LVL243
 14588 1ad1 DA000000 		.4byte	.LVL245
 14589 1ad5 0200     		.2byte	0x2
 14590 1ad7 78       		.byte	0x78
 14591 1ad8 00       		.sleb128 0
 14592 1ad9 7A020000 		.4byte	.LVL281
ARM GAS  /var/folders/cs/83z6p2tj4w57s6p2rt8nwfp00000gn/T//ccDzWS9O.s 			page 284


 14593 1add 88020000 		.4byte	.LVL283
 14594 1ae1 0200     		.2byte	0x2
 14595 1ae3 78       		.byte	0x78
 14596 1ae4 00       		.sleb128 0
 14597 1ae5 00000000 		.4byte	0
 14598 1ae9 00000000 		.4byte	0
 14599              	.LVUS192:
 14600 1aed 00       		.uleb128 .LVU758
 14601 1aee 00       		.uleb128 .LVU765
 14602 1aef 00       		.uleb128 .LVU860
 14603 1af0 00       		.uleb128 .LVU864
 14604              	.LLST192:
 14605 1af1 BE000000 		.4byte	.LVL243
 14606 1af5 DA000000 		.4byte	.LVL245
 14607 1af9 0200     		.2byte	0x2
 14608 1afb 90       		.byte	0x90
 14609 1afc 4C       		.uleb128 0x4c
 14610 1afd 7A020000 		.4byte	.LVL281
 14611 1b01 88020000 		.4byte	.LVL283
 14612 1b05 0200     		.2byte	0x2
 14613 1b07 90       		.byte	0x90
 14614 1b08 4C       		.uleb128 0x4c
 14615 1b09 00000000 		.4byte	0
 14616 1b0d 00000000 		.4byte	0
 14617              	.LVUS193:
 14618 1b11 01       		.uleb128 .LVU759
 14619 1b12 00       		.uleb128 .LVU764
 14620 1b13 00       		.uleb128 .LVU860
 14621 1b14 00       		.uleb128 .LVU863
 14622              	.LLST193:
 14623 1b15 BE000000 		.4byte	.LVL243
 14624 1b19 D2000000 		.4byte	.LVL244
 14625 1b1d 0200     		.2byte	0x2
 14626 1b1f 90       		.byte	0x90
 14627 1b20 4F       		.uleb128 0x4f
 14628 1b21 7A020000 		.4byte	.LVL281
 14629 1b25 7E020000 		.4byte	.LVL282
 14630 1b29 0200     		.2byte	0x2
 14631 1b2b 90       		.byte	0x90
 14632 1b2c 4F       		.uleb128 0x4f
 14633 1b2d 00000000 		.4byte	0
 14634 1b31 00000000 		.4byte	0
 14635              	.LVUS194:
 14636 1b35 00       		.uleb128 .LVU786
 14637 1b36 00       		.uleb128 .LVU789
 14638 1b37 00       		.uleb128 .LVU789
 14639 1b38 00       		.uleb128 .LVU803
 14640              	.LLST194:
 14641 1b39 3E010000 		.4byte	.LVL251
 14642 1b3d 42010000 		.4byte	.LVL252
 14643 1b41 0200     		.2byte	0x2
 14644 1b43 90       		.byte	0x90
 14645 1b44 4E       		.uleb128 0x4e
 14646 1b45 42010000 		.4byte	.LVL252
 14647 1b49 6C010000 		.4byte	.LVL255
 14648 1b4d 0200     		.2byte	0x2
 14649 1b4f 75       		.byte	0x75
ARM GAS  /var/folders/cs/83z6p2tj4w57s6p2rt8nwfp00000gn/T//ccDzWS9O.s 			page 285


 14650 1b50 04       		.sleb128 4
 14651 1b51 00000000 		.4byte	0
 14652 1b55 00000000 		.4byte	0
 14653              	.LVUS195:
 14654 1b59 00       		.uleb128 .LVU786
 14655 1b5a 00       		.uleb128 .LVU803
 14656              	.LLST195:
 14657 1b5b 3E010000 		.4byte	.LVL251
 14658 1b5f 6C010000 		.4byte	.LVL255
 14659 1b63 0200     		.2byte	0x2
 14660 1b65 75       		.byte	0x75
 14661 1b66 00       		.sleb128 0
 14662 1b67 00000000 		.4byte	0
 14663 1b6b 00000000 		.4byte	0
 14664              	.LVUS196:
 14665 1b6f 00       		.uleb128 .LVU786
 14666 1b70 00       		.uleb128 .LVU804
 14667              	.LLST196:
 14668 1b71 3E010000 		.4byte	.LVL251
 14669 1b75 70010000 		.4byte	.LVL256
 14670 1b79 0200     		.2byte	0x2
 14671 1b7b 90       		.byte	0x90
 14672 1b7c 4B       		.uleb128 0x4b
 14673 1b7d 00000000 		.4byte	0
 14674 1b81 00000000 		.4byte	0
 14675              	.LVUS197:
 14676 1b85 00       		.uleb128 .LVU786
 14677 1b86 00       		.uleb128 .LVU798
 14678 1b87 00       		.uleb128 .LVU798
 14679 1b88 00       		.uleb128 .LVU803
 14680              	.LLST197:
 14681 1b89 3E010000 		.4byte	.LVL251
 14682 1b8d 54010000 		.4byte	.LVL254
 14683 1b91 0200     		.2byte	0x2
 14684 1b93 90       		.byte	0x90
 14685 1b94 4F       		.uleb128 0x4f
 14686 1b95 54010000 		.4byte	.LVL254
 14687 1b99 6C010000 		.4byte	.LVL255
 14688 1b9d 0200     		.2byte	0x2
 14689 1b9f 74       		.byte	0x74
 14690 1ba0 00       		.sleb128 0
 14691 1ba1 00000000 		.4byte	0
 14692 1ba5 00000000 		.4byte	0
 14693              	.LVUS198:
 14694 1ba9 00       		.uleb128 .LVU792
 14695 1baa 00       		.uleb128 .LVU804
 14696              	.LLST198:
 14697 1bab 4C010000 		.4byte	.LVL253
 14698 1baf 70010000 		.4byte	.LVL256
 14699 1bb3 0200     		.2byte	0x2
 14700 1bb5 90       		.byte	0x90
 14701 1bb6 4D       		.uleb128 0x4d
 14702 1bb7 00000000 		.4byte	0
 14703 1bbb 00000000 		.4byte	0
 14704              	.LVUS199:
 14705 1bbf 01       		.uleb128 .LVU793
 14706 1bc0 00       		.uleb128 .LVU804
ARM GAS  /var/folders/cs/83z6p2tj4w57s6p2rt8nwfp00000gn/T//ccDzWS9O.s 			page 286


 14707              	.LLST199:
 14708 1bc1 4C010000 		.4byte	.LVL253
 14709 1bc5 70010000 		.4byte	.LVL256
 14710 1bc9 0200     		.2byte	0x2
 14711 1bcb 90       		.byte	0x90
 14712 1bcc 4E       		.uleb128 0x4e
 14713 1bcd 00000000 		.4byte	0
 14714 1bd1 00000000 		.4byte	0
 14715              	.LLST65:
 14716 1bd5 00000000 		.4byte	.LFB21
 14717 1bd9 04000000 		.4byte	.LCFI9
 14718 1bdd 0200     		.2byte	0x2
 14719 1bdf 7D       		.byte	0x7d
 14720 1be0 00       		.sleb128 0
 14721 1be1 04000000 		.4byte	.LCFI9
 14722 1be5 06000000 		.4byte	.LCFI10
 14723 1be9 0200     		.2byte	0x2
 14724 1beb 7D       		.byte	0x7d
 14725 1bec 24       		.sleb128 36
 14726 1bed 06000000 		.4byte	.LCFI10
 14727 1bf1 E8000000 		.4byte	.LCFI11
 14728 1bf5 0300     		.2byte	0x3
 14729 1bf7 7D       		.byte	0x7d
 14730 1bf8 D000     		.sleb128 80
 14731 1bfa E8000000 		.4byte	.LCFI11
 14732 1bfe EC000000 		.4byte	.LCFI12
 14733 1c02 0200     		.2byte	0x2
 14734 1c04 7D       		.byte	0x7d
 14735 1c05 24       		.sleb128 36
 14736 1c06 EC000000 		.4byte	.LCFI12
 14737 1c0a 34010000 		.4byte	.LCFI13
 14738 1c0e 0300     		.2byte	0x3
 14739 1c10 7D       		.byte	0x7d
 14740 1c11 D000     		.sleb128 80
 14741 1c13 34010000 		.4byte	.LCFI13
 14742 1c17 3C010000 		.4byte	.LFE21
 14743 1c1b 0200     		.2byte	0x2
 14744 1c1d 7D       		.byte	0x7d
 14745 1c1e 24       		.sleb128 36
 14746 1c1f 00000000 		.4byte	0
 14747 1c23 00000000 		.4byte	0
 14748              	.LVUS66:
 14749 1c27 00       		.uleb128 0
 14750 1c28 00       		.uleb128 .LVU309
 14751 1c29 00       		.uleb128 .LVU309
 14752 1c2a 00       		.uleb128 .LVU351
 14753 1c2b 00       		.uleb128 .LVU351
 14754 1c2c 00       		.uleb128 0
 14755              	.LLST66:
 14756 1c2d 00000000 		.4byte	.LVL103
 14757 1c31 3E000000 		.4byte	.LVL111
 14758 1c35 0100     		.2byte	0x1
 14759 1c37 50       		.byte	0x50
 14760 1c38 3E000000 		.4byte	.LVL111
 14761 1c3c EC000000 		.4byte	.LVL123
 14762 1c40 0400     		.2byte	0x4
 14763 1c42 F3       		.byte	0xf3
ARM GAS  /var/folders/cs/83z6p2tj4w57s6p2rt8nwfp00000gn/T//ccDzWS9O.s 			page 287


 14764 1c43 01       		.uleb128 0x1
 14765 1c44 50       		.byte	0x50
 14766 1c45 9F       		.byte	0x9f
 14767 1c46 EC000000 		.4byte	.LVL123
 14768 1c4a 3C010000 		.4byte	.LFE21
 14769 1c4e 0100     		.2byte	0x1
 14770 1c50 50       		.byte	0x50
 14771 1c51 00000000 		.4byte	0
 14772 1c55 00000000 		.4byte	0
 14773              	.LVUS67:
 14774 1c59 00       		.uleb128 0
 14775 1c5a 00       		.uleb128 .LVU309
 14776 1c5b 00       		.uleb128 .LVU309
 14777 1c5c 00       		.uleb128 .LVU351
 14778 1c5d 00       		.uleb128 .LVU351
 14779 1c5e 00       		.uleb128 .LVU373
 14780 1c5f 00       		.uleb128 .LVU373
 14781 1c60 00       		.uleb128 0
 14782              	.LLST67:
 14783 1c61 00000000 		.4byte	.LVL103
 14784 1c65 3E000000 		.4byte	.LVL111
 14785 1c69 0100     		.2byte	0x1
 14786 1c6b 51       		.byte	0x51
 14787 1c6c 3E000000 		.4byte	.LVL111
 14788 1c70 EC000000 		.4byte	.LVL123
 14789 1c74 0100     		.2byte	0x1
 14790 1c76 59       		.byte	0x59
 14791 1c77 EC000000 		.4byte	.LVL123
 14792 1c7b 16010000 		.4byte	.LVL136
 14793 1c7f 0100     		.2byte	0x1
 14794 1c81 51       		.byte	0x51
 14795 1c82 16010000 		.4byte	.LVL136
 14796 1c86 3C010000 		.4byte	.LFE21
 14797 1c8a 0400     		.2byte	0x4
 14798 1c8c F3       		.byte	0xf3
 14799 1c8d 01       		.uleb128 0x1
 14800 1c8e 51       		.byte	0x51
 14801 1c8f 9F       		.byte	0x9f
 14802 1c90 00000000 		.4byte	0
 14803 1c94 00000000 		.4byte	0
 14804              	.LVUS68:
 14805 1c98 00       		.uleb128 0
 14806 1c99 00       		.uleb128 .LVU296
 14807 1c9a 00       		.uleb128 .LVU296
 14808 1c9b 00       		.uleb128 .LVU309
 14809 1c9c 00       		.uleb128 .LVU309
 14810 1c9d 00       		.uleb128 .LVU310
 14811 1c9e 00       		.uleb128 .LVU310
 14812 1c9f 01       		.uleb128 .LVU340
 14813 1ca0 01       		.uleb128 .LVU340
 14814 1ca1 00       		.uleb128 .LVU342
 14815 1ca2 00       		.uleb128 .LVU342
 14816 1ca3 00       		.uleb128 .LVU343
 14817 1ca4 00       		.uleb128 .LVU351
 14818 1ca5 00       		.uleb128 .LVU364
 14819 1ca6 00       		.uleb128 .LVU364
 14820 1ca7 01       		.uleb128 .LVU366
ARM GAS  /var/folders/cs/83z6p2tj4w57s6p2rt8nwfp00000gn/T//ccDzWS9O.s 			page 288


 14821 1ca8 01       		.uleb128 .LVU366
 14822 1ca9 00       		.uleb128 .LVU367
 14823 1caa 00       		.uleb128 .LVU367
 14824 1cab 00       		.uleb128 .LVU369
 14825 1cac 00       		.uleb128 .LVU369
 14826 1cad 00       		.uleb128 0
 14827              	.LLST68:
 14828 1cae 00000000 		.4byte	.LVL103
 14829 1cb2 0E000000 		.4byte	.LVL104
 14830 1cb6 0100     		.2byte	0x1
 14831 1cb8 52       		.byte	0x52
 14832 1cb9 0E000000 		.4byte	.LVL104
 14833 1cbd 3E000000 		.4byte	.LVL111
 14834 1cc1 0100     		.2byte	0x1
 14835 1cc3 54       		.byte	0x54
 14836 1cc4 3E000000 		.4byte	.LVL111
 14837 1cc8 40000000 		.4byte	.LVL112
 14838 1ccc 0100     		.2byte	0x1
 14839 1cce 53       		.byte	0x53
 14840 1ccf 40000000 		.4byte	.LVL112
 14841 1cd3 9C000000 		.4byte	.LVL119
 14842 1cd7 0100     		.2byte	0x1
 14843 1cd9 54       		.byte	0x54
 14844 1cda 9C000000 		.4byte	.LVL119
 14845 1cde A2000000 		.4byte	.LVL120
 14846 1ce2 0100     		.2byte	0x1
 14847 1ce4 53       		.byte	0x53
 14848 1ce5 A2000000 		.4byte	.LVL120
 14849 1ce9 AE000000 		.4byte	.LVL121
 14850 1ced 0300     		.2byte	0x3
 14851 1cef 74       		.byte	0x74
 14852 1cf0 01       		.sleb128 1
 14853 1cf1 9F       		.byte	0x9f
 14854 1cf2 EC000000 		.4byte	.LVL123
 14855 1cf6 08010000 		.4byte	.LVL130
 14856 1cfa 0100     		.2byte	0x1
 14857 1cfc 54       		.byte	0x54
 14858 1cfd 08010000 		.4byte	.LVL130
 14859 1d01 0A010000 		.4byte	.LVL131
 14860 1d05 0400     		.2byte	0x4
 14861 1d07 F3       		.byte	0xf3
 14862 1d08 01       		.uleb128 0x1
 14863 1d09 52       		.byte	0x52
 14864 1d0a 9F       		.byte	0x9f
 14865 1d0b 0A010000 		.4byte	.LVL131
 14866 1d0f 0C010000 		.4byte	.LVL132
 14867 1d13 0200     		.2byte	0x2
 14868 1d15 30       		.byte	0x30
 14869 1d16 9F       		.byte	0x9f
 14870 1d17 0C010000 		.4byte	.LVL132
 14871 1d1b 10010000 		.4byte	.LVL133
 14872 1d1f 0100     		.2byte	0x1
 14873 1d21 54       		.byte	0x54
 14874 1d22 10010000 		.4byte	.LVL133
 14875 1d26 3C010000 		.4byte	.LFE21
 14876 1d2a 0400     		.2byte	0x4
 14877 1d2c F3       		.byte	0xf3
ARM GAS  /var/folders/cs/83z6p2tj4w57s6p2rt8nwfp00000gn/T//ccDzWS9O.s 			page 289


 14878 1d2d 01       		.uleb128 0x1
 14879 1d2e 52       		.byte	0x52
 14880 1d2f 9F       		.byte	0x9f
 14881 1d30 00000000 		.4byte	0
 14882 1d34 00000000 		.4byte	0
 14883              	.LVUS69:
 14884 1d38 00       		.uleb128 0
 14885 1d39 00       		.uleb128 .LVU308
 14886 1d3a 00       		.uleb128 .LVU308
 14887 1d3b 00       		.uleb128 .LVU351
 14888 1d3c 00       		.uleb128 .LVU351
 14889 1d3d 00       		.uleb128 .LVU354
 14890 1d3e 00       		.uleb128 .LVU354
 14891 1d3f 00       		.uleb128 .LVU367
 14892 1d40 00       		.uleb128 .LVU367
 14893 1d41 00       		.uleb128 .LVU371
 14894 1d42 00       		.uleb128 .LVU371
 14895 1d43 00       		.uleb128 .LVU383
 14896 1d44 00       		.uleb128 .LVU383
 14897 1d45 00       		.uleb128 0
 14898              	.LLST69:
 14899 1d46 00000000 		.4byte	.LVL103
 14900 1d4a 2A000000 		.4byte	.LVL110
 14901 1d4e 0100     		.2byte	0x1
 14902 1d50 53       		.byte	0x53
 14903 1d51 2A000000 		.4byte	.LVL110
 14904 1d55 EC000000 		.4byte	.LVL123
 14905 1d59 0100     		.2byte	0x1
 14906 1d5b 5A       		.byte	0x5a
 14907 1d5c EC000000 		.4byte	.LVL123
 14908 1d60 F0000000 		.4byte	.LVL125
 14909 1d64 0100     		.2byte	0x1
 14910 1d66 53       		.byte	0x53
 14911 1d67 F0000000 		.4byte	.LVL125
 14912 1d6b 0C010000 		.4byte	.LVL132
 14913 1d6f 0100     		.2byte	0x1
 14914 1d71 5A       		.byte	0x5a
 14915 1d72 0C010000 		.4byte	.LVL132
 14916 1d76 12010000 		.4byte	.LVL134
 14917 1d7a 0100     		.2byte	0x1
 14918 1d7c 53       		.byte	0x53
 14919 1d7d 12010000 		.4byte	.LVL134
 14920 1d81 38010000 		.4byte	.LVL139
 14921 1d85 0100     		.2byte	0x1
 14922 1d87 5A       		.byte	0x5a
 14923 1d88 38010000 		.4byte	.LVL139
 14924 1d8c 3C010000 		.4byte	.LFE21
 14925 1d90 0400     		.2byte	0x4
 14926 1d92 F3       		.byte	0xf3
 14927 1d93 01       		.uleb128 0x1
 14928 1d94 53       		.byte	0x53
 14929 1d95 9F       		.byte	0x9f
 14930 1d96 00000000 		.4byte	0
 14931 1d9a 00000000 		.4byte	0
 14932              	.LVUS70:
 14933 1d9e 00       		.uleb128 0
 14934 1d9f 00       		.uleb128 .LVU351
ARM GAS  /var/folders/cs/83z6p2tj4w57s6p2rt8nwfp00000gn/T//ccDzWS9O.s 			page 290


 14935 1da0 00       		.uleb128 .LVU351
 14936 1da1 00       		.uleb128 .LVU383
 14937 1da2 00       		.uleb128 .LVU383
 14938 1da3 00       		.uleb128 0
 14939              	.LLST70:
 14940 1da4 00000000 		.4byte	.LVL103
 14941 1da8 EC000000 		.4byte	.LVL123
 14942 1dac 0200     		.2byte	0x2
 14943 1dae 91       		.byte	0x91
 14944 1daf 00       		.sleb128 0
 14945 1db0 EC000000 		.4byte	.LVL123
 14946 1db4 38010000 		.4byte	.LVL139
 14947 1db8 0200     		.2byte	0x2
 14948 1dba 91       		.byte	0x91
 14949 1dbb 00       		.sleb128 0
 14950 1dbc 38010000 		.4byte	.LVL139
 14951 1dc0 3C010000 		.4byte	.LFE21
 14952 1dc4 0200     		.2byte	0x2
 14953 1dc6 7D       		.byte	0x7d
 14954 1dc7 00       		.sleb128 0
 14955 1dc8 00000000 		.4byte	0
 14956 1dcc 00000000 		.4byte	0
 14957              	.LVUS71:
 14958 1dd0 00       		.uleb128 0
 14959 1dd1 00       		.uleb128 .LVU351
 14960 1dd2 00       		.uleb128 .LVU351
 14961 1dd3 00       		.uleb128 .LVU383
 14962 1dd4 00       		.uleb128 .LVU383
 14963 1dd5 00       		.uleb128 0
 14964              	.LLST71:
 14965 1dd6 00000000 		.4byte	.LVL103
 14966 1dda EC000000 		.4byte	.LVL123
 14967 1dde 0200     		.2byte	0x2
 14968 1de0 91       		.byte	0x91
 14969 1de1 04       		.sleb128 4
 14970 1de2 EC000000 		.4byte	.LVL123
 14971 1de6 38010000 		.4byte	.LVL139
 14972 1dea 0200     		.2byte	0x2
 14973 1dec 91       		.byte	0x91
 14974 1ded 04       		.sleb128 4
 14975 1dee 38010000 		.4byte	.LVL139
 14976 1df2 3C010000 		.4byte	.LFE21
 14977 1df6 0200     		.2byte	0x2
 14978 1df8 7D       		.byte	0x7d
 14979 1df9 04       		.sleb128 4
 14980 1dfa 00000000 		.4byte	0
 14981 1dfe 00000000 		.4byte	0
 14982              	.LVUS72:
 14983 1e02 00       		.uleb128 0
 14984 1e03 00       		.uleb128 .LVU351
 14985 1e04 00       		.uleb128 .LVU351
 14986 1e05 00       		.uleb128 .LVU383
 14987 1e06 00       		.uleb128 .LVU383
 14988 1e07 00       		.uleb128 0
 14989              	.LLST72:
 14990 1e08 00000000 		.4byte	.LVL103
 14991 1e0c EC000000 		.4byte	.LVL123
ARM GAS  /var/folders/cs/83z6p2tj4w57s6p2rt8nwfp00000gn/T//ccDzWS9O.s 			page 291


 14992 1e10 0200     		.2byte	0x2
 14993 1e12 91       		.byte	0x91
 14994 1e13 08       		.sleb128 8
 14995 1e14 EC000000 		.4byte	.LVL123
 14996 1e18 38010000 		.4byte	.LVL139
 14997 1e1c 0200     		.2byte	0x2
 14998 1e1e 91       		.byte	0x91
 14999 1e1f 08       		.sleb128 8
 15000 1e20 38010000 		.4byte	.LVL139
 15001 1e24 3C010000 		.4byte	.LFE21
 15002 1e28 0200     		.2byte	0x2
 15003 1e2a 7D       		.byte	0x7d
 15004 1e2b 08       		.sleb128 8
 15005 1e2c 00000000 		.4byte	0
 15006 1e30 00000000 		.4byte	0
 15007              	.LVUS73:
 15008 1e34 00       		.uleb128 0
 15009 1e35 00       		.uleb128 .LVU351
 15010 1e36 00       		.uleb128 .LVU351
 15011 1e37 00       		.uleb128 .LVU383
 15012 1e38 00       		.uleb128 .LVU383
 15013 1e39 00       		.uleb128 0
 15014              	.LLST73:
 15015 1e3a 00000000 		.4byte	.LVL103
 15016 1e3e EC000000 		.4byte	.LVL123
 15017 1e42 0200     		.2byte	0x2
 15018 1e44 91       		.byte	0x91
 15019 1e45 0C       		.sleb128 12
 15020 1e46 EC000000 		.4byte	.LVL123
 15021 1e4a 38010000 		.4byte	.LVL139
 15022 1e4e 0200     		.2byte	0x2
 15023 1e50 91       		.byte	0x91
 15024 1e51 0C       		.sleb128 12
 15025 1e52 38010000 		.4byte	.LVL139
 15026 1e56 3C010000 		.4byte	.LFE21
 15027 1e5a 0200     		.2byte	0x2
 15028 1e5c 7D       		.byte	0x7d
 15029 1e5d 0C       		.sleb128 12
 15030 1e5e 00000000 		.4byte	0
 15031 1e62 00000000 		.4byte	0
 15032              	.LVUS74:
 15033 1e66 00       		.uleb128 0
 15034 1e67 00       		.uleb128 .LVU351
 15035 1e68 00       		.uleb128 .LVU351
 15036 1e69 00       		.uleb128 .LVU383
 15037 1e6a 00       		.uleb128 .LVU383
 15038 1e6b 00       		.uleb128 0
 15039              	.LLST74:
 15040 1e6c 00000000 		.4byte	.LVL103
 15041 1e70 EC000000 		.4byte	.LVL123
 15042 1e74 0200     		.2byte	0x2
 15043 1e76 91       		.byte	0x91
 15044 1e77 10       		.sleb128 16
 15045 1e78 EC000000 		.4byte	.LVL123
 15046 1e7c 38010000 		.4byte	.LVL139
 15047 1e80 0200     		.2byte	0x2
 15048 1e82 91       		.byte	0x91
ARM GAS  /var/folders/cs/83z6p2tj4w57s6p2rt8nwfp00000gn/T//ccDzWS9O.s 			page 292


 15049 1e83 10       		.sleb128 16
 15050 1e84 38010000 		.4byte	.LVL139
 15051 1e88 3C010000 		.4byte	.LFE21
 15052 1e8c 0200     		.2byte	0x2
 15053 1e8e 7D       		.byte	0x7d
 15054 1e8f 10       		.sleb128 16
 15055 1e90 00000000 		.4byte	0
 15056 1e94 00000000 		.4byte	0
 15057              	.LVUS75:
 15058 1e98 00       		.uleb128 0
 15059 1e99 00       		.uleb128 .LVU351
 15060 1e9a 00       		.uleb128 .LVU351
 15061 1e9b 00       		.uleb128 .LVU383
 15062 1e9c 00       		.uleb128 .LVU383
 15063 1e9d 00       		.uleb128 0
 15064              	.LLST75:
 15065 1e9e 00000000 		.4byte	.LVL103
 15066 1ea2 EC000000 		.4byte	.LVL123
 15067 1ea6 0200     		.2byte	0x2
 15068 1ea8 91       		.byte	0x91
 15069 1ea9 14       		.sleb128 20
 15070 1eaa EC000000 		.4byte	.LVL123
 15071 1eae 38010000 		.4byte	.LVL139
 15072 1eb2 0200     		.2byte	0x2
 15073 1eb4 91       		.byte	0x91
 15074 1eb5 14       		.sleb128 20
 15075 1eb6 38010000 		.4byte	.LVL139
 15076 1eba 3C010000 		.4byte	.LFE21
 15077 1ebe 0200     		.2byte	0x2
 15078 1ec0 7D       		.byte	0x7d
 15079 1ec1 14       		.sleb128 20
 15080 1ec2 00000000 		.4byte	0
 15081 1ec6 00000000 		.4byte	0
 15082              	.LVUS76:
 15083 1eca 00       		.uleb128 0
 15084 1ecb 00       		.uleb128 .LVU351
 15085 1ecc 00       		.uleb128 .LVU351
 15086 1ecd 00       		.uleb128 .LVU383
 15087 1ece 00       		.uleb128 .LVU383
 15088 1ecf 00       		.uleb128 0
 15089              	.LLST76:
 15090 1ed0 00000000 		.4byte	.LVL103
 15091 1ed4 EC000000 		.4byte	.LVL123
 15092 1ed8 0200     		.2byte	0x2
 15093 1eda 91       		.byte	0x91
 15094 1edb 18       		.sleb128 24
 15095 1edc EC000000 		.4byte	.LVL123
 15096 1ee0 38010000 		.4byte	.LVL139
 15097 1ee4 0200     		.2byte	0x2
 15098 1ee6 91       		.byte	0x91
 15099 1ee7 18       		.sleb128 24
 15100 1ee8 38010000 		.4byte	.LVL139
 15101 1eec 3C010000 		.4byte	.LFE21
 15102 1ef0 0200     		.2byte	0x2
 15103 1ef2 7D       		.byte	0x7d
 15104 1ef3 18       		.sleb128 24
 15105 1ef4 00000000 		.4byte	0
ARM GAS  /var/folders/cs/83z6p2tj4w57s6p2rt8nwfp00000gn/T//ccDzWS9O.s 			page 293


 15106 1ef8 00000000 		.4byte	0
 15107              	.LVUS77:
 15108 1efc 00       		.uleb128 0
 15109 1efd 00       		.uleb128 .LVU351
 15110 1efe 00       		.uleb128 .LVU351
 15111 1eff 00       		.uleb128 .LVU383
 15112 1f00 00       		.uleb128 .LVU383
 15113 1f01 00       		.uleb128 0
 15114              	.LLST77:
 15115 1f02 00000000 		.4byte	.LVL103
 15116 1f06 EC000000 		.4byte	.LVL123
 15117 1f0a 0200     		.2byte	0x2
 15118 1f0c 91       		.byte	0x91
 15119 1f0d 1C       		.sleb128 28
 15120 1f0e EC000000 		.4byte	.LVL123
 15121 1f12 38010000 		.4byte	.LVL139
 15122 1f16 0200     		.2byte	0x2
 15123 1f18 91       		.byte	0x91
 15124 1f19 1C       		.sleb128 28
 15125 1f1a 38010000 		.4byte	.LVL139
 15126 1f1e 3C010000 		.4byte	.LFE21
 15127 1f22 0200     		.2byte	0x2
 15128 1f24 7D       		.byte	0x7d
 15129 1f25 1C       		.sleb128 28
 15130 1f26 00000000 		.4byte	0
 15131 1f2a 00000000 		.4byte	0
 15132              	.LVUS78:
 15133 1f2e 00       		.uleb128 .LVU298
 15134 1f2f 00       		.uleb128 .LVU299
 15135 1f30 00       		.uleb128 .LVU299
 15136 1f31 00       		.uleb128 .LVU308
 15137 1f32 00       		.uleb128 .LVU308
 15138 1f33 00       		.uleb128 .LVU309
 15139 1f34 00       		.uleb128 .LVU309
 15140 1f35 00       		.uleb128 .LVU324
 15141 1f36 02       		.uleb128 .LVU335
 15142 1f37 00       		.uleb128 .LVU344
 15143 1f38 00       		.uleb128 .LVU351
 15144 1f39 00       		.uleb128 .LVU357
 15145 1f3a 00       		.uleb128 .LVU357
 15146 1f3b 00       		.uleb128 .LVU359
 15147 1f3c 00       		.uleb128 .LVU359
 15148 1f3d 00       		.uleb128 .LVU367
 15149 1f3e 00       		.uleb128 .LVU367
 15150 1f3f 00       		.uleb128 .LVU377
 15151 1f40 00       		.uleb128 .LVU377
 15152 1f41 00       		.uleb128 .LVU383
 15153 1f42 00       		.uleb128 .LVU383
 15154 1f43 00       		.uleb128 0
 15155              	.LLST78:
 15156 1f44 16000000 		.4byte	.LVL105
 15157 1f48 18000000 		.4byte	.LVL106
 15158 1f4c 0100     		.2byte	0x1
 15159 1f4e 52       		.byte	0x52
 15160 1f4f 18000000 		.4byte	.LVL106
 15161 1f53 2A000000 		.4byte	.LVL110
 15162 1f57 0300     		.2byte	0x3
ARM GAS  /var/folders/cs/83z6p2tj4w57s6p2rt8nwfp00000gn/T//ccDzWS9O.s 			page 294


 15163 1f59 91       		.byte	0x91
 15164 1f5a 00       		.sleb128 0
 15165 1f5b 06       		.byte	0x6
 15166 1f5c 2A000000 		.4byte	.LVL110
 15167 1f60 3E000000 		.4byte	.LVL111
 15168 1f64 0200     		.2byte	0x2
 15169 1f66 91       		.byte	0x91
 15170 1f67 48       		.sleb128 -56
 15171 1f68 3E000000 		.4byte	.LVL111
 15172 1f6c 58000000 		.4byte	.LVL116
 15173 1f70 0100     		.2byte	0x1
 15174 1f72 56       		.byte	0x56
 15175 1f73 98000000 		.4byte	.LVL118
 15176 1f77 CE000000 		.4byte	.LVL122
 15177 1f7b 0100     		.2byte	0x1
 15178 1f7d 56       		.byte	0x56
 15179 1f7e EC000000 		.4byte	.LVL123
 15180 1f82 F8000000 		.4byte	.LVL126
 15181 1f86 0300     		.2byte	0x3
 15182 1f88 91       		.byte	0x91
 15183 1f89 00       		.sleb128 0
 15184 1f8a 06       		.byte	0x6
 15185 1f8b F8000000 		.4byte	.LVL126
 15186 1f8f FA000000 		.4byte	.LVL127
 15187 1f93 0100     		.2byte	0x1
 15188 1f95 53       		.byte	0x53
 15189 1f96 FA000000 		.4byte	.LVL127
 15190 1f9a 0C010000 		.4byte	.LVL132
 15191 1f9e 0200     		.2byte	0x2
 15192 1fa0 91       		.byte	0x91
 15193 1fa1 48       		.sleb128 -56
 15194 1fa2 0C010000 		.4byte	.LVL132
 15195 1fa6 2A010000 		.4byte	.LVL138
 15196 1faa 0300     		.2byte	0x3
 15197 1fac 91       		.byte	0x91
 15198 1fad 00       		.sleb128 0
 15199 1fae 06       		.byte	0x6
 15200 1faf 2A010000 		.4byte	.LVL138
 15201 1fb3 38010000 		.4byte	.LVL139
 15202 1fb7 0200     		.2byte	0x2
 15203 1fb9 91       		.byte	0x91
 15204 1fba 48       		.sleb128 -56
 15205 1fbb 38010000 		.4byte	.LVL139
 15206 1fbf 3C010000 		.4byte	.LFE21
 15207 1fc3 0200     		.2byte	0x2
 15208 1fc5 7D       		.byte	0x7d
 15209 1fc6 48       		.sleb128 -56
 15210 1fc7 00000000 		.4byte	0
 15211 1fcb 00000000 		.4byte	0
 15212              	.LVUS79:
 15213 1fcf 00       		.uleb128 .LVU300
 15214 1fd0 00       		.uleb128 .LVU302
 15215 1fd1 00       		.uleb128 .LVU302
 15216 1fd2 00       		.uleb128 .LVU308
 15217 1fd3 00       		.uleb128 .LVU308
 15218 1fd4 00       		.uleb128 .LVU309
 15219 1fd5 00       		.uleb128 .LVU309
ARM GAS  /var/folders/cs/83z6p2tj4w57s6p2rt8nwfp00000gn/T//ccDzWS9O.s 			page 295


 15220 1fd6 00       		.uleb128 .LVU319
 15221 1fd7 03       		.uleb128 .LVU336
 15222 1fd8 00       		.uleb128 .LVU344
 15223 1fd9 00       		.uleb128 .LVU351
 15224 1fda 00       		.uleb128 .LVU360
 15225 1fdb 00       		.uleb128 .LVU360
 15226 1fdc 00       		.uleb128 .LVU362
 15227 1fdd 00       		.uleb128 .LVU362
 15228 1fde 00       		.uleb128 .LVU367
 15229 1fdf 00       		.uleb128 .LVU367
 15230 1fe0 00       		.uleb128 .LVU377
 15231 1fe1 00       		.uleb128 .LVU377
 15232 1fe2 00       		.uleb128 .LVU383
 15233 1fe3 00       		.uleb128 .LVU383
 15234 1fe4 00       		.uleb128 0
 15235              	.LLST79:
 15236 1fe5 1C000000 		.4byte	.LVL107
 15237 1fe9 1E000000 		.4byte	.LVL108
 15238 1fed 0100     		.2byte	0x1
 15239 1fef 52       		.byte	0x52
 15240 1ff0 1E000000 		.4byte	.LVL108
 15241 1ff4 2A000000 		.4byte	.LVL110
 15242 1ff8 0300     		.2byte	0x3
 15243 1ffa 91       		.byte	0x91
 15244 1ffb 08       		.sleb128 8
 15245 1ffc 06       		.byte	0x6
 15246 1ffd 2A000000 		.4byte	.LVL110
 15247 2001 3E000000 		.4byte	.LVL111
 15248 2005 0200     		.2byte	0x2
 15249 2007 91       		.byte	0x91
 15250 2008 4C       		.sleb128 -52
 15251 2009 3E000000 		.4byte	.LVL111
 15252 200d 4E000000 		.4byte	.LVL114
 15253 2011 0100     		.2byte	0x1
 15254 2013 57       		.byte	0x57
 15255 2014 98000000 		.4byte	.LVL118
 15256 2018 CE000000 		.4byte	.LVL122
 15257 201c 0100     		.2byte	0x1
 15258 201e 57       		.byte	0x57
 15259 201f EC000000 		.4byte	.LVL123
 15260 2023 00010000 		.4byte	.LVL128
 15261 2027 0300     		.2byte	0x3
 15262 2029 91       		.byte	0x91
 15263 202a 08       		.sleb128 8
 15264 202b 06       		.byte	0x6
 15265 202c 00010000 		.4byte	.LVL128
 15266 2030 02010000 		.4byte	.LVL129
 15267 2034 0100     		.2byte	0x1
 15268 2036 53       		.byte	0x53
 15269 2037 02010000 		.4byte	.LVL129
 15270 203b 0C010000 		.4byte	.LVL132
 15271 203f 0200     		.2byte	0x2
 15272 2041 91       		.byte	0x91
 15273 2042 4C       		.sleb128 -52
 15274 2043 0C010000 		.4byte	.LVL132
 15275 2047 2A010000 		.4byte	.LVL138
 15276 204b 0300     		.2byte	0x3
ARM GAS  /var/folders/cs/83z6p2tj4w57s6p2rt8nwfp00000gn/T//ccDzWS9O.s 			page 296


 15277 204d 91       		.byte	0x91
 15278 204e 08       		.sleb128 8
 15279 204f 06       		.byte	0x6
 15280 2050 2A010000 		.4byte	.LVL138
 15281 2054 38010000 		.4byte	.LVL139
 15282 2058 0200     		.2byte	0x2
 15283 205a 91       		.byte	0x91
 15284 205b 4C       		.sleb128 -52
 15285 205c 38010000 		.4byte	.LVL139
 15286 2060 3C010000 		.4byte	.LFE21
 15287 2064 0200     		.2byte	0x2
 15288 2066 7D       		.byte	0x7d
 15289 2067 4C       		.sleb128 -52
 15290 2068 00000000 		.4byte	0
 15291 206c 00000000 		.4byte	0
 15292              	.LVUS80:
 15293 2070 00       		.uleb128 .LVU303
 15294 2071 00       		.uleb128 .LVU308
 15295 2072 00       		.uleb128 .LVU308
 15296 2073 00       		.uleb128 .LVU309
 15297 2074 00       		.uleb128 .LVU309
 15298 2075 00       		.uleb128 .LVU344
 15299 2076 00       		.uleb128 .LVU351
 15300 2077 00       		.uleb128 .LVU353
 15301 2078 00       		.uleb128 .LVU353
 15302 2079 00       		.uleb128 .LVU365
 15303 207a 00       		.uleb128 .LVU365
 15304 207b 00       		.uleb128 .LVU367
 15305 207c 00       		.uleb128 .LVU367
 15306 207d 00       		.uleb128 .LVU372
 15307 207e 00       		.uleb128 .LVU372
 15308 207f 00       		.uleb128 .LVU377
 15309 2080 00       		.uleb128 .LVU377
 15310 2081 00       		.uleb128 .LVU383
 15311 2082 00       		.uleb128 .LVU383
 15312 2083 00       		.uleb128 0
 15313              	.LLST80:
 15314 2084 22000000 		.4byte	.LVL109
 15315 2088 2A000000 		.4byte	.LVL110
 15316 208c 0100     		.2byte	0x1
 15317 208e 52       		.byte	0x52
 15318 208f 2A000000 		.4byte	.LVL110
 15319 2093 3E000000 		.4byte	.LVL111
 15320 2097 0200     		.2byte	0x2
 15321 2099 91       		.byte	0x91
 15322 209a 50       		.sleb128 -48
 15323 209b 3E000000 		.4byte	.LVL111
 15324 209f CE000000 		.4byte	.LVL122
 15325 20a3 0100     		.2byte	0x1
 15326 20a5 58       		.byte	0x58
 15327 20a6 EC000000 		.4byte	.LVL123
 15328 20aa EE000000 		.4byte	.LVL124
 15329 20ae 0100     		.2byte	0x1
 15330 20b0 52       		.byte	0x52
 15331 20b1 EE000000 		.4byte	.LVL124
 15332 20b5 0A010000 		.4byte	.LVL131
 15333 20b9 0300     		.2byte	0x3
ARM GAS  /var/folders/cs/83z6p2tj4w57s6p2rt8nwfp00000gn/T//ccDzWS9O.s 			page 297


 15334 20bb 91       		.byte	0x91
 15335 20bc 10       		.sleb128 16
 15336 20bd 06       		.byte	0x6
 15337 20be 0A010000 		.4byte	.LVL131
 15338 20c2 0C010000 		.4byte	.LVL132
 15339 20c6 0100     		.2byte	0x1
 15340 20c8 53       		.byte	0x53
 15341 20c9 0C010000 		.4byte	.LVL132
 15342 20cd 14010000 		.4byte	.LVL135
 15343 20d1 0100     		.2byte	0x1
 15344 20d3 52       		.byte	0x52
 15345 20d4 14010000 		.4byte	.LVL135
 15346 20d8 2A010000 		.4byte	.LVL138
 15347 20dc 0300     		.2byte	0x3
 15348 20de 91       		.byte	0x91
 15349 20df 10       		.sleb128 16
 15350 20e0 06       		.byte	0x6
 15351 20e1 2A010000 		.4byte	.LVL138
 15352 20e5 38010000 		.4byte	.LVL139
 15353 20e9 0200     		.2byte	0x2
 15354 20eb 91       		.byte	0x91
 15355 20ec 50       		.sleb128 -48
 15356 20ed 38010000 		.4byte	.LVL139
 15357 20f1 3C010000 		.4byte	.LFE21
 15358 20f5 0200     		.2byte	0x2
 15359 20f7 7D       		.byte	0x7d
 15360 20f8 50       		.sleb128 -48
 15361 20f9 00000000 		.4byte	0
 15362 20fd 00000000 		.4byte	0
 15363              	.LVUS86:
 15364 2101 00       		.uleb128 .LVU369
 15365 2102 00       		.uleb128 .LVU376
 15366 2103 00       		.uleb128 .LVU376
 15367 2104 00       		.uleb128 .LVU383
 15368 2105 00       		.uleb128 .LVU383
 15369 2106 00       		.uleb128 0
 15370              	.LLST86:
 15371 2107 10010000 		.4byte	.LVL133
 15372 210b 26010000 		.4byte	.LVL137
 15373 210f 0100     		.2byte	0x1
 15374 2111 54       		.byte	0x54
 15375 2112 26010000 		.4byte	.LVL137
 15376 2116 38010000 		.4byte	.LVL139
 15377 211a 0700     		.2byte	0x7
 15378 211c 7A       		.byte	0x7a
 15379 211d 00       		.sleb128 0
 15380 211e F3       		.byte	0xf3
 15381 211f 01       		.uleb128 0x1
 15382 2120 52       		.byte	0x52
 15383 2121 1C       		.byte	0x1c
 15384 2122 9F       		.byte	0x9f
 15385 2123 38010000 		.4byte	.LVL139
 15386 2127 3C010000 		.4byte	.LFE21
 15387 212b 0800     		.2byte	0x8
 15388 212d F3       		.byte	0xf3
 15389 212e 01       		.uleb128 0x1
 15390 212f 53       		.byte	0x53
ARM GAS  /var/folders/cs/83z6p2tj4w57s6p2rt8nwfp00000gn/T//ccDzWS9O.s 			page 298


 15391 2130 F3       		.byte	0xf3
 15392 2131 01       		.uleb128 0x1
 15393 2132 52       		.byte	0x52
 15394 2133 1C       		.byte	0x1c
 15395 2134 9F       		.byte	0x9f
 15396 2135 00000000 		.4byte	0
 15397 2139 00000000 		.4byte	0
 15398              	.LVUS81:
 15399 213d 00       		.uleb128 .LVU316
 15400 213e 00       		.uleb128 .LVU333
 15401              	.LLST81:
 15402 213f 48000000 		.4byte	.LVL113
 15403 2143 98000000 		.4byte	.LVL118
 15404 2147 0100     		.2byte	0x1
 15405 2149 58       		.byte	0x58
 15406 214a 00000000 		.4byte	0
 15407 214e 00000000 		.4byte	0
 15408              	.LVUS82:
 15409 2152 00       		.uleb128 .LVU316
 15410 2153 00       		.uleb128 .LVU321
 15411 2154 00       		.uleb128 .LVU321
 15412 2155 00       		.uleb128 .LVU333
 15413              	.LLST82:
 15414 2156 48000000 		.4byte	.LVL113
 15415 215a 52000000 		.4byte	.LVL115
 15416 215e 0300     		.2byte	0x3
 15417 2160 73       		.byte	0x73
 15418 2161 01       		.sleb128 1
 15419 2162 9F       		.byte	0x9f
 15420 2163 52000000 		.4byte	.LVL115
 15421 2167 97000000 		.4byte	.LVL118-1
 15422 216b 0100     		.2byte	0x1
 15423 216d 53       		.byte	0x53
 15424 216e 00000000 		.4byte	0
 15425 2172 00000000 		.4byte	0
 15426              	.LVUS83:
 15427 2176 00       		.uleb128 .LVU316
 15428 2177 00       		.uleb128 .LVU330
 15429 2178 00       		.uleb128 .LVU330
 15430 2179 00       		.uleb128 .LVU333
 15431              	.LLST83:
 15432 217a 48000000 		.4byte	.LVL113
 15433 217e 7E000000 		.4byte	.LVL117
 15434 2182 0100     		.2byte	0x1
 15435 2184 5C       		.byte	0x5c
 15436 2185 7E000000 		.4byte	.LVL117
 15437 2189 97000000 		.4byte	.LVL118-1
 15438 218d 0100     		.2byte	0x1
 15439 218f 52       		.byte	0x52
 15440 2190 00000000 		.4byte	0
 15441 2194 00000000 		.4byte	0
 15442              	.LVUS84:
 15443 2198 03       		.uleb128 .LVU313
 15444 2199 00       		.uleb128 .LVU333
 15445              	.LLST84:
 15446 219a 40000000 		.4byte	.LVL112
 15447 219e 98000000 		.4byte	.LVL118
ARM GAS  /var/folders/cs/83z6p2tj4w57s6p2rt8nwfp00000gn/T//ccDzWS9O.s 			page 299


 15448 21a2 0F00     		.2byte	0xf
 15449 21a4 74       		.byte	0x74
 15450 21a5 00       		.sleb128 0
 15451 21a6 0A       		.byte	0xa
 15452 21a7 9001     		.2byte	0x190
 15453 21a9 1E       		.byte	0x1e
 15454 21aa 31       		.byte	0x31
 15455 21ab 24       		.byte	0x24
 15456 21ac 03       		.byte	0x3
 15457 21ad 00000000 		.4byte	zbuf
 15458 21b1 22       		.byte	0x22
 15459 21b2 9F       		.byte	0x9f
 15460 21b3 00000000 		.4byte	0
 15461 21b7 00000000 		.4byte	0
 15462              	.LVUS85:
 15463 21bb 03       		.uleb128 .LVU313
 15464 21bc 00       		.uleb128 .LVU333
 15465              	.LLST85:
 15466 21bd 40000000 		.4byte	.LVL112
 15467 21c1 98000000 		.4byte	.LVL118
 15468 21c5 0A00     		.2byte	0xa
 15469 21c7 79       		.byte	0x79
 15470 21c8 00       		.sleb128 0
 15471 21c9 74       		.byte	0x74
 15472 21ca 00       		.sleb128 0
 15473 21cb 1E       		.byte	0x1e
 15474 21cc F3       		.byte	0xf3
 15475 21cd 01       		.uleb128 0x1
 15476 21ce 50       		.byte	0x50
 15477 21cf 22       		.byte	0x22
 15478 21d0 9F       		.byte	0x9f
 15479 21d1 00000000 		.4byte	0
 15480 21d5 00000000 		.4byte	0
 15481              	.LLST29:
 15482 21d9 00000000 		.4byte	.LFB20
 15483 21dd 04000000 		.4byte	.LCFI3
 15484 21e1 0200     		.2byte	0x2
 15485 21e3 7D       		.byte	0x7d
 15486 21e4 00       		.sleb128 0
 15487 21e5 04000000 		.4byte	.LCFI3
 15488 21e9 06000000 		.4byte	.LCFI4
 15489 21ed 0200     		.2byte	0x2
 15490 21ef 7D       		.byte	0x7d
 15491 21f0 24       		.sleb128 36
 15492 21f1 06000000 		.4byte	.LCFI4
 15493 21f5 A4000000 		.4byte	.LCFI5
 15494 21f9 0200     		.2byte	0x2
 15495 21fb 7D       		.byte	0x7d
 15496 21fc 38       		.sleb128 56
 15497 21fd A4000000 		.4byte	.LCFI5
 15498 2201 A8000000 		.4byte	.LCFI6
 15499 2205 0200     		.2byte	0x2
 15500 2207 7D       		.byte	0x7d
 15501 2208 24       		.sleb128 36
 15502 2209 A8000000 		.4byte	.LCFI6
 15503 220d D4000000 		.4byte	.LCFI7
 15504 2211 0200     		.2byte	0x2
ARM GAS  /var/folders/cs/83z6p2tj4w57s6p2rt8nwfp00000gn/T//ccDzWS9O.s 			page 300


 15505 2213 7D       		.byte	0x7d
 15506 2214 38       		.sleb128 56
 15507 2215 D4000000 		.4byte	.LCFI7
 15508 2219 D8000000 		.4byte	.LFE20
 15509 221d 0200     		.2byte	0x2
 15510 221f 7D       		.byte	0x7d
 15511 2220 24       		.sleb128 36
 15512 2221 00000000 		.4byte	0
 15513 2225 00000000 		.4byte	0
 15514              	.LVUS30:
 15515 2229 00       		.uleb128 0
 15516 222a 00       		.uleb128 .LVU135
 15517 222b 00       		.uleb128 .LVU135
 15518 222c 00       		.uleb128 .LVU169
 15519 222d 00       		.uleb128 .LVU169
 15520 222e 00       		.uleb128 0
 15521              	.LLST30:
 15522 222f 00000000 		.4byte	.LVL42
 15523 2233 38000000 		.4byte	.LVL48
 15524 2237 0100     		.2byte	0x1
 15525 2239 50       		.byte	0x50
 15526 223a 38000000 		.4byte	.LVL48
 15527 223e A8000000 		.4byte	.LVL60
 15528 2242 0400     		.2byte	0x4
 15529 2244 F3       		.byte	0xf3
 15530 2245 01       		.uleb128 0x1
 15531 2246 50       		.byte	0x50
 15532 2247 9F       		.byte	0x9f
 15533 2248 A8000000 		.4byte	.LVL60
 15534 224c D8000000 		.4byte	.LFE20
 15535 2250 0100     		.2byte	0x1
 15536 2252 50       		.byte	0x50
 15537 2253 00000000 		.4byte	0
 15538 2257 00000000 		.4byte	0
 15539              	.LVUS31:
 15540 225b 00       		.uleb128 0
 15541 225c 00       		.uleb128 .LVU135
 15542 225d 00       		.uleb128 .LVU135
 15543 225e 00       		.uleb128 .LVU169
 15544 225f 00       		.uleb128 .LVU169
 15545 2260 00       		.uleb128 0
 15546              	.LLST31:
 15547 2261 00000000 		.4byte	.LVL42
 15548 2265 38000000 		.4byte	.LVL48
 15549 2269 0100     		.2byte	0x1
 15550 226b 51       		.byte	0x51
 15551 226c 38000000 		.4byte	.LVL48
 15552 2270 A8000000 		.4byte	.LVL60
 15553 2274 0100     		.2byte	0x1
 15554 2276 59       		.byte	0x59
 15555 2277 A8000000 		.4byte	.LVL60
 15556 227b D8000000 		.4byte	.LFE20
 15557 227f 0100     		.2byte	0x1
 15558 2281 51       		.byte	0x51
 15559 2282 00000000 		.4byte	0
 15560 2286 00000000 		.4byte	0
 15561              	.LVUS32:
ARM GAS  /var/folders/cs/83z6p2tj4w57s6p2rt8nwfp00000gn/T//ccDzWS9O.s 			page 301


 15562 228a 00       		.uleb128 0
 15563 228b 00       		.uleb128 .LVU123
 15564 228c 00       		.uleb128 .LVU123
 15565 228d 00       		.uleb128 .LVU135
 15566 228e 00       		.uleb128 .LVU135
 15567 228f 00       		.uleb128 .LVU136
 15568 2290 00       		.uleb128 .LVU136
 15569 2291 00       		.uleb128 .LVU160
 15570 2292 00       		.uleb128 .LVU160
 15571 2293 00       		.uleb128 .LVU162
 15572 2294 00       		.uleb128 .LVU162
 15573 2295 00       		.uleb128 .LVU163
 15574 2296 00       		.uleb128 .LVU169
 15575 2297 00       		.uleb128 .LVU176
 15576 2298 00       		.uleb128 .LVU176
 15577 2299 01       		.uleb128 .LVU178
 15578 229a 01       		.uleb128 .LVU178
 15579 229b 00       		.uleb128 .LVU179
 15580 229c 00       		.uleb128 .LVU179
 15581 229d 00       		.uleb128 .LVU181
 15582 229e 00       		.uleb128 .LVU181
 15583 229f 00       		.uleb128 0
 15584              	.LLST32:
 15585 22a0 00000000 		.4byte	.LVL42
 15586 22a4 0E000000 		.4byte	.LVL43
 15587 22a8 0100     		.2byte	0x1
 15588 22aa 52       		.byte	0x52
 15589 22ab 0E000000 		.4byte	.LVL43
 15590 22af 38000000 		.4byte	.LVL48
 15591 22b3 0100     		.2byte	0x1
 15592 22b5 54       		.byte	0x54
 15593 22b6 38000000 		.4byte	.LVL48
 15594 22ba 3A000000 		.4byte	.LVL49
 15595 22be 0100     		.2byte	0x1
 15596 22c0 53       		.byte	0x53
 15597 22c1 3A000000 		.4byte	.LVL49
 15598 22c5 74000000 		.4byte	.LVL56
 15599 22c9 0100     		.2byte	0x1
 15600 22cb 54       		.byte	0x54
 15601 22cc 74000000 		.4byte	.LVL56
 15602 22d0 7A000000 		.4byte	.LVL57
 15603 22d4 0100     		.2byte	0x1
 15604 22d6 53       		.byte	0x53
 15605 22d7 7A000000 		.4byte	.LVL57
 15606 22db 82000000 		.4byte	.LVL58
 15607 22df 0300     		.2byte	0x3
 15608 22e1 74       		.byte	0x74
 15609 22e2 01       		.sleb128 1
 15610 22e3 9F       		.byte	0x9f
 15611 22e4 A8000000 		.4byte	.LVL60
 15612 22e8 B8000000 		.4byte	.LVL64
 15613 22ec 0100     		.2byte	0x1
 15614 22ee 54       		.byte	0x54
 15615 22ef B8000000 		.4byte	.LVL64
 15616 22f3 BA000000 		.4byte	.LVL65
 15617 22f7 0400     		.2byte	0x4
 15618 22f9 F3       		.byte	0xf3
ARM GAS  /var/folders/cs/83z6p2tj4w57s6p2rt8nwfp00000gn/T//ccDzWS9O.s 			page 302


 15619 22fa 01       		.uleb128 0x1
 15620 22fb 52       		.byte	0x52
 15621 22fc 9F       		.byte	0x9f
 15622 22fd BA000000 		.4byte	.LVL65
 15623 2301 BC000000 		.4byte	.LVL66
 15624 2305 0200     		.2byte	0x2
 15625 2307 30       		.byte	0x30
 15626 2308 9F       		.byte	0x9f
 15627 2309 BC000000 		.4byte	.LVL66
 15628 230d C0000000 		.4byte	.LVL67
 15629 2311 0100     		.2byte	0x1
 15630 2313 54       		.byte	0x54
 15631 2314 C0000000 		.4byte	.LVL67
 15632 2318 D8000000 		.4byte	.LFE20
 15633 231c 0400     		.2byte	0x4
 15634 231e F3       		.byte	0xf3
 15635 231f 01       		.uleb128 0x1
 15636 2320 52       		.byte	0x52
 15637 2321 9F       		.byte	0x9f
 15638 2322 00000000 		.4byte	0
 15639 2326 00000000 		.4byte	0
 15640              	.LVUS33:
 15641 232a 00       		.uleb128 0
 15642 232b 00       		.uleb128 .LVU134
 15643 232c 00       		.uleb128 .LVU134
 15644 232d 00       		.uleb128 .LVU169
 15645 232e 00       		.uleb128 .LVU169
 15646 232f 00       		.uleb128 .LVU171
 15647 2330 00       		.uleb128 .LVU171
 15648 2331 00       		.uleb128 .LVU179
 15649 2332 00       		.uleb128 .LVU179
 15650 2333 00       		.uleb128 .LVU183
 15651 2334 00       		.uleb128 .LVU183
 15652 2335 00       		.uleb128 0
 15653              	.LLST33:
 15654 2336 00000000 		.4byte	.LVL42
 15655 233a 28000000 		.4byte	.LVL47
 15656 233e 0100     		.2byte	0x1
 15657 2340 53       		.byte	0x53
 15658 2341 28000000 		.4byte	.LVL47
 15659 2345 A8000000 		.4byte	.LVL60
 15660 2349 0100     		.2byte	0x1
 15661 234b 58       		.byte	0x58
 15662 234c A8000000 		.4byte	.LVL60
 15663 2350 AA000000 		.4byte	.LVL61
 15664 2354 0100     		.2byte	0x1
 15665 2356 53       		.byte	0x53
 15666 2357 AA000000 		.4byte	.LVL61
 15667 235b BC000000 		.4byte	.LVL66
 15668 235f 0100     		.2byte	0x1
 15669 2361 58       		.byte	0x58
 15670 2362 BC000000 		.4byte	.LVL66
 15671 2366 C2000000 		.4byte	.LVL68
 15672 236a 0100     		.2byte	0x1
 15673 236c 53       		.byte	0x53
 15674 236d C2000000 		.4byte	.LVL68
 15675 2371 D8000000 		.4byte	.LFE20
ARM GAS  /var/folders/cs/83z6p2tj4w57s6p2rt8nwfp00000gn/T//ccDzWS9O.s 			page 303


 15676 2375 0100     		.2byte	0x1
 15677 2377 58       		.byte	0x58
 15678 2378 00000000 		.4byte	0
 15679 237c 00000000 		.4byte	0
 15680              	.LVUS34:
 15681 2380 00       		.uleb128 0
 15682 2381 00       		.uleb128 .LVU169
 15683 2382 00       		.uleb128 .LVU169
 15684 2383 00       		.uleb128 0
 15685              	.LLST34:
 15686 2384 00000000 		.4byte	.LVL42
 15687 2388 A8000000 		.4byte	.LVL60
 15688 238c 0200     		.2byte	0x2
 15689 238e 91       		.byte	0x91
 15690 238f 00       		.sleb128 0
 15691 2390 A8000000 		.4byte	.LVL60
 15692 2394 D8000000 		.4byte	.LFE20
 15693 2398 0200     		.2byte	0x2
 15694 239a 91       		.byte	0x91
 15695 239b 00       		.sleb128 0
 15696 239c 00000000 		.4byte	0
 15697 23a0 00000000 		.4byte	0
 15698              	.LVUS35:
 15699 23a4 00       		.uleb128 0
 15700 23a5 00       		.uleb128 .LVU169
 15701 23a6 00       		.uleb128 .LVU169
 15702 23a7 00       		.uleb128 0
 15703              	.LLST35:
 15704 23a8 00000000 		.4byte	.LVL42
 15705 23ac A8000000 		.4byte	.LVL60
 15706 23b0 0200     		.2byte	0x2
 15707 23b2 91       		.byte	0x91
 15708 23b3 04       		.sleb128 4
 15709 23b4 A8000000 		.4byte	.LVL60
 15710 23b8 D8000000 		.4byte	.LFE20
 15711 23bc 0200     		.2byte	0x2
 15712 23be 91       		.byte	0x91
 15713 23bf 04       		.sleb128 4
 15714 23c0 00000000 		.4byte	0
 15715 23c4 00000000 		.4byte	0
 15716              	.LVUS36:
 15717 23c8 00       		.uleb128 0
 15718 23c9 00       		.uleb128 .LVU169
 15719 23ca 00       		.uleb128 .LVU169
 15720 23cb 00       		.uleb128 0
 15721              	.LLST36:
 15722 23cc 00000000 		.4byte	.LVL42
 15723 23d0 A8000000 		.4byte	.LVL60
 15724 23d4 0200     		.2byte	0x2
 15725 23d6 91       		.byte	0x91
 15726 23d7 08       		.sleb128 8
 15727 23d8 A8000000 		.4byte	.LVL60
 15728 23dc D8000000 		.4byte	.LFE20
 15729 23e0 0200     		.2byte	0x2
 15730 23e2 91       		.byte	0x91
 15731 23e3 08       		.sleb128 8
 15732 23e4 00000000 		.4byte	0
ARM GAS  /var/folders/cs/83z6p2tj4w57s6p2rt8nwfp00000gn/T//ccDzWS9O.s 			page 304


 15733 23e8 00000000 		.4byte	0
 15734              	.LVUS37:
 15735 23ec 00       		.uleb128 0
 15736 23ed 00       		.uleb128 .LVU169
 15737 23ee 00       		.uleb128 .LVU169
 15738 23ef 00       		.uleb128 0
 15739              	.LLST37:
 15740 23f0 00000000 		.4byte	.LVL42
 15741 23f4 A8000000 		.4byte	.LVL60
 15742 23f8 0200     		.2byte	0x2
 15743 23fa 91       		.byte	0x91
 15744 23fb 0C       		.sleb128 12
 15745 23fc A8000000 		.4byte	.LVL60
 15746 2400 D8000000 		.4byte	.LFE20
 15747 2404 0200     		.2byte	0x2
 15748 2406 91       		.byte	0x91
 15749 2407 0C       		.sleb128 12
 15750 2408 00000000 		.4byte	0
 15751 240c 00000000 		.4byte	0
 15752              	.LVUS38:
 15753 2410 00       		.uleb128 0
 15754 2411 00       		.uleb128 .LVU169
 15755 2412 00       		.uleb128 .LVU169
 15756 2413 00       		.uleb128 0
 15757              	.LLST38:
 15758 2414 00000000 		.4byte	.LVL42
 15759 2418 A8000000 		.4byte	.LVL60
 15760 241c 0200     		.2byte	0x2
 15761 241e 91       		.byte	0x91
 15762 241f 10       		.sleb128 16
 15763 2420 A8000000 		.4byte	.LVL60
 15764 2424 D8000000 		.4byte	.LFE20
 15765 2428 0200     		.2byte	0x2
 15766 242a 91       		.byte	0x91
 15767 242b 10       		.sleb128 16
 15768 242c 00000000 		.4byte	0
 15769 2430 00000000 		.4byte	0
 15770              	.LVUS39:
 15771 2434 00       		.uleb128 .LVU127
 15772 2435 00       		.uleb128 .LVU128
 15773 2436 00       		.uleb128 .LVU128
 15774 2437 00       		.uleb128 .LVU134
 15775 2438 00       		.uleb128 .LVU134
 15776 2439 00       		.uleb128 .LVU135
 15777 243a 00       		.uleb128 .LVU135
 15778 243b 00       		.uleb128 .LVU148
 15779 243c 02       		.uleb128 .LVU158
 15780 243d 00       		.uleb128 .LVU164
 15781 243e 00       		.uleb128 .LVU169
 15782 243f 00       		.uleb128 .LVU172
 15783 2440 00       		.uleb128 .LVU172
 15784 2441 00       		.uleb128 .LVU174
 15785 2442 00       		.uleb128 .LVU174
 15786 2443 00       		.uleb128 .LVU179
 15787 2444 00       		.uleb128 .LVU179
 15788 2445 00       		.uleb128 .LVU187
 15789 2446 00       		.uleb128 .LVU187
ARM GAS  /var/folders/cs/83z6p2tj4w57s6p2rt8nwfp00000gn/T//ccDzWS9O.s 			page 305


 15790 2447 00       		.uleb128 0
 15791              	.LLST39:
 15792 2448 1A000000 		.4byte	.LVL44
 15793 244c 1C000000 		.4byte	.LVL45
 15794 2450 0100     		.2byte	0x1
 15795 2452 52       		.byte	0x52
 15796 2453 1C000000 		.4byte	.LVL45
 15797 2457 28000000 		.4byte	.LVL47
 15798 245b 0300     		.2byte	0x3
 15799 245d 91       		.byte	0x91
 15800 245e 00       		.sleb128 0
 15801 245f 06       		.byte	0x6
 15802 2460 28000000 		.4byte	.LVL47
 15803 2464 38000000 		.4byte	.LVL48
 15804 2468 0200     		.2byte	0x2
 15805 246a 91       		.byte	0x91
 15806 246b 4C       		.sleb128 -52
 15807 246c 38000000 		.4byte	.LVL48
 15808 2470 4A000000 		.4byte	.LVL53
 15809 2474 0100     		.2byte	0x1
 15810 2476 56       		.byte	0x56
 15811 2477 72000000 		.4byte	.LVL55
 15812 247b 92000000 		.4byte	.LVL59
 15813 247f 0100     		.2byte	0x1
 15814 2481 56       		.byte	0x56
 15815 2482 A8000000 		.4byte	.LVL60
 15816 2486 B0000000 		.4byte	.LVL62
 15817 248a 0300     		.2byte	0x3
 15818 248c 91       		.byte	0x91
 15819 248d 00       		.sleb128 0
 15820 248e 06       		.byte	0x6
 15821 248f B0000000 		.4byte	.LVL62
 15822 2493 B2000000 		.4byte	.LVL63
 15823 2497 0100     		.2byte	0x1
 15824 2499 53       		.byte	0x53
 15825 249a B2000000 		.4byte	.LVL63
 15826 249e BC000000 		.4byte	.LVL66
 15827 24a2 0200     		.2byte	0x2
 15828 24a4 91       		.byte	0x91
 15829 24a5 4C       		.sleb128 -52
 15830 24a6 BC000000 		.4byte	.LVL66
 15831 24aa CE000000 		.4byte	.LVL71
 15832 24ae 0300     		.2byte	0x3
 15833 24b0 91       		.byte	0x91
 15834 24b1 00       		.sleb128 0
 15835 24b2 06       		.byte	0x6
 15836 24b3 CE000000 		.4byte	.LVL71
 15837 24b7 D8000000 		.4byte	.LFE20
 15838 24bb 0200     		.2byte	0x2
 15839 24bd 91       		.byte	0x91
 15840 24be 4C       		.sleb128 -52
 15841 24bf 00000000 		.4byte	0
 15842 24c3 00000000 		.4byte	0
 15843              	.LVUS40:
 15844 24c7 00       		.uleb128 .LVU129
 15845 24c8 00       		.uleb128 .LVU134
 15846 24c9 00       		.uleb128 .LVU134
ARM GAS  /var/folders/cs/83z6p2tj4w57s6p2rt8nwfp00000gn/T//ccDzWS9O.s 			page 306


 15847 24ca 00       		.uleb128 .LVU135
 15848 24cb 00       		.uleb128 .LVU135
 15849 24cc 00       		.uleb128 .LVU147
 15850 24cd 03       		.uleb128 .LVU159
 15851 24ce 00       		.uleb128 .LVU164
 15852 24cf 00       		.uleb128 .LVU169
 15853 24d0 00       		.uleb128 .LVU177
 15854 24d1 00       		.uleb128 .LVU177
 15855 24d2 00       		.uleb128 .LVU179
 15856 24d3 00       		.uleb128 .LVU179
 15857 24d4 00       		.uleb128 .LVU186
 15858 24d5 00       		.uleb128 .LVU186
 15859 24d6 00       		.uleb128 .LVU187
 15860 24d7 00       		.uleb128 .LVU187
 15861 24d8 00       		.uleb128 0
 15862              	.LLST40:
 15863 24d9 20000000 		.4byte	.LVL46
 15864 24dd 28000000 		.4byte	.LVL47
 15865 24e1 0100     		.2byte	0x1
 15866 24e3 52       		.byte	0x52
 15867 24e4 28000000 		.4byte	.LVL47
 15868 24e8 38000000 		.4byte	.LVL48
 15869 24ec 0200     		.2byte	0x2
 15870 24ee 91       		.byte	0x91
 15871 24ef 50       		.sleb128 -48
 15872 24f0 38000000 		.4byte	.LVL48
 15873 24f4 48000000 		.4byte	.LVL52
 15874 24f8 0100     		.2byte	0x1
 15875 24fa 57       		.byte	0x57
 15876 24fb 72000000 		.4byte	.LVL55
 15877 24ff 92000000 		.4byte	.LVL59
 15878 2503 0100     		.2byte	0x1
 15879 2505 57       		.byte	0x57
 15880 2506 A8000000 		.4byte	.LVL60
 15881 250a BA000000 		.4byte	.LVL65
 15882 250e 0100     		.2byte	0x1
 15883 2510 52       		.byte	0x52
 15884 2511 BA000000 		.4byte	.LVL65
 15885 2515 BC000000 		.4byte	.LVL66
 15886 2519 0100     		.2byte	0x1
 15887 251b 53       		.byte	0x53
 15888 251c BC000000 		.4byte	.LVL66
 15889 2520 CC000000 		.4byte	.LVL70
 15890 2524 0100     		.2byte	0x1
 15891 2526 52       		.byte	0x52
 15892 2527 CC000000 		.4byte	.LVL70
 15893 252b CE000000 		.4byte	.LVL71
 15894 252f 0300     		.2byte	0x3
 15895 2531 91       		.byte	0x91
 15896 2532 08       		.sleb128 8
 15897 2533 06       		.byte	0x6
 15898 2534 CE000000 		.4byte	.LVL71
 15899 2538 D8000000 		.4byte	.LFE20
 15900 253c 0200     		.2byte	0x2
 15901 253e 91       		.byte	0x91
 15902 253f 50       		.sleb128 -48
 15903 2540 00000000 		.4byte	0
ARM GAS  /var/folders/cs/83z6p2tj4w57s6p2rt8nwfp00000gn/T//ccDzWS9O.s 			page 307


 15904 2544 00000000 		.4byte	0
 15905              	.LVUS44:
 15906 2548 00       		.uleb128 .LVU181
 15907 2549 00       		.uleb128 .LVU185
 15908 254a 00       		.uleb128 .LVU185
 15909 254b 00       		.uleb128 0
 15910              	.LLST44:
 15911 254c C0000000 		.4byte	.LVL67
 15912 2550 CA000000 		.4byte	.LVL69
 15913 2554 0100     		.2byte	0x1
 15914 2556 54       		.byte	0x54
 15915 2557 CA000000 		.4byte	.LVL69
 15916 255b D8000000 		.4byte	.LFE20
 15917 255f 0700     		.2byte	0x7
 15918 2561 78       		.byte	0x78
 15919 2562 00       		.sleb128 0
 15920 2563 F3       		.byte	0xf3
 15921 2564 01       		.uleb128 0x1
 15922 2565 52       		.byte	0x52
 15923 2566 1C       		.byte	0x1c
 15924 2567 9F       		.byte	0x9f
 15925 2568 00000000 		.4byte	0
 15926 256c 00000000 		.4byte	0
 15927              	.LVUS41:
 15928 2570 00       		.uleb128 .LVU141
 15929 2571 00       		.uleb128 .LVU145
 15930 2572 00       		.uleb128 .LVU145
 15931 2573 00       		.uleb128 .LVU156
 15932              	.LLST41:
 15933 2574 40000000 		.4byte	.LVL50
 15934 2578 46000000 		.4byte	.LVL51
 15935 257c 0300     		.2byte	0x3
 15936 257e 72       		.byte	0x72
 15937 257f 01       		.sleb128 1
 15938 2580 9F       		.byte	0x9f
 15939 2581 46000000 		.4byte	.LVL51
 15940 2585 71000000 		.4byte	.LVL55-1
 15941 2589 0100     		.2byte	0x1
 15942 258b 52       		.byte	0x52
 15943 258c 00000000 		.4byte	0
 15944 2590 00000000 		.4byte	0
 15945              	.LVUS42:
 15946 2594 00       		.uleb128 .LVU141
 15947 2595 00       		.uleb128 .LVU152
 15948 2596 00       		.uleb128 .LVU152
 15949 2597 00       		.uleb128 .LVU156
 15950              	.LLST42:
 15951 2598 40000000 		.4byte	.LVL50
 15952 259c 5A000000 		.4byte	.LVL54
 15953 25a0 0100     		.2byte	0x1
 15954 25a2 53       		.byte	0x53
 15955 25a3 5A000000 		.4byte	.LVL54
 15956 25a7 71000000 		.4byte	.LVL55-1
 15957 25ab 0100     		.2byte	0x1
 15958 25ad 51       		.byte	0x51
 15959 25ae 00000000 		.4byte	0
 15960 25b2 00000000 		.4byte	0
ARM GAS  /var/folders/cs/83z6p2tj4w57s6p2rt8nwfp00000gn/T//ccDzWS9O.s 			page 308


 15961              	.LVUS43:
 15962 25b6 03       		.uleb128 .LVU139
 15963 25b7 00       		.uleb128 .LVU156
 15964              	.LLST43:
 15965 25b8 3A000000 		.4byte	.LVL49
 15966 25bc 72000000 		.4byte	.LVL55
 15967 25c0 0A00     		.2byte	0xa
 15968 25c2 79       		.byte	0x79
 15969 25c3 00       		.sleb128 0
 15970 25c4 74       		.byte	0x74
 15971 25c5 00       		.sleb128 0
 15972 25c6 1E       		.byte	0x1e
 15973 25c7 F3       		.byte	0xf3
 15974 25c8 01       		.uleb128 0x1
 15975 25c9 50       		.byte	0x50
 15976 25ca 22       		.byte	0x22
 15977 25cb 9F       		.byte	0x9f
 15978 25cc 00000000 		.4byte	0
 15979 25d0 00000000 		.4byte	0
 15980              	.LLST133:
 15981 25d4 00000000 		.4byte	.LFB19
 15982 25d8 10000000 		.4byte	.LCFI21
 15983 25dc 0200     		.2byte	0x2
 15984 25de 7D       		.byte	0x7d
 15985 25df 00       		.sleb128 0
 15986 25e0 10000000 		.4byte	.LCFI21
 15987 25e4 16000000 		.4byte	.LCFI22
 15988 25e8 0200     		.2byte	0x2
 15989 25ea 7D       		.byte	0x7d
 15990 25eb 24       		.sleb128 36
 15991 25ec 16000000 		.4byte	.LCFI22
 15992 25f0 A6010000 		.4byte	.LCFI23
 15993 25f4 0200     		.2byte	0x2
 15994 25f6 7D       		.byte	0x7d
 15995 25f7 38       		.sleb128 56
 15996 25f8 A6010000 		.4byte	.LCFI23
 15997 25fc AA010000 		.4byte	.LCFI24
 15998 2600 0200     		.2byte	0x2
 15999 2602 7D       		.byte	0x7d
 16000 2603 24       		.sleb128 36
 16001 2604 AA010000 		.4byte	.LCFI24
 16002 2608 E8010000 		.4byte	.LFE19
 16003 260c 0200     		.2byte	0x2
 16004 260e 7D       		.byte	0x7d
 16005 260f 38       		.sleb128 56
 16006 2610 00000000 		.4byte	0
 16007 2614 00000000 		.4byte	0
 16008              	.LVUS134:
 16009 2618 00       		.uleb128 0
 16010 2619 00       		.uleb128 .LVU638
 16011 261a 00       		.uleb128 .LVU638
 16012 261b 00       		.uleb128 .LVU686
 16013 261c 00       		.uleb128 .LVU686
 16014 261d 00       		.uleb128 .LVU689
 16015 261e 00       		.uleb128 .LVU689
 16016 261f 00       		.uleb128 .LVU691
 16017 2620 00       		.uleb128 .LVU691
ARM GAS  /var/folders/cs/83z6p2tj4w57s6p2rt8nwfp00000gn/T//ccDzWS9O.s 			page 309


 16018 2621 00       		.uleb128 .LVU695
 16019 2622 00       		.uleb128 .LVU695
 16020 2623 00       		.uleb128 0
 16021              	.LLST134:
 16022 2624 00000000 		.4byte	.LVL196
 16023 2628 D4000000 		.4byte	.LVL206
 16024 262c 0100     		.2byte	0x1
 16025 262e 50       		.byte	0x50
 16026 262f D4000000 		.4byte	.LVL206
 16027 2633 82010000 		.4byte	.LVL223
 16028 2637 0400     		.2byte	0x4
 16029 2639 F3       		.byte	0xf3
 16030 263a 01       		.uleb128 0x1
 16031 263b 50       		.byte	0x50
 16032 263c 9F       		.byte	0x9f
 16033 263d 82010000 		.4byte	.LVL223
 16034 2641 92010000 		.4byte	.LVL224
 16035 2645 0100     		.2byte	0x1
 16036 2647 50       		.byte	0x50
 16037 2648 92010000 		.4byte	.LVL224
 16038 264c AA010000 		.4byte	.LVL225
 16039 2650 0400     		.2byte	0x4
 16040 2652 F3       		.byte	0xf3
 16041 2653 01       		.uleb128 0x1
 16042 2654 50       		.byte	0x50
 16043 2655 9F       		.byte	0x9f
 16044 2656 AA010000 		.4byte	.LVL225
 16045 265a C6010000 		.4byte	.LVL228
 16046 265e 0100     		.2byte	0x1
 16047 2660 50       		.byte	0x50
 16048 2661 C6010000 		.4byte	.LVL228
 16049 2665 E8010000 		.4byte	.LFE19
 16050 2669 0400     		.2byte	0x4
 16051 266b F3       		.byte	0xf3
 16052 266c 01       		.uleb128 0x1
 16053 266d 50       		.byte	0x50
 16054 266e 9F       		.byte	0x9f
 16055 266f 00000000 		.4byte	0
 16056 2673 00000000 		.4byte	0
 16057              	.LVUS135:
 16058 2677 00       		.uleb128 0
 16059 2678 00       		.uleb128 .LVU638
 16060 2679 00       		.uleb128 .LVU638
 16061 267a 00       		.uleb128 .LVU686
 16062 267b 00       		.uleb128 .LVU686
 16063 267c 00       		.uleb128 .LVU689
 16064 267d 00       		.uleb128 .LVU689
 16065 267e 00       		.uleb128 .LVU691
 16066 267f 00       		.uleb128 .LVU691
 16067 2680 00       		.uleb128 .LVU695
 16068 2681 00       		.uleb128 .LVU695
 16069 2682 00       		.uleb128 0
 16070              	.LLST135:
 16071 2683 00000000 		.4byte	.LVL196
 16072 2687 D4000000 		.4byte	.LVL206
 16073 268b 0100     		.2byte	0x1
 16074 268d 51       		.byte	0x51
ARM GAS  /var/folders/cs/83z6p2tj4w57s6p2rt8nwfp00000gn/T//ccDzWS9O.s 			page 310


 16075 268e D4000000 		.4byte	.LVL206
 16076 2692 82010000 		.4byte	.LVL223
 16077 2696 0100     		.2byte	0x1
 16078 2698 56       		.byte	0x56
 16079 2699 82010000 		.4byte	.LVL223
 16080 269d 92010000 		.4byte	.LVL224
 16081 26a1 0100     		.2byte	0x1
 16082 26a3 51       		.byte	0x51
 16083 26a4 92010000 		.4byte	.LVL224
 16084 26a8 AA010000 		.4byte	.LVL225
 16085 26ac 0100     		.2byte	0x1
 16086 26ae 56       		.byte	0x56
 16087 26af AA010000 		.4byte	.LVL225
 16088 26b3 C6010000 		.4byte	.LVL228
 16089 26b7 0100     		.2byte	0x1
 16090 26b9 51       		.byte	0x51
 16091 26ba C6010000 		.4byte	.LVL228
 16092 26be E8010000 		.4byte	.LFE19
 16093 26c2 0100     		.2byte	0x1
 16094 26c4 56       		.byte	0x56
 16095 26c5 00000000 		.4byte	0
 16096 26c9 00000000 		.4byte	0
 16097              	.LVUS136:
 16098 26cd 00       		.uleb128 0
 16099 26ce 00       		.uleb128 .LVU596
 16100 26cf 00       		.uleb128 .LVU596
 16101 26d0 00       		.uleb128 .LVU637
 16102 26d1 00       		.uleb128 .LVU637
 16103 26d2 00       		.uleb128 .LVU686
 16104 26d3 00       		.uleb128 .LVU686
 16105 26d4 00       		.uleb128 .LVU689
 16106 26d5 00       		.uleb128 .LVU691
 16107 26d6 00       		.uleb128 .LVU695
 16108 26d7 00       		.uleb128 .LVU695
 16109 26d8 00       		.uleb128 0
 16110              	.LLST136:
 16111 26d9 00000000 		.4byte	.LVL196
 16112 26dd 2E000000 		.4byte	.LVL197
 16113 26e1 0100     		.2byte	0x1
 16114 26e3 52       		.byte	0x52
 16115 26e4 2E000000 		.4byte	.LVL197
 16116 26e8 CE000000 		.4byte	.LVL205
 16117 26ec 0100     		.2byte	0x1
 16118 26ee 57       		.byte	0x57
 16119 26ef CE000000 		.4byte	.LVL205
 16120 26f3 82010000 		.4byte	.LVL223
 16121 26f7 0200     		.2byte	0x2
 16122 26f9 91       		.byte	0x91
 16123 26fa 4C       		.sleb128 -52
 16124 26fb 82010000 		.4byte	.LVL223
 16125 26ff 92010000 		.4byte	.LVL224
 16126 2703 0100     		.2byte	0x1
 16127 2705 57       		.byte	0x57
 16128 2706 AA010000 		.4byte	.LVL225
 16129 270a C6010000 		.4byte	.LVL228
 16130 270e 0100     		.2byte	0x1
 16131 2710 57       		.byte	0x57
ARM GAS  /var/folders/cs/83z6p2tj4w57s6p2rt8nwfp00000gn/T//ccDzWS9O.s 			page 311


 16132 2711 C6010000 		.4byte	.LVL228
 16133 2715 E8010000 		.4byte	.LFE19
 16134 2719 0200     		.2byte	0x2
 16135 271b 91       		.byte	0x91
 16136 271c 4C       		.sleb128 -52
 16137 271d 00000000 		.4byte	0
 16138 2721 00000000 		.4byte	0
 16139              	.LVUS137:
 16140 2725 00       		.uleb128 0
 16141 2726 00       		.uleb128 .LVU596
 16142 2727 00       		.uleb128 .LVU596
 16143 2728 00       		.uleb128 0
 16144              	.LLST137:
 16145 2729 00000000 		.4byte	.LVL196
 16146 272d 2E000000 		.4byte	.LVL197
 16147 2731 0100     		.2byte	0x1
 16148 2733 53       		.byte	0x53
 16149 2734 2E000000 		.4byte	.LVL197
 16150 2738 E8010000 		.4byte	.LFE19
 16151 273c 0100     		.2byte	0x1
 16152 273e 55       		.byte	0x55
 16153 273f 00000000 		.4byte	0
 16154 2743 00000000 		.4byte	0
 16155              	.LVUS138:
 16156 2747 00       		.uleb128 0
 16157 2748 00       		.uleb128 .LVU691
 16158 2749 00       		.uleb128 .LVU691
 16159 274a 00       		.uleb128 0
 16160              	.LLST138:
 16161 274b 00000000 		.4byte	.LVL196
 16162 274f AA010000 		.4byte	.LVL225
 16163 2753 0200     		.2byte	0x2
 16164 2755 91       		.byte	0x91
 16165 2756 00       		.sleb128 0
 16166 2757 AA010000 		.4byte	.LVL225
 16167 275b E8010000 		.4byte	.LFE19
 16168 275f 0200     		.2byte	0x2
 16169 2761 91       		.byte	0x91
 16170 2762 00       		.sleb128 0
 16171 2763 00000000 		.4byte	0
 16172 2767 00000000 		.4byte	0
 16173              	.LVUS139:
 16174 276b 00       		.uleb128 0
 16175 276c 00       		.uleb128 .LVU691
 16176 276d 00       		.uleb128 .LVU691
 16177 276e 00       		.uleb128 0
 16178              	.LLST139:
 16179 276f 00000000 		.4byte	.LVL196
 16180 2773 AA010000 		.4byte	.LVL225
 16181 2777 0200     		.2byte	0x2
 16182 2779 91       		.byte	0x91
 16183 277a 04       		.sleb128 4
 16184 277b AA010000 		.4byte	.LVL225
 16185 277f E8010000 		.4byte	.LFE19
 16186 2783 0200     		.2byte	0x2
 16187 2785 91       		.byte	0x91
 16188 2786 04       		.sleb128 4
ARM GAS  /var/folders/cs/83z6p2tj4w57s6p2rt8nwfp00000gn/T//ccDzWS9O.s 			page 312


 16189 2787 00000000 		.4byte	0
 16190 278b 00000000 		.4byte	0
 16191              	.LVUS140:
 16192 278f 00       		.uleb128 .LVU598
 16193 2790 01       		.uleb128 .LVU635
 16194 2791 01       		.uleb128 .LVU635
 16195 2792 00       		.uleb128 .LVU636
 16196 2793 00       		.uleb128 .LVU638
 16197 2794 00       		.uleb128 0
 16198              	.LLST140:
 16199 2795 36000000 		.4byte	.LVL198
 16200 2799 C4000000 		.4byte	.LVL203
 16201 279d 0100     		.2byte	0x1
 16202 279f 54       		.byte	0x54
 16203 27a0 C4000000 		.4byte	.LVL203
 16204 27a4 C6000000 		.4byte	.LVL204
 16205 27a8 0200     		.2byte	0x2
 16206 27aa 30       		.byte	0x30
 16207 27ab 9F       		.byte	0x9f
 16208 27ac D4000000 		.4byte	.LVL206
 16209 27b0 E8010000 		.4byte	.LFE19
 16210 27b4 0100     		.2byte	0x1
 16211 27b6 54       		.byte	0x54
 16212 27b7 00000000 		.4byte	0
 16213 27bb 00000000 		.4byte	0
 16214              	.LVUS141:
 16215 27bf 00       		.uleb128 .LVU602
 16216 27c0 00       		.uleb128 0
 16217              	.LLST141:
 16218 27c1 40000000 		.4byte	.LVL199
 16219 27c5 E8010000 		.4byte	.LFE19
 16220 27c9 0100     		.2byte	0x1
 16221 27cb 59       		.byte	0x59
 16222 27cc 00000000 		.4byte	0
 16223 27d0 00000000 		.4byte	0
 16224              	.LVUS142:
 16225 27d4 00       		.uleb128 .LVU619
 16226 27d5 00       		.uleb128 .LVU643
 16227 27d6 00       		.uleb128 .LVU651
 16228 27d7 00       		.uleb128 .LVU672
 16229 27d8 00       		.uleb128 .LVU692
 16230 27d9 00       		.uleb128 .LVU698
 16231              	.LLST142:
 16232 27da A8000000 		.4byte	.LVL200
 16233 27de D8000000 		.4byte	.LVL208
 16234 27e2 0100     		.2byte	0x1
 16235 27e4 52       		.byte	0x52
 16236 27e5 F6000000 		.4byte	.LVL213
 16237 27e9 38010000 		.4byte	.LVL219
 16238 27ed 0100     		.2byte	0x1
 16239 27ef 52       		.byte	0x52
 16240 27f0 B8010000 		.4byte	.LVL226
 16241 27f4 D8010000 		.4byte	.LVL229
 16242 27f8 0100     		.2byte	0x1
 16243 27fa 52       		.byte	0x52
 16244 27fb 00000000 		.4byte	0
 16245 27ff 00000000 		.4byte	0
ARM GAS  /var/folders/cs/83z6p2tj4w57s6p2rt8nwfp00000gn/T//ccDzWS9O.s 			page 313


 16246              	.LVUS143:
 16247 2803 00       		.uleb128 .LVU629
 16248 2804 00       		.uleb128 .LVU686
 16249 2805 00       		.uleb128 .LVU695
 16250 2806 00       		.uleb128 0
 16251              	.LLST143:
 16252 2807 BC000000 		.4byte	.LVL202
 16253 280b 82010000 		.4byte	.LVL223
 16254 280f 0100     		.2byte	0x1
 16255 2811 58       		.byte	0x58
 16256 2812 C6010000 		.4byte	.LVL228
 16257 2816 E8010000 		.4byte	.LFE19
 16258 281a 0100     		.2byte	0x1
 16259 281c 58       		.byte	0x58
 16260 281d 00000000 		.4byte	0
 16261 2821 00000000 		.4byte	0
 16262              	.LVUS150:
 16263 2825 00       		.uleb128 .LVU638
 16264 2826 00       		.uleb128 .LVU646
 16265 2827 01       		.uleb128 .LVU654
 16266 2828 00       		.uleb128 .LVU676
 16267 2829 00       		.uleb128 .LVU676
 16268 282a 00       		.uleb128 .LVU677
 16269 282b 00       		.uleb128 .LVU695
 16270 282c 00       		.uleb128 .LVU698
 16271              	.LLST150:
 16272 282d D4000000 		.4byte	.LVL206
 16273 2831 EB000000 		.4byte	.LVL211-1
 16274 2835 0700     		.2byte	0x7
 16275 2837 74       		.byte	0x74
 16276 2838 00       		.sleb128 0
 16277 2839 37       		.byte	0x37
 16278 283a 1A       		.byte	0x1a
 16279 283b 7A       		.byte	0x7a
 16280 283c 00       		.sleb128 0
 16281 283d 22       		.byte	0x22
 16282 283e FA000000 		.4byte	.LVL214
 16283 2842 3C010000 		.4byte	.LVL221
 16284 2846 0700     		.2byte	0x7
 16285 2848 74       		.byte	0x74
 16286 2849 00       		.sleb128 0
 16287 284a 37       		.byte	0x37
 16288 284b 1A       		.byte	0x1a
 16289 284c 7A       		.byte	0x7a
 16290 284d 00       		.sleb128 0
 16291 284e 22       		.byte	0x22
 16292 284f 3C010000 		.4byte	.LVL221
 16293 2853 42010000 		.4byte	.LVL222
 16294 2857 0700     		.2byte	0x7
 16295 2859 74       		.byte	0x74
 16296 285a 7F       		.sleb128 -1
 16297 285b 37       		.byte	0x37
 16298 285c 1A       		.byte	0x1a
 16299 285d 7A       		.byte	0x7a
 16300 285e 00       		.sleb128 0
 16301 285f 22       		.byte	0x22
 16302 2860 C6010000 		.4byte	.LVL228
ARM GAS  /var/folders/cs/83z6p2tj4w57s6p2rt8nwfp00000gn/T//ccDzWS9O.s 			page 314


 16303 2864 D8010000 		.4byte	.LVL229
 16304 2868 0700     		.2byte	0x7
 16305 286a 74       		.byte	0x74
 16306 286b 00       		.sleb128 0
 16307 286c 37       		.byte	0x37
 16308 286d 1A       		.byte	0x1a
 16309 286e 7A       		.byte	0x7a
 16310 286f 00       		.sleb128 0
 16311 2870 22       		.byte	0x22
 16312 2871 00000000 		.4byte	0
 16313 2875 00000000 		.4byte	0
 16314              	.LVUS151:
 16315 2879 00       		.uleb128 .LVU638
 16316 287a 00       		.uleb128 .LVU646
 16317 287b 00       		.uleb128 .LVU660
 16318 287c 00       		.uleb128 .LVU677
 16319 287d 00       		.uleb128 .LVU695
 16320 287e 00       		.uleb128 .LVU698
 16321              	.LLST151:
 16322 287f D4000000 		.4byte	.LVL206
 16323 2883 EB000000 		.4byte	.LVL211-1
 16324 2887 0100     		.2byte	0x1
 16325 2889 53       		.byte	0x53
 16326 288a 12010000 		.4byte	.LVL215
 16327 288e 42010000 		.4byte	.LVL222
 16328 2892 0100     		.2byte	0x1
 16329 2894 53       		.byte	0x53
 16330 2895 C6010000 		.4byte	.LVL228
 16331 2899 D8010000 		.4byte	.LVL229
 16332 289d 0100     		.2byte	0x1
 16333 289f 53       		.byte	0x53
 16334 28a0 00000000 		.4byte	0
 16335 28a4 00000000 		.4byte	0
 16336              	.LVUS152:
 16337 28a8 00       		.uleb128 .LVU638
 16338 28a9 00       		.uleb128 .LVU651
 16339 28aa 00       		.uleb128 .LVU664
 16340 28ab 00       		.uleb128 .LVU677
 16341              	.LLST152:
 16342 28ac D4000000 		.4byte	.LVL206
 16343 28b0 F6000000 		.4byte	.LVL213
 16344 28b4 0100     		.2byte	0x1
 16345 28b6 5B       		.byte	0x5b
 16346 28b7 28010000 		.4byte	.LVL216
 16347 28bb 42010000 		.4byte	.LVL222
 16348 28bf 0100     		.2byte	0x1
 16349 28c1 5B       		.byte	0x5b
 16350 28c2 00000000 		.4byte	0
 16351 28c6 00000000 		.4byte	0
 16352              	.LVUS153:
 16353 28ca 00       		.uleb128 .LVU640
 16354 28cb 00       		.uleb128 .LVU645
 16355              	.LLST153:
 16356 28cc D6000000 		.4byte	.LVL207
 16357 28d0 DE000000 		.4byte	.LVL210
 16358 28d4 0100     		.2byte	0x1
 16359 28d6 53       		.byte	0x53
ARM GAS  /var/folders/cs/83z6p2tj4w57s6p2rt8nwfp00000gn/T//ccDzWS9O.s 			page 315


 16360 28d7 00000000 		.4byte	0
 16361 28db 00000000 		.4byte	0
 16362              	.LVUS154:
 16363 28df 00       		.uleb128 .LVU640
 16364 28e0 00       		.uleb128 .LVU644
 16365 28e1 00       		.uleb128 .LVU644
 16366 28e2 00       		.uleb128 .LVU645
 16367              	.LLST154:
 16368 28e3 D6000000 		.4byte	.LVL207
 16369 28e7 DC000000 		.4byte	.LVL209
 16370 28eb 0900     		.2byte	0x9
 16371 28ed 7B       		.byte	0x7b
 16372 28ee 00       		.sleb128 0
 16373 28ef 40       		.byte	0x40
 16374 28f0 26       		.byte	0x26
 16375 28f1 91       		.byte	0x91
 16376 28f2 00       		.sleb128 0
 16377 28f3 06       		.byte	0x6
 16378 28f4 22       		.byte	0x22
 16379 28f5 9F       		.byte	0x9f
 16380 28f6 DC000000 		.4byte	.LVL209
 16381 28fa DE000000 		.4byte	.LVL210
 16382 28fe 0100     		.2byte	0x1
 16383 2900 52       		.byte	0x52
 16384 2901 00000000 		.4byte	0
 16385 2905 00000000 		.4byte	0
 16386              	.LVUS155:
 16387 2909 00       		.uleb128 .LVU640
 16388 290a 00       		.uleb128 .LVU645
 16389              	.LLST155:
 16390 290b D6000000 		.4byte	.LVL207
 16391 290f DE000000 		.4byte	.LVL210
 16392 2913 0100     		.2byte	0x1
 16393 2915 51       		.byte	0x51
 16394 2916 00000000 		.4byte	0
 16395 291a 00000000 		.4byte	0
 16396              	.LVUS156:
 16397 291e 01       		.uleb128 .LVU639
 16398 291f 00       		.uleb128 .LVU645
 16399              	.LLST156:
 16400 2920 D4000000 		.4byte	.LVL206
 16401 2924 DE000000 		.4byte	.LVL210
 16402 2928 0A00     		.2byte	0xa
 16403 292a 74       		.byte	0x74
 16404 292b 00       		.sleb128 0
 16405 292c 76       		.byte	0x76
 16406 292d 00       		.sleb128 0
 16407 292e 1E       		.byte	0x1e
 16408 292f F3       		.byte	0xf3
 16409 2930 01       		.uleb128 0x1
 16410 2931 50       		.byte	0x50
 16411 2932 22       		.byte	0x22
 16412 2933 9F       		.byte	0x9f
 16413 2934 00000000 		.4byte	0
 16414 2938 00000000 		.4byte	0
 16415              	.LVUS157:
 16416 293c 00       		.uleb128 .LVU669
ARM GAS  /var/folders/cs/83z6p2tj4w57s6p2rt8nwfp00000gn/T//ccDzWS9O.s 			page 316


 16417 293d 00       		.uleb128 .LVU673
 16418              	.LLST157:
 16419 293e 34010000 		.4byte	.LVL218
 16420 2942 3A010000 		.4byte	.LVL220
 16421 2946 0100     		.2byte	0x1
 16422 2948 53       		.byte	0x53
 16423 2949 00000000 		.4byte	0
 16424 294d 00000000 		.4byte	0
 16425              	.LVUS158:
 16426 2951 00       		.uleb128 .LVU669
 16427 2952 00       		.uleb128 .LVU672
 16428 2953 00       		.uleb128 .LVU672
 16429 2954 00       		.uleb128 .LVU673
 16430              	.LLST158:
 16431 2955 34010000 		.4byte	.LVL218
 16432 2959 38010000 		.4byte	.LVL219
 16433 295d 0800     		.2byte	0x8
 16434 295f 72       		.byte	0x72
 16435 2960 00       		.sleb128 0
 16436 2961 40       		.byte	0x40
 16437 2962 26       		.byte	0x26
 16438 2963 70       		.byte	0x70
 16439 2964 00       		.sleb128 0
 16440 2965 22       		.byte	0x22
 16441 2966 9F       		.byte	0x9f
 16442 2967 38010000 		.4byte	.LVL219
 16443 296b 3A010000 		.4byte	.LVL220
 16444 296f 0100     		.2byte	0x1
 16445 2971 52       		.byte	0x52
 16446 2972 00000000 		.4byte	0
 16447 2976 00000000 		.4byte	0
 16448              	.LVUS159:
 16449 297a 00       		.uleb128 .LVU669
 16450 297b 00       		.uleb128 .LVU673
 16451              	.LLST159:
 16452 297c 34010000 		.4byte	.LVL218
 16453 2980 3A010000 		.4byte	.LVL220
 16454 2984 0100     		.2byte	0x1
 16455 2986 51       		.byte	0x51
 16456 2987 00000000 		.4byte	0
 16457 298b 00000000 		.4byte	0
 16458              	.LVUS160:
 16459 298f 01       		.uleb128 .LVU667
 16460 2990 00       		.uleb128 .LVU673
 16461              	.LLST160:
 16462 2991 2E010000 		.4byte	.LVL217
 16463 2995 3A010000 		.4byte	.LVL220
 16464 2999 0A00     		.2byte	0xa
 16465 299b 74       		.byte	0x74
 16466 299c 00       		.sleb128 0
 16467 299d 76       		.byte	0x76
 16468 299e 00       		.sleb128 0
 16469 299f 1E       		.byte	0x1e
 16470 29a0 F3       		.byte	0xf3
 16471 29a1 01       		.uleb128 0x1
 16472 29a2 50       		.byte	0x50
 16473 29a3 22       		.byte	0x22
ARM GAS  /var/folders/cs/83z6p2tj4w57s6p2rt8nwfp00000gn/T//ccDzWS9O.s 			page 317


 16474 29a4 9F       		.byte	0x9f
 16475 29a5 00000000 		.4byte	0
 16476 29a9 00000000 		.4byte	0
 16477              	.LVUS144:
 16478 29ad 01       		.uleb128 .LVU620
 16479 29ae 00       		.uleb128 .LVU629
 16480 29af 00       		.uleb128 .LVU692
 16481 29b0 00       		.uleb128 .LVU695
 16482              	.LLST144:
 16483 29b1 A8000000 		.4byte	.LVL200
 16484 29b5 BC000000 		.4byte	.LVL202
 16485 29b9 0200     		.2byte	0x2
 16486 29bb 75       		.byte	0x75
 16487 29bc 04       		.sleb128 4
 16488 29bd B8010000 		.4byte	.LVL226
 16489 29c1 C6010000 		.4byte	.LVL228
 16490 29c5 0200     		.2byte	0x2
 16491 29c7 75       		.byte	0x75
 16492 29c8 04       		.sleb128 4
 16493 29c9 00000000 		.4byte	0
 16494 29cd 00000000 		.4byte	0
 16495              	.LVUS145:
 16496 29d1 01       		.uleb128 .LVU620
 16497 29d2 00       		.uleb128 .LVU629
 16498 29d3 00       		.uleb128 .LVU692
 16499 29d4 00       		.uleb128 .LVU695
 16500              	.LLST145:
 16501 29d5 A8000000 		.4byte	.LVL200
 16502 29d9 BC000000 		.4byte	.LVL202
 16503 29dd 0200     		.2byte	0x2
 16504 29df 75       		.byte	0x75
 16505 29e0 00       		.sleb128 0
 16506 29e1 B8010000 		.4byte	.LVL226
 16507 29e5 C6010000 		.4byte	.LVL228
 16508 29e9 0200     		.2byte	0x2
 16509 29eb 75       		.byte	0x75
 16510 29ec 00       		.sleb128 0
 16511 29ed 00000000 		.4byte	0
 16512 29f1 00000000 		.4byte	0
 16513              	.LVUS146:
 16514 29f5 01       		.uleb128 .LVU620
 16515 29f6 00       		.uleb128 .LVU629
 16516 29f7 00       		.uleb128 .LVU692
 16517 29f8 00       		.uleb128 .LVU695
 16518              	.LLST146:
 16519 29f9 A8000000 		.4byte	.LVL200
 16520 29fd BC000000 		.4byte	.LVL202
 16521 2a01 0200     		.2byte	0x2
 16522 2a03 77       		.byte	0x77
 16523 2a04 04       		.sleb128 4
 16524 2a05 B8010000 		.4byte	.LVL226
 16525 2a09 C6010000 		.4byte	.LVL228
 16526 2a0d 0200     		.2byte	0x2
 16527 2a0f 77       		.byte	0x77
 16528 2a10 04       		.sleb128 4
 16529 2a11 00000000 		.4byte	0
 16530 2a15 00000000 		.4byte	0
ARM GAS  /var/folders/cs/83z6p2tj4w57s6p2rt8nwfp00000gn/T//ccDzWS9O.s 			page 318


 16531              	.LVUS147:
 16532 2a19 01       		.uleb128 .LVU620
 16533 2a1a 00       		.uleb128 .LVU629
 16534 2a1b 00       		.uleb128 .LVU692
 16535 2a1c 00       		.uleb128 .LVU695
 16536              	.LLST147:
 16537 2a1d A8000000 		.4byte	.LVL200
 16538 2a21 BC000000 		.4byte	.LVL202
 16539 2a25 0200     		.2byte	0x2
 16540 2a27 90       		.byte	0x90
 16541 2a28 4C       		.uleb128 0x4c
 16542 2a29 B8010000 		.4byte	.LVL226
 16543 2a2d C6010000 		.4byte	.LVL228
 16544 2a31 0200     		.2byte	0x2
 16545 2a33 90       		.byte	0x90
 16546 2a34 4C       		.uleb128 0x4c
 16547 2a35 00000000 		.4byte	0
 16548 2a39 00000000 		.4byte	0
 16549              	.LVUS148:
 16550 2a3d 03       		.uleb128 .LVU622
 16551 2a3e 00       		.uleb128 .LVU629
 16552 2a3f 00       		.uleb128 .LVU692
 16553 2a40 00       		.uleb128 .LVU695
 16554              	.LLST148:
 16555 2a41 A8000000 		.4byte	.LVL200
 16556 2a45 BC000000 		.4byte	.LVL202
 16557 2a49 0200     		.2byte	0x2
 16558 2a4b 90       		.byte	0x90
 16559 2a4c 4D       		.uleb128 0x4d
 16560 2a4d B8010000 		.4byte	.LVL226
 16561 2a51 C6010000 		.4byte	.LVL228
 16562 2a55 0200     		.2byte	0x2
 16563 2a57 90       		.byte	0x90
 16564 2a58 4D       		.uleb128 0x4d
 16565 2a59 00000000 		.4byte	0
 16566 2a5d 00000000 		.4byte	0
 16567              	.LVUS149:
 16568 2a61 04       		.uleb128 .LVU623
 16569 2a62 00       		.uleb128 .LVU628
 16570 2a63 00       		.uleb128 .LVU692
 16571 2a64 00       		.uleb128 .LVU694
 16572              	.LLST149:
 16573 2a65 A8000000 		.4byte	.LVL200
 16574 2a69 B4000000 		.4byte	.LVL201
 16575 2a6d 0200     		.2byte	0x2
 16576 2a6f 90       		.byte	0x90
 16577 2a70 4F       		.uleb128 0x4f
 16578 2a71 B8010000 		.4byte	.LVL226
 16579 2a75 BC010000 		.4byte	.LVL227
 16580 2a79 0200     		.2byte	0x2
 16581 2a7b 90       		.byte	0x90
 16582 2a7c 4F       		.uleb128 0x4f
 16583 2a7d 00000000 		.4byte	0
 16584 2a81 00000000 		.4byte	0
 16585              	.LLST89:
 16586 2a85 00000000 		.4byte	.LFB18
 16587 2a89 10000000 		.4byte	.LCFI17
ARM GAS  /var/folders/cs/83z6p2tj4w57s6p2rt8nwfp00000gn/T//ccDzWS9O.s 			page 319


 16588 2a8d 0200     		.2byte	0x2
 16589 2a8f 7D       		.byte	0x7d
 16590 2a90 00       		.sleb128 0
 16591 2a91 10000000 		.4byte	.LCFI17
 16592 2a95 16000000 		.4byte	.LCFI18
 16593 2a99 0200     		.2byte	0x2
 16594 2a9b 7D       		.byte	0x7d
 16595 2a9c 24       		.sleb128 36
 16596 2a9d 16000000 		.4byte	.LCFI18
 16597 2aa1 88020000 		.4byte	.LCFI19
 16598 2aa5 0300     		.2byte	0x3
 16599 2aa7 7D       		.byte	0x7d
 16600 2aa8 D000     		.sleb128 80
 16601 2aaa 88020000 		.4byte	.LCFI19
 16602 2aae 8C020000 		.4byte	.LCFI20
 16603 2ab2 0200     		.2byte	0x2
 16604 2ab4 7D       		.byte	0x7d
 16605 2ab5 24       		.sleb128 36
 16606 2ab6 8C020000 		.4byte	.LCFI20
 16607 2aba 0C030000 		.4byte	.LFE18
 16608 2abe 0300     		.2byte	0x3
 16609 2ac0 7D       		.byte	0x7d
 16610 2ac1 D000     		.sleb128 80
 16611 2ac3 00000000 		.4byte	0
 16612 2ac7 00000000 		.4byte	0
 16613              	.LVUS90:
 16614 2acb 00       		.uleb128 0
 16615 2acc 00       		.uleb128 .LVU502
 16616 2acd 00       		.uleb128 .LVU502
 16617 2ace 00       		.uleb128 .LVU562
 16618 2acf 00       		.uleb128 .LVU562
 16619 2ad0 00       		.uleb128 .LVU565
 16620 2ad1 00       		.uleb128 .LVU565
 16621 2ad2 00       		.uleb128 .LVU567
 16622 2ad3 00       		.uleb128 .LVU567
 16623 2ad4 00       		.uleb128 .LVU570
 16624 2ad5 00       		.uleb128 .LVU570
 16625 2ad6 00       		.uleb128 .LVU573
 16626 2ad7 00       		.uleb128 .LVU573
 16627 2ad8 00       		.uleb128 .LVU577
 16628 2ad9 00       		.uleb128 .LVU577
 16629 2ada 00       		.uleb128 .LVU579
 16630 2adb 00       		.uleb128 .LVU579
 16631 2adc 00       		.uleb128 0
 16632              	.LLST90:
 16633 2add 00000000 		.4byte	.LVL143
 16634 2ae1 7C010000 		.4byte	.LVL163
 16635 2ae5 0100     		.2byte	0x1
 16636 2ae7 50       		.byte	0x50
 16637 2ae8 7C010000 		.4byte	.LVL163
 16638 2aec 64020000 		.4byte	.LVL184
 16639 2af0 0400     		.2byte	0x4
 16640 2af2 F3       		.byte	0xf3
 16641 2af3 01       		.uleb128 0x1
 16642 2af4 50       		.byte	0x50
 16643 2af5 9F       		.byte	0x9f
 16644 2af6 64020000 		.4byte	.LVL184
ARM GAS  /var/folders/cs/83z6p2tj4w57s6p2rt8nwfp00000gn/T//ccDzWS9O.s 			page 320


 16645 2afa 74020000 		.4byte	.LVL185
 16646 2afe 0100     		.2byte	0x1
 16647 2b00 50       		.byte	0x50
 16648 2b01 74020000 		.4byte	.LVL185
 16649 2b05 8C020000 		.4byte	.LVL186
 16650 2b09 0400     		.2byte	0x4
 16651 2b0b F3       		.byte	0xf3
 16652 2b0c 01       		.uleb128 0x1
 16653 2b0d 50       		.byte	0x50
 16654 2b0e 9F       		.byte	0x9f
 16655 2b0f 8C020000 		.4byte	.LVL186
 16656 2b13 A8020000 		.4byte	.LVL188
 16657 2b17 0100     		.2byte	0x1
 16658 2b19 50       		.byte	0x50
 16659 2b1a A8020000 		.4byte	.LVL188
 16660 2b1e BA020000 		.4byte	.LVL189
 16661 2b22 0400     		.2byte	0x4
 16662 2b24 F3       		.byte	0xf3
 16663 2b25 01       		.uleb128 0x1
 16664 2b26 50       		.byte	0x50
 16665 2b27 9F       		.byte	0x9f
 16666 2b28 BA020000 		.4byte	.LVL189
 16667 2b2c C2020000 		.4byte	.LVL192
 16668 2b30 0100     		.2byte	0x1
 16669 2b32 50       		.byte	0x50
 16670 2b33 C2020000 		.4byte	.LVL192
 16671 2b37 CA020000 		.4byte	.LVL193
 16672 2b3b 0400     		.2byte	0x4
 16673 2b3d F3       		.byte	0xf3
 16674 2b3e 01       		.uleb128 0x1
 16675 2b3f 50       		.byte	0x50
 16676 2b40 9F       		.byte	0x9f
 16677 2b41 CA020000 		.4byte	.LVL193
 16678 2b45 0C030000 		.4byte	.LFE18
 16679 2b49 0100     		.2byte	0x1
 16680 2b4b 50       		.byte	0x50
 16681 2b4c 00000000 		.4byte	0
 16682 2b50 00000000 		.4byte	0
 16683              	.LVUS91:
 16684 2b54 00       		.uleb128 0
 16685 2b55 00       		.uleb128 .LVU417
 16686 2b56 00       		.uleb128 .LVU417
 16687 2b57 00       		.uleb128 0
 16688              	.LLST91:
 16689 2b58 00000000 		.4byte	.LVL143
 16690 2b5c 40000000 		.4byte	.LVL146
 16691 2b60 0100     		.2byte	0x1
 16692 2b62 51       		.byte	0x51
 16693 2b63 40000000 		.4byte	.LVL146
 16694 2b67 0C030000 		.4byte	.LFE18
 16695 2b6b 0100     		.2byte	0x1
 16696 2b6d 58       		.byte	0x58
 16697 2b6e 00000000 		.4byte	0
 16698 2b72 00000000 		.4byte	0
 16699              	.LVUS92:
 16700 2b76 00       		.uleb128 0
 16701 2b77 00       		.uleb128 .LVU411
ARM GAS  /var/folders/cs/83z6p2tj4w57s6p2rt8nwfp00000gn/T//ccDzWS9O.s 			page 321


 16702 2b78 00       		.uleb128 .LVU411
 16703 2b79 00       		.uleb128 .LVU501
 16704 2b7a 00       		.uleb128 .LVU501
 16705 2b7b 00       		.uleb128 .LVU562
 16706 2b7c 00       		.uleb128 .LVU562
 16707 2b7d 00       		.uleb128 .LVU565
 16708 2b7e 00       		.uleb128 .LVU567
 16709 2b7f 00       		.uleb128 .LVU570
 16710 2b80 00       		.uleb128 .LVU570
 16711 2b81 00       		.uleb128 .LVU573
 16712 2b82 00       		.uleb128 .LVU573
 16713 2b83 00       		.uleb128 .LVU577
 16714 2b84 00       		.uleb128 .LVU577
 16715 2b85 00       		.uleb128 .LVU579
 16716 2b86 00       		.uleb128 .LVU579
 16717 2b87 00       		.uleb128 0
 16718              	.LLST92:
 16719 2b88 00000000 		.4byte	.LVL143
 16720 2b8c 2E000000 		.4byte	.LVL144
 16721 2b90 0100     		.2byte	0x1
 16722 2b92 52       		.byte	0x52
 16723 2b93 2E000000 		.4byte	.LVL144
 16724 2b97 7A010000 		.4byte	.LVL162
 16725 2b9b 0100     		.2byte	0x1
 16726 2b9d 57       		.byte	0x57
 16727 2b9e 7A010000 		.4byte	.LVL162
 16728 2ba2 64020000 		.4byte	.LVL184
 16729 2ba6 0200     		.2byte	0x2
 16730 2ba8 91       		.byte	0x91
 16731 2ba9 4C       		.sleb128 -52
 16732 2baa 64020000 		.4byte	.LVL184
 16733 2bae 74020000 		.4byte	.LVL185
 16734 2bb2 0100     		.2byte	0x1
 16735 2bb4 57       		.byte	0x57
 16736 2bb5 8C020000 		.4byte	.LVL186
 16737 2bb9 A8020000 		.4byte	.LVL188
 16738 2bbd 0100     		.2byte	0x1
 16739 2bbf 57       		.byte	0x57
 16740 2bc0 A8020000 		.4byte	.LVL188
 16741 2bc4 BA020000 		.4byte	.LVL189
 16742 2bc8 0200     		.2byte	0x2
 16743 2bca 91       		.byte	0x91
 16744 2bcb 4C       		.sleb128 -52
 16745 2bcc BA020000 		.4byte	.LVL189
 16746 2bd0 C2020000 		.4byte	.LVL192
 16747 2bd4 0100     		.2byte	0x1
 16748 2bd6 57       		.byte	0x57
 16749 2bd7 C2020000 		.4byte	.LVL192
 16750 2bdb CA020000 		.4byte	.LVL193
 16751 2bdf 0200     		.2byte	0x2
 16752 2be1 91       		.byte	0x91
 16753 2be2 4C       		.sleb128 -52
 16754 2be3 CA020000 		.4byte	.LVL193
 16755 2be7 0C030000 		.4byte	.LFE18
 16756 2beb 0100     		.2byte	0x1
 16757 2bed 57       		.byte	0x57
 16758 2bee 00000000 		.4byte	0
ARM GAS  /var/folders/cs/83z6p2tj4w57s6p2rt8nwfp00000gn/T//ccDzWS9O.s 			page 322


 16759 2bf2 00000000 		.4byte	0
 16760              	.LVUS93:
 16761 2bf6 00       		.uleb128 0
 16762 2bf7 00       		.uleb128 .LVU411
 16763 2bf8 00       		.uleb128 .LVU411
 16764 2bf9 00       		.uleb128 0
 16765              	.LLST93:
 16766 2bfa 00000000 		.4byte	.LVL143
 16767 2bfe 2E000000 		.4byte	.LVL144
 16768 2c02 0100     		.2byte	0x1
 16769 2c04 53       		.byte	0x53
 16770 2c05 2E000000 		.4byte	.LVL144
 16771 2c09 0C030000 		.4byte	.LFE18
 16772 2c0d 0100     		.2byte	0x1
 16773 2c0f 56       		.byte	0x56
 16774 2c10 00000000 		.4byte	0
 16775 2c14 00000000 		.4byte	0
 16776              	.LVUS94:
 16777 2c18 00       		.uleb128 0
 16778 2c19 00       		.uleb128 .LVU567
 16779 2c1a 00       		.uleb128 .LVU567
 16780 2c1b 00       		.uleb128 0
 16781              	.LLST94:
 16782 2c1c 00000000 		.4byte	.LVL143
 16783 2c20 8C020000 		.4byte	.LVL186
 16784 2c24 0200     		.2byte	0x2
 16785 2c26 91       		.byte	0x91
 16786 2c27 00       		.sleb128 0
 16787 2c28 8C020000 		.4byte	.LVL186
 16788 2c2c 0C030000 		.4byte	.LFE18
 16789 2c30 0200     		.2byte	0x2
 16790 2c32 91       		.byte	0x91
 16791 2c33 00       		.sleb128 0
 16792 2c34 00000000 		.4byte	0
 16793 2c38 00000000 		.4byte	0
 16794              	.LVUS95:
 16795 2c3c 00       		.uleb128 0
 16796 2c3d 00       		.uleb128 .LVU567
 16797 2c3e 00       		.uleb128 .LVU567
 16798 2c3f 00       		.uleb128 0
 16799              	.LLST95:
 16800 2c40 00000000 		.4byte	.LVL143
 16801 2c44 8C020000 		.4byte	.LVL186
 16802 2c48 0200     		.2byte	0x2
 16803 2c4a 91       		.byte	0x91
 16804 2c4b 04       		.sleb128 4
 16805 2c4c 8C020000 		.4byte	.LVL186
 16806 2c50 0C030000 		.4byte	.LFE18
 16807 2c54 0200     		.2byte	0x2
 16808 2c56 91       		.byte	0x91
 16809 2c57 04       		.sleb128 4
 16810 2c58 00000000 		.4byte	0
 16811 2c5c 00000000 		.4byte	0
 16812              	.LVUS96:
 16813 2c60 00       		.uleb128 .LVU413
 16814 2c61 01       		.uleb128 .LVU499
 16815 2c62 01       		.uleb128 .LVU499
ARM GAS  /var/folders/cs/83z6p2tj4w57s6p2rt8nwfp00000gn/T//ccDzWS9O.s 			page 323


 16816 2c63 00       		.uleb128 .LVU500
 16817 2c64 00       		.uleb128 .LVU502
 16818 2c65 00       		.uleb128 .LVU549
 16819 2c66 00       		.uleb128 .LVU549
 16820 2c67 02       		.uleb128 .LVU552
 16821 2c68 02       		.uleb128 .LVU552
 16822 2c69 00       		.uleb128 0
 16823              	.LLST96:
 16824 2c6a 36000000 		.4byte	.LVL145
 16825 2c6e 6E010000 		.4byte	.LVL160
 16826 2c72 0100     		.2byte	0x1
 16827 2c74 54       		.byte	0x54
 16828 2c75 6E010000 		.4byte	.LVL160
 16829 2c79 70010000 		.4byte	.LVL161
 16830 2c7d 0200     		.2byte	0x2
 16831 2c7f 30       		.byte	0x30
 16832 2c80 9F       		.byte	0x9f
 16833 2c81 7C010000 		.4byte	.LVL163
 16834 2c85 1C020000 		.4byte	.LVL181
 16835 2c89 0100     		.2byte	0x1
 16836 2c8b 54       		.byte	0x54
 16837 2c8c 1C020000 		.4byte	.LVL181
 16838 2c90 20020000 		.4byte	.LVL182
 16839 2c94 0300     		.2byte	0x3
 16840 2c96 74       		.byte	0x74
 16841 2c97 7F       		.sleb128 -1
 16842 2c98 9F       		.byte	0x9f
 16843 2c99 20020000 		.4byte	.LVL182
 16844 2c9d 0C030000 		.4byte	.LFE18
 16845 2ca1 0100     		.2byte	0x1
 16846 2ca3 54       		.byte	0x54
 16847 2ca4 00000000 		.4byte	0
 16848 2ca8 00000000 		.4byte	0
 16849              	.LVUS97:
 16850 2cac 00       		.uleb128 .LVU417
 16851 2cad 00       		.uleb128 .LVU502
 16852 2cae 00       		.uleb128 .LVU502
 16853 2caf 00       		.uleb128 .LVU562
 16854 2cb0 00       		.uleb128 .LVU562
 16855 2cb1 00       		.uleb128 .LVU565
 16856 2cb2 00       		.uleb128 .LVU567
 16857 2cb3 00       		.uleb128 .LVU570
 16858 2cb4 00       		.uleb128 .LVU570
 16859 2cb5 00       		.uleb128 .LVU573
 16860 2cb6 00       		.uleb128 .LVU573
 16861 2cb7 00       		.uleb128 .LVU577
 16862 2cb8 00       		.uleb128 .LVU577
 16863 2cb9 00       		.uleb128 .LVU579
 16864 2cba 00       		.uleb128 .LVU579
 16865 2cbb 00       		.uleb128 0
 16866              	.LLST97:
 16867 2cbc 40000000 		.4byte	.LVL146
 16868 2cc0 7C010000 		.4byte	.LVL163
 16869 2cc4 0100     		.2byte	0x1
 16870 2cc6 51       		.byte	0x51
 16871 2cc7 7C010000 		.4byte	.LVL163
 16872 2ccb 64020000 		.4byte	.LVL184
ARM GAS  /var/folders/cs/83z6p2tj4w57s6p2rt8nwfp00000gn/T//ccDzWS9O.s 			page 324


 16873 2ccf 0100     		.2byte	0x1
 16874 2cd1 5A       		.byte	0x5a
 16875 2cd2 64020000 		.4byte	.LVL184
 16876 2cd6 74020000 		.4byte	.LVL185
 16877 2cda 0100     		.2byte	0x1
 16878 2cdc 51       		.byte	0x51
 16879 2cdd 8C020000 		.4byte	.LVL186
 16880 2ce1 A8020000 		.4byte	.LVL188
 16881 2ce5 0100     		.2byte	0x1
 16882 2ce7 51       		.byte	0x51
 16883 2ce8 A8020000 		.4byte	.LVL188
 16884 2cec BA020000 		.4byte	.LVL189
 16885 2cf0 0100     		.2byte	0x1
 16886 2cf2 5A       		.byte	0x5a
 16887 2cf3 BA020000 		.4byte	.LVL189
 16888 2cf7 C2020000 		.4byte	.LVL192
 16889 2cfb 0100     		.2byte	0x1
 16890 2cfd 51       		.byte	0x51
 16891 2cfe C2020000 		.4byte	.LVL192
 16892 2d02 CA020000 		.4byte	.LVL193
 16893 2d06 0100     		.2byte	0x1
 16894 2d08 5A       		.byte	0x5a
 16895 2d09 CA020000 		.4byte	.LVL193
 16896 2d0d 0C030000 		.4byte	.LFE18
 16897 2d11 0100     		.2byte	0x1
 16898 2d13 51       		.byte	0x51
 16899 2d14 00000000 		.4byte	0
 16900 2d18 00000000 		.4byte	0
 16901              	.LVUS98:
 16902 2d1c 00       		.uleb128 .LVU433
 16903 2d1d 00       		.uleb128 .LVU507
 16904 2d1e 00       		.uleb128 .LVU519
 16905 2d1f 00       		.uleb128 .LVU539
 16906 2d20 00       		.uleb128 .LVU568
 16907 2d21 00       		.uleb128 .LVU577
 16908 2d22 00       		.uleb128 .LVU579
 16909 2d23 00       		.uleb128 0
 16910              	.LLST98:
 16911 2d24 A2000000 		.4byte	.LVL147
 16912 2d28 80010000 		.4byte	.LVL165
 16913 2d2c 0100     		.2byte	0x1
 16914 2d2e 53       		.byte	0x53
 16915 2d2f B4010000 		.4byte	.LVL172
 16916 2d33 F4010000 		.4byte	.LVL176
 16917 2d37 0100     		.2byte	0x1
 16918 2d39 53       		.byte	0x53
 16919 2d3a 9A020000 		.4byte	.LVL187
 16920 2d3e C2020000 		.4byte	.LVL192
 16921 2d42 0100     		.2byte	0x1
 16922 2d44 53       		.byte	0x53
 16923 2d45 CA020000 		.4byte	.LVL193
 16924 2d49 0C030000 		.4byte	.LFE18
 16925 2d4d 0100     		.2byte	0x1
 16926 2d4f 53       		.byte	0x53
 16927 2d50 00000000 		.4byte	0
 16928 2d54 00000000 		.4byte	0
 16929              	.LVUS99:
ARM GAS  /var/folders/cs/83z6p2tj4w57s6p2rt8nwfp00000gn/T//ccDzWS9O.s 			page 325


 16930 2d58 00       		.uleb128 .LVU443
 16931 2d59 00       		.uleb128 .LVU562
 16932 2d5a 00       		.uleb128 .LVU570
 16933 2d5b 00       		.uleb128 0
 16934              	.LLST99:
 16935 2d5c BE000000 		.4byte	.LVL149
 16936 2d60 64020000 		.4byte	.LVL184
 16937 2d64 0100     		.2byte	0x1
 16938 2d66 59       		.byte	0x59
 16939 2d67 A8020000 		.4byte	.LVL188
 16940 2d6b 0C030000 		.4byte	.LFE18
 16941 2d6f 0100     		.2byte	0x1
 16942 2d71 59       		.byte	0x59
 16943 2d72 00000000 		.4byte	0
 16944 2d76 00000000 		.4byte	0
 16945              	.LVUS100:
 16946 2d7a 00       		.uleb128 .LVU456
 16947 2d7b 00       		.uleb128 .LVU461
 16948 2d7c 00       		.uleb128 .LVU573
 16949 2d7d 00       		.uleb128 .LVU575
 16950 2d7e 00       		.uleb128 .LVU575
 16951 2d7f 00       		.uleb128 .LVU576
 16952 2d80 00       		.uleb128 .LVU576
 16953 2d81 00       		.uleb128 .LVU577
 16954              	.LLST100:
 16955 2d82 EC000000 		.4byte	.LVL150
 16956 2d86 0C010000 		.4byte	.LVL152
 16957 2d8a 0200     		.2byte	0x2
 16958 2d8c 90       		.byte	0x90
 16959 2d8d 4B       		.uleb128 0x4b
 16960 2d8e BA020000 		.4byte	.LVL189
 16961 2d92 BE020000 		.4byte	.LVL190
 16962 2d96 0200     		.2byte	0x2
 16963 2d98 90       		.byte	0x90
 16964 2d99 4B       		.uleb128 0x4b
 16965 2d9a BE020000 		.4byte	.LVL190
 16966 2d9e C0020000 		.4byte	.LVL191
 16967 2da2 1A00     		.2byte	0x1a
 16968 2da4 F5       		.byte	0xf5
 16969 2da5 49       		.uleb128 0x49
 16970 2da6 29       		.uleb128 0x29
 16971 2da7 77       		.byte	0x77
 16972 2da8 08       		.sleb128 8
 16973 2da9 F6       		.byte	0xf6
 16974 2daa 04       		.byte	0x4
 16975 2dab 29       		.uleb128 0x29
 16976 2dac F4       		.byte	0xf4
 16977 2dad 29       		.uleb128 0x29
 16978 2dae 04       		.byte	0x4
 16979 2daf 00000000 		.4byte	0
 16980 2db3 22       		.byte	0x22
 16981 2db4 1B       		.byte	0x1b
 16982 2db5 F4       		.byte	0xf4
 16983 2db6 29       		.uleb128 0x29
 16984 2db7 04       		.byte	0x4
 16985 2db8 00008043 		.4byte	0x43800000
 16986 2dbc 22       		.byte	0x22
ARM GAS  /var/folders/cs/83z6p2tj4w57s6p2rt8nwfp00000gn/T//ccDzWS9O.s 			page 326


 16987 2dbd 9F       		.byte	0x9f
 16988 2dbe C0020000 		.4byte	.LVL191
 16989 2dc2 C2020000 		.4byte	.LVL192
 16990 2dc6 0600     		.2byte	0x6
 16991 2dc8 9E       		.byte	0x9e
 16992 2dc9 04       		.uleb128 0x4
 16993 2dca 00FF7F47 		.4byte	0x477fff00
 16994 2dce 00000000 		.4byte	0
 16995 2dd2 00000000 		.4byte	0
 16996              	.LVUS101:
 16997 2dd6 00       		.uleb128 .LVU459
 16998 2dd7 00       		.uleb128 .LVU467
 16999 2dd8 00       		.uleb128 .LVU467
 17000 2dd9 00       		.uleb128 .LVU502
 17001 2dda 00       		.uleb128 .LVU573
 17002 2ddb 00       		.uleb128 .LVU577
 17003 2ddc 00       		.uleb128 .LVU579
 17004 2ddd 00       		.uleb128 0
 17005              	.LLST101:
 17006 2dde F4000000 		.4byte	.LVL151
 17007 2de2 24010000 		.4byte	.LVL153
 17008 2de6 0200     		.2byte	0x2
 17009 2de8 90       		.byte	0x90
 17010 2de9 4E       		.uleb128 0x4e
 17011 2dea 24010000 		.4byte	.LVL153
 17012 2dee 7C010000 		.4byte	.LVL163
 17013 2df2 1A00     		.2byte	0x1a
 17014 2df4 F5       		.byte	0xf5
 17015 2df5 49       		.uleb128 0x49
 17016 2df6 29       		.uleb128 0x29
 17017 2df7 76       		.byte	0x76
 17018 2df8 08       		.sleb128 8
 17019 2df9 F6       		.byte	0xf6
 17020 2dfa 04       		.byte	0x4
 17021 2dfb 29       		.uleb128 0x29
 17022 2dfc F4       		.byte	0xf4
 17023 2dfd 29       		.uleb128 0x29
 17024 2dfe 04       		.byte	0x4
 17025 2dff 00000000 		.4byte	0
 17026 2e03 22       		.byte	0x22
 17027 2e04 1B       		.byte	0x1b
 17028 2e05 F4       		.byte	0xf4
 17029 2e06 29       		.uleb128 0x29
 17030 2e07 04       		.byte	0x4
 17031 2e08 00008043 		.4byte	0x43800000
 17032 2e0c 22       		.byte	0x22
 17033 2e0d 9F       		.byte	0x9f
 17034 2e0e BA020000 		.4byte	.LVL189
 17035 2e12 C2020000 		.4byte	.LVL192
 17036 2e16 0200     		.2byte	0x2
 17037 2e18 90       		.byte	0x90
 17038 2e19 4E       		.uleb128 0x4e
 17039 2e1a CA020000 		.4byte	.LVL193
 17040 2e1e 0C030000 		.4byte	.LFE18
 17041 2e22 1A00     		.2byte	0x1a
 17042 2e24 F5       		.byte	0xf5
 17043 2e25 49       		.uleb128 0x49
ARM GAS  /var/folders/cs/83z6p2tj4w57s6p2rt8nwfp00000gn/T//ccDzWS9O.s 			page 327


 17044 2e26 29       		.uleb128 0x29
 17045 2e27 76       		.byte	0x76
 17046 2e28 08       		.sleb128 8
 17047 2e29 F6       		.byte	0xf6
 17048 2e2a 04       		.byte	0x4
 17049 2e2b 29       		.uleb128 0x29
 17050 2e2c F4       		.byte	0xf4
 17051 2e2d 29       		.uleb128 0x29
 17052 2e2e 04       		.byte	0x4
 17053 2e2f 00000000 		.4byte	0
 17054 2e33 22       		.byte	0x22
 17055 2e34 1B       		.byte	0x1b
 17056 2e35 F4       		.byte	0xf4
 17057 2e36 29       		.uleb128 0x29
 17058 2e37 04       		.byte	0x4
 17059 2e38 00008043 		.4byte	0x43800000
 17060 2e3c 22       		.byte	0x22
 17061 2e3d 9F       		.byte	0x9f
 17062 2e3e 00000000 		.4byte	0
 17063 2e42 00000000 		.4byte	0
 17064              	.LVUS102:
 17065 2e46 00       		.uleb128 .LVU478
 17066 2e47 00       		.uleb128 .LVU562
 17067 2e48 00       		.uleb128 .LVU570
 17068 2e49 00       		.uleb128 .LVU573
 17069 2e4a 00       		.uleb128 .LVU577
 17070 2e4b 00       		.uleb128 .LVU581
 17071              	.LLST102:
 17072 2e4c 40010000 		.4byte	.LVL156
 17073 2e50 64020000 		.4byte	.LVL184
 17074 2e54 0200     		.2byte	0x2
 17075 2e56 91       		.byte	0x91
 17076 2e57 44       		.sleb128 -60
 17077 2e58 A8020000 		.4byte	.LVL188
 17078 2e5c BA020000 		.4byte	.LVL189
 17079 2e60 0200     		.2byte	0x2
 17080 2e62 91       		.byte	0x91
 17081 2e63 44       		.sleb128 -60
 17082 2e64 C2020000 		.4byte	.LVL192
 17083 2e68 D8020000 		.4byte	.LVL194
 17084 2e6c 0200     		.2byte	0x2
 17085 2e6e 91       		.byte	0x91
 17086 2e6f 44       		.sleb128 -60
 17087 2e70 00000000 		.4byte	0
 17088 2e74 00000000 		.4byte	0
 17089              	.LVUS103:
 17090 2e78 00       		.uleb128 .LVU489
 17091 2e79 00       		.uleb128 .LVU562
 17092 2e7a 00       		.uleb128 .LVU570
 17093 2e7b 00       		.uleb128 .LVU573
 17094 2e7c 00       		.uleb128 .LVU577
 17095 2e7d 00       		.uleb128 .LVU579
 17096              	.LLST103:
 17097 2e7e 60010000 		.4byte	.LVL158
 17098 2e82 64020000 		.4byte	.LVL184
 17099 2e86 0200     		.2byte	0x2
 17100 2e88 91       		.byte	0x91
ARM GAS  /var/folders/cs/83z6p2tj4w57s6p2rt8nwfp00000gn/T//ccDzWS9O.s 			page 328


 17101 2e89 48       		.sleb128 -56
 17102 2e8a A8020000 		.4byte	.LVL188
 17103 2e8e BA020000 		.4byte	.LVL189
 17104 2e92 0200     		.2byte	0x2
 17105 2e94 91       		.byte	0x91
 17106 2e95 48       		.sleb128 -56
 17107 2e96 C2020000 		.4byte	.LVL192
 17108 2e9a CA020000 		.4byte	.LVL193
 17109 2e9e 0200     		.2byte	0x2
 17110 2ea0 91       		.byte	0x91
 17111 2ea1 48       		.sleb128 -56
 17112 2ea2 00000000 		.4byte	0
 17113 2ea6 00000000 		.4byte	0
 17114              	.LVUS104:
 17115 2eaa 00       		.uleb128 .LVU498
 17116 2eab 00       		.uleb128 .LVU500
 17117 2eac 00       		.uleb128 .LVU502
 17118 2ead 00       		.uleb128 .LVU562
 17119 2eae 00       		.uleb128 .LVU570
 17120 2eaf 00       		.uleb128 .LVU573
 17121 2eb0 00       		.uleb128 .LVU577
 17122 2eb1 00       		.uleb128 .LVU579
 17123              	.LLST104:
 17124 2eb2 6E010000 		.4byte	.LVL160
 17125 2eb6 70010000 		.4byte	.LVL161
 17126 2eba 0100     		.2byte	0x1
 17127 2ebc 55       		.byte	0x55
 17128 2ebd 7C010000 		.4byte	.LVL163
 17129 2ec1 64020000 		.4byte	.LVL184
 17130 2ec5 0100     		.2byte	0x1
 17131 2ec7 55       		.byte	0x55
 17132 2ec8 A8020000 		.4byte	.LVL188
 17133 2ecc BA020000 		.4byte	.LVL189
 17134 2ed0 0100     		.2byte	0x1
 17135 2ed2 55       		.byte	0x55
 17136 2ed3 C2020000 		.4byte	.LVL192
 17137 2ed7 CA020000 		.4byte	.LVL193
 17138 2edb 0100     		.2byte	0x1
 17139 2edd 55       		.byte	0x55
 17140 2ede 00000000 		.4byte	0
 17141 2ee2 00000000 		.4byte	0
 17142              	.LVUS119:
 17143 2ee6 00       		.uleb128 .LVU502
 17144 2ee7 00       		.uleb128 .LVU510
 17145 2ee8 01       		.uleb128 .LVU522
 17146 2ee9 00       		.uleb128 .LVU546
 17147 2eea 00       		.uleb128 .LVU570
 17148 2eeb 00       		.uleb128 .LVU573
 17149              	.LLST119:
 17150 2eec 7C010000 		.4byte	.LVL163
 17151 2ef0 90010000 		.4byte	.LVL167
 17152 2ef4 0800     		.2byte	0x8
 17153 2ef6 74       		.byte	0x74
 17154 2ef7 00       		.sleb128 0
 17155 2ef8 37       		.byte	0x37
 17156 2ef9 1A       		.byte	0x1a
 17157 2efa 91       		.byte	0x91
ARM GAS  /var/folders/cs/83z6p2tj4w57s6p2rt8nwfp00000gn/T//ccDzWS9O.s 			page 329


 17158 2efb 04       		.sleb128 4
 17159 2efc 06       		.byte	0x6
 17160 2efd 22       		.byte	0x22
 17161 2efe B8010000 		.4byte	.LVL173
 17162 2f02 06020000 		.4byte	.LVL179
 17163 2f06 0800     		.2byte	0x8
 17164 2f08 74       		.byte	0x74
 17165 2f09 00       		.sleb128 0
 17166 2f0a 37       		.byte	0x37
 17167 2f0b 1A       		.byte	0x1a
 17168 2f0c 91       		.byte	0x91
 17169 2f0d 04       		.sleb128 4
 17170 2f0e 06       		.byte	0x6
 17171 2f0f 22       		.byte	0x22
 17172 2f10 A8020000 		.4byte	.LVL188
 17173 2f14 BA020000 		.4byte	.LVL189
 17174 2f18 0800     		.2byte	0x8
 17175 2f1a 74       		.byte	0x74
 17176 2f1b 00       		.sleb128 0
 17177 2f1c 37       		.byte	0x37
 17178 2f1d 1A       		.byte	0x1a
 17179 2f1e 91       		.byte	0x91
 17180 2f1f 04       		.sleb128 4
 17181 2f20 06       		.byte	0x6
 17182 2f21 22       		.byte	0x22
 17183 2f22 00000000 		.4byte	0
 17184 2f26 00000000 		.4byte	0
 17185              	.LVUS120:
 17186 2f2a 00       		.uleb128 .LVU502
 17187 2f2b 00       		.uleb128 .LVU511
 17188 2f2c 00       		.uleb128 .LVU511
 17189 2f2d 00       		.uleb128 .LVU512
 17190 2f2e 00       		.uleb128 .LVU529
 17191 2f2f 00       		.uleb128 .LVU547
 17192 2f30 00       		.uleb128 .LVU547
 17193 2f31 00       		.uleb128 .LVU550
 17194 2f32 00       		.uleb128 .LVU570
 17195 2f33 00       		.uleb128 .LVU573
 17196              	.LLST120:
 17197 2f34 7C010000 		.4byte	.LVL163
 17198 2f38 96010000 		.4byte	.LVL168
 17199 2f3c 0100     		.2byte	0x1
 17200 2f3e 51       		.byte	0x51
 17201 2f3f 96010000 		.4byte	.LVL168
 17202 2f43 A5010000 		.4byte	.LVL169-1
 17203 2f47 0300     		.2byte	0x3
 17204 2f49 91       		.byte	0x91
 17205 2f4a B87F     		.sleb128 -72
 17206 2f4c D0010000 		.4byte	.LVL174
 17207 2f50 0C020000 		.4byte	.LVL180
 17208 2f54 0100     		.2byte	0x1
 17209 2f56 51       		.byte	0x51
 17210 2f57 0C020000 		.4byte	.LVL180
 17211 2f5b 1F020000 		.4byte	.LVL182-1
 17212 2f5f 0300     		.2byte	0x3
 17213 2f61 91       		.byte	0x91
 17214 2f62 B87F     		.sleb128 -72
ARM GAS  /var/folders/cs/83z6p2tj4w57s6p2rt8nwfp00000gn/T//ccDzWS9O.s 			page 330


 17215 2f64 A8020000 		.4byte	.LVL188
 17216 2f68 BA020000 		.4byte	.LVL189
 17217 2f6c 0100     		.2byte	0x1
 17218 2f6e 51       		.byte	0x51
 17219 2f6f 00000000 		.4byte	0
 17220 2f73 00000000 		.4byte	0
 17221              	.LVUS121:
 17222 2f77 00       		.uleb128 .LVU502
 17223 2f78 00       		.uleb128 .LVU519
 17224 2f79 00       		.uleb128 .LVU533
 17225 2f7a 00       		.uleb128 .LVU553
 17226              	.LLST121:
 17227 2f7b 7C010000 		.4byte	.LVL163
 17228 2f7f B4010000 		.4byte	.LVL172
 17229 2f83 0100     		.2byte	0x1
 17230 2f85 5B       		.byte	0x5b
 17231 2f86 E6010000 		.4byte	.LVL175
 17232 2f8a 24020000 		.4byte	.LVL183
 17233 2f8e 0100     		.2byte	0x1
 17234 2f90 5B       		.byte	0x5b
 17235 2f91 00000000 		.4byte	0
 17236 2f95 00000000 		.4byte	0
 17237              	.LVUS122:
 17238 2f99 00       		.uleb128 .LVU504
 17239 2f9a 00       		.uleb128 .LVU511
 17240 2f9b 00       		.uleb128 .LVU511
 17241 2f9c 00       		.uleb128 .LVU512
 17242              	.LLST122:
 17243 2f9d 7E010000 		.4byte	.LVL164
 17244 2fa1 96010000 		.4byte	.LVL168
 17245 2fa5 0100     		.2byte	0x1
 17246 2fa7 51       		.byte	0x51
 17247 2fa8 96010000 		.4byte	.LVL168
 17248 2fac A5010000 		.4byte	.LVL169-1
 17249 2fb0 0300     		.2byte	0x3
 17250 2fb2 91       		.byte	0x91
 17251 2fb3 B87F     		.sleb128 -72
 17252 2fb5 00000000 		.4byte	0
 17253 2fb9 00000000 		.4byte	0
 17254              	.LVUS123:
 17255 2fbd 00       		.uleb128 .LVU504
 17256 2fbe 00       		.uleb128 .LVU512
 17257              	.LLST123:
 17258 2fbf 7E010000 		.4byte	.LVL164
 17259 2fc3 A6010000 		.4byte	.LVL169
 17260 2fc7 0100     		.2byte	0x1
 17261 2fc9 55       		.byte	0x55
 17262 2fca 00000000 		.4byte	0
 17263 2fce 00000000 		.4byte	0
 17264              	.LVUS124:
 17265 2fd2 00       		.uleb128 .LVU504
 17266 2fd3 00       		.uleb128 .LVU508
 17267 2fd4 00       		.uleb128 .LVU508
 17268 2fd5 00       		.uleb128 .LVU512
 17269 2fd6 00       		.uleb128 .LVU512
 17270 2fd7 00       		.uleb128 .LVU512
 17271              	.LLST124:
ARM GAS  /var/folders/cs/83z6p2tj4w57s6p2rt8nwfp00000gn/T//ccDzWS9O.s 			page 331


 17272 2fd8 7E010000 		.4byte	.LVL164
 17273 2fdc 84010000 		.4byte	.LVL166
 17274 2fe0 0900     		.2byte	0x9
 17275 2fe2 7B       		.byte	0x7b
 17276 2fe3 00       		.sleb128 0
 17277 2fe4 40       		.byte	0x40
 17278 2fe5 26       		.byte	0x26
 17279 2fe6 91       		.byte	0x91
 17280 2fe7 00       		.sleb128 0
 17281 2fe8 06       		.byte	0x6
 17282 2fe9 22       		.byte	0x22
 17283 2fea 9F       		.byte	0x9f
 17284 2feb 84010000 		.4byte	.LVL166
 17285 2fef A5010000 		.4byte	.LVL169-1
 17286 2ff3 0100     		.2byte	0x1
 17287 2ff5 53       		.byte	0x53
 17288 2ff6 A5010000 		.4byte	.LVL169-1
 17289 2ffa A6010000 		.4byte	.LVL169
 17290 2ffe 0900     		.2byte	0x9
 17291 3000 7B       		.byte	0x7b
 17292 3001 00       		.sleb128 0
 17293 3002 40       		.byte	0x40
 17294 3003 26       		.byte	0x26
 17295 3004 91       		.byte	0x91
 17296 3005 00       		.sleb128 0
 17297 3006 06       		.byte	0x6
 17298 3007 22       		.byte	0x22
 17299 3008 9F       		.byte	0x9f
 17300 3009 00000000 		.4byte	0
 17301 300d 00000000 		.4byte	0
 17302              	.LVUS125:
 17303 3011 00       		.uleb128 .LVU504
 17304 3012 00       		.uleb128 .LVU512
 17305              	.LLST125:
 17306 3013 7E010000 		.4byte	.LVL164
 17307 3017 A5010000 		.4byte	.LVL169-1
 17308 301b 0100     		.2byte	0x1
 17309 301d 52       		.byte	0x52
 17310 301e 00000000 		.4byte	0
 17311 3022 00000000 		.4byte	0
 17312              	.LVUS126:
 17313 3026 01       		.uleb128 .LVU503
 17314 3027 00       		.uleb128 .LVU512
 17315              	.LLST126:
 17316 3028 7C010000 		.4byte	.LVL163
 17317 302c A6010000 		.4byte	.LVL169
 17318 3030 0F00     		.2byte	0xf
 17319 3032 74       		.byte	0x74
 17320 3033 00       		.sleb128 0
 17321 3034 0A       		.byte	0xa
 17322 3035 9001     		.2byte	0x190
 17323 3037 1E       		.byte	0x1e
 17324 3038 31       		.byte	0x31
 17325 3039 24       		.byte	0x24
 17326 303a 03       		.byte	0x3
 17327 303b 00000000 		.4byte	zbuf
 17328 303f 22       		.byte	0x22
ARM GAS  /var/folders/cs/83z6p2tj4w57s6p2rt8nwfp00000gn/T//ccDzWS9O.s 			page 332


 17329 3040 9F       		.byte	0x9f
 17330 3041 00000000 		.4byte	0
 17331 3045 00000000 		.4byte	0
 17332              	.LVUS127:
 17333 3049 01       		.uleb128 .LVU503
 17334 304a 00       		.uleb128 .LVU512
 17335              	.LLST127:
 17336 304b 7C010000 		.4byte	.LVL163
 17337 304f A6010000 		.4byte	.LVL169
 17338 3053 0A00     		.2byte	0xa
 17339 3055 74       		.byte	0x74
 17340 3056 00       		.sleb128 0
 17341 3057 78       		.byte	0x78
 17342 3058 00       		.sleb128 0
 17343 3059 1E       		.byte	0x1e
 17344 305a F3       		.byte	0xf3
 17345 305b 01       		.uleb128 0x1
 17346 305c 50       		.byte	0x50
 17347 305d 22       		.byte	0x22
 17348 305e 9F       		.byte	0x9f
 17349 305f 00000000 		.4byte	0
 17350 3063 00000000 		.4byte	0
 17351              	.LVUS128:
 17352 3067 00       		.uleb128 .LVU543
 17353 3068 00       		.uleb128 .LVU547
 17354 3069 00       		.uleb128 .LVU547
 17355 306a 00       		.uleb128 .LVU550
 17356              	.LLST128:
 17357 306b FA010000 		.4byte	.LVL178
 17358 306f 0C020000 		.4byte	.LVL180
 17359 3073 0100     		.2byte	0x1
 17360 3075 51       		.byte	0x51
 17361 3076 0C020000 		.4byte	.LVL180
 17362 307a 1F020000 		.4byte	.LVL182-1
 17363 307e 0300     		.2byte	0x3
 17364 3080 91       		.byte	0x91
 17365 3081 B87F     		.sleb128 -72
 17366 3083 00000000 		.4byte	0
 17367 3087 00000000 		.4byte	0
 17368              	.LVUS129:
 17369 308b 00       		.uleb128 .LVU543
 17370 308c 00       		.uleb128 .LVU550
 17371              	.LLST129:
 17372 308d FA010000 		.4byte	.LVL178
 17373 3091 20020000 		.4byte	.LVL182
 17374 3095 0100     		.2byte	0x1
 17375 3097 55       		.byte	0x55
 17376 3098 00000000 		.4byte	0
 17377 309c 00000000 		.4byte	0
 17378              	.LVUS130:
 17379 30a0 00       		.uleb128 .LVU543
 17380 30a1 00       		.uleb128 .LVU550
 17381 30a2 00       		.uleb128 .LVU550
 17382 30a3 00       		.uleb128 .LVU550
 17383              	.LLST130:
 17384 30a4 FA010000 		.4byte	.LVL178
 17385 30a8 1F020000 		.4byte	.LVL182-1
ARM GAS  /var/folders/cs/83z6p2tj4w57s6p2rt8nwfp00000gn/T//ccDzWS9O.s 			page 333


 17386 30ac 0100     		.2byte	0x1
 17387 30ae 52       		.byte	0x52
 17388 30af 1F020000 		.4byte	.LVL182-1
 17389 30b3 20020000 		.4byte	.LVL182
 17390 30b7 0500     		.2byte	0x5
 17391 30b9 7B       		.byte	0x7b
 17392 30ba 00       		.sleb128 0
 17393 30bb 40       		.byte	0x40
 17394 30bc 26       		.byte	0x26
 17395 30bd 9F       		.byte	0x9f
 17396 30be 00000000 		.4byte	0
 17397 30c2 00000000 		.4byte	0
 17398              	.LVUS131:
 17399 30c6 01       		.uleb128 .LVU542
 17400 30c7 00       		.uleb128 .LVU549
 17401 30c8 00       		.uleb128 .LVU549
 17402 30c9 00       		.uleb128 .LVU550
 17403              	.LLST131:
 17404 30ca F6010000 		.4byte	.LVL177
 17405 30ce 1C020000 		.4byte	.LVL181
 17406 30d2 0F00     		.2byte	0xf
 17407 30d4 74       		.byte	0x74
 17408 30d5 00       		.sleb128 0
 17409 30d6 0A       		.byte	0xa
 17410 30d7 9001     		.2byte	0x190
 17411 30d9 1E       		.byte	0x1e
 17412 30da 31       		.byte	0x31
 17413 30db 24       		.byte	0x24
 17414 30dc 03       		.byte	0x3
 17415 30dd 00000000 		.4byte	zbuf
 17416 30e1 22       		.byte	0x22
 17417 30e2 9F       		.byte	0x9f
 17418 30e3 1C020000 		.4byte	.LVL181
 17419 30e7 20020000 		.4byte	.LVL182
 17420 30eb 0F00     		.2byte	0xf
 17421 30ed 74       		.byte	0x74
 17422 30ee 7F       		.sleb128 -1
 17423 30ef 0A       		.byte	0xa
 17424 30f0 9001     		.2byte	0x190
 17425 30f2 1E       		.byte	0x1e
 17426 30f3 31       		.byte	0x31
 17427 30f4 24       		.byte	0x24
 17428 30f5 03       		.byte	0x3
 17429 30f6 00000000 		.4byte	zbuf
 17430 30fa 22       		.byte	0x22
 17431 30fb 9F       		.byte	0x9f
 17432 30fc 00000000 		.4byte	0
 17433 3100 00000000 		.4byte	0
 17434              	.LVUS132:
 17435 3104 01       		.uleb128 .LVU542
 17436 3105 00       		.uleb128 .LVU549
 17437 3106 00       		.uleb128 .LVU549
 17438 3107 00       		.uleb128 .LVU550
 17439              	.LLST132:
 17440 3108 F6010000 		.4byte	.LVL177
 17441 310c 1C020000 		.4byte	.LVL181
 17442 3110 0A00     		.2byte	0xa
ARM GAS  /var/folders/cs/83z6p2tj4w57s6p2rt8nwfp00000gn/T//ccDzWS9O.s 			page 334


 17443 3112 74       		.byte	0x74
 17444 3113 00       		.sleb128 0
 17445 3114 78       		.byte	0x78
 17446 3115 00       		.sleb128 0
 17447 3116 1E       		.byte	0x1e
 17448 3117 F3       		.byte	0xf3
 17449 3118 01       		.uleb128 0x1
 17450 3119 50       		.byte	0x50
 17451 311a 22       		.byte	0x22
 17452 311b 9F       		.byte	0x9f
 17453 311c 1C020000 		.4byte	.LVL181
 17454 3120 20020000 		.4byte	.LVL182
 17455 3124 0A00     		.2byte	0xa
 17456 3126 74       		.byte	0x74
 17457 3127 7F       		.sleb128 -1
 17458 3128 78       		.byte	0x78
 17459 3129 00       		.sleb128 0
 17460 312a 1E       		.byte	0x1e
 17461 312b F3       		.byte	0xf3
 17462 312c 01       		.uleb128 0x1
 17463 312d 50       		.byte	0x50
 17464 312e 22       		.byte	0x22
 17465 312f 9F       		.byte	0x9f
 17466 3130 00000000 		.4byte	0
 17467 3134 00000000 		.4byte	0
 17468              	.LVUS105:
 17469 3138 01       		.uleb128 .LVU434
 17470 3139 00       		.uleb128 .LVU443
 17471 313a 00       		.uleb128 .LVU568
 17472 313b 00       		.uleb128 .LVU570
 17473              	.LLST105:
 17474 313c A2000000 		.4byte	.LVL147
 17475 3140 BE000000 		.4byte	.LVL149
 17476 3144 0200     		.2byte	0x2
 17477 3146 76       		.byte	0x76
 17478 3147 00       		.sleb128 0
 17479 3148 9A020000 		.4byte	.LVL187
 17480 314c A8020000 		.4byte	.LVL188
 17481 3150 0200     		.2byte	0x2
 17482 3152 76       		.byte	0x76
 17483 3153 00       		.sleb128 0
 17484 3154 00000000 		.4byte	0
 17485 3158 00000000 		.4byte	0
 17486              	.LVUS106:
 17487 315c 01       		.uleb128 .LVU434
 17488 315d 00       		.uleb128 .LVU443
 17489 315e 00       		.uleb128 .LVU568
 17490 315f 00       		.uleb128 .LVU570
 17491              	.LLST106:
 17492 3160 A2000000 		.4byte	.LVL147
 17493 3164 BE000000 		.4byte	.LVL149
 17494 3168 0200     		.2byte	0x2
 17495 316a 77       		.byte	0x77
 17496 316b 04       		.sleb128 4
 17497 316c 9A020000 		.4byte	.LVL187
 17498 3170 A8020000 		.4byte	.LVL188
 17499 3174 0200     		.2byte	0x2
ARM GAS  /var/folders/cs/83z6p2tj4w57s6p2rt8nwfp00000gn/T//ccDzWS9O.s 			page 335


 17500 3176 77       		.byte	0x77
 17501 3177 04       		.sleb128 4
 17502 3178 00000000 		.4byte	0
 17503 317c 00000000 		.4byte	0
 17504              	.LVUS107:
 17505 3180 01       		.uleb128 .LVU434
 17506 3181 00       		.uleb128 .LVU442
 17507 3182 00       		.uleb128 .LVU442
 17508 3183 00       		.uleb128 .LVU443
 17509 3184 00       		.uleb128 .LVU568
 17510 3185 00       		.uleb128 .LVU570
 17511              	.LLST107:
 17512 3186 A2000000 		.4byte	.LVL147
 17513 318a B6000000 		.4byte	.LVL148
 17514 318e 0200     		.2byte	0x2
 17515 3190 90       		.byte	0x90
 17516 3191 4C       		.uleb128 0x4c
 17517 3192 B6000000 		.4byte	.LVL148
 17518 3196 BE000000 		.4byte	.LVL149
 17519 319a 0200     		.2byte	0x2
 17520 319c 77       		.byte	0x77
 17521 319d 00       		.sleb128 0
 17522 319e 9A020000 		.4byte	.LVL187
 17523 31a2 A8020000 		.4byte	.LVL188
 17524 31a6 0200     		.2byte	0x2
 17525 31a8 90       		.byte	0x90
 17526 31a9 4C       		.uleb128 0x4c
 17527 31aa 00000000 		.4byte	0
 17528 31ae 00000000 		.4byte	0
 17529              	.LVUS108:
 17530 31b2 03       		.uleb128 .LVU436
 17531 31b3 00       		.uleb128 .LVU443
 17532 31b4 00       		.uleb128 .LVU568
 17533 31b5 00       		.uleb128 .LVU570
 17534              	.LLST108:
 17535 31b6 A2000000 		.4byte	.LVL147
 17536 31ba BE000000 		.4byte	.LVL149
 17537 31be 0200     		.2byte	0x2
 17538 31c0 90       		.byte	0x90
 17539 31c1 4D       		.uleb128 0x4d
 17540 31c2 9A020000 		.4byte	.LVL187
 17541 31c6 A8020000 		.4byte	.LVL188
 17542 31ca 0200     		.2byte	0x2
 17543 31cc 90       		.byte	0x90
 17544 31cd 4D       		.uleb128 0x4d
 17545 31ce 00000000 		.4byte	0
 17546 31d2 00000000 		.4byte	0
 17547              	.LVUS109:
 17548 31d6 04       		.uleb128 .LVU437
 17549 31d7 00       		.uleb128 .LVU443
 17550 31d8 00       		.uleb128 .LVU568
 17551 31d9 00       		.uleb128 .LVU570
 17552              	.LLST109:
 17553 31da A2000000 		.4byte	.LVL147
 17554 31de BE000000 		.4byte	.LVL149
 17555 31e2 0200     		.2byte	0x2
 17556 31e4 90       		.byte	0x90
ARM GAS  /var/folders/cs/83z6p2tj4w57s6p2rt8nwfp00000gn/T//ccDzWS9O.s 			page 336


 17557 31e5 4F       		.uleb128 0x4f
 17558 31e6 9A020000 		.4byte	.LVL187
 17559 31ea A8020000 		.4byte	.LVL188
 17560 31ee 0200     		.2byte	0x2
 17561 31f0 90       		.byte	0x90
 17562 31f1 4F       		.uleb128 0x4f
 17563 31f2 00000000 		.4byte	0
 17564 31f6 00000000 		.4byte	0
 17565              	.LVUS110:
 17566 31fa 01       		.uleb128 .LVU468
 17567 31fb 00       		.uleb128 .LVU478
 17568 31fc 00       		.uleb128 .LVU581
 17569 31fd 00       		.uleb128 0
 17570              	.LLST110:
 17571 31fe 24010000 		.4byte	.LVL153
 17572 3202 40010000 		.4byte	.LVL156
 17573 3206 1A00     		.2byte	0x1a
 17574 3208 F5       		.byte	0xf5
 17575 3209 49       		.uleb128 0x49
 17576 320a 29       		.uleb128 0x29
 17577 320b 76       		.byte	0x76
 17578 320c 08       		.sleb128 8
 17579 320d F6       		.byte	0xf6
 17580 320e 04       		.byte	0x4
 17581 320f 29       		.uleb128 0x29
 17582 3210 F4       		.byte	0xf4
 17583 3211 29       		.uleb128 0x29
 17584 3212 04       		.byte	0x4
 17585 3213 00000000 		.4byte	0
 17586 3217 22       		.byte	0x22
 17587 3218 1B       		.byte	0x1b
 17588 3219 F4       		.byte	0xf4
 17589 321a 29       		.uleb128 0x29
 17590 321b 04       		.byte	0x4
 17591 321c 00008043 		.4byte	0x43800000
 17592 3220 22       		.byte	0x22
 17593 3221 9F       		.byte	0x9f
 17594 3222 D8020000 		.4byte	.LVL194
 17595 3226 0C030000 		.4byte	.LFE18
 17596 322a 1A00     		.2byte	0x1a
 17597 322c F5       		.byte	0xf5
 17598 322d 49       		.uleb128 0x49
 17599 322e 29       		.uleb128 0x29
 17600 322f 76       		.byte	0x76
 17601 3230 08       		.sleb128 8
 17602 3231 F6       		.byte	0xf6
 17603 3232 04       		.byte	0x4
 17604 3233 29       		.uleb128 0x29
 17605 3234 F4       		.byte	0xf4
 17606 3235 29       		.uleb128 0x29
 17607 3236 04       		.byte	0x4
 17608 3237 00000000 		.4byte	0
 17609 323b 22       		.byte	0x22
 17610 323c 1B       		.byte	0x1b
 17611 323d F4       		.byte	0xf4
 17612 323e 29       		.uleb128 0x29
 17613 323f 04       		.byte	0x4
ARM GAS  /var/folders/cs/83z6p2tj4w57s6p2rt8nwfp00000gn/T//ccDzWS9O.s 			page 337


 17614 3240 00008043 		.4byte	0x43800000
 17615 3244 22       		.byte	0x22
 17616 3245 9F       		.byte	0x9f
 17617 3246 00000000 		.4byte	0
 17618 324a 00000000 		.4byte	0
 17619              	.LVUS111:
 17620 324e 01       		.uleb128 .LVU468
 17621 324f 00       		.uleb128 .LVU478
 17622 3250 00       		.uleb128 .LVU581
 17623 3251 00       		.uleb128 0
 17624              	.LLST111:
 17625 3252 24010000 		.4byte	.LVL153
 17626 3256 40010000 		.4byte	.LVL156
 17627 325a 0200     		.2byte	0x2
 17628 325c 77       		.byte	0x77
 17629 325d 04       		.sleb128 4
 17630 325e D8020000 		.4byte	.LVL194
 17631 3262 0C030000 		.4byte	.LFE18
 17632 3266 0200     		.2byte	0x2
 17633 3268 77       		.byte	0x77
 17634 3269 04       		.sleb128 4
 17635 326a 00000000 		.4byte	0
 17636 326e 00000000 		.4byte	0
 17637              	.LVUS112:
 17638 3272 00       		.uleb128 .LVU471
 17639 3273 00       		.uleb128 .LVU478
 17640 3274 00       		.uleb128 .LVU581
 17641 3275 00       		.uleb128 0
 17642              	.LLST112:
 17643 3276 28010000 		.4byte	.LVL154
 17644 327a 40010000 		.4byte	.LVL156
 17645 327e 0200     		.2byte	0x2
 17646 3280 90       		.byte	0x90
 17647 3281 4E       		.uleb128 0x4e
 17648 3282 D8020000 		.4byte	.LVL194
 17649 3286 0C030000 		.4byte	.LFE18
 17650 328a 0200     		.2byte	0x2
 17651 328c 90       		.byte	0x90
 17652 328d 4E       		.uleb128 0x4e
 17653 328e 00000000 		.4byte	0
 17654 3292 00000000 		.4byte	0
 17655              	.LVUS113:
 17656 3296 01       		.uleb128 .LVU472
 17657 3297 00       		.uleb128 .LVU477
 17658 3298 00       		.uleb128 .LVU581
 17659 3299 00       		.uleb128 .LVU584
 17660              	.LLST113:
 17661 329a 28010000 		.4byte	.LVL154
 17662 329e 38010000 		.4byte	.LVL155
 17663 32a2 0200     		.2byte	0x2
 17664 32a4 90       		.byte	0x90
 17665 32a5 4F       		.uleb128 0x4f
 17666 32a6 D8020000 		.4byte	.LVL194
 17667 32aa DC020000 		.4byte	.LVL195
 17668 32ae 0200     		.2byte	0x2
 17669 32b0 90       		.byte	0x90
 17670 32b1 4F       		.uleb128 0x4f
ARM GAS  /var/folders/cs/83z6p2tj4w57s6p2rt8nwfp00000gn/T//ccDzWS9O.s 			page 338


 17671 32b2 00000000 		.4byte	0
 17672 32b6 00000000 		.4byte	0
 17673              	.LVUS114:
 17674 32ba 02       		.uleb128 .LVU480
 17675 32bb 00       		.uleb128 .LVU489
 17676 32bc 00       		.uleb128 .LVU579
 17677 32bd 00       		.uleb128 .LVU581
 17678              	.LLST114:
 17679 32be 40010000 		.4byte	.LVL156
 17680 32c2 60010000 		.4byte	.LVL158
 17681 32c6 0200     		.2byte	0x2
 17682 32c8 76       		.byte	0x76
 17683 32c9 00       		.sleb128 0
 17684 32ca CA020000 		.4byte	.LVL193
 17685 32ce D8020000 		.4byte	.LVL194
 17686 32d2 0200     		.2byte	0x2
 17687 32d4 76       		.byte	0x76
 17688 32d5 00       		.sleb128 0
 17689 32d6 00000000 		.4byte	0
 17690 32da 00000000 		.4byte	0
 17691              	.LVUS115:
 17692 32de 02       		.uleb128 .LVU480
 17693 32df 00       		.uleb128 .LVU489
 17694 32e0 00       		.uleb128 .LVU579
 17695 32e1 00       		.uleb128 .LVU581
 17696              	.LLST115:
 17697 32e2 40010000 		.4byte	.LVL156
 17698 32e6 60010000 		.4byte	.LVL158
 17699 32ea 1A00     		.2byte	0x1a
 17700 32ec F5       		.byte	0xf5
 17701 32ed 49       		.uleb128 0x49
 17702 32ee 29       		.uleb128 0x29
 17703 32ef 76       		.byte	0x76
 17704 32f0 08       		.sleb128 8
 17705 32f1 F6       		.byte	0xf6
 17706 32f2 04       		.byte	0x4
 17707 32f3 29       		.uleb128 0x29
 17708 32f4 F4       		.byte	0xf4
 17709 32f5 29       		.uleb128 0x29
 17710 32f6 04       		.byte	0x4
 17711 32f7 00000000 		.4byte	0
 17712 32fb 22       		.byte	0x22
 17713 32fc 1B       		.byte	0x1b
 17714 32fd F4       		.byte	0xf4
 17715 32fe 29       		.uleb128 0x29
 17716 32ff 04       		.byte	0x4
 17717 3300 00008043 		.4byte	0x43800000
 17718 3304 22       		.byte	0x22
 17719 3305 9F       		.byte	0x9f
 17720 3306 CA020000 		.4byte	.LVL193
 17721 330a D8020000 		.4byte	.LVL194
 17722 330e 1A00     		.2byte	0x1a
 17723 3310 F5       		.byte	0xf5
 17724 3311 49       		.uleb128 0x49
 17725 3312 29       		.uleb128 0x29
 17726 3313 76       		.byte	0x76
 17727 3314 08       		.sleb128 8
ARM GAS  /var/folders/cs/83z6p2tj4w57s6p2rt8nwfp00000gn/T//ccDzWS9O.s 			page 339


 17728 3315 F6       		.byte	0xf6
 17729 3316 04       		.byte	0x4
 17730 3317 29       		.uleb128 0x29
 17731 3318 F4       		.byte	0xf4
 17732 3319 29       		.uleb128 0x29
 17733 331a 04       		.byte	0x4
 17734 331b 00000000 		.4byte	0
 17735 331f 22       		.byte	0x22
 17736 3320 1B       		.byte	0x1b
 17737 3321 F4       		.byte	0xf4
 17738 3322 29       		.uleb128 0x29
 17739 3323 04       		.byte	0x4
 17740 3324 00008043 		.4byte	0x43800000
 17741 3328 22       		.byte	0x22
 17742 3329 9F       		.byte	0x9f
 17743 332a 00000000 		.4byte	0
 17744 332e 00000000 		.4byte	0
 17745              	.LVUS116:
 17746 3332 02       		.uleb128 .LVU480
 17747 3333 00       		.uleb128 .LVU489
 17748 3334 00       		.uleb128 .LVU579
 17749 3335 00       		.uleb128 .LVU581
 17750              	.LLST116:
 17751 3336 40010000 		.4byte	.LVL156
 17752 333a 60010000 		.4byte	.LVL158
 17753 333e 0200     		.2byte	0x2
 17754 3340 77       		.byte	0x77
 17755 3341 00       		.sleb128 0
 17756 3342 CA020000 		.4byte	.LVL193
 17757 3346 D8020000 		.4byte	.LVL194
 17758 334a 0200     		.2byte	0x2
 17759 334c 77       		.byte	0x77
 17760 334d 00       		.sleb128 0
 17761 334e 00000000 		.4byte	0
 17762 3352 00000000 		.4byte	0
 17763              	.LVUS117:
 17764 3356 04       		.uleb128 .LVU482
 17765 3357 00       		.uleb128 .LVU488
 17766 3358 00       		.uleb128 .LVU579
 17767 3359 00       		.uleb128 .LVU581
 17768              	.LLST117:
 17769 335a 40010000 		.4byte	.LVL156
 17770 335e 58010000 		.4byte	.LVL157
 17771 3362 0200     		.2byte	0x2
 17772 3364 90       		.byte	0x90
 17773 3365 4E       		.uleb128 0x4e
 17774 3366 CA020000 		.4byte	.LVL193
 17775 336a D8020000 		.4byte	.LVL194
 17776 336e 0200     		.2byte	0x2
 17777 3370 90       		.byte	0x90
 17778 3371 4E       		.uleb128 0x4e
 17779 3372 00000000 		.4byte	0
 17780 3376 00000000 		.4byte	0
 17781              	.LVUS118:
 17782 337a 05       		.uleb128 .LVU483
 17783 337b 00       		.uleb128 .LVU489
 17784 337c 00       		.uleb128 .LVU579
ARM GAS  /var/folders/cs/83z6p2tj4w57s6p2rt8nwfp00000gn/T//ccDzWS9O.s 			page 340


 17785 337d 00       		.uleb128 .LVU581
 17786              	.LLST118:
 17787 337e 40010000 		.4byte	.LVL156
 17788 3382 60010000 		.4byte	.LVL158
 17789 3386 0200     		.2byte	0x2
 17790 3388 90       		.byte	0x90
 17791 3389 4D       		.uleb128 0x4d
 17792 338a CA020000 		.4byte	.LVL193
 17793 338e D8020000 		.4byte	.LVL194
 17794 3392 0200     		.2byte	0x2
 17795 3394 90       		.byte	0x90
 17796 3395 4D       		.uleb128 0x4d
 17797 3396 00000000 		.4byte	0
 17798 339a 00000000 		.4byte	0
 17799              	.LLST87:
 17800 339e 00000000 		.4byte	.LFB12
 17801 33a2 02000000 		.4byte	.LCFI14
 17802 33a6 0200     		.2byte	0x2
 17803 33a8 7D       		.byte	0x7d
 17804 33a9 00       		.sleb128 0
 17805 33aa 02000000 		.4byte	.LCFI14
 17806 33ae 0C000000 		.4byte	.LCFI15
 17807 33b2 0200     		.2byte	0x2
 17808 33b4 7D       		.byte	0x7d
 17809 33b5 08       		.sleb128 8
 17810 33b6 0C000000 		.4byte	.LCFI15
 17811 33ba 26000000 		.4byte	.LCFI16
 17812 33be 0200     		.2byte	0x2
 17813 33c0 7D       		.byte	0x7d
 17814 33c1 10       		.sleb128 16
 17815 33c2 26000000 		.4byte	.LCFI16
 17816 33c6 44000000 		.4byte	.LFE12
 17817 33ca 0200     		.2byte	0x2
 17818 33cc 7D       		.byte	0x7d
 17819 33cd 08       		.sleb128 8
 17820 33ce 00000000 		.4byte	0
 17821 33d2 00000000 		.4byte	0
 17822              	.LVUS88:
 17823 33d6 00       		.uleb128 0
 17824 33d7 00       		.uleb128 .LVU391
 17825 33d8 00       		.uleb128 .LVU391
 17826 33d9 00       		.uleb128 .LVU397
 17827 33da 00       		.uleb128 .LVU397
 17828 33db 00       		.uleb128 0
 17829              	.LLST88:
 17830 33dc 00000000 		.4byte	.LVL140
 17831 33e0 13000000 		.4byte	.LVL141-1
 17832 33e4 0200     		.2byte	0x2
 17833 33e6 90       		.byte	0x90
 17834 33e7 40       		.uleb128 0x40
 17835 33e8 13000000 		.4byte	.LVL141-1
 17836 33ec 26000000 		.4byte	.LVL142
 17837 33f0 0200     		.2byte	0x2
 17838 33f2 90       		.byte	0x90
 17839 33f3 50       		.uleb128 0x50
 17840 33f4 26000000 		.4byte	.LVL142
 17841 33f8 44000000 		.4byte	.LFE12
ARM GAS  /var/folders/cs/83z6p2tj4w57s6p2rt8nwfp00000gn/T//ccDzWS9O.s 			page 341


 17842 33fc 0600     		.2byte	0x6
 17843 33fe F3       		.byte	0xf3
 17844 33ff 03       		.uleb128 0x3
 17845 3400 F5       		.byte	0xf5
 17846 3401 40       		.uleb128 0x40
 17847 3402 29       		.uleb128 0x29
 17848 3403 9F       		.byte	0x9f
 17849 3404 00000000 		.4byte	0
 17850 3408 00000000 		.4byte	0
 17851              	.LLST0:
 17852 340c 00000000 		.4byte	.LFB27
 17853 3410 1A000000 		.4byte	.LCFI0
 17854 3414 0200     		.2byte	0x2
 17855 3416 7D       		.byte	0x7d
 17856 3417 00       		.sleb128 0
 17857 3418 1A000000 		.4byte	.LCFI0
 17858 341c BE000000 		.4byte	.LCFI1
 17859 3420 0200     		.2byte	0x2
 17860 3422 7D       		.byte	0x7d
 17861 3423 1C       		.sleb128 28
 17862 3424 BE000000 		.4byte	.LCFI1
 17863 3428 C0000000 		.4byte	.LCFI2
 17864 342c 0200     		.2byte	0x2
 17865 342e 7D       		.byte	0x7d
 17866 342f 00       		.sleb128 0
 17867 3430 C0000000 		.4byte	.LCFI2
 17868 3434 DE000000 		.4byte	.LFE27
 17869 3438 0200     		.2byte	0x2
 17870 343a 7D       		.byte	0x7d
 17871 343b 1C       		.sleb128 28
 17872 343c 00000000 		.4byte	0
 17873 3440 00000000 		.4byte	0
 17874              	.LVUS1:
 17875 3444 00       		.uleb128 0
 17876 3445 00       		.uleb128 .LVU58
 17877 3446 00       		.uleb128 .LVU58
 17878 3447 00       		.uleb128 .LVU82
 17879 3448 00       		.uleb128 .LVU82
 17880 3449 00       		.uleb128 .LVU111
 17881 344a 00       		.uleb128 .LVU111
 17882 344b 00       		.uleb128 .LVU114
 17883 344c 00       		.uleb128 .LVU114
 17884 344d 00       		.uleb128 0
 17885              	.LLST1:
 17886 344e 00000000 		.4byte	.LVL0
 17887 3452 72000000 		.4byte	.LVL18
 17888 3456 0100     		.2byte	0x1
 17889 3458 50       		.byte	0x50
 17890 3459 72000000 		.4byte	.LVL18
 17891 345d 9E000000 		.4byte	.LVL27
 17892 3461 0400     		.2byte	0x4
 17893 3463 F3       		.byte	0xf3
 17894 3464 01       		.uleb128 0x1
 17895 3465 50       		.byte	0x50
 17896 3466 9F       		.byte	0x9f
 17897 3467 9E000000 		.4byte	.LVL27
 17898 346b D6000000 		.4byte	.LVL38
ARM GAS  /var/folders/cs/83z6p2tj4w57s6p2rt8nwfp00000gn/T//ccDzWS9O.s 			page 342


 17899 346f 0100     		.2byte	0x1
 17900 3471 50       		.byte	0x50
 17901 3472 D6000000 		.4byte	.LVL38
 17902 3476 DA000000 		.4byte	.LVL40
 17903 347a 0400     		.2byte	0x4
 17904 347c F3       		.byte	0xf3
 17905 347d 01       		.uleb128 0x1
 17906 347e 50       		.byte	0x50
 17907 347f 9F       		.byte	0x9f
 17908 3480 DA000000 		.4byte	.LVL40
 17909 3484 DE000000 		.4byte	.LFE27
 17910 3488 0100     		.2byte	0x1
 17911 348a 50       		.byte	0x50
 17912 348b 00000000 		.4byte	0
 17913 348f 00000000 		.4byte	0
 17914              	.LVUS2:
 17915 3493 00       		.uleb128 0
 17916 3494 00       		.uleb128 .LVU2
 17917 3495 00       		.uleb128 .LVU2
 17918 3496 00       		.uleb128 .LVU54
 17919 3497 00       		.uleb128 .LVU54
 17920 3498 01       		.uleb128 .LVU56
 17921 3499 00       		.uleb128 .LVU82
 17922 349a 00       		.uleb128 .LVU111
 17923 349b 00       		.uleb128 .LVU114
 17924 349c 00       		.uleb128 0
 17925              	.LLST2:
 17926 349d 00000000 		.4byte	.LVL0
 17927 34a1 08000000 		.4byte	.LVL1
 17928 34a5 0100     		.2byte	0x1
 17929 34a7 51       		.byte	0x51
 17930 34a8 08000000 		.4byte	.LVL1
 17931 34ac 6A000000 		.4byte	.LVL16
 17932 34b0 0100     		.2byte	0x1
 17933 34b2 51       		.byte	0x51
 17934 34b3 6A000000 		.4byte	.LVL16
 17935 34b7 6E000000 		.4byte	.LVL17
 17936 34bb 0E00     		.2byte	0xe
 17937 34bd F3       		.byte	0xf3
 17938 34be 01       		.uleb128 0x1
 17939 34bf 51       		.byte	0x51
 17940 34c0 12       		.byte	0x12
 17941 34c1 30       		.byte	0x30
 17942 34c2 16       		.byte	0x16
 17943 34c3 14       		.byte	0x14
 17944 34c4 2B       		.byte	0x2b
 17945 34c5 28       		.byte	0x28
 17946 34c6 0100     		.2byte	0x1
 17947 34c8 16       		.byte	0x16
 17948 34c9 13       		.byte	0x13
 17949 34ca 9F       		.byte	0x9f
 17950 34cb 9E000000 		.4byte	.LVL27
 17951 34cf D6000000 		.4byte	.LVL38
 17952 34d3 0100     		.2byte	0x1
 17953 34d5 51       		.byte	0x51
 17954 34d6 DA000000 		.4byte	.LVL40
 17955 34da DE000000 		.4byte	.LFE27
ARM GAS  /var/folders/cs/83z6p2tj4w57s6p2rt8nwfp00000gn/T//ccDzWS9O.s 			page 343


 17956 34de 0100     		.2byte	0x1
 17957 34e0 51       		.byte	0x51
 17958 34e1 00000000 		.4byte	0
 17959 34e5 00000000 		.4byte	0
 17960              	.LVUS3:
 17961 34e9 00       		.uleb128 0
 17962 34ea 00       		.uleb128 .LVU3
 17963 34eb 00       		.uleb128 .LVU3
 17964 34ec 00       		.uleb128 .LVU59
 17965 34ed 00       		.uleb128 .LVU59
 17966 34ee 00       		.uleb128 .LVU60
 17967 34ef 00       		.uleb128 .LVU60
 17968 34f0 00       		.uleb128 .LVU82
 17969 34f1 00       		.uleb128 .LVU82
 17970 34f2 00       		.uleb128 .LVU91
 17971 34f3 00       		.uleb128 .LVU91
 17972 34f4 00       		.uleb128 .LVU98
 17973 34f5 00       		.uleb128 .LVU98
 17974 34f6 00       		.uleb128 .LVU101
 17975 34f7 00       		.uleb128 .LVU101
 17976 34f8 00       		.uleb128 .LVU104
 17977 34f9 00       		.uleb128 .LVU104
 17978 34fa 00       		.uleb128 .LVU113
 17979 34fb 00       		.uleb128 .LVU113
 17980 34fc 00       		.uleb128 .LVU114
 17981 34fd 00       		.uleb128 .LVU114
 17982 34fe 00       		.uleb128 0
 17983              	.LLST3:
 17984 34ff 00000000 		.4byte	.LVL0
 17985 3503 0E000000 		.4byte	.LVL2
 17986 3507 0100     		.2byte	0x1
 17987 3509 52       		.byte	0x52
 17988 350a 0E000000 		.4byte	.LVL2
 17989 350e 78000000 		.4byte	.LVL19
 17990 3512 0100     		.2byte	0x1
 17991 3514 52       		.byte	0x52
 17992 3515 78000000 		.4byte	.LVL19
 17993 3519 7A000000 		.4byte	.LVL20
 17994 351d 0300     		.2byte	0x3
 17995 351f 72       		.byte	0x72
 17996 3520 20       		.sleb128 32
 17997 3521 9F       		.byte	0x9f
 17998 3522 7A000000 		.4byte	.LVL20
 17999 3526 9E000000 		.4byte	.LVL27
 18000 352a 1300     		.2byte	0x13
 18001 352c 0A       		.byte	0xa
 18002 352d 9001     		.2byte	0x190
 18003 352f F3       		.byte	0xf3
 18004 3530 01       		.uleb128 0x1
 18005 3531 52       		.byte	0x52
 18006 3532 F3       		.byte	0xf3
 18007 3533 01       		.uleb128 0x1
 18008 3534 52       		.byte	0x52
 18009 3535 0A       		.byte	0xa
 18010 3536 9001     		.2byte	0x190
 18011 3538 2A       		.byte	0x2a
 18012 3539 28       		.byte	0x28
ARM GAS  /var/folders/cs/83z6p2tj4w57s6p2rt8nwfp00000gn/T//ccDzWS9O.s 			page 344


 18013 353a 0100     		.2byte	0x1
 18014 353c 16       		.byte	0x16
 18015 353d 13       		.byte	0x13
 18016 353e 9F       		.byte	0x9f
 18017 353f 9E000000 		.4byte	.LVL27
 18018 3543 AA000000 		.4byte	.LVL29
 18019 3547 0100     		.2byte	0x1
 18020 3549 52       		.byte	0x52
 18021 354a AA000000 		.4byte	.LVL29
 18022 354e BE000000 		.4byte	.LVL32
 18023 3552 1300     		.2byte	0x13
 18024 3554 0A       		.byte	0xa
 18025 3555 9001     		.2byte	0x190
 18026 3557 F3       		.byte	0xf3
 18027 3558 01       		.uleb128 0x1
 18028 3559 52       		.byte	0x52
 18029 355a F3       		.byte	0xf3
 18030 355b 01       		.uleb128 0x1
 18031 355c 52       		.byte	0x52
 18032 355d 0A       		.byte	0xa
 18033 355e 9001     		.2byte	0x190
 18034 3560 2A       		.byte	0x2a
 18035 3561 28       		.byte	0x28
 18036 3562 0100     		.2byte	0x1
 18037 3564 16       		.byte	0x16
 18038 3565 13       		.byte	0x13
 18039 3566 9F       		.byte	0x9f
 18040 3567 BE000000 		.4byte	.LVL32
 18041 356b C4000000 		.4byte	.LVL35
 18042 356f 0100     		.2byte	0x1
 18043 3571 52       		.byte	0x52
 18044 3572 C4000000 		.4byte	.LVL35
 18045 3576 CA000000 		.4byte	.LVL36
 18046 357a 1300     		.2byte	0x13
 18047 357c 0A       		.byte	0xa
 18048 357d 9001     		.2byte	0x190
 18049 357f F3       		.byte	0xf3
 18050 3580 01       		.uleb128 0x1
 18051 3581 52       		.byte	0x52
 18052 3582 F3       		.byte	0xf3
 18053 3583 01       		.uleb128 0x1
 18054 3584 52       		.byte	0x52
 18055 3585 0A       		.byte	0xa
 18056 3586 9001     		.2byte	0x190
 18057 3588 2A       		.byte	0x2a
 18058 3589 28       		.byte	0x28
 18059 358a 0100     		.2byte	0x1
 18060 358c 16       		.byte	0x16
 18061 358d 13       		.byte	0x13
 18062 358e 9F       		.byte	0x9f
 18063 358f CA000000 		.4byte	.LVL36
 18064 3593 D8000000 		.4byte	.LVL39
 18065 3597 0100     		.2byte	0x1
 18066 3599 52       		.byte	0x52
 18067 359a D8000000 		.4byte	.LVL39
 18068 359e DA000000 		.4byte	.LVL40
 18069 35a2 1300     		.2byte	0x13
ARM GAS  /var/folders/cs/83z6p2tj4w57s6p2rt8nwfp00000gn/T//ccDzWS9O.s 			page 345


 18070 35a4 0A       		.byte	0xa
 18071 35a5 9001     		.2byte	0x190
 18072 35a7 F3       		.byte	0xf3
 18073 35a8 01       		.uleb128 0x1
 18074 35a9 52       		.byte	0x52
 18075 35aa F3       		.byte	0xf3
 18076 35ab 01       		.uleb128 0x1
 18077 35ac 52       		.byte	0x52
 18078 35ad 0A       		.byte	0xa
 18079 35ae 9001     		.2byte	0x190
 18080 35b0 2A       		.byte	0x2a
 18081 35b1 28       		.byte	0x28
 18082 35b2 0100     		.2byte	0x1
 18083 35b4 16       		.byte	0x16
 18084 35b5 13       		.byte	0x13
 18085 35b6 9F       		.byte	0x9f
 18086 35b7 DA000000 		.4byte	.LVL40
 18087 35bb DE000000 		.4byte	.LFE27
 18088 35bf 0100     		.2byte	0x1
 18089 35c1 52       		.byte	0x52
 18090 35c2 00000000 		.4byte	0
 18091 35c6 00000000 		.4byte	0
 18092              	.LVUS4:
 18093 35ca 00       		.uleb128 0
 18094 35cb 00       		.uleb128 .LVU78
 18095 35cc 00       		.uleb128 .LVU78
 18096 35cd 00       		.uleb128 .LVU82
 18097 35ce 00       		.uleb128 .LVU82
 18098 35cf 00       		.uleb128 .LVU95
 18099 35d0 00       		.uleb128 .LVU95
 18100 35d1 00       		.uleb128 .LVU98
 18101 35d2 00       		.uleb128 .LVU98
 18102 35d3 00       		.uleb128 0
 18103              	.LLST4:
 18104 35d4 00000000 		.4byte	.LVL0
 18105 35d8 94000000 		.4byte	.LVL25
 18106 35dc 0100     		.2byte	0x1
 18107 35de 53       		.byte	0x53
 18108 35df 94000000 		.4byte	.LVL25
 18109 35e3 9E000000 		.4byte	.LVL27
 18110 35e7 0400     		.2byte	0x4
 18111 35e9 F3       		.byte	0xf3
 18112 35ea 01       		.uleb128 0x1
 18113 35eb 53       		.byte	0x53
 18114 35ec 9F       		.byte	0x9f
 18115 35ed 9E000000 		.4byte	.LVL27
 18116 35f1 B2000000 		.4byte	.LVL31
 18117 35f5 0100     		.2byte	0x1
 18118 35f7 53       		.byte	0x53
 18119 35f8 B2000000 		.4byte	.LVL31
 18120 35fc BE000000 		.4byte	.LVL32
 18121 3600 0400     		.2byte	0x4
 18122 3602 F3       		.byte	0xf3
 18123 3603 01       		.uleb128 0x1
 18124 3604 53       		.byte	0x53
 18125 3605 9F       		.byte	0x9f
 18126 3606 BE000000 		.4byte	.LVL32
ARM GAS  /var/folders/cs/83z6p2tj4w57s6p2rt8nwfp00000gn/T//ccDzWS9O.s 			page 346


 18127 360a DE000000 		.4byte	.LFE27
 18128 360e 0100     		.2byte	0x1
 18129 3610 53       		.byte	0x53
 18130 3611 00000000 		.4byte	0
 18131 3615 00000000 		.4byte	0
 18132              	.LVUS5:
 18133 3619 00       		.uleb128 .LVU7
 18134 361a 00       		.uleb128 .LVU51
 18135 361b 00       		.uleb128 .LVU51
 18136 361c 00       		.uleb128 .LVU54
 18137 361d 00       		.uleb128 .LVU54
 18138 361e 00       		.uleb128 .LVU82
 18139 361f 00       		.uleb128 .LVU82
 18140 3620 00       		.uleb128 .LVU98
 18141 3621 00       		.uleb128 .LVU99
 18142 3622 00       		.uleb128 .LVU111
 18143 3623 00       		.uleb128 .LVU111
 18144 3624 00       		.uleb128 .LVU114
 18145 3625 00       		.uleb128 .LVU114
 18146 3626 00       		.uleb128 0
 18147              	.LLST5:
 18148 3627 16000000 		.4byte	.LVL3
 18149 362b 60000000 		.4byte	.LVL14
 18150 362f 0100     		.2byte	0x1
 18151 3631 5C       		.byte	0x5c
 18152 3632 60000000 		.4byte	.LVL14
 18153 3636 6A000000 		.4byte	.LVL16
 18154 363a 0500     		.2byte	0x5
 18155 363c 71       		.byte	0x71
 18156 363d 00       		.sleb128 0
 18157 363e 4F       		.byte	0x4f
 18158 363f 1A       		.byte	0x1a
 18159 3640 9F       		.byte	0x9f
 18160 3641 6A000000 		.4byte	.LVL16
 18161 3645 9E000000 		.4byte	.LVL27
 18162 3649 1000     		.2byte	0x10
 18163 364b F3       		.byte	0xf3
 18164 364c 01       		.uleb128 0x1
 18165 364d 51       		.byte	0x51
 18166 364e 12       		.byte	0x12
 18167 364f 30       		.byte	0x30
 18168 3650 16       		.byte	0x16
 18169 3651 14       		.byte	0x14
 18170 3652 2B       		.byte	0x2b
 18171 3653 28       		.byte	0x28
 18172 3654 0100     		.2byte	0x1
 18173 3656 16       		.byte	0x16
 18174 3657 13       		.byte	0x13
 18175 3658 4F       		.byte	0x4f
 18176 3659 1A       		.byte	0x1a
 18177 365a 9F       		.byte	0x9f
 18178 365b 9E000000 		.4byte	.LVL27
 18179 365f BE000000 		.4byte	.LVL32
 18180 3663 0100     		.2byte	0x1
 18181 3665 5C       		.byte	0x5c
 18182 3666 C0000000 		.4byte	.LVL33
 18183 366a D6000000 		.4byte	.LVL38
ARM GAS  /var/folders/cs/83z6p2tj4w57s6p2rt8nwfp00000gn/T//ccDzWS9O.s 			page 347


 18184 366e 0100     		.2byte	0x1
 18185 3670 5C       		.byte	0x5c
 18186 3671 D6000000 		.4byte	.LVL38
 18187 3675 DA000000 		.4byte	.LVL40
 18188 3679 1000     		.2byte	0x10
 18189 367b F3       		.byte	0xf3
 18190 367c 01       		.uleb128 0x1
 18191 367d 51       		.byte	0x51
 18192 367e 12       		.byte	0x12
 18193 367f 30       		.byte	0x30
 18194 3680 16       		.byte	0x16
 18195 3681 14       		.byte	0x14
 18196 3682 2B       		.byte	0x2b
 18197 3683 28       		.byte	0x28
 18198 3684 0100     		.2byte	0x1
 18199 3686 16       		.byte	0x16
 18200 3687 13       		.byte	0x13
 18201 3688 4F       		.byte	0x4f
 18202 3689 1A       		.byte	0x1a
 18203 368a 9F       		.byte	0x9f
 18204 368b DA000000 		.4byte	.LVL40
 18205 368f DE000000 		.4byte	.LFE27
 18206 3693 0100     		.2byte	0x1
 18207 3695 5C       		.byte	0x5c
 18208 3696 00000000 		.4byte	0
 18209 369a 00000000 		.4byte	0
 18210              	.LVUS6:
 18211 369e 01       		.uleb128 .LVU18
 18212 369f 00       		.uleb128 .LVU52
 18213 36a0 00       		.uleb128 .LVU82
 18214 36a1 00       		.uleb128 .LVU87
 18215 36a2 00       		.uleb128 .LVU99
 18216 36a3 00       		.uleb128 .LVU100
 18217 36a4 00       		.uleb128 .LVU104
 18218 36a5 00       		.uleb128 .LVU110
 18219 36a6 00       		.uleb128 .LVU114
 18220 36a7 00       		.uleb128 .LVU116
 18221              	.LLST6:
 18222 36a8 28000000 		.4byte	.LVL6
 18223 36ac 64000000 		.4byte	.LVL15
 18224 36b0 0100     		.2byte	0x1
 18225 36b2 57       		.byte	0x57
 18226 36b3 9E000000 		.4byte	.LVL27
 18227 36b7 A8000000 		.4byte	.LVL28
 18228 36bb 0100     		.2byte	0x1
 18229 36bd 57       		.byte	0x57
 18230 36be C0000000 		.4byte	.LVL33
 18231 36c2 C2000000 		.4byte	.LVL34
 18232 36c6 0100     		.2byte	0x1
 18233 36c8 57       		.byte	0x57
 18234 36c9 CA000000 		.4byte	.LVL36
 18235 36cd D4000000 		.4byte	.LVL37
 18236 36d1 0100     		.2byte	0x1
 18237 36d3 57       		.byte	0x57
 18238 36d4 DA000000 		.4byte	.LVL40
 18239 36d8 DC000000 		.4byte	.LVL41
 18240 36dc 0100     		.2byte	0x1
ARM GAS  /var/folders/cs/83z6p2tj4w57s6p2rt8nwfp00000gn/T//ccDzWS9O.s 			page 348


 18241 36de 57       		.byte	0x57
 18242 36df 00000000 		.4byte	0
 18243 36e3 00000000 		.4byte	0
 18244              	.LVUS7:
 18245 36e7 00       		.uleb128 .LVU21
 18246 36e8 00       		.uleb128 .LVU98
 18247 36e9 00       		.uleb128 .LVU99
 18248 36ea 00       		.uleb128 0
 18249              	.LLST7:
 18250 36eb 2C000000 		.4byte	.LVL7
 18251 36ef BE000000 		.4byte	.LVL32
 18252 36f3 0100     		.2byte	0x1
 18253 36f5 55       		.byte	0x55
 18254 36f6 C0000000 		.4byte	.LVL33
 18255 36fa DE000000 		.4byte	.LFE27
 18256 36fe 0100     		.2byte	0x1
 18257 3700 55       		.byte	0x55
 18258 3701 00000000 		.4byte	0
 18259 3705 00000000 		.4byte	0
 18260              	.LVUS8:
 18261 3709 01       		.uleb128 .LVU31
 18262 370a 00       		.uleb128 .LVU98
 18263 370b 00       		.uleb128 .LVU99
 18264 370c 00       		.uleb128 0
 18265              	.LLST8:
 18266 370d 3A000000 		.4byte	.LVL9
 18267 3711 BE000000 		.4byte	.LVL32
 18268 3715 0100     		.2byte	0x1
 18269 3717 56       		.byte	0x56
 18270 3718 C0000000 		.4byte	.LVL33
 18271 371c DE000000 		.4byte	.LFE27
 18272 3720 0100     		.2byte	0x1
 18273 3722 56       		.byte	0x56
 18274 3723 00000000 		.4byte	0
 18275 3727 00000000 		.4byte	0
 18276              	.LVUS9:
 18277 372b 00       		.uleb128 .LVU34
 18278 372c 00       		.uleb128 .LVU98
 18279 372d 00       		.uleb128 .LVU99
 18280 372e 00       		.uleb128 0
 18281              	.LLST9:
 18282 372f 3E000000 		.4byte	.LVL10
 18283 3733 BE000000 		.4byte	.LVL32
 18284 3737 0100     		.2byte	0x1
 18285 3739 58       		.byte	0x58
 18286 373a C0000000 		.4byte	.LVL33
 18287 373e DE000000 		.4byte	.LFE27
 18288 3742 0100     		.2byte	0x1
 18289 3744 58       		.byte	0x58
 18290 3745 00000000 		.4byte	0
 18291 3749 00000000 		.4byte	0
 18292              	.LVUS10:
 18293 374d 00       		.uleb128 .LVU37
 18294 374e 01       		.uleb128 .LVU56
 18295 374f 01       		.uleb128 .LVU62
 18296 3750 00       		.uleb128 .LVU66
 18297 3751 00       		.uleb128 .LVU66
ARM GAS  /var/folders/cs/83z6p2tj4w57s6p2rt8nwfp00000gn/T//ccDzWS9O.s 			page 349


 18298 3752 00       		.uleb128 .LVU69
 18299 3753 00       		.uleb128 .LVU82
 18300 3754 00       		.uleb128 .LVU98
 18301 3755 00       		.uleb128 .LVU99
 18302 3756 00       		.uleb128 .LVU111
 18303 3757 00       		.uleb128 .LVU114
 18304 3758 00       		.uleb128 0
 18305              	.LLST10:
 18306 3759 46000000 		.4byte	.LVL11
 18307 375d 6E000000 		.4byte	.LVL17
 18308 3761 0100     		.2byte	0x1
 18309 3763 54       		.byte	0x54
 18310 3764 82000000 		.4byte	.LVL21
 18311 3768 86000000 		.4byte	.LVL22
 18312 376c 0300     		.2byte	0x3
 18313 376e 74       		.byte	0x74
 18314 376f 04       		.sleb128 4
 18315 3770 9F       		.byte	0x9f
 18316 3771 86000000 		.4byte	.LVL22
 18317 3775 8A000000 		.4byte	.LVL23
 18318 3779 0100     		.2byte	0x1
 18319 377b 54       		.byte	0x54
 18320 377c 9E000000 		.4byte	.LVL27
 18321 3780 BE000000 		.4byte	.LVL32
 18322 3784 0100     		.2byte	0x1
 18323 3786 54       		.byte	0x54
 18324 3787 C0000000 		.4byte	.LVL33
 18325 378b D6000000 		.4byte	.LVL38
 18326 378f 0100     		.2byte	0x1
 18327 3791 54       		.byte	0x54
 18328 3792 DA000000 		.4byte	.LVL40
 18329 3796 DE000000 		.4byte	.LFE27
 18330 379a 0100     		.2byte	0x1
 18331 379c 54       		.byte	0x54
 18332 379d 00000000 		.4byte	0
 18333 37a1 00000000 		.4byte	0
 18334              	.LVUS11:
 18335 37a5 00       		.uleb128 .LVU11
 18336 37a6 00       		.uleb128 .LVU16
 18337 37a7 00       		.uleb128 .LVU16
 18338 37a8 00       		.uleb128 .LVU17
 18339 37a9 00       		.uleb128 .LVU17
 18340 37aa 01       		.uleb128 .LVU18
 18341              	.LLST11:
 18342 37ab 20000000 		.4byte	.LVL4
 18343 37af 26000000 		.4byte	.LVL5
 18344 37b3 0700     		.2byte	0x7
 18345 37b5 31       		.byte	0x31
 18346 37b6 7E       		.byte	0x7e
 18347 37b7 00       		.sleb128 0
 18348 37b8 24       		.byte	0x24
 18349 37b9 31       		.byte	0x31
 18350 37ba 1C       		.byte	0x1c
 18351 37bb 9F       		.byte	0x9f
 18352 37bc 26000000 		.4byte	.LVL5
 18353 37c0 28000000 		.4byte	.LVL6
 18354 37c4 0100     		.2byte	0x1
ARM GAS  /var/folders/cs/83z6p2tj4w57s6p2rt8nwfp00000gn/T//ccDzWS9O.s 			page 350


 18355 37c6 57       		.byte	0x57
 18356 37c7 28000000 		.4byte	.LVL6
 18357 37cb 28000000 		.4byte	.LVL6
 18358 37cf 0700     		.2byte	0x7
 18359 37d1 31       		.byte	0x31
 18360 37d2 7E       		.byte	0x7e
 18361 37d3 00       		.sleb128 0
 18362 37d4 24       		.byte	0x24
 18363 37d5 31       		.byte	0x31
 18364 37d6 1C       		.byte	0x1c
 18365 37d7 9F       		.byte	0x9f
 18366 37d8 00000000 		.4byte	0
 18367 37dc 00000000 		.4byte	0
 18368              	.LVUS12:
 18369 37e0 00       		.uleb128 .LVU17
 18370 37e1 01       		.uleb128 .LVU18
 18371              	.LLST12:
 18372 37e2 28000000 		.4byte	.LVL6
 18373 37e6 28000000 		.4byte	.LVL6
 18374 37ea 0100     		.2byte	0x1
 18375 37ec 57       		.byte	0x57
 18376 37ed 00000000 		.4byte	0
 18377 37f1 00000000 		.4byte	0
 18378              	.LVUS13:
 18379 37f5 01       		.uleb128 .LVU22
 18380 37f6 00       		.uleb128 .LVU29
 18381 37f7 00       		.uleb128 .LVU29
 18382 37f8 00       		.uleb128 .LVU30
 18383 37f9 00       		.uleb128 .LVU30
 18384 37fa 01       		.uleb128 .LVU31
 18385              	.LLST13:
 18386 37fb 2C000000 		.4byte	.LVL7
 18387 37ff 38000000 		.4byte	.LVL8
 18388 3803 0D00     		.2byte	0xd
 18389 3805 31       		.byte	0x31
 18390 3806 75       		.byte	0x75
 18391 3807 00       		.sleb128 0
 18392 3808 24       		.byte	0x24
 18393 3809 31       		.byte	0x31
 18394 380a 1C       		.byte	0x1c
 18395 380b 08       		.byte	0x8
 18396 380c 20       		.byte	0x20
 18397 380d 75       		.byte	0x75
 18398 380e 00       		.sleb128 0
 18399 380f 1C       		.byte	0x1c
 18400 3810 24       		.byte	0x24
 18401 3811 9F       		.byte	0x9f
 18402 3812 38000000 		.4byte	.LVL8
 18403 3816 3A000000 		.4byte	.LVL9
 18404 381a 0100     		.2byte	0x1
 18405 381c 56       		.byte	0x56
 18406 381d 3A000000 		.4byte	.LVL9
 18407 3821 3A000000 		.4byte	.LVL9
 18408 3825 0D00     		.2byte	0xd
 18409 3827 31       		.byte	0x31
 18410 3828 75       		.byte	0x75
 18411 3829 00       		.sleb128 0
ARM GAS  /var/folders/cs/83z6p2tj4w57s6p2rt8nwfp00000gn/T//ccDzWS9O.s 			page 351


 18412 382a 24       		.byte	0x24
 18413 382b 31       		.byte	0x31
 18414 382c 1C       		.byte	0x1c
 18415 382d 08       		.byte	0x8
 18416 382e 20       		.byte	0x20
 18417 382f 75       		.byte	0x75
 18418 3830 00       		.sleb128 0
 18419 3831 1C       		.byte	0x1c
 18420 3832 24       		.byte	0x24
 18421 3833 9F       		.byte	0x9f
 18422 3834 00000000 		.4byte	0
 18423 3838 00000000 		.4byte	0
 18424              	.LVUS14:
 18425 383c 00       		.uleb128 .LVU30
 18426 383d 01       		.uleb128 .LVU31
 18427              	.LLST14:
 18428 383e 3A000000 		.4byte	.LVL9
 18429 3842 3A000000 		.4byte	.LVL9
 18430 3846 0100     		.2byte	0x1
 18431 3848 56       		.byte	0x56
 18432 3849 00000000 		.4byte	0
 18433 384d 00000000 		.4byte	0
 18434              	.LVUS15:
 18435 3851 01       		.uleb128 .LVU40
 18436 3852 00       		.uleb128 .LVU54
 18437 3853 00       		.uleb128 .LVU54
 18438 3854 01       		.uleb128 .LVU56
 18439 3855 00       		.uleb128 .LVU99
 18440 3856 00       		.uleb128 .LVU101
 18441              	.LLST15:
 18442 3857 48000000 		.4byte	.LVL12
 18443 385b 6A000000 		.4byte	.LVL16
 18444 385f 0100     		.2byte	0x1
 18445 3861 51       		.byte	0x51
 18446 3862 6A000000 		.4byte	.LVL16
 18447 3866 6E000000 		.4byte	.LVL17
 18448 386a 0E00     		.2byte	0xe
 18449 386c F3       		.byte	0xf3
 18450 386d 01       		.uleb128 0x1
 18451 386e 51       		.byte	0x51
 18452 386f 12       		.byte	0x12
 18453 3870 30       		.byte	0x30
 18454 3871 16       		.byte	0x16
 18455 3872 14       		.byte	0x14
 18456 3873 2B       		.byte	0x2b
 18457 3874 28       		.byte	0x28
 18458 3875 0100     		.2byte	0x1
 18459 3877 16       		.byte	0x16
 18460 3878 13       		.byte	0x13
 18461 3879 9F       		.byte	0x9f
 18462 387a C0000000 		.4byte	.LVL33
 18463 387e C4000000 		.4byte	.LVL35
 18464 3882 0100     		.2byte	0x1
 18465 3884 51       		.byte	0x51
 18466 3885 00000000 		.4byte	0
 18467 3889 00000000 		.4byte	0
 18468              	.LVUS16:
ARM GAS  /var/folders/cs/83z6p2tj4w57s6p2rt8nwfp00000gn/T//ccDzWS9O.s 			page 352


 18469 388d 00       		.uleb128 .LVU45
 18470 388e 00       		.uleb128 .LVU55
 18471 388f 00       		.uleb128 .LVU99
 18472 3890 00       		.uleb128 .LVU101
 18473              	.LLST16:
 18474 3891 56000000 		.4byte	.LVL13
 18475 3895 6E000000 		.4byte	.LVL17
 18476 3899 0100     		.2byte	0x1
 18477 389b 53       		.byte	0x53
 18478 389c C0000000 		.4byte	.LVL33
 18479 38a0 C4000000 		.4byte	.LVL35
 18480 38a4 0100     		.2byte	0x1
 18481 38a6 53       		.byte	0x53
 18482 38a7 00000000 		.4byte	0
 18483 38ab 00000000 		.4byte	0
 18484              	.LVUS17:
 18485 38af 00       		.uleb128 .LVU45
 18486 38b0 00       		.uleb128 .LVU52
 18487 38b1 00       		.uleb128 .LVU99
 18488 38b2 00       		.uleb128 .LVU100
 18489              	.LLST17:
 18490 38b3 56000000 		.4byte	.LVL13
 18491 38b7 64000000 		.4byte	.LVL15
 18492 38bb 0100     		.2byte	0x1
 18493 38bd 57       		.byte	0x57
 18494 38be C0000000 		.4byte	.LVL33
 18495 38c2 C2000000 		.4byte	.LVL34
 18496 38c6 0100     		.2byte	0x1
 18497 38c8 57       		.byte	0x57
 18498 38c9 00000000 		.4byte	0
 18499 38cd 00000000 		.4byte	0
 18500              	.LVUS18:
 18501 38d1 00       		.uleb128 .LVU45
 18502 38d2 00       		.uleb128 .LVU55
 18503 38d3 00       		.uleb128 .LVU99
 18504 38d4 00       		.uleb128 .LVU101
 18505              	.LLST18:
 18506 38d5 56000000 		.4byte	.LVL13
 18507 38d9 6E000000 		.4byte	.LVL17
 18508 38dd 0300     		.2byte	0x3
 18509 38df 74       		.byte	0x74
 18510 38e0 7C       		.sleb128 -4
 18511 38e1 9F       		.byte	0x9f
 18512 38e2 C0000000 		.4byte	.LVL33
 18513 38e6 C4000000 		.4byte	.LVL35
 18514 38ea 0300     		.2byte	0x3
 18515 38ec 74       		.byte	0x74
 18516 38ed 7C       		.sleb128 -4
 18517 38ee 9F       		.byte	0x9f
 18518 38ef 00000000 		.4byte	0
 18519 38f3 00000000 		.4byte	0
 18520              	.LVUS19:
 18521 38f7 01       		.uleb128 .LVU62
 18522 38f8 00       		.uleb128 .LVU66
 18523              	.LLST19:
 18524 38f9 82000000 		.4byte	.LVL21
 18525 38fd 86000000 		.4byte	.LVL22
ARM GAS  /var/folders/cs/83z6p2tj4w57s6p2rt8nwfp00000gn/T//ccDzWS9O.s 			page 353


 18526 3901 0100     		.2byte	0x1
 18527 3903 53       		.byte	0x53
 18528 3904 00000000 		.4byte	0
 18529 3908 00000000 		.4byte	0
 18530              	.LVUS20:
 18531 390c 01       		.uleb128 .LVU62
 18532 390d 00       		.uleb128 .LVU66
 18533              	.LLST20:
 18534 390e 82000000 		.4byte	.LVL21
 18535 3912 86000000 		.4byte	.LVL22
 18536 3916 0300     		.2byte	0x3
 18537 3918 09       		.byte	0x9
 18538 3919 FF       		.byte	0xff
 18539 391a 9F       		.byte	0x9f
 18540 391b 00000000 		.4byte	0
 18541 391f 00000000 		.4byte	0
 18542              	.LVUS21:
 18543 3923 01       		.uleb128 .LVU62
 18544 3924 00       		.uleb128 .LVU66
 18545              	.LLST21:
 18546 3925 82000000 		.4byte	.LVL21
 18547 3929 86000000 		.4byte	.LVL22
 18548 392d 0300     		.2byte	0x3
 18549 392f 74       		.byte	0x74
 18550 3930 04       		.sleb128 4
 18551 3931 9F       		.byte	0x9f
 18552 3932 00000000 		.4byte	0
 18553 3936 00000000 		.4byte	0
 18554              	.LVUS22:
 18555 393a 01       		.uleb128 .LVU72
 18556 393b 00       		.uleb128 .LVU78
 18557 393c 00       		.uleb128 .LVU78
 18558 393d 00       		.uleb128 .LVU80
 18559              	.LLST22:
 18560 393e 8C000000 		.4byte	.LVL24
 18561 3942 94000000 		.4byte	.LVL25
 18562 3946 0100     		.2byte	0x1
 18563 3948 53       		.byte	0x53
 18564 3949 94000000 		.4byte	.LVL25
 18565 394d 9A000000 		.4byte	.LVL26
 18566 3951 0400     		.2byte	0x4
 18567 3953 F3       		.byte	0xf3
 18568 3954 01       		.uleb128 0x1
 18569 3955 53       		.byte	0x53
 18570 3956 9F       		.byte	0x9f
 18571 3957 00000000 		.4byte	0
 18572 395b 00000000 		.4byte	0
 18573              	.LVUS23:
 18574 395f 01       		.uleb128 .LVU72
 18575 3960 00       		.uleb128 .LVU80
 18576              	.LLST23:
 18577 3961 8C000000 		.4byte	.LVL24
 18578 3965 9A000000 		.4byte	.LVL26
 18579 3969 0100     		.2byte	0x1
 18580 396b 56       		.byte	0x56
 18581 396c 00000000 		.4byte	0
 18582 3970 00000000 		.4byte	0
ARM GAS  /var/folders/cs/83z6p2tj4w57s6p2rt8nwfp00000gn/T//ccDzWS9O.s 			page 354


 18583              	.LVUS24:
 18584 3974 01       		.uleb128 .LVU72
 18585 3975 00       		.uleb128 .LVU80
 18586              	.LLST24:
 18587 3976 8C000000 		.4byte	.LVL24
 18588 397a 9A000000 		.4byte	.LVL26
 18589 397e 0100     		.2byte	0x1
 18590 3980 52       		.byte	0x52
 18591 3981 00000000 		.4byte	0
 18592 3985 00000000 		.4byte	0
 18593              	.LVUS25:
 18594 3989 01       		.uleb128 .LVU83
 18595 398a 00       		.uleb128 .LVU87
 18596 398b 00       		.uleb128 .LVU87
 18597 398c 00       		.uleb128 .LVU92
 18598 398d 00       		.uleb128 .LVU101
 18599 398e 00       		.uleb128 .LVU104
 18600 398f 00       		.uleb128 .LVU104
 18601 3990 00       		.uleb128 .LVU111
 18602 3991 00       		.uleb128 .LVU114
 18603 3992 00       		.uleb128 0
 18604              	.LLST25:
 18605 3993 9E000000 		.4byte	.LVL27
 18606 3997 A8000000 		.4byte	.LVL28
 18607 399b 0200     		.2byte	0x2
 18608 399d 30       		.byte	0x30
 18609 399e 9F       		.byte	0x9f
 18610 399f A8000000 		.4byte	.LVL28
 18611 39a3 AC000000 		.4byte	.LVL30
 18612 39a7 0100     		.2byte	0x1
 18613 39a9 57       		.byte	0x57
 18614 39aa C4000000 		.4byte	.LVL35
 18615 39ae CA000000 		.4byte	.LVL36
 18616 39b2 0100     		.2byte	0x1
 18617 39b4 57       		.byte	0x57
 18618 39b5 CA000000 		.4byte	.LVL36
 18619 39b9 D6000000 		.4byte	.LVL38
 18620 39bd 0200     		.2byte	0x2
 18621 39bf 30       		.byte	0x30
 18622 39c0 9F       		.byte	0x9f
 18623 39c1 DA000000 		.4byte	.LVL40
 18624 39c5 DE000000 		.4byte	.LFE27
 18625 39c9 0200     		.2byte	0x2
 18626 39cb 30       		.byte	0x30
 18627 39cc 9F       		.byte	0x9f
 18628 39cd 00000000 		.4byte	0
 18629 39d1 00000000 		.4byte	0
 18630              	.LVUS26:
 18631 39d5 01       		.uleb128 .LVU88
 18632 39d6 00       		.uleb128 .LVU92
 18633 39d7 00       		.uleb128 .LVU101
 18634 39d8 00       		.uleb128 .LVU104
 18635              	.LLST26:
 18636 39d9 A8000000 		.4byte	.LVL28
 18637 39dd AC000000 		.4byte	.LVL30
 18638 39e1 0100     		.2byte	0x1
 18639 39e3 53       		.byte	0x53
ARM GAS  /var/folders/cs/83z6p2tj4w57s6p2rt8nwfp00000gn/T//ccDzWS9O.s 			page 355


 18640 39e4 C4000000 		.4byte	.LVL35
 18641 39e8 CA000000 		.4byte	.LVL36
 18642 39ec 0100     		.2byte	0x1
 18643 39ee 53       		.byte	0x53
 18644 39ef 00000000 		.4byte	0
 18645 39f3 00000000 		.4byte	0
 18646              	.LVUS27:
 18647 39f7 01       		.uleb128 .LVU88
 18648 39f8 00       		.uleb128 .LVU92
 18649 39f9 00       		.uleb128 .LVU101
 18650 39fa 00       		.uleb128 .LVU104
 18651              	.LLST27:
 18652 39fb A8000000 		.4byte	.LVL28
 18653 39ff AC000000 		.4byte	.LVL30
 18654 3a03 0100     		.2byte	0x1
 18655 3a05 57       		.byte	0x57
 18656 3a06 C4000000 		.4byte	.LVL35
 18657 3a0a CA000000 		.4byte	.LVL36
 18658 3a0e 0100     		.2byte	0x1
 18659 3a10 57       		.byte	0x57
 18660 3a11 00000000 		.4byte	0
 18661 3a15 00000000 		.4byte	0
 18662              	.LVUS28:
 18663 3a19 01       		.uleb128 .LVU88
 18664 3a1a 00       		.uleb128 .LVU92
 18665 3a1b 00       		.uleb128 .LVU101
 18666 3a1c 00       		.uleb128 .LVU104
 18667              	.LLST28:
 18668 3a1d A8000000 		.4byte	.LVL28
 18669 3a21 AC000000 		.4byte	.LVL30
 18670 3a25 0100     		.2byte	0x1
 18671 3a27 54       		.byte	0x54
 18672 3a28 C4000000 		.4byte	.LVL35
 18673 3a2c CA000000 		.4byte	.LVL36
 18674 3a30 0100     		.2byte	0x1
 18675 3a32 54       		.byte	0x54
 18676 3a33 00000000 		.4byte	0
 18677 3a37 00000000 		.4byte	0
 18678              	.LLST45:
 18679 3a3b 00000000 		.4byte	.LFB28
 18680 3a3f 06000000 		.4byte	.LCFI8
 18681 3a43 0200     		.2byte	0x2
 18682 3a45 7D       		.byte	0x7d
 18683 3a46 00       		.sleb128 0
 18684 3a47 06000000 		.4byte	.LCFI8
 18685 3a4b DE000000 		.4byte	.LFE28
 18686 3a4f 0200     		.2byte	0x2
 18687 3a51 7D       		.byte	0x7d
 18688 3a52 24       		.sleb128 36
 18689 3a53 00000000 		.4byte	0
 18690 3a57 00000000 		.4byte	0
 18691              	.LVUS46:
 18692 3a5b 00       		.uleb128 0
 18693 3a5c 00       		.uleb128 .LVU199
 18694 3a5d 00       		.uleb128 .LVU199
 18695 3a5e 00       		.uleb128 .LVU274
 18696 3a5f 00       		.uleb128 .LVU274
ARM GAS  /var/folders/cs/83z6p2tj4w57s6p2rt8nwfp00000gn/T//ccDzWS9O.s 			page 356


 18697 3a60 00       		.uleb128 .LVU284
 18698 3a61 00       		.uleb128 .LVU284
 18699 3a62 00       		.uleb128 0
 18700              	.LLST46:
 18701 3a63 00000000 		.4byte	.LVL72
 18702 3a67 24000000 		.4byte	.LVL74
 18703 3a6b 0100     		.2byte	0x1
 18704 3a6d 50       		.byte	0x50
 18705 3a6e 24000000 		.4byte	.LVL74
 18706 3a72 B6000000 		.4byte	.LVL97
 18707 3a76 0400     		.2byte	0x4
 18708 3a78 F3       		.byte	0xf3
 18709 3a79 01       		.uleb128 0x1
 18710 3a7a 50       		.byte	0x50
 18711 3a7b 9F       		.byte	0x9f
 18712 3a7c B6000000 		.4byte	.LVL97
 18713 3a80 CE000000 		.4byte	.LVL101
 18714 3a84 0100     		.2byte	0x1
 18715 3a86 50       		.byte	0x50
 18716 3a87 CE000000 		.4byte	.LVL101
 18717 3a8b DE000000 		.4byte	.LFE28
 18718 3a8f 0400     		.2byte	0x4
 18719 3a91 F3       		.byte	0xf3
 18720 3a92 01       		.uleb128 0x1
 18721 3a93 50       		.byte	0x50
 18722 3a94 9F       		.byte	0x9f
 18723 3a95 00000000 		.4byte	0
 18724 3a99 00000000 		.4byte	0
 18725              	.LVUS47:
 18726 3a9d 00       		.uleb128 0
 18727 3a9e 00       		.uleb128 .LVU207
 18728 3a9f 00       		.uleb128 .LVU207
 18729 3aa0 00       		.uleb128 .LVU274
 18730 3aa1 00       		.uleb128 .LVU274
 18731 3aa2 00       		.uleb128 .LVU286
 18732 3aa3 00       		.uleb128 .LVU286
 18733 3aa4 00       		.uleb128 0
 18734              	.LLST47:
 18735 3aa5 00000000 		.4byte	.LVL72
 18736 3aa9 3E000000 		.4byte	.LVL76
 18737 3aad 0100     		.2byte	0x1
 18738 3aaf 51       		.byte	0x51
 18739 3ab0 3E000000 		.4byte	.LVL76
 18740 3ab4 B6000000 		.4byte	.LVL97
 18741 3ab8 0400     		.2byte	0x4
 18742 3aba F3       		.byte	0xf3
 18743 3abb 01       		.uleb128 0x1
 18744 3abc 51       		.byte	0x51
 18745 3abd 9F       		.byte	0x9f
 18746 3abe B6000000 		.4byte	.LVL97
 18747 3ac2 D6000000 		.4byte	.LVL102
 18748 3ac6 0100     		.2byte	0x1
 18749 3ac8 51       		.byte	0x51
 18750 3ac9 D6000000 		.4byte	.LVL102
 18751 3acd DE000000 		.4byte	.LFE28
 18752 3ad1 0400     		.2byte	0x4
 18753 3ad3 F3       		.byte	0xf3
ARM GAS  /var/folders/cs/83z6p2tj4w57s6p2rt8nwfp00000gn/T//ccDzWS9O.s 			page 357


 18754 3ad4 01       		.uleb128 0x1
 18755 3ad5 51       		.byte	0x51
 18756 3ad6 9F       		.byte	0x9f
 18757 3ad7 00000000 		.4byte	0
 18758 3adb 00000000 		.4byte	0
 18759              	.LVUS48:
 18760 3adf 00       		.uleb128 0
 18761 3ae0 00       		.uleb128 .LVU223
 18762 3ae1 00       		.uleb128 .LVU223
 18763 3ae2 01       		.uleb128 .LVU232
 18764 3ae3 01       		.uleb128 .LVU232
 18765 3ae4 01       		.uleb128 .LVU277
 18766 3ae5 01       		.uleb128 .LVU277
 18767 3ae6 00       		.uleb128 .LVU279
 18768 3ae7 00       		.uleb128 .LVU279
 18769 3ae8 00       		.uleb128 0
 18770              	.LLST48:
 18771 3ae9 00000000 		.4byte	.LVL72
 18772 3aed 66000000 		.4byte	.LVL82
 18773 3af1 0100     		.2byte	0x1
 18774 3af3 52       		.byte	0x52
 18775 3af4 66000000 		.4byte	.LVL82
 18776 3af8 7C000000 		.4byte	.LVL86
 18777 3afc 0300     		.2byte	0x3
 18778 3afe 72       		.byte	0x72
 18779 3aff 7F       		.sleb128 -1
 18780 3b00 9F       		.byte	0x9f
 18781 3b01 7C000000 		.4byte	.LVL86
 18782 3b05 BE000000 		.4byte	.LVL98
 18783 3b09 0100     		.2byte	0x1
 18784 3b0b 52       		.byte	0x52
 18785 3b0c BE000000 		.4byte	.LVL98
 18786 3b10 CA000000 		.4byte	.LVL100
 18787 3b14 0200     		.2byte	0x2
 18788 3b16 30       		.byte	0x30
 18789 3b17 9F       		.byte	0x9f
 18790 3b18 CA000000 		.4byte	.LVL100
 18791 3b1c DE000000 		.4byte	.LFE28
 18792 3b20 0100     		.2byte	0x1
 18793 3b22 52       		.byte	0x52
 18794 3b23 00000000 		.4byte	0
 18795 3b27 00000000 		.4byte	0
 18796              	.LVUS49:
 18797 3b2b 00       		.uleb128 0
 18798 3b2c 00       		.uleb128 .LVU198
 18799 3b2d 00       		.uleb128 .LVU198
 18800 3b2e 01       		.uleb128 .LVU200
 18801 3b2f 01       		.uleb128 .LVU200
 18802 3b30 00       		.uleb128 .LVU208
 18803 3b31 00       		.uleb128 .LVU274
 18804 3b32 00       		.uleb128 .LVU278
 18805 3b33 00       		.uleb128 .LVU278
 18806 3b34 01       		.uleb128 .LVU280
 18807 3b35 01       		.uleb128 .LVU280
 18808 3b36 00       		.uleb128 .LVU286
 18809              	.LLST49:
 18810 3b37 00000000 		.4byte	.LVL72
ARM GAS  /var/folders/cs/83z6p2tj4w57s6p2rt8nwfp00000gn/T//ccDzWS9O.s 			page 358


 18811 3b3b 20000000 		.4byte	.LVL73
 18812 3b3f 0100     		.2byte	0x1
 18813 3b41 53       		.byte	0x53
 18814 3b42 20000000 		.4byte	.LVL73
 18815 3b46 24000000 		.4byte	.LVL74
 18816 3b4a 0400     		.2byte	0x4
 18817 3b4c F3       		.byte	0xf3
 18818 3b4d 01       		.uleb128 0x1
 18819 3b4e 53       		.byte	0x53
 18820 3b4f 9F       		.byte	0x9f
 18821 3b50 24000000 		.4byte	.LVL74
 18822 3b54 40000000 		.4byte	.LVL77
 18823 3b58 0100     		.2byte	0x1
 18824 3b5a 53       		.byte	0x53
 18825 3b5b B6000000 		.4byte	.LVL97
 18826 3b5f C8000000 		.4byte	.LVL99
 18827 3b63 0100     		.2byte	0x1
 18828 3b65 53       		.byte	0x53
 18829 3b66 C8000000 		.4byte	.LVL99
 18830 3b6a CA000000 		.4byte	.LVL100
 18831 3b6e 0400     		.2byte	0x4
 18832 3b70 F3       		.byte	0xf3
 18833 3b71 01       		.uleb128 0x1
 18834 3b72 53       		.byte	0x53
 18835 3b73 9F       		.byte	0x9f
 18836 3b74 CA000000 		.4byte	.LVL100
 18837 3b78 D6000000 		.4byte	.LVL102
 18838 3b7c 0100     		.2byte	0x1
 18839 3b7e 53       		.byte	0x53
 18840 3b7f 00000000 		.4byte	0
 18841 3b83 00000000 		.4byte	0
 18842              	.LVUS50:
 18843 3b87 00       		.uleb128 0
 18844 3b88 00       		.uleb128 .LVU199
 18845 3b89 00       		.uleb128 .LVU199
 18846 3b8a 00       		.uleb128 .LVU226
 18847 3b8b 02       		.uleb128 .LVU233
 18848 3b8c 00       		.uleb128 .LVU274
 18849 3b8d 00       		.uleb128 .LVU274
 18850 3b8e 00       		.uleb128 .LVU276
 18851 3b8f 00       		.uleb128 .LVU276
 18852 3b90 00       		.uleb128 0
 18853              	.LLST50:
 18854 3b91 00000000 		.4byte	.LVL72
 18855 3b95 24000000 		.4byte	.LVL74
 18856 3b99 0200     		.2byte	0x2
 18857 3b9b 91       		.byte	0x91
 18858 3b9c 00       		.sleb128 0
 18859 3b9d 24000000 		.4byte	.LVL74
 18860 3ba1 70000000 		.4byte	.LVL83
 18861 3ba5 0100     		.2byte	0x1
 18862 3ba7 54       		.byte	0x54
 18863 3ba8 7C000000 		.4byte	.LVL86
 18864 3bac B6000000 		.4byte	.LVL97
 18865 3bb0 0100     		.2byte	0x1
 18866 3bb2 54       		.byte	0x54
 18867 3bb3 B6000000 		.4byte	.LVL97
ARM GAS  /var/folders/cs/83z6p2tj4w57s6p2rt8nwfp00000gn/T//ccDzWS9O.s 			page 359


 18868 3bb7 BE000000 		.4byte	.LVL98
 18869 3bbb 0200     		.2byte	0x2
 18870 3bbd 91       		.byte	0x91
 18871 3bbe 00       		.sleb128 0
 18872 3bbf BE000000 		.4byte	.LVL98
 18873 3bc3 DE000000 		.4byte	.LFE28
 18874 3bc7 0100     		.2byte	0x1
 18875 3bc9 54       		.byte	0x54
 18876 3bca 00000000 		.4byte	0
 18877 3bce 00000000 		.4byte	0
 18878              	.LVUS51:
 18879 3bd2 00       		.uleb128 0
 18880 3bd3 00       		.uleb128 .LVU274
 18881 3bd4 00       		.uleb128 .LVU274
 18882 3bd5 00       		.uleb128 0
 18883              	.LLST51:
 18884 3bd6 00000000 		.4byte	.LVL72
 18885 3bda B6000000 		.4byte	.LVL97
 18886 3bde 0200     		.2byte	0x2
 18887 3be0 91       		.byte	0x91
 18888 3be1 04       		.sleb128 4
 18889 3be2 B6000000 		.4byte	.LVL97
 18890 3be6 DE000000 		.4byte	.LFE28
 18891 3bea 0200     		.2byte	0x2
 18892 3bec 91       		.byte	0x91
 18893 3bed 04       		.sleb128 4
 18894 3bee 00000000 		.4byte	0
 18895 3bf2 00000000 		.4byte	0
 18896              	.LVUS52:
 18897 3bf6 00       		.uleb128 0
 18898 3bf7 00       		.uleb128 .LVU274
 18899 3bf8 00       		.uleb128 .LVU274
 18900 3bf9 00       		.uleb128 0
 18901              	.LLST52:
 18902 3bfa 00000000 		.4byte	.LVL72
 18903 3bfe B6000000 		.4byte	.LVL97
 18904 3c02 0200     		.2byte	0x2
 18905 3c04 91       		.byte	0x91
 18906 3c05 08       		.sleb128 8
 18907 3c06 B6000000 		.4byte	.LVL97
 18908 3c0a DE000000 		.4byte	.LFE28
 18909 3c0e 0200     		.2byte	0x2
 18910 3c10 91       		.byte	0x91
 18911 3c11 08       		.sleb128 8
 18912 3c12 00000000 		.4byte	0
 18913 3c16 00000000 		.4byte	0
 18914              	.LVUS53:
 18915 3c1a 02       		.uleb128 .LVU201
 18916 3c1b 00       		.uleb128 .LVU208
 18917 3c1c 00       		.uleb128 .LVU213
 18918 3c1d 00       		.uleb128 .LVU248
 18919 3c1e 00       		.uleb128 .LVU253
 18920 3c1f 00       		.uleb128 .LVU255
 18921 3c20 02       		.uleb128 .LVU281
 18922 3c21 00       		.uleb128 .LVU286
 18923              	.LLST53:
 18924 3c22 24000000 		.4byte	.LVL74
ARM GAS  /var/folders/cs/83z6p2tj4w57s6p2rt8nwfp00000gn/T//ccDzWS9O.s 			page 360


 18925 3c26 40000000 		.4byte	.LVL77
 18926 3c2a 0200     		.2byte	0x2
 18927 3c2c 30       		.byte	0x30
 18928 3c2d 9F       		.byte	0x9f
 18929 3c2e 54000000 		.4byte	.LVL79
 18930 3c32 8C000000 		.4byte	.LVL89
 18931 3c36 0100     		.2byte	0x1
 18932 3c38 55       		.byte	0x55
 18933 3c39 96000000 		.4byte	.LVL90
 18934 3c3d 98000000 		.4byte	.LVL91
 18935 3c41 0100     		.2byte	0x1
 18936 3c43 55       		.byte	0x55
 18937 3c44 CA000000 		.4byte	.LVL100
 18938 3c48 D6000000 		.4byte	.LVL102
 18939 3c4c 0200     		.2byte	0x2
 18940 3c4e 30       		.byte	0x30
 18941 3c4f 9F       		.byte	0x9f
 18942 3c50 00000000 		.4byte	0
 18943 3c54 00000000 		.4byte	0
 18944              	.LVUS54:
 18945 3c58 03       		.uleb128 .LVU202
 18946 3c59 00       		.uleb128 .LVU204
 18947 3c5a 00       		.uleb128 .LVU208
 18948 3c5b 00       		.uleb128 .LVU213
 18949 3c5c 00       		.uleb128 .LVU213
 18950 3c5d 00       		.uleb128 .LVU227
 18951 3c5e 00       		.uleb128 .LVU227
 18952 3c5f 00       		.uleb128 .LVU253
 18953 3c60 00       		.uleb128 .LVU253
 18954 3c61 00       		.uleb128 .LVU255
 18955 3c62 03       		.uleb128 .LVU282
 18956 3c63 00       		.uleb128 .LVU284
 18957              	.LLST54:
 18958 3c64 24000000 		.4byte	.LVL74
 18959 3c68 28000000 		.4byte	.LVL75
 18960 3c6c 0800     		.2byte	0x8
 18961 3c6e 75       		.byte	0x75
 18962 3c6f 00       		.sleb128 0
 18963 3c70 32       		.byte	0x32
 18964 3c71 24       		.byte	0x24
 18965 3c72 70       		.byte	0x70
 18966 3c73 00       		.sleb128 0
 18967 3c74 22       		.byte	0x22
 18968 3c75 9F       		.byte	0x9f
 18969 3c76 40000000 		.4byte	.LVL77
 18970 3c7a 54000000 		.4byte	.LVL79
 18971 3c7e 0100     		.2byte	0x1
 18972 3c80 56       		.byte	0x56
 18973 3c81 54000000 		.4byte	.LVL79
 18974 3c85 74000000 		.4byte	.LVL84
 18975 3c89 0100     		.2byte	0x1
 18976 3c8b 50       		.byte	0x50
 18977 3c8c 74000000 		.4byte	.LVL84
 18978 3c90 96000000 		.4byte	.LVL90
 18979 3c94 0100     		.2byte	0x1
 18980 3c96 56       		.byte	0x56
 18981 3c97 96000000 		.4byte	.LVL90
ARM GAS  /var/folders/cs/83z6p2tj4w57s6p2rt8nwfp00000gn/T//ccDzWS9O.s 			page 361


 18982 3c9b 98000000 		.4byte	.LVL91
 18983 3c9f 0100     		.2byte	0x1
 18984 3ca1 50       		.byte	0x50
 18985 3ca2 CA000000 		.4byte	.LVL100
 18986 3ca6 CE000000 		.4byte	.LVL101
 18987 3caa 0A00     		.2byte	0xa
 18988 3cac 72       		.byte	0x72
 18989 3cad 00       		.sleb128 0
 18990 3cae 35       		.byte	0x35
 18991 3caf 26       		.byte	0x26
 18992 3cb0 32       		.byte	0x32
 18993 3cb1 24       		.byte	0x24
 18994 3cb2 70       		.byte	0x70
 18995 3cb3 00       		.sleb128 0
 18996 3cb4 22       		.byte	0x22
 18997 3cb5 9F       		.byte	0x9f
 18998 3cb6 00000000 		.4byte	0
 18999 3cba 00000000 		.4byte	0
 19000              	.LVUS55:
 19001 3cbe 00       		.uleb128 .LVU221
 19002 3cbf 00       		.uleb128 .LVU238
 19003              	.LLST55:
 19004 3cc0 64000000 		.4byte	.LVL81
 19005 3cc4 80000000 		.4byte	.LVL87
 19006 3cc8 0100     		.2byte	0x1
 19007 3cca 59       		.byte	0x59
 19008 3ccb 00000000 		.4byte	0
 19009 3ccf 00000000 		.4byte	0
 19010              	.LVUS56:
 19011 3cd3 00       		.uleb128 .LVU208
 19012 3cd4 00       		.uleb128 .LVU210
 19013 3cd5 00       		.uleb128 .LVU210
 19014 3cd6 00       		.uleb128 .LVU213
 19015 3cd7 01       		.uleb128 .LVU243
 19016 3cd8 00       		.uleb128 .LVU253
 19017              	.LLST56:
 19018 3cd9 40000000 		.4byte	.LVL77
 19019 3cdd 48000000 		.4byte	.LVL78
 19020 3ce1 0100     		.2byte	0x1
 19021 3ce3 53       		.byte	0x53
 19022 3ce4 48000000 		.4byte	.LVL78
 19023 3ce8 54000000 		.4byte	.LVL79
 19024 3cec 0100     		.2byte	0x1
 19025 3cee 5B       		.byte	0x5b
 19026 3cef 8A000000 		.4byte	.LVL88
 19027 3cf3 96000000 		.4byte	.LVL90
 19028 3cf7 0100     		.2byte	0x1
 19029 3cf9 53       		.byte	0x53
 19030 3cfa 00000000 		.4byte	0
 19031 3cfe 00000000 		.4byte	0
 19032              	.LVUS57:
 19033 3d02 00       		.uleb128 .LVU208
 19034 3d03 00       		.uleb128 .LVU213
 19035 3d04 01       		.uleb128 .LVU243
 19036 3d05 00       		.uleb128 .LVU253
 19037              	.LLST57:
 19038 3d06 40000000 		.4byte	.LVL77
ARM GAS  /var/folders/cs/83z6p2tj4w57s6p2rt8nwfp00000gn/T//ccDzWS9O.s 			page 362


 19039 3d0a 54000000 		.4byte	.LVL79
 19040 3d0e 0100     		.2byte	0x1
 19041 3d10 50       		.byte	0x50
 19042 3d11 8A000000 		.4byte	.LVL88
 19043 3d15 96000000 		.4byte	.LVL90
 19044 3d19 0100     		.2byte	0x1
 19045 3d1b 50       		.byte	0x50
 19046 3d1c 00000000 		.4byte	0
 19047 3d20 00000000 		.4byte	0
 19048              	.LVUS58:
 19049 3d24 03       		.uleb128 .LVU234
 19050 3d25 01       		.uleb128 .LVU243
 19051              	.LLST58:
 19052 3d26 7C000000 		.4byte	.LVL86
 19053 3d2a 8A000000 		.4byte	.LVL88
 19054 3d2e 0100     		.2byte	0x1
 19055 3d30 55       		.byte	0x55
 19056 3d31 00000000 		.4byte	0
 19057 3d35 00000000 		.4byte	0
 19058              	.LVUS59:
 19059 3d39 00       		.uleb128 .LVU242
 19060 3d3a 01       		.uleb128 .LVU243
 19061              	.LLST59:
 19062 3d3b 8A000000 		.4byte	.LVL88
 19063 3d3f 8A000000 		.4byte	.LVL88
 19064 3d43 0100     		.2byte	0x1
 19065 3d45 53       		.byte	0x53
 19066 3d46 00000000 		.4byte	0
 19067 3d4a 00000000 		.4byte	0
 19068              	.LVUS60:
 19069 3d4e 01       		.uleb128 .LVU258
 19070 3d4f 00       		.uleb128 .LVU261
 19071              	.LLST60:
 19072 3d50 9E000000 		.4byte	.LVL92
 19073 3d54 A0000000 		.4byte	.LVL93
 19074 3d58 0100     		.2byte	0x1
 19075 3d5a 55       		.byte	0x55
 19076 3d5b 00000000 		.4byte	0
 19077 3d5f 00000000 		.4byte	0
 19078              	.LVUS61:
 19079 3d63 00       		.uleb128 .LVU261
 19080 3d64 01       		.uleb128 .LVU262
 19081              	.LLST61:
 19082 3d65 A0000000 		.4byte	.LVL93
 19083 3d69 A0000000 		.4byte	.LVL93
 19084 3d6d 0100     		.2byte	0x1
 19085 3d6f 55       		.byte	0x55
 19086 3d70 00000000 		.4byte	0
 19087 3d74 00000000 		.4byte	0
 19088              	.LVUS62:
 19089 3d78 01       		.uleb128 .LVU262
 19090 3d79 00       		.uleb128 .LVU269
 19091 3d7a 00       		.uleb128 .LVU269
 19092 3d7b 00       		.uleb128 .LVU272
 19093 3d7c 00       		.uleb128 .LVU286
 19094 3d7d 00       		.uleb128 0
 19095              	.LLST62:
ARM GAS  /var/folders/cs/83z6p2tj4w57s6p2rt8nwfp00000gn/T//ccDzWS9O.s 			page 363


 19096 3d7e A0000000 		.4byte	.LVL93
 19097 3d82 AA000000 		.4byte	.LVL94
 19098 3d86 0100     		.2byte	0x1
 19099 3d88 5E       		.byte	0x5e
 19100 3d89 AA000000 		.4byte	.LVL94
 19101 3d8d B2000000 		.4byte	.LVL96
 19102 3d91 0200     		.2byte	0x2
 19103 3d93 91       		.byte	0x91
 19104 3d94 08       		.sleb128 8
 19105 3d95 D6000000 		.4byte	.LVL102
 19106 3d99 DE000000 		.4byte	.LFE28
 19107 3d9d 0100     		.2byte	0x1
 19108 3d9f 5E       		.byte	0x5e
 19109 3da0 00000000 		.4byte	0
 19110 3da4 00000000 		.4byte	0
 19111              	.LVUS63:
 19112 3da8 01       		.uleb128 .LVU262
 19113 3da9 00       		.uleb128 .LVU270
 19114 3daa 00       		.uleb128 .LVU286
 19115 3dab 00       		.uleb128 0
 19116              	.LLST63:
 19117 3dac A0000000 		.4byte	.LVL93
 19118 3db0 AE000000 		.4byte	.LVL95
 19119 3db4 0100     		.2byte	0x1
 19120 3db6 55       		.byte	0x55
 19121 3db7 D6000000 		.4byte	.LVL102
 19122 3dbb DE000000 		.4byte	.LFE28
 19123 3dbf 0100     		.2byte	0x1
 19124 3dc1 55       		.byte	0x55
 19125 3dc2 00000000 		.4byte	0
 19126 3dc6 00000000 		.4byte	0
 19127              	.LVUS64:
 19128 3dca 01       		.uleb128 .LVU262
 19129 3dcb 00       		.uleb128 .LVU272
 19130 3dcc 00       		.uleb128 .LVU286
 19131 3dcd 00       		.uleb128 0
 19132              	.LLST64:
 19133 3dce A0000000 		.4byte	.LVL93
 19134 3dd2 B2000000 		.4byte	.LVL96
 19135 3dd6 0100     		.2byte	0x1
 19136 3dd8 50       		.byte	0x50
 19137 3dd9 D6000000 		.4byte	.LVL102
 19138 3ddd DE000000 		.4byte	.LFE28
 19139 3de1 0100     		.2byte	0x1
 19140 3de3 50       		.byte	0x50
 19141 3de4 00000000 		.4byte	0
 19142 3de8 00000000 		.4byte	0
 19143              		.section	.debug_aranges,"",%progbits
 19144 0000 6C000000 		.4byte	0x6c
 19145 0004 0200     		.2byte	0x2
 19146 0006 00000000 		.4byte	.Ldebug_info0
 19147 000a 04       		.byte	0x4
 19148 000b 00       		.byte	0
 19149 000c 0000     		.2byte	0
 19150 000e 0000     		.2byte	0
 19151 0010 00000000 		.4byte	.LFB27
 19152 0014 DE000000 		.4byte	.LFE27-.LFB27
ARM GAS  /var/folders/cs/83z6p2tj4w57s6p2rt8nwfp00000gn/T//ccDzWS9O.s 			page 364


 19153 0018 00000000 		.4byte	.LFB20
 19154 001c D8000000 		.4byte	.LFE20-.LFB20
 19155 0020 00000000 		.4byte	.LFB28
 19156 0024 DE000000 		.4byte	.LFE28-.LFB28
 19157 0028 00000000 		.4byte	.LFB21
 19158 002c 3C010000 		.4byte	.LFE21-.LFB21
 19159 0030 00000000 		.4byte	.LFB12
 19160 0034 44000000 		.4byte	.LFE12-.LFB12
 19161 0038 00000000 		.4byte	.LFB18
 19162 003c 0C030000 		.4byte	.LFE18-.LFB18
 19163 0040 00000000 		.4byte	.LFB19
 19164 0044 E8010000 		.4byte	.LFE19-.LFB19
 19165 0048 00000000 		.4byte	.LFB23
 19166 004c AC020000 		.4byte	.LFE23-.LFB23
 19167 0050 00000000 		.4byte	.LFB24
 19168 0054 52040000 		.4byte	.LFE24-.LFB24
 19169 0058 00000000 		.4byte	.LFB25
 19170 005c 38000000 		.4byte	.LFE25-.LFB25
 19171 0060 00000000 		.4byte	.LFB26
 19172 0064 38000000 		.4byte	.LFE26-.LFB26
 19173 0068 00000000 		.4byte	0
 19174 006c 00000000 		.4byte	0
 19175              		.section	.debug_ranges,"",%progbits
 19176              	.Ldebug_ranges0:
 19177 0000 20000000 		.4byte	.LBB102
 19178 0004 20000000 		.4byte	.LBE102
 19179 0008 26000000 		.4byte	.LBB105
 19180 000c 28000000 		.4byte	.LBE105
 19181 0010 00000000 		.4byte	0
 19182 0014 00000000 		.4byte	0
 19183 0018 2C000000 		.4byte	.LBB106
 19184 001c 2C000000 		.4byte	.LBE106
 19185 0020 38000000 		.4byte	.LBB110
 19186 0024 3A000000 		.4byte	.LBE110
 19187 0028 D2000000 		.4byte	.LBB129
 19188 002c D6000000 		.4byte	.LBE129
 19189 0030 00000000 		.4byte	0
 19190 0034 00000000 		.4byte	0
 19191 0038 48000000 		.4byte	.LBB111
 19192 003c 9A000000 		.4byte	.LBE111
 19193 0040 C0000000 		.4byte	.LBB127
 19194 0044 C4000000 		.4byte	.LBE127
 19195 0048 D6000000 		.4byte	.LBB130
 19196 004c DA000000 		.4byte	.LBE130
 19197 0050 00000000 		.4byte	0
 19198 0054 00000000 		.4byte	0
 19199 0058 4E000000 		.4byte	.LBB112
 19200 005c 52000000 		.4byte	.LBE112
 19201 0060 56000000 		.4byte	.LBB116
 19202 0064 68000000 		.4byte	.LBE116
 19203 0068 C0000000 		.4byte	.LBB121
 19204 006c C4000000 		.4byte	.LBE121
 19205 0070 00000000 		.4byte	0
 19206 0074 00000000 		.4byte	0
 19207 0078 9E000000 		.4byte	.LBB122
 19208 007c BA000000 		.4byte	.LBE122
 19209 0080 C4000000 		.4byte	.LBB128
ARM GAS  /var/folders/cs/83z6p2tj4w57s6p2rt8nwfp00000gn/T//ccDzWS9O.s 			page 365


 19210 0084 D2000000 		.4byte	.LBE128
 19211 0088 DA000000 		.4byte	.LBB131
 19212 008c DE000000 		.4byte	.LBE131
 19213 0090 00000000 		.4byte	0
 19214 0094 00000000 		.4byte	0
 19215 0098 A8000000 		.4byte	.LBB123
 19216 009c BA000000 		.4byte	.LBE123
 19217 00a0 C4000000 		.4byte	.LBB126
 19218 00a4 CA000000 		.4byte	.LBE126
 19219 00a8 00000000 		.4byte	0
 19220 00ac 00000000 		.4byte	0
 19221 00b0 3C000000 		.4byte	.LBB133
 19222 00b4 3E000000 		.4byte	.LBE133
 19223 00b8 40000000 		.4byte	.LBB139
 19224 00bc 40000000 		.4byte	.LBE139
 19225 00c0 44000000 		.4byte	.LBB140
 19226 00c4 46000000 		.4byte	.LBE140
 19227 00c8 4C000000 		.4byte	.LBB141
 19228 00cc 58000000 		.4byte	.LBE141
 19229 00d0 6A000000 		.4byte	.LBB142
 19230 00d4 72000000 		.4byte	.LBE142
 19231 00d8 00000000 		.4byte	0
 19232 00dc 00000000 		.4byte	0
 19233 00e0 30000000 		.4byte	.LBB144
 19234 00e4 54000000 		.4byte	.LBE144
 19235 00e8 58000000 		.4byte	.LBB161
 19236 00ec 8E000000 		.4byte	.LBE161
 19237 00f0 90000000 		.4byte	.LBB162
 19238 00f4 96000000 		.4byte	.LBE162
 19239 00f8 00000000 		.4byte	0
 19240 00fc 00000000 		.4byte	0
 19241 0100 40000000 		.4byte	.LBB145
 19242 0104 52000000 		.4byte	.LBE145
 19243 0108 84000000 		.4byte	.LBB156
 19244 010c 88000000 		.4byte	.LBE156
 19245 0110 8A000000 		.4byte	.LBB158
 19246 0114 8A000000 		.4byte	.LBE158
 19247 0118 8C000000 		.4byte	.LBB159
 19248 011c 8E000000 		.4byte	.LBE159
 19249 0120 90000000 		.4byte	.LBB160
 19250 0124 94000000 		.4byte	.LBE160
 19251 0128 00000000 		.4byte	0
 19252 012c 00000000 		.4byte	0
 19253 0130 7C000000 		.4byte	.LBB151
 19254 0134 7C000000 		.4byte	.LBE151
 19255 0138 82000000 		.4byte	.LBB155
 19256 013c 84000000 		.4byte	.LBE155
 19257 0140 88000000 		.4byte	.LBB157
 19258 0144 8A000000 		.4byte	.LBE157
 19259 0148 00000000 		.4byte	0
 19260 014c 00000000 		.4byte	0
 19261 0150 A0000000 		.4byte	.LBB165
 19262 0154 B2000000 		.4byte	.LBE165
 19263 0158 D6000000 		.4byte	.LBB168
 19264 015c DA000000 		.4byte	.LBE168
 19265 0160 00000000 		.4byte	0
 19266 0164 00000000 		.4byte	0
ARM GAS  /var/folders/cs/83z6p2tj4w57s6p2rt8nwfp00000gn/T//ccDzWS9O.s 			page 366


 19267 0168 48000000 		.4byte	.LBB170
 19268 016c 4C000000 		.4byte	.LBE170
 19269 0170 50000000 		.4byte	.LBB177
 19270 0174 52000000 		.4byte	.LBE177
 19271 0178 58000000 		.4byte	.LBB178
 19272 017c 72000000 		.4byte	.LBE178
 19273 0180 78000000 		.4byte	.LBB179
 19274 0184 7A000000 		.4byte	.LBE179
 19275 0188 7E000000 		.4byte	.LBB180
 19276 018c 84000000 		.4byte	.LBE180
 19277 0190 90000000 		.4byte	.LBB181
 19278 0194 98000000 		.4byte	.LBE181
 19279 0198 00000000 		.4byte	0
 19280 019c 00000000 		.4byte	0
 19281 01a0 8E000000 		.4byte	.LBB183
 19282 01a4 92000000 		.4byte	.LBE183
 19283 01a8 9A000000 		.4byte	.LBB188
 19284 01ac 9E000000 		.4byte	.LBE188
 19285 01b0 A2000000 		.4byte	.LBB189
 19286 01b4 BE000000 		.4byte	.LBE189
 19287 01b8 9A020000 		.4byte	.LBB213
 19288 01bc A8020000 		.4byte	.LBE213
 19289 01c0 00000000 		.4byte	0
 19290 01c4 00000000 		.4byte	0
 19291 01c8 10010000 		.4byte	.LBB190
 19292 01cc 14010000 		.4byte	.LBE190
 19293 01d0 1C010000 		.4byte	.LBB195
 19294 01d4 20010000 		.4byte	.LBE195
 19295 01d8 24010000 		.4byte	.LBB196
 19296 01dc 40010000 		.4byte	.LBE196
 19297 01e0 D8020000 		.4byte	.LBB216
 19298 01e4 0C030000 		.4byte	.LBE216
 19299 01e8 00000000 		.4byte	0
 19300 01ec 00000000 		.4byte	0
 19301 01f0 40010000 		.4byte	.LBB197
 19302 01f4 60010000 		.4byte	.LBE197
 19303 01f8 CA020000 		.4byte	.LBB215
 19304 01fc D8020000 		.4byte	.LBE215
 19305 0200 00000000 		.4byte	0
 19306 0204 00000000 		.4byte	0
 19307 0208 7C010000 		.4byte	.LBB200
 19308 020c B4010000 		.4byte	.LBE200
 19309 0210 B8010000 		.4byte	.LBB211
 19310 0214 26020000 		.4byte	.LBE211
 19311 0218 A8020000 		.4byte	.LBB214
 19312 021c BA020000 		.4byte	.LBE214
 19313 0220 00000000 		.4byte	0
 19314 0224 00000000 		.4byte	0
 19315 0228 EC010000 		.4byte	.LBB203
 19316 022c EE010000 		.4byte	.LBE203
 19317 0230 F0010000 		.4byte	.LBB208
 19318 0234 F4010000 		.4byte	.LBE208
 19319 0238 FA010000 		.4byte	.LBB209
 19320 023c 1A020000 		.4byte	.LBE209
 19321 0240 1C020000 		.4byte	.LBB210
 19322 0244 20020000 		.4byte	.LBE210
 19323 0248 00000000 		.4byte	0
ARM GAS  /var/folders/cs/83z6p2tj4w57s6p2rt8nwfp00000gn/T//ccDzWS9O.s 			page 367


 19324 024c 00000000 		.4byte	0
 19325 0250 88000000 		.4byte	.LBB217
 19326 0254 90000000 		.4byte	.LBE217
 19327 0258 94000000 		.4byte	.LBB223
 19328 025c 9C000000 		.4byte	.LBE223
 19329 0260 A0000000 		.4byte	.LBB224
 19330 0264 A4000000 		.4byte	.LBE224
 19331 0268 A8000000 		.4byte	.LBB225
 19332 026c BC000000 		.4byte	.LBE225
 19333 0270 B8010000 		.4byte	.LBB235
 19334 0274 C6010000 		.4byte	.LBE235
 19335 0278 00000000 		.4byte	0
 19336 027c 00000000 		.4byte	0
 19337 0280 D4000000 		.4byte	.LBB226
 19338 0284 F6000000 		.4byte	.LBE226
 19339 0288 FA000000 		.4byte	.LBB233
 19340 028c 44010000 		.4byte	.LBE233
 19341 0290 C6010000 		.4byte	.LBB236
 19342 0294 D8010000 		.4byte	.LBE236
 19343 0298 00000000 		.4byte	0
 19344 029c 00000000 		.4byte	0
 19345 02a0 2E010000 		.4byte	.LBB229
 19346 02a4 30010000 		.4byte	.LBE229
 19347 02a8 34010000 		.4byte	.LBB232
 19348 02ac 3A010000 		.4byte	.LBE232
 19349 02b0 00000000 		.4byte	0
 19350 02b4 00000000 		.4byte	0
 19351 02b8 00000000 		.4byte	.LBB249
 19352 02bc 0C000000 		.4byte	.LBE249
 19353 02c0 12000000 		.4byte	.LBB259
 19354 02c4 16000000 		.4byte	.LBE259
 19355 02c8 1E000000 		.4byte	.LBB260
 19356 02cc 48000000 		.4byte	.LBE260
 19357 02d0 B4010000 		.4byte	.LBB287
 19358 02d4 FE010000 		.4byte	.LBE287
 19359 02d8 6A020000 		.4byte	.LBB289
 19360 02dc 7A020000 		.4byte	.LBE289
 19361 02e0 96020000 		.4byte	.LBB292
 19362 02e4 AC020000 		.4byte	.LBE292
 19363 02e8 00000000 		.4byte	0
 19364 02ec 00000000 		.4byte	0
 19365 02f0 C8010000 		.4byte	.LBB251
 19366 02f4 E6010000 		.4byte	.LBE251
 19367 02f8 96020000 		.4byte	.LBB253
 19368 02fc AC020000 		.4byte	.LBE253
 19369 0300 00000000 		.4byte	0
 19370 0304 00000000 		.4byte	0
 19371 0308 6E000000 		.4byte	.LBB261
 19372 030c 72000000 		.4byte	.LBE261
 19373 0310 76000000 		.4byte	.LBB269
 19374 0314 7A000000 		.4byte	.LBE269
 19375 0318 7E000000 		.4byte	.LBB270
 19376 031c 82000000 		.4byte	.LBE270
 19377 0320 86000000 		.4byte	.LBB271
 19378 0324 8A000000 		.4byte	.LBE271
 19379 0328 8E000000 		.4byte	.LBB272
 19380 032c 92000000 		.4byte	.LBE272
ARM GAS  /var/folders/cs/83z6p2tj4w57s6p2rt8nwfp00000gn/T//ccDzWS9O.s 			page 368


 19381 0330 96000000 		.4byte	.LBB273
 19382 0334 AE000000 		.4byte	.LBE273
 19383 0338 88020000 		.4byte	.LBB291
 19384 033c 96020000 		.4byte	.LBE291
 19385 0340 00000000 		.4byte	0
 19386 0344 00000000 		.4byte	0
 19387 0348 AE000000 		.4byte	.LBB274
 19388 034c DA000000 		.4byte	.LBE274
 19389 0350 7A020000 		.4byte	.LBB290
 19390 0354 88020000 		.4byte	.LBE290
 19391 0358 00000000 		.4byte	0
 19392 035c 00000000 		.4byte	0
 19393 0360 32010000 		.4byte	.LBB277
 19394 0364 3A010000 		.4byte	.LBE277
 19395 0368 3E010000 		.4byte	.LBB283
 19396 036c 46010000 		.4byte	.LBE283
 19397 0370 48010000 		.4byte	.LBB284
 19398 0374 50010000 		.4byte	.LBE284
 19399 0378 54010000 		.4byte	.LBB285
 19400 037c 66010000 		.4byte	.LBE285
 19401 0380 6C010000 		.4byte	.LBB286
 19402 0384 70010000 		.4byte	.LBE286
 19403 0388 00000000 		.4byte	0
 19404 038c 00000000 		.4byte	0
 19405 0390 00000000 		.4byte	.LBB315
 19406 0394 0C000000 		.4byte	.LBE315
 19407 0398 12000000 		.4byte	.LBB327
 19408 039c 16000000 		.4byte	.LBE327
 19409 03a0 1C000000 		.4byte	.LBB328
 19410 03a4 4E000000 		.4byte	.LBE328
 19411 03a8 B0020000 		.4byte	.LBB353
 19412 03ac FE020000 		.4byte	.LBE353
 19413 03b0 FE020000 		.4byte	.LBB354
 19414 03b4 02030000 		.4byte	.LBE354
 19415 03b8 88030000 		.4byte	.LBB361
 19416 03bc A2030000 		.4byte	.LBE361
 19417 03c0 3E040000 		.4byte	.LBB369
 19418 03c4 52040000 		.4byte	.LBE369
 19419 03c8 00000000 		.4byte	0
 19420 03cc 00000000 		.4byte	0
 19421 03d0 C4020000 		.4byte	.LBB317
 19422 03d4 E4020000 		.4byte	.LBE317
 19423 03d8 3E040000 		.4byte	.LBB320
 19424 03dc 52040000 		.4byte	.LBE320
 19425 03e0 00000000 		.4byte	0
 19426 03e4 00000000 		.4byte	0
 19427 03e8 E4020000 		.4byte	.LBB318
 19428 03ec FE020000 		.4byte	.LBE318
 19429 03f0 FE020000 		.4byte	.LBB319
 19430 03f4 02030000 		.4byte	.LBE319
 19431 03f8 00000000 		.4byte	0
 19432 03fc 00000000 		.4byte	0
 19433 0400 C0000000 		.4byte	.LBB329
 19434 0404 C4000000 		.4byte	.LBE329
 19435 0408 C8000000 		.4byte	.LBB333
 19436 040c E4000000 		.4byte	.LBE333
 19437 0410 D0030000 		.4byte	.LBB365
ARM GAS  /var/folders/cs/83z6p2tj4w57s6p2rt8nwfp00000gn/T//ccDzWS9O.s 			page 369


 19438 0414 F0030000 		.4byte	.LBE365
 19439 0418 00000000 		.4byte	0
 19440 041c 00000000 		.4byte	0
 19441 0420 E4000000 		.4byte	.LBB334
 19442 0424 04010000 		.4byte	.LBE334
 19443 0428 C2030000 		.4byte	.LBB364
 19444 042c D0030000 		.4byte	.LBE364
 19445 0430 00000000 		.4byte	0
 19446 0434 00000000 		.4byte	0
 19447 0438 62010000 		.4byte	.LBB337
 19448 043c 8A010000 		.4byte	.LBE337
 19449 0440 B0030000 		.4byte	.LBB363
 19450 0444 BE030000 		.4byte	.LBE363
 19451 0448 00000000 		.4byte	0
 19452 044c 00000000 		.4byte	0
 19453 0450 00020000 		.4byte	.LBB342
 19454 0454 08020000 		.4byte	.LBE342
 19455 0458 0C020000 		.4byte	.LBB348
 19456 045c 2C020000 		.4byte	.LBE348
 19457 0460 2E020000 		.4byte	.LBB349
 19458 0464 36020000 		.4byte	.LBE349
 19459 0468 F0030000 		.4byte	.LBB366
 19460 046c F0030000 		.4byte	.LBE366
 19461 0470 F2030000 		.4byte	.LBB367
 19462 0474 F6030000 		.4byte	.LBE367
 19463 0478 00000000 		.4byte	0
 19464 047c 00000000 		.4byte	0
 19465 0480 3A020000 		.4byte	.LBB350
 19466 0484 46020000 		.4byte	.LBE350
 19467 0488 F8030000 		.4byte	.LBB368
 19468 048c 02040000 		.4byte	.LBE368
 19469 0490 00000000 		.4byte	0
 19470 0494 00000000 		.4byte	0
 19471 0498 42030000 		.4byte	.LBB356
 19472 049c 68030000 		.4byte	.LBE356
 19473 04a0 A2030000 		.4byte	.LBB362
 19474 04a4 B0030000 		.4byte	.LBE362
 19475 04a8 00000000 		.4byte	0
 19476 04ac 00000000 		.4byte	0
 19477 04b0 00000000 		.4byte	.LFB27
 19478 04b4 DE000000 		.4byte	.LFE27
 19479 04b8 00000000 		.4byte	.LFB20
 19480 04bc D8000000 		.4byte	.LFE20
 19481 04c0 00000000 		.4byte	.LFB28
 19482 04c4 DE000000 		.4byte	.LFE28
 19483 04c8 00000000 		.4byte	.LFB21
 19484 04cc 3C010000 		.4byte	.LFE21
 19485 04d0 00000000 		.4byte	.LFB12
 19486 04d4 44000000 		.4byte	.LFE12
 19487 04d8 00000000 		.4byte	.LFB18
 19488 04dc 0C030000 		.4byte	.LFE18
 19489 04e0 00000000 		.4byte	.LFB19
 19490 04e4 E8010000 		.4byte	.LFE19
 19491 04e8 00000000 		.4byte	.LFB23
 19492 04ec AC020000 		.4byte	.LFE23
 19493 04f0 00000000 		.4byte	.LFB24
 19494 04f4 52040000 		.4byte	.LFE24
ARM GAS  /var/folders/cs/83z6p2tj4w57s6p2rt8nwfp00000gn/T//ccDzWS9O.s 			page 370


 19495 04f8 00000000 		.4byte	.LFB25
 19496 04fc 38000000 		.4byte	.LFE25
 19497 0500 00000000 		.4byte	.LFB26
 19498 0504 38000000 		.4byte	.LFE26
 19499 0508 00000000 		.4byte	0
 19500 050c 00000000 		.4byte	0
 19501              		.section	.debug_line,"",%progbits
 19502              	.Ldebug_line0:
 19503 0000 77130000 		.section	.debug_str,"MS",%progbits,1
 19503      0300FA01 
 19503      00000201 
 19503      FB0E0D00 
 19503      01010101 
 19504              	.LASF136:
 19505 0000 5F5F6664 		.ascii	"__fdlibm_xopen\000"
 19505      6C69626D 
 19505      5F786F70 
 19505      656E00
 19506              	.LASF174:
 19507 000f 656E646D 		.ascii	"endmask\000"
 19507      61736B00 
 19508              	.LASF49:
 19509 0017 5F6F6E5F 		.ascii	"_on_exit_args\000"
 19509      65786974 
 19509      5F617267 
 19509      7300
 19510              	.LASF116:
 19511 0025 5F776374 		.ascii	"_wctomb_state\000"
 19511      6F6D625F 
 19511      73746174 
 19511      6500
 19512              	.LASF113:
 19513 0033 5F723438 		.ascii	"_r48\000"
 19513      00
 19514              	.LASF147:
 19515 0038 7A627566 		.ascii	"zbuf\000"
 19515      00
 19516              	.LASF118:
 19517 003d 5F736967 		.ascii	"_signal_buf\000"
 19517      6E616C5F 
 19517      62756600 
 19518              	.LASF14:
 19519 0049 756E7369 		.ascii	"unsigned int\000"
 19519      676E6564 
 19519      20696E74 
 19519      00
 19520              	.LASF179:
 19521 0056 7A6D696E 		.ascii	"zmin\000"
 19521      00
 19522              	.LASF63:
 19523 005b 5F6C6266 		.ascii	"_lbfsize\000"
 19523      73697A65 
 19523      00
 19524              	.LASF61:
 19525 0064 5F666C61 		.ascii	"_flags\000"
 19525      677300
 19526              	.LASF8:
ARM GAS  /var/folders/cs/83z6p2tj4w57s6p2rt8nwfp00000gn/T//ccDzWS9O.s 			page 371


 19527 006b 5F5F696E 		.ascii	"__int32_t\000"
 19527      7433325F 
 19527      7400
 19528              	.LASF78:
 19529 0075 5F657272 		.ascii	"_errno\000"
 19529      6E6F00
 19530              	.LASF75:
 19531 007c 5F6D6273 		.ascii	"_mbstate\000"
 19531      74617465 
 19531      00
 19532              	.LASF65:
 19533 0085 5F726561 		.ascii	"_read\000"
 19533      6400
 19534              	.LASF120:
 19535 008b 5F6D6272 		.ascii	"_mbrlen_state\000"
 19535      6C656E5F 
 19535      73746174 
 19535      6500
 19536              	.LASF168:
 19537 0099 656E6478 		.ascii	"endx\000"
 19537      00
 19538              	.LASF155:
 19539 009e 656E6479 		.ascii	"endy\000"
 19539      00
 19540              	.LASF80:
 19541 00a3 5F737464 		.ascii	"_stdout\000"
 19541      6F757400 
 19542              	.LASF24:
 19543 00ab 5F66706F 		.ascii	"_fpos_t\000"
 19543      735F7400 
 19544              	.LASF141:
 19545 00b3 696E7665 		.ascii	"inverting\000"
 19545      7274696E 
 19545      6700
 19546              	.LASF56:
 19547 00bd 5F666E73 		.ascii	"_fns\000"
 19547      00
 19548              	.LASF64:
 19549 00c2 5F636F6F 		.ascii	"_cookie\000"
 19549      6B696500 
 19550              	.LASF38:
 19551 00ca 5F426967 		.ascii	"_Bigint\000"
 19551      696E7400 
 19552              	.LASF46:
 19553 00d2 5F5F746D 		.ascii	"__tm_wday\000"
 19553      5F776461 
 19553      7900
 19554              	.LASF88:
 19555 00dc 5F726573 		.ascii	"_result\000"
 19555      756C7400 
 19556              	.LASF19:
 19557 00e4 75696E74 		.ascii	"uint32_t\000"
 19557      33325F74 
 19557      00
 19558              	.LASF42:
 19559 00ed 5F5F746D 		.ascii	"__tm_hour\000"
 19559      5F686F75 
ARM GAS  /var/folders/cs/83z6p2tj4w57s6p2rt8nwfp00000gn/T//ccDzWS9O.s 			page 372


 19559      7200
 19560              	.LASF28:
 19561 00f7 5F5F636F 		.ascii	"__count\000"
 19561      756E7400 
 19562              	.LASF0:
 19563 00ff 666C6F61 		.ascii	"float\000"
 19563      7400
 19564              	.LASF41:
 19565 0105 5F5F746D 		.ascii	"__tm_min\000"
 19565      5F6D696E 
 19565      00
 19566              	.LASF131:
 19567 010e 5F696D70 		.ascii	"_impure_ptr\000"
 19567      7572655F 
 19567      70747200 
 19568              	.LASF126:
 19569 011a 5F6E6578 		.ascii	"_nextf\000"
 19569      746600
 19570              	.LASF16:
 19571 0121 696E7431 		.ascii	"int16_t\000"
 19571      365F7400 
 19572              	.LASF103:
 19573 0129 5F72616E 		.ascii	"_rand48\000"
 19573      64343800 
 19574              	.LASF178:
 19575 0131 72657375 		.ascii	"result\000"
 19575      6C7400
 19576              	.LASF89:
 19577 0138 5F726573 		.ascii	"_result_k\000"
 19577      756C745F 
 19577      6B00
 19578              	.LASF13:
 19579 0142 6C6F6E67 		.ascii	"long long unsigned int\000"
 19579      206C6F6E 
 19579      6720756E 
 19579      7369676E 
 19579      65642069 
 19580              	.LASF109:
 19581 0159 5F617363 		.ascii	"_asctime_buf\000"
 19581      74696D65 
 19581      5F627566 
 19581      00
 19582              	.LASF60:
 19583 0166 5F5F7346 		.ascii	"__sFILE\000"
 19583      494C4500 
 19584              	.LASF37:
 19585 016e 5F776473 		.ascii	"_wds\000"
 19585      00
 19586              	.LASF6:
 19587 0173 5F5F7569 		.ascii	"__uint16_t\000"
 19587      6E743136 
 19587      5F7400
 19588              	.LASF99:
 19589 017e 5F5F4649 		.ascii	"__FILE\000"
 19589      4C4500
 19590              	.LASF137:
 19591 0185 5F5F6664 		.ascii	"__fdlibm_posix\000"
ARM GAS  /var/folders/cs/83z6p2tj4w57s6p2rt8nwfp00000gn/T//ccDzWS9O.s 			page 373


 19591      6C69626D 
 19591      5F706F73 
 19591      697800
 19592              	.LASF72:
 19593 0194 5F6F6666 		.ascii	"_offset\000"
 19593      73657400 
 19594              	.LASF83:
 19595 019c 5F656D65 		.ascii	"_emergency\000"
 19595      7267656E 
 19595      637900
 19596              	.LASF159:
 19597 01a7 636F6C6F 		.ascii	"color\000"
 19597      7200
 19598              	.LASF20:
 19599 01ad 73697A65 		.ascii	"size_t\000"
 19599      5F7400
 19600              	.LASF40:
 19601 01b4 5F5F746D 		.ascii	"__tm_sec\000"
 19601      5F736563 
 19601      00
 19602              	.LASF156:
 19603 01bd 647A6478 		.ascii	"dzdx\000"
 19603      00
 19604              	.LASF157:
 19605 01c2 647A6479 		.ascii	"dzdy\000"
 19605      00
 19606              	.LASF47:
 19607 01c7 5F5F746D 		.ascii	"__tm_yday\000"
 19607      5F796461 
 19607      7900
 19608              	.LASF82:
 19609 01d1 5F696E63 		.ascii	"_inc\000"
 19609      00
 19610              	.LASF55:
 19611 01d6 5F696E64 		.ascii	"_ind\000"
 19611      00
 19612              	.LASF148:
 19613 01db 7A736361 		.ascii	"zscale\000"
 19613      6C6500
 19614              	.LASF34:
 19615 01e2 5F6E6578 		.ascii	"_next\000"
 19615      7400
 19616              	.LASF122:
 19617 01e8 5F6D6273 		.ascii	"_mbsrtowcs_state\000"
 19617      72746F77 
 19617      63735F73 
 19617      74617465 
 19617      00
 19618              	.LASF181:
 19619 01f9 6D696E69 		.ascii	"mini3d/render.c\000"
 19619      33642F72 
 19619      656E6465 
 19619      722E6300 
 19620              	.LASF29:
 19621 0209 5F5F7661 		.ascii	"__value\000"
 19621      6C756500 
 19622              	.LASF90:
ARM GAS  /var/folders/cs/83z6p2tj4w57s6p2rt8nwfp00000gn/T//ccDzWS9O.s 			page 374


 19623 0211 5F703573 		.ascii	"_p5s\000"
 19623      00
 19624              	.LASF162:
 19625 0216 64726177 		.ascii	"drawLine\000"
 19625      4C696E65 
 19625      00
 19626              	.LASF184:
 19627 021f 72657365 		.ascii	"resetZBuffer\000"
 19627      745A4275 
 19627      66666572 
 19627      00
 19628              	.LASF153:
 19629 022c 66696C6C 		.ascii	"fillQuad\000"
 19629      51756164 
 19629      00
 19630              	.LASF124:
 19631 0235 5F776373 		.ascii	"_wcsrtombs_state\000"
 19631      72746F6D 
 19631      62735F73 
 19631      74617465 
 19631      00
 19632              	.LASF114:
 19633 0246 5F6D626C 		.ascii	"_mblen_state\000"
 19633      656E5F73 
 19633      74617465 
 19633      00
 19634              	.LASF32:
 19635 0253 63686172 		.ascii	"char\000"
 19635      00
 19636              	.LASF43:
 19637 0258 5F5F746D 		.ascii	"__tm_mday\000"
 19637      5F6D6461 
 19637      7900
 19638              	.LASF96:
 19639 0262 5F736967 		.ascii	"_sig_func\000"
 19639      5F66756E 
 19639      6300
 19640              	.LASF121:
 19641 026c 5F6D6272 		.ascii	"_mbrtowc_state\000"
 19641      746F7763 
 19641      5F737461 
 19641      746500
 19642              	.LASF95:
 19643 027b 5F617465 		.ascii	"_atexit0\000"
 19643      78697430 
 19643      00
 19644              	.LASF175:
 19645 0284 5F647261 		.ascii	"_drawMaskPattern\000"
 19645      774D6173 
 19645      6B506174 
 19645      7465726E 
 19645      00
 19646              	.LASF31:
 19647 0295 5F666C6F 		.ascii	"_flock_t\000"
 19647      636B5F74 
 19647      00
 19648              	.LASF26:
ARM GAS  /var/folders/cs/83z6p2tj4w57s6p2rt8nwfp00000gn/T//ccDzWS9O.s 			page 375


 19649 029e 5F5F7763 		.ascii	"__wch\000"
 19649      6800
 19650              	.LASF102:
 19651 02a4 5F696F62 		.ascii	"_iobs\000"
 19651      7300
 19652              	.LASF15:
 19653 02aa 75696E74 		.ascii	"uint8_t\000"
 19653      385F7400 
 19654              	.LASF68:
 19655 02b2 5F636C6F 		.ascii	"_close\000"
 19655      736500
 19656              	.LASF171:
 19657 02b9 73746172 		.ascii	"startbit\000"
 19657      74626974 
 19657      00
 19658              	.LASF86:
 19659 02c2 5F5F7364 		.ascii	"__sdidinit\000"
 19659      6964696E 
 19659      697400
 19660              	.LASF167:
 19661 02cd 7A62726F 		.ascii	"zbrow\000"
 19661      7700
 19662              	.LASF143:
 19663 02d3 6964656E 		.ascii	"identityMatrix\000"
 19663      74697479 
 19663      4D617472 
 19663      697800
 19664              	.LASF177:
 19665 02e2 73776170 		.ascii	"swap\000"
 19665      00
 19666              	.LASF79:
 19667 02e7 5F737464 		.ascii	"_stdin\000"
 19667      696E00
 19668              	.LASF111:
 19669 02ee 5F67616D 		.ascii	"_gamma_signgam\000"
 19669      6D615F73 
 19669      69676E67 
 19669      616D00
 19670              	.LASF12:
 19671 02fd 6C6F6E67 		.ascii	"long long int\000"
 19671      206C6F6E 
 19671      6720696E 
 19671      7400
 19672              	.LASF58:
 19673 030b 5F626173 		.ascii	"_base\000"
 19673      6500
 19674              	.LASF91:
 19675 0311 5F667265 		.ascii	"_freelist\000"
 19675      656C6973 
 19675      7400
 19676              	.LASF105:
 19677 031b 5F6D756C 		.ascii	"_mult\000"
 19677      7400
 19678              	.LASF33:
 19679 0321 5F5F554C 		.ascii	"__ULong\000"
 19679      6F6E6700 
 19680              	.LASF135:
ARM GAS  /var/folders/cs/83z6p2tj4w57s6p2rt8nwfp00000gn/T//ccDzWS9O.s 			page 376


 19681 0329 5F5F6664 		.ascii	"__fdlibm_svid\000"
 19681      6C69626D 
 19681      5F737669 
 19681      6400
 19682              	.LASF140:
 19683 0337 69734964 		.ascii	"isIdentity\000"
 19683      656E7469 
 19683      747900
 19684              	.LASF123:
 19685 0342 5F776372 		.ascii	"_wcrtomb_state\000"
 19685      746F6D62 
 19685      5F737461 
 19685      746500
 19686              	.LASF62:
 19687 0351 5F66696C 		.ascii	"_file\000"
 19687      6500
 19688              	.LASF4:
 19689 0357 5F5F696E 		.ascii	"__int16_t\000"
 19689      7431365F 
 19689      7400
 19690              	.LASF185:
 19691 0361 6D656D73 		.ascii	"memset\000"
 19691      657400
 19692              	.LASF87:
 19693 0368 5F5F636C 		.ascii	"__cleanup\000"
 19693      65616E75 
 19693      7000
 19694              	.LASF138:
 19695 0372 5F5F6664 		.ascii	"__fdlib_version\000"
 19695      6C69625F 
 19695      76657273 
 19695      696F6E00 
 19696              	.LASF164:
 19697 0382 64726177 		.ascii	"drawLine_zbuf\000"
 19697      4C696E65 
 19697      5F7A6275 
 19697      6600
 19698              	.LASF30:
 19699 0390 5F6D6273 		.ascii	"_mbstate_t\000"
 19699      74617465 
 19699      5F7400
 19700              	.LASF139:
 19701 039b 506F696E 		.ascii	"Point3D\000"
 19701      74334400 
 19702              	.LASF173:
 19703 03a3 656E6462 		.ascii	"endbit\000"
 19703      697400
 19704              	.LASF48:
 19705 03aa 5F5F746D 		.ascii	"__tm_isdst\000"
 19705      5F697364 
 19705      737400
 19706              	.LASF169:
 19707 03b5 6D61736B 		.ascii	"mask\000"
 19707      00
 19708              	.LASF145:
 19709 03ba 73746172 		.ascii	"start\000"
 19709      7400
ARM GAS  /var/folders/cs/83z6p2tj4w57s6p2rt8nwfp00000gn/T//ccDzWS9O.s 			page 377


 19710              	.LASF125:
 19711 03c0 5F685F65 		.ascii	"_h_errno\000"
 19711      72726E6F 
 19711      00
 19712              	.LASF142:
 19713 03c9 4D617472 		.ascii	"Matrix3D\000"
 19713      69783344 
 19713      00
 19714              	.LASF44:
 19715 03d2 5F5F746D 		.ascii	"__tm_mon\000"
 19715      5F6D6F6E 
 19715      00
 19716              	.LASF21:
 19717 03db 6C6F6E67 		.ascii	"long double\000"
 19717      20646F75 
 19717      626C6500 
 19718              	.LASF22:
 19719 03e7 5F4C4F43 		.ascii	"_LOCK_T\000"
 19719      4B5F5400 
 19720              	.LASF17:
 19721 03ef 75696E74 		.ascii	"uint16_t\000"
 19721      31365F74 
 19721      00
 19722              	.LASF66:
 19723 03f8 5F777269 		.ascii	"_write\000"
 19723      746500
 19724              	.LASF154:
 19725 03ff 66696C6C 		.ascii	"fillTriangle_zbuf\000"
 19725      54726961 
 19725      6E676C65 
 19725      5F7A6275 
 19725      6600
 19726              	.LASF54:
 19727 0411 5F617465 		.ascii	"_atexit\000"
 19727      78697400 
 19728              	.LASF176:
 19729 0419 736C6F70 		.ascii	"slope\000"
 19729      6500
 19730              	.LASF163:
 19731 041f 74686963 		.ascii	"thick\000"
 19731      6B00
 19732              	.LASF144:
 19733 0425 6D33645F 		.ascii	"m3d_realloc\000"
 19733      7265616C 
 19733      6C6F6300 
 19734              	.LASF5:
 19735 0431 73686F72 		.ascii	"short int\000"
 19735      7420696E 
 19735      7400
 19736              	.LASF9:
 19737 043b 6C6F6E67 		.ascii	"long int\000"
 19737      20696E74 
 19737      00
 19738              	.LASF158:
 19739 0444 66696C6C 		.ascii	"fillTriangle\000"
 19739      54726961 
 19739      6E676C65 
ARM GAS  /var/folders/cs/83z6p2tj4w57s6p2rt8nwfp00000gn/T//ccDzWS9O.s 			page 378


 19739      00
 19740              	.LASF150:
 19741 0451 726F7773 		.ascii	"rowstride\000"
 19741      74726964 
 19741      6500
 19742              	.LASF98:
 19743 045b 5F5F7366 		.ascii	"__sf\000"
 19743      00
 19744              	.LASF36:
 19745 0460 5F736967 		.ascii	"_sign\000"
 19745      6E00
 19746              	.LASF146:
 19747 0466 4C434452 		.ascii	"LCDRowRange\000"
 19747      6F775261 
 19747      6E676500 
 19748              	.LASF73:
 19749 0472 5F646174 		.ascii	"_data\000"
 19749      6100
 19750              	.LASF27:
 19751 0478 5F5F7763 		.ascii	"__wchb\000"
 19751      686200
 19752              	.LASF132:
 19753 047f 5F676C6F 		.ascii	"_global_impure_ptr\000"
 19753      62616C5F 
 19753      696D7075 
 19753      72655F70 
 19753      747200
 19754              	.LASF45:
 19755 0492 5F5F746D 		.ascii	"__tm_year\000"
 19755      5F796561 
 19755      7200
 19756              	.LASF134:
 19757 049c 5F5F6664 		.ascii	"__fdlibm_ieee\000"
 19757      6C69626D 
 19757      5F696565 
 19757      6500
 19758              	.LASF110:
 19759 04aa 5F6C6F63 		.ascii	"_localtime_buf\000"
 19759      616C7469 
 19759      6D655F62 
 19759      756600
 19760              	.LASF128:
 19761 04b9 5F756E75 		.ascii	"_unused\000"
 19761      73656400 
 19762              	.LASF3:
 19763 04c1 5F5F7569 		.ascii	"__uint8_t\000"
 19763      6E74385F 
 19763      7400
 19764              	.LASF94:
 19765 04cb 5F6E6577 		.ascii	"_new\000"
 19765      00
 19766              	.LASF92:
 19767 04d0 5F637674 		.ascii	"_cvtlen\000"
 19767      6C656E00 
 19768              	.LASF35:
 19769 04d8 5F6D6178 		.ascii	"_maxwds\000"
 19769      77647300 
ARM GAS  /var/folders/cs/83z6p2tj4w57s6p2rt8nwfp00000gn/T//ccDzWS9O.s 			page 379


 19770              	.LASF117:
 19771 04e0 5F6C3634 		.ascii	"_l64a_buf\000"
 19771      615F6275 
 19771      6600
 19772              	.LASF186:
 19773 04ea 5F5F6275 		.ascii	"__builtin_memset\000"
 19773      696C7469 
 19773      6E5F6D65 
 19773      6D736574 
 19773      00
 19774              	.LASF170:
 19775 04fb 64726177 		.ascii	"drawFragment\000"
 19775      46726167 
 19775      6D656E74 
 19775      00
 19776              	.LASF71:
 19777 0508 5F626C6B 		.ascii	"_blksize\000"
 19777      73697A65 
 19777      00
 19778              	.LASF39:
 19779 0511 5F5F746D 		.ascii	"__tm\000"
 19779      00
 19780              	.LASF74:
 19781 0516 5F6C6F63 		.ascii	"_lock\000"
 19781      6B00
 19782              	.LASF11:
 19783 051c 6C6F6E67 		.ascii	"long unsigned int\000"
 19783      20756E73 
 19783      69676E65 
 19783      6420696E 
 19783      7400
 19784              	.LASF101:
 19785 052e 5F6E696F 		.ascii	"_niobs\000"
 19785      627300
 19786              	.LASF25:
 19787 0535 77696E74 		.ascii	"wint_t\000"
 19787      5F7400
 19788              	.LASF18:
 19789 053c 696E7433 		.ascii	"int32_t\000"
 19789      325F7400 
 19790              	.LASF51:
 19791 0544 5F64736F 		.ascii	"_dso_handle\000"
 19791      5F68616E 
 19791      646C6500 
 19792              	.LASF129:
 19793 0550 5F5F6C6F 		.ascii	"__lock\000"
 19793      636B00
 19794              	.LASF152:
 19795 0557 66696C6C 		.ascii	"fillQuad_zbuf\000"
 19795      51756164 
 19795      5F7A6275 
 19795      6600
 19796              	.LASF93:
 19797 0565 5F637674 		.ascii	"_cvtbuf\000"
 19797      62756600 
 19798              	.LASF2:
 19799 056d 756E7369 		.ascii	"unsigned char\000"
ARM GAS  /var/folders/cs/83z6p2tj4w57s6p2rt8nwfp00000gn/T//ccDzWS9O.s 			page 380


 19799      676E6564 
 19799      20636861 
 19799      7200
 19800              	.LASF149:
 19801 057b 6269746D 		.ascii	"bitmap\000"
 19801      617000
 19802              	.LASF10:
 19803 0582 5F5F7569 		.ascii	"__uint32_t\000"
 19803      6E743332 
 19803      5F7400
 19804              	.LASF166:
 19805 058d 64726177 		.ascii	"drawFragment_zbuf\000"
 19805      46726167 
 19805      6D656E74 
 19805      5F7A6275 
 19805      6600
 19806              	.LASF151:
 19807 059f 70617474 		.ascii	"pattern\000"
 19807      65726E00 
 19808              	.LASF172:
 19809 05a7 73746172 		.ascii	"startmask\000"
 19809      746D6173 
 19809      6B00
 19810              	.LASF119:
 19811 05b1 5F676574 		.ascii	"_getdate_err\000"
 19811      64617465 
 19811      5F657272 
 19811      00
 19812              	.LASF106:
 19813 05be 5F616464 		.ascii	"_add\000"
 19813      00
 19814              	.LASF161:
 19815 05c3 66696C6C 		.ascii	"fillRange\000"
 19815      52616E67 
 19815      6500
 19816              	.LASF57:
 19817 05cd 5F5F7362 		.ascii	"__sbuf\000"
 19817      756600
 19818              	.LASF100:
 19819 05d4 5F676C75 		.ascii	"_glue\000"
 19819      6500
 19820              	.LASF183:
 19821 05da 5F5F6664 		.ascii	"__fdlibm_version\000"
 19821      6C69626D 
 19821      5F766572 
 19821      73696F6E 
 19821      00
 19822              	.LASF182:
 19823 05eb 2F557365 		.ascii	"/Users/orllewin/projects/playdate/Cube\000"
 19823      72732F6F 
 19823      726C6C65 
 19823      77696E2F 
 19823      70726F6A 
 19824              	.LASF97:
 19825 0612 5F5F7367 		.ascii	"__sglue\000"
 19825      6C756500 
 19826              	.LASF165:
ARM GAS  /var/folders/cs/83z6p2tj4w57s6p2rt8nwfp00000gn/T//ccDzWS9O.s 			page 381


 19827 061a 736F7274 		.ascii	"sortTri\000"
 19827      54726900 
 19828              	.LASF108:
 19829 0622 5F737472 		.ascii	"_strtok_last\000"
 19829      746F6B5F 
 19829      6C617374 
 19829      00
 19830              	.LASF115:
 19831 062f 5F6D6274 		.ascii	"_mbtowc_state\000"
 19831      6F77635F 
 19831      73746174 
 19831      6500
 19832              	.LASF85:
 19833 063d 5F6C6F63 		.ascii	"_locale\000"
 19833      616C6500 
 19834              	.LASF50:
 19835 0645 5F666E61 		.ascii	"_fnargs\000"
 19835      72677300 
 19836              	.LASF1:
 19837 064d 7369676E 		.ascii	"signed char\000"
 19837      65642063 
 19837      68617200 
 19838              	.LASF77:
 19839 0659 5F726565 		.ascii	"_reent\000"
 19839      6E7400
 19840              	.LASF180:
 19841 0660 474E5520 		.ascii	"GNU C17 9.2.1 20191025 (release) [ARM/arm-9-branch "
 19841      43313720 
 19841      392E322E 
 19841      31203230 
 19841      31393130 
 19842 0693 72657669 		.ascii	"revision 277599] -mthumb -mcpu=cortex-m7 -mfloat-ab"
 19842      73696F6E 
 19842      20323737 
 19842      3539395D 
 19842      202D6D74 
 19843 06c6 693D6861 		.ascii	"i=hard -mfpu=fpv5-sp-d16 -march=armv7e-m+fpv5 -g -g"
 19843      7264202D 
 19843      6D667075 
 19843      3D667076 
 19843      352D7370 
 19844 06f9 64776172 		.ascii	"dwarf-2 -O2 -falign-functions=16 -fomit-frame-point"
 19844      662D3220 
 19844      2D4F3220 
 19844      2D66616C 
 19844      69676E2D 
 19845 072c 6572202D 		.ascii	"er -ffunction-sections -fdata-sections\000"
 19845      6666756E 
 19845      6374696F 
 19845      6E2D7365 
 19845      6374696F 
 19846              	.LASF7:
 19847 0753 73686F72 		.ascii	"short unsigned int\000"
 19847      7420756E 
 19847      7369676E 
 19847      65642069 
 19847      6E7400
ARM GAS  /var/folders/cs/83z6p2tj4w57s6p2rt8nwfp00000gn/T//ccDzWS9O.s 			page 382


 19848              	.LASF52:
 19849 0766 5F666E74 		.ascii	"_fntypes\000"
 19849      79706573 
 19849      00
 19850              	.LASF59:
 19851 076f 5F73697A 		.ascii	"_size\000"
 19851      6500
 19852              	.LASF133:
 19853 0775 646F7562 		.ascii	"double\000"
 19853      6C6500
 19854              	.LASF23:
 19855 077c 5F6F6666 		.ascii	"_off_t\000"
 19855      5F7400
 19856              	.LASF70:
 19857 0783 5F6E6275 		.ascii	"_nbuf\000"
 19857      6600
 19858              	.LASF107:
 19859 0789 5F756E75 		.ascii	"_unused_rand\000"
 19859      7365645F 
 19859      72616E64 
 19859      00
 19860              	.LASF84:
 19861 0796 5F756E73 		.ascii	"_unspecified_locale_info\000"
 19861      70656369 
 19861      66696564 
 19861      5F6C6F63 
 19861      616C655F 
 19862              	.LASF76:
 19863 07af 5F666C61 		.ascii	"_flags2\000"
 19863      67733200 
 19864              	.LASF53:
 19865 07b7 5F69735F 		.ascii	"_is_cxa\000"
 19865      63786100 
 19866              	.LASF104:
 19867 07bf 5F736565 		.ascii	"_seed\000"
 19867      6400
 19868              	.LASF112:
 19869 07c5 5F72616E 		.ascii	"_rand_next\000"
 19869      645F6E65 
 19869      787400
 19870              	.LASF130:
 19871 07d0 5F5F6C6F 		.ascii	"__locale_t\000"
 19871      63616C65 
 19871      5F7400
 19872              	.LASF67:
 19873 07db 5F736565 		.ascii	"_seek\000"
 19873      6B00
 19874              	.LASF160:
 19875 07e1 66696C6C 		.ascii	"fillRange_zbuf\000"
 19875      52616E67 
 19875      655F7A62 
 19875      756600
 19876              	.LASF81:
 19877 07f0 5F737464 		.ascii	"_stderr\000"
 19877      65727200 
 19878              	.LASF127:
 19879 07f8 5F6E6D61 		.ascii	"_nmalloc\000"
ARM GAS  /var/folders/cs/83z6p2tj4w57s6p2rt8nwfp00000gn/T//ccDzWS9O.s 			page 383


 19879      6C6C6F63 
 19879      00
 19880              	.LASF69:
 19881 0801 5F756275 		.ascii	"_ubuf\000"
 19881      6600
 19882              		.ident	"GCC: (GNU Tools for Arm Embedded Processors 9-2019-q4-major) 9.2.1 20191025 (release) [ARM
ARM GAS  /var/folders/cs/83z6p2tj4w57s6p2rt8nwfp00000gn/T//ccDzWS9O.s 			page 384


DEFINED SYMBOLS
                            *ABS*:0000000000000000 render.c
/var/folders/cs/83z6p2tj4w57s6p2rt8nwfp00000gn/T//ccDzWS9O.s:78     .text.drawFragment.part.0:0000000000000000 $t
/var/folders/cs/83z6p2tj4w57s6p2rt8nwfp00000gn/T//ccDzWS9O.s:86     .text.drawFragment.part.0:0000000000000000 drawFragment.part.0
/var/folders/cs/83z6p2tj4w57s6p2rt8nwfp00000gn/T//ccDzWS9O.s:502    .text.fillRange:0000000000000000 $t
/var/folders/cs/83z6p2tj4w57s6p2rt8nwfp00000gn/T//ccDzWS9O.s:509    .text.fillRange:0000000000000000 fillRange
/var/folders/cs/83z6p2tj4w57s6p2rt8nwfp00000gn/T//ccDzWS9O.s:798    .text.drawFragment_zbuf.part.0:0000000000000000 $t
/var/folders/cs/83z6p2tj4w57s6p2rt8nwfp00000gn/T//ccDzWS9O.s:805    .text.drawFragment_zbuf.part.0:0000000000000000 drawFragment_zbuf.part.0
/var/folders/cs/83z6p2tj4w57s6p2rt8nwfp00000gn/T//ccDzWS9O.s:1145   .text.fillRange_zbuf:0000000000000000 $t
/var/folders/cs/83z6p2tj4w57s6p2rt8nwfp00000gn/T//ccDzWS9O.s:1152   .text.fillRange_zbuf:0000000000000000 fillRange_zbuf
/var/folders/cs/83z6p2tj4w57s6p2rt8nwfp00000gn/T//ccDzWS9O.s:1522   .text.fillRange_zbuf:0000000000000138 $d
/var/folders/cs/83z6p2tj4w57s6p2rt8nwfp00000gn/T//ccDzWS9O.s:4678   .bss.zbuf:0000000000000000 zbuf
/var/folders/cs/83z6p2tj4w57s6p2rt8nwfp00000gn/T//ccDzWS9O.s:1527   .text.resetZBuffer:0000000000000000 $t
/var/folders/cs/83z6p2tj4w57s6p2rt8nwfp00000gn/T//ccDzWS9O.s:1535   .text.resetZBuffer:0000000000000000 resetZBuffer
/var/folders/cs/83z6p2tj4w57s6p2rt8nwfp00000gn/T//ccDzWS9O.s:1602   .text.resetZBuffer:0000000000000030 $d
/var/folders/cs/83z6p2tj4w57s6p2rt8nwfp00000gn/T//ccDzWS9O.s:1611   .text.drawLine_zbuf:0000000000000000 $t
/var/folders/cs/83z6p2tj4w57s6p2rt8nwfp00000gn/T//ccDzWS9O.s:1619   .text.drawLine_zbuf:0000000000000000 drawLine_zbuf
/var/folders/cs/83z6p2tj4w57s6p2rt8nwfp00000gn/T//ccDzWS9O.s:2307   .text.drawLine_zbuf:00000000000002e8 $d
/var/folders/cs/83z6p2tj4w57s6p2rt8nwfp00000gn/T//ccDzWS9O.s:2322   .text.drawLine:0000000000000000 $t
/var/folders/cs/83z6p2tj4w57s6p2rt8nwfp00000gn/T//ccDzWS9O.s:2330   .text.drawLine:0000000000000000 drawLine
/var/folders/cs/83z6p2tj4w57s6p2rt8nwfp00000gn/T//ccDzWS9O.s:2783   .text.drawLine:00000000000001e0 $d
/var/folders/cs/83z6p2tj4w57s6p2rt8nwfp00000gn/T//ccDzWS9O.s:2789   .text.fillTriangle:0000000000000000 $t
/var/folders/cs/83z6p2tj4w57s6p2rt8nwfp00000gn/T//ccDzWS9O.s:2797   .text.fillTriangle:0000000000000000 fillTriangle
/var/folders/cs/83z6p2tj4w57s6p2rt8nwfp00000gn/T//ccDzWS9O.s:3468   .text.fillTriangle:00000000000002a8 $d
/var/folders/cs/83z6p2tj4w57s6p2rt8nwfp00000gn/T//ccDzWS9O.s:3476   .text.fillTriangle_zbuf:0000000000000000 $t
/var/folders/cs/83z6p2tj4w57s6p2rt8nwfp00000gn/T//ccDzWS9O.s:3484   .text.fillTriangle_zbuf:0000000000000000 fillTriangle_zbuf
/var/folders/cs/83z6p2tj4w57s6p2rt8nwfp00000gn/T//ccDzWS9O.s:4391   .text.fillTriangle_zbuf:00000000000003e0 $d
/var/folders/cs/83z6p2tj4w57s6p2rt8nwfp00000gn/T//ccDzWS9O.s:4407   .text.fillTriangle_zbuf:00000000000003f0 $t
/var/folders/cs/83z6p2tj4w57s6p2rt8nwfp00000gn/T//ccDzWS9O.s:4511   .text.fillQuad:0000000000000000 $t
/var/folders/cs/83z6p2tj4w57s6p2rt8nwfp00000gn/T//ccDzWS9O.s:4519   .text.fillQuad:0000000000000000 fillQuad
/var/folders/cs/83z6p2tj4w57s6p2rt8nwfp00000gn/T//ccDzWS9O.s:4593   .text.fillQuad_zbuf:0000000000000000 $t
/var/folders/cs/83z6p2tj4w57s6p2rt8nwfp00000gn/T//ccDzWS9O.s:4601   .text.fillQuad_zbuf:0000000000000000 fillQuad_zbuf
/var/folders/cs/83z6p2tj4w57s6p2rt8nwfp00000gn/T//ccDzWS9O.s:4675   .bss.zbuf:0000000000000000 $d
/var/folders/cs/83z6p2tj4w57s6p2rt8nwfp00000gn/T//ccDzWS9O.s:4681   .bss.zscale:0000000000000000 $d
/var/folders/cs/83z6p2tj4w57s6p2rt8nwfp00000gn/T//ccDzWS9O.s:4685   .bss.zscale:0000000000000000 zscale

UNDEFINED SYMBOLS
memset
