ARM GAS  /var/folders/cs/83z6p2tj4w57s6p2rt8nwfp00000gn/T//cc3yBana.s 			page 1


   1              		.cpu cortex-m7
   2              		.eabi_attribute 27, 1	@ Tag_ABI_HardFP_use
   3              		.eabi_attribute 28, 1	@ Tag_ABI_VFP_args
   4              		.eabi_attribute 20, 1	@ Tag_ABI_FP_denormal
   5              		.eabi_attribute 21, 1	@ Tag_ABI_FP_exceptions
   6              		.eabi_attribute 23, 3	@ Tag_ABI_FP_number_model
   7              		.eabi_attribute 24, 1	@ Tag_ABI_align8_needed
   8              		.eabi_attribute 25, 1	@ Tag_ABI_align8_preserved
   9              		.eabi_attribute 26, 1	@ Tag_ABI_enum_size
  10              		.eabi_attribute 30, 2	@ Tag_ABI_optimization_goals
  11              		.eabi_attribute 34, 1	@ Tag_CPU_unaligned_access
  12              		.eabi_attribute 18, 4	@ Tag_ABI_PCS_wchar_t
  13              		.file	"scene.c"
  14              	@ GNU C17 (GNU Tools for Arm Embedded Processors 9-2019-q4-major) version 9.2.1 20191025 (release) 
  15              	@	compiled by GNU C version 4.2.1 Compatible Apple LLVM 9.0.0 (clang-900.0.39.2), GMP version 6.1.0
  16              	
  17              	@ GGC heuristics: --param ggc-min-expand=100 --param ggc-min-heapsize=131072
  18              	@ options passed:  -I . -I . -I /Users/orllewin/Developer/PlaydateSDK/C_API
  19              	@ -I mini3d -imultilib thumb/v7e-m+fp/hard
  20              	@ -iprefix /usr/local/playdate/gcc-arm-none-eabi-9-2019-q4-major/bin/../lib/gcc/arm-none-eabi/9.2.1
  21              	@ -isysroot /usr/local/playdate/gcc-arm-none-eabi-9-2019-q4-major/bin/../arm-none-eabi
  22              	@ -MD build/mini3d/scene.d -MF build/dep/scene.o.d -MP
  23              	@ -MQ build/mini3d/scene.o -D__USES_INITFINI__ -D __FPU_USED=1
  24              	@ -D TARGET_PLAYDATE=1 -D TARGET_EXTENSION=1 mini3d/scene.c -mthumb
  25              	@ -mcpu=cortex-m7 -mfloat-abi=hard -mfpu=fpv5-sp-d16 -march=armv7e-m+fpv5
  26              	@ -auxbase-strip build/mini3d/scene.o -g -gdwarf-2 -O2 -Wall -Wno-unused
  27              	@ -Wstrict-prototypes -Wno-unknown-pragmas -Wdouble-promotion
  28              	@ -falign-functions=16 -fomit-frame-pointer -fverbose-asm
  29              	@ -ffunction-sections -fdata-sections
  30              	@ options enabled:  -faggressive-loop-optimizations -falign-functions
  31              	@ -falign-jumps -falign-labels -falign-loops -fassume-phsa -fauto-inc-dec
  32              	@ -fbranch-count-reg -fcaller-saves -fcombine-stack-adjustments -fcommon
  33              	@ -fcompare-elim -fcprop-registers -fcrossjumping -fcse-follow-jumps
  34              	@ -fdata-sections -fdefer-pop -fdelete-null-pointer-checks -fdevirtualize
  35              	@ -fdevirtualize-speculatively -fdwarf2-cfi-asm -fearly-inlining
  36              	@ -feliminate-unused-debug-types -fexpensive-optimizations
  37              	@ -fforward-propagate -ffp-int-builtin-inexact -ffunction-cse
  38              	@ -ffunction-sections -fgcse -fgcse-lm -fgnu-runtime -fgnu-unique
  39              	@ -fguess-branch-probability -fhoist-adjacent-loads -fident -fif-conversion
  40              	@ -fif-conversion2 -findirect-inlining -finline -finline-atomics
  41              	@ -finline-functions-called-once -finline-small-functions -fipa-bit-cp
  42              	@ -fipa-cp -fipa-icf -fipa-icf-functions -fipa-icf-variables -fipa-profile
  43              	@ -fipa-pure-const -fipa-ra -fipa-reference -fipa-reference-addressable
  44              	@ -fipa-sra -fipa-stack-alignment -fipa-vrp -fira-hoist-pressure
  45              	@ -fira-share-save-slots -fira-share-spill-slots
  46              	@ -fisolate-erroneous-paths-dereference -fivopts -fkeep-static-consts
  47              	@ -fleading-underscore -flifetime-dse -flra-remat -flto-odr-type-merging
  48              	@ -fmath-errno -fmerge-constants -fmerge-debug-strings
  49              	@ -fmove-loop-invariants -fomit-frame-pointer -foptimize-sibling-calls
  50              	@ -foptimize-strlen -fpartial-inlining -fpeephole -fpeephole2 -fplt
  51              	@ -fprefetch-loop-arrays -freg-struct-return -freorder-blocks
  52              	@ -freorder-functions -frerun-cse-after-loop
  53              	@ -fsched-critical-path-heuristic -fsched-dep-count-heuristic
  54              	@ -fsched-group-heuristic -fsched-interblock -fsched-last-insn-heuristic
  55              	@ -fsched-pressure -fsched-rank-heuristic -fsched-spec
  56              	@ -fsched-spec-insn-heuristic -fsched-stalled-insns-dep -fschedule-insns
  57              	@ -fschedule-insns2 -fsection-anchors -fsemantic-interposition
ARM GAS  /var/folders/cs/83z6p2tj4w57s6p2rt8nwfp00000gn/T//cc3yBana.s 			page 2


  58              	@ -fshow-column -fshrink-wrap -fshrink-wrap-separate -fsigned-zeros
  59              	@ -fsplit-ivs-in-unroller -fsplit-wide-types -fssa-backprop -fssa-phiopt
  60              	@ -fstdarg-opt -fstore-merging -fstrict-aliasing
  61              	@ -fstrict-volatile-bitfields -fsync-libcalls -fthread-jumps
  62              	@ -ftoplevel-reorder -ftrapping-math -ftree-bit-ccp -ftree-builtin-call-dce
  63              	@ -ftree-ccp -ftree-ch -ftree-coalesce-vars -ftree-copy-prop -ftree-cselim
  64              	@ -ftree-dce -ftree-dominator-opts -ftree-dse -ftree-forwprop -ftree-fre
  65              	@ -ftree-loop-if-convert -ftree-loop-im -ftree-loop-ivcanon
  66              	@ -ftree-loop-optimize -ftree-parallelize-loops= -ftree-phiprop -ftree-pre
  67              	@ -ftree-pta -ftree-reassoc -ftree-scev-cprop -ftree-sink -ftree-slsr
  68              	@ -ftree-sra -ftree-switch-conversion -ftree-tail-merge -ftree-ter
  69              	@ -ftree-vrp -funit-at-a-time -fvar-tracking -fvar-tracking-assignments
  70              	@ -fverbose-asm -fzero-initialized-in-bss -masm-syntax-unified -mbe32
  71              	@ -mlittle-endian -mpic-data-is-text-relative -msched-prolog -mthumb
  72              	@ -munaligned-access -mvectorize-with-neon-quad
  73              	
  74              		.text
  75              	.Ltext0:
  76              		.cfi_sections	.debug_frame
  77              		.section	.text.getShapesAtNode,"ax",%progbits
  78              		.align	1
  79              		.p2align 4,,15
  80              		.arch armv7e-m
  81              		.syntax unified
  82              		.thumb
  83              		.thumb_func
  84              		.fpu fpv5-sp-d16
  85              		.type	getShapesAtNode, %function
  86              	getShapesAtNode:
  87              	.LVL0:
  88              	.LFB32:
  89              		.file 1 "mini3d/scene.c"
   1:mini3d/scene.c **** //
   2:mini3d/scene.c **** //  scene.c
   3:mini3d/scene.c **** //  Extension
   4:mini3d/scene.c **** //
   5:mini3d/scene.c **** //  Created by Dave Hayden on 10/7/15.
   6:mini3d/scene.c **** //  Copyright © 2015 Panic, Inc. All rights reserved.
   7:mini3d/scene.c **** //
   8:mini3d/scene.c **** 
   9:mini3d/scene.c **** #include <stdlib.h>
  10:mini3d/scene.c **** #include <string.h>
  11:mini3d/scene.c **** #include "3dmath.h"
  12:mini3d/scene.c **** #include "mini3d.h"
  13:mini3d/scene.c **** #include "scene.h"
  14:mini3d/scene.c **** #include "shape.h"
  15:mini3d/scene.c **** #include "render.h"
  16:mini3d/scene.c **** 
  17:mini3d/scene.c **** #define WIDTH 400
  18:mini3d/scene.c **** #define HEIGHT 240
  19:mini3d/scene.c **** 
  20:mini3d/scene.c **** void
  21:mini3d/scene.c **** Scene3DNode_init(Scene3DNode* node)
  22:mini3d/scene.c **** {
  23:mini3d/scene.c **** 	node->transform = identityMatrix;
  24:mini3d/scene.c **** 	node->parentNode = NULL;
  25:mini3d/scene.c **** 	node->childNodes = NULL;
ARM GAS  /var/folders/cs/83z6p2tj4w57s6p2rt8nwfp00000gn/T//cc3yBana.s 			page 3


  26:mini3d/scene.c **** 	node->nChildren = 0;
  27:mini3d/scene.c **** 	node->shapes = NULL;
  28:mini3d/scene.c **** 	node->colorBias = 0;
  29:mini3d/scene.c **** 	node->renderStyle = kRenderInheritStyle;
  30:mini3d/scene.c **** 	node->isVisible = 1;
  31:mini3d/scene.c **** 	node->needsUpdate = 1;
  32:mini3d/scene.c **** #if ENABLE_Z_BUFFER
  33:mini3d/scene.c **** 	node->useZBuffer = 1;
  34:mini3d/scene.c **** #endif
  35:mini3d/scene.c **** }
  36:mini3d/scene.c **** 
  37:mini3d/scene.c **** void
  38:mini3d/scene.c **** Scene3DNode_deinit(Scene3DNode* node)
  39:mini3d/scene.c **** {
  40:mini3d/scene.c **** 	ShapeInstance* shape = node->shapes;
  41:mini3d/scene.c **** 
  42:mini3d/scene.c **** 	while ( shape != NULL )
  43:mini3d/scene.c **** 	{
  44:mini3d/scene.c **** 		ShapeInstance* next = shape->next;
  45:mini3d/scene.c **** 		Shape3D_release(shape->prototype);
  46:mini3d/scene.c **** 		m3d_free(shape->points);
  47:mini3d/scene.c **** 		m3d_free(shape->faces);
  48:mini3d/scene.c **** 		m3d_free(shape);
  49:mini3d/scene.c **** 		shape = next;
  50:mini3d/scene.c **** 	}
  51:mini3d/scene.c **** 
  52:mini3d/scene.c **** 	if ( node->shapes != NULL )
  53:mini3d/scene.c **** 		m3d_free(node->shapes);
  54:mini3d/scene.c **** 
  55:mini3d/scene.c **** 	int i;
  56:mini3d/scene.c **** 
  57:mini3d/scene.c **** 	for ( i = 0; i < node->nChildren; ++i )
  58:mini3d/scene.c **** 	{
  59:mini3d/scene.c **** 		Scene3DNode_deinit(node->childNodes[i]);
  60:mini3d/scene.c **** 		m3d_free(node->childNodes[i]);
  61:mini3d/scene.c **** 	}
  62:mini3d/scene.c **** 
  63:mini3d/scene.c **** 	if ( node->childNodes != NULL )
  64:mini3d/scene.c **** 		m3d_free(node->childNodes);
  65:mini3d/scene.c **** 
  66:mini3d/scene.c **** 	node->childNodes = NULL;
  67:mini3d/scene.c **** }
  68:mini3d/scene.c **** 
  69:mini3d/scene.c **** void
  70:mini3d/scene.c **** Scene3DNode_setTransform(Scene3DNode* node, Matrix3D* xform)
  71:mini3d/scene.c **** {
  72:mini3d/scene.c **** 	node->transform = *xform;
  73:mini3d/scene.c **** 
  74:mini3d/scene.c **** 	// mark this branch of the tree for updating
  75:mini3d/scene.c **** 
  76:mini3d/scene.c **** 	while ( node != NULL )
  77:mini3d/scene.c **** 	{
  78:mini3d/scene.c **** 		node->needsUpdate = 1;
  79:mini3d/scene.c **** 		node = node->parentNode;
  80:mini3d/scene.c **** 	}
  81:mini3d/scene.c **** }
  82:mini3d/scene.c **** 
ARM GAS  /var/folders/cs/83z6p2tj4w57s6p2rt8nwfp00000gn/T//cc3yBana.s 			page 4


  83:mini3d/scene.c **** void
  84:mini3d/scene.c **** Scene3DNode_addTransform(Scene3DNode* node, Matrix3D* xform)
  85:mini3d/scene.c **** {
  86:mini3d/scene.c **** 	Matrix3D m = Matrix3D_multiply(node->transform, *xform);
  87:mini3d/scene.c **** 	Scene3DNode_setTransform(node, &m);
  88:mini3d/scene.c **** }
  89:mini3d/scene.c **** 
  90:mini3d/scene.c **** void
  91:mini3d/scene.c **** Scene3DNode_setColorBias(Scene3DNode* node, float bias)
  92:mini3d/scene.c **** {
  93:mini3d/scene.c **** 	node->colorBias = bias;
  94:mini3d/scene.c **** 	node->needsUpdate = 1;
  95:mini3d/scene.c **** }
  96:mini3d/scene.c **** 
  97:mini3d/scene.c **** void
  98:mini3d/scene.c **** Scene3DNode_setRenderStyle(Scene3DNode* node, RenderStyle style)
  99:mini3d/scene.c **** {
 100:mini3d/scene.c **** 	node->renderStyle = style;
 101:mini3d/scene.c **** 	node->needsUpdate = 1;
 102:mini3d/scene.c **** }
 103:mini3d/scene.c **** 
 104:mini3d/scene.c **** RenderStyle
 105:mini3d/scene.c **** Scene3DNode_getRenderStyle(Scene3DNode* node)
 106:mini3d/scene.c **** {
 107:mini3d/scene.c **** 	while ( node != NULL )
 108:mini3d/scene.c **** 	{
 109:mini3d/scene.c **** 		if ( node->renderStyle != kRenderInheritStyle )
 110:mini3d/scene.c **** 			return node->renderStyle;
 111:mini3d/scene.c **** 
 112:mini3d/scene.c **** 		node = node->parentNode;
 113:mini3d/scene.c **** 	}
 114:mini3d/scene.c **** 
 115:mini3d/scene.c **** 	return kRenderFilled;
 116:mini3d/scene.c **** }
 117:mini3d/scene.c **** 
 118:mini3d/scene.c **** void
 119:mini3d/scene.c **** Scene3DNode_setVisible(Scene3DNode* node, int visible)
 120:mini3d/scene.c **** {
 121:mini3d/scene.c **** 	node->isVisible = visible;
 122:mini3d/scene.c **** 	node->needsUpdate = 1;
 123:mini3d/scene.c **** }
 124:mini3d/scene.c **** 
 125:mini3d/scene.c **** #if ENABLE_Z_BUFFER
 126:mini3d/scene.c **** void Scene3DNode_setUsesZBuffer(Scene3DNode* node, int flag)
 127:mini3d/scene.c **** {
 128:mini3d/scene.c **** 	node->useZBuffer = flag;
 129:mini3d/scene.c **** 	node->needsUpdate = 1;
 130:mini3d/scene.c **** }
 131:mini3d/scene.c **** #endif
 132:mini3d/scene.c **** 
 133:mini3d/scene.c **** void
 134:mini3d/scene.c **** Scene3DNode_addShapeWithTransform(Scene3DNode* node, Shape3D* shape, Matrix3D transform)
 135:mini3d/scene.c **** {
 136:mini3d/scene.c **** 	ShapeInstance* nodeshape = m3d_malloc(sizeof(ShapeInstance));
 137:mini3d/scene.c **** 	int i;
 138:mini3d/scene.c **** 
 139:mini3d/scene.c **** 	nodeshape->renderStyle = kRenderInheritStyle;
ARM GAS  /var/folders/cs/83z6p2tj4w57s6p2rt8nwfp00000gn/T//cc3yBana.s 			page 5


 140:mini3d/scene.c **** 	nodeshape->prototype = Shape3D_retain(shape);
 141:mini3d/scene.c **** 	nodeshape->nPoints = shape->nPoints;
 142:mini3d/scene.c **** 	nodeshape->points = m3d_malloc(sizeof(Point3D) * shape->nPoints);
 143:mini3d/scene.c **** 
 144:mini3d/scene.c **** 	// not strictly necessary, since we set these again in Scene3D_updateShapeInstance:
 145:mini3d/scene.c **** 	//for ( i = 0; i < shape->nPoints; ++i )
 146:mini3d/scene.c **** 	//	nodeshape->points[i] = shape->points[i];
 147:mini3d/scene.c **** 
 148:mini3d/scene.c **** 	nodeshape->nFaces = shape->nFaces;
 149:mini3d/scene.c **** 	nodeshape->faces = m3d_malloc(sizeof(FaceInstance) * shape->nFaces);
 150:mini3d/scene.c **** 
 151:mini3d/scene.c **** 	for ( i = 0; i < shape->nFaces; ++i )
 152:mini3d/scene.c **** 	{
 153:mini3d/scene.c **** 		// point face vertices at copy's points array
 154:mini3d/scene.c **** 		FaceInstance* face = &nodeshape->faces[i];
 155:mini3d/scene.c **** 
 156:mini3d/scene.c **** 		face->p1 = &nodeshape->points[shape->faces[i].p1];
 157:mini3d/scene.c **** 		face->p2 = &nodeshape->points[shape->faces[i].p2];
 158:mini3d/scene.c **** 		face->p3 = &nodeshape->points[shape->faces[i].p3];
 159:mini3d/scene.c **** 
 160:mini3d/scene.c **** 		if ( shape->faces[i].p4 != 0xffff )
 161:mini3d/scene.c **** 			face->p4 = &nodeshape->points[shape->faces[i].p4];
 162:mini3d/scene.c **** 		else
 163:mini3d/scene.c **** 			face->p4 = NULL;
 164:mini3d/scene.c **** 
 165:mini3d/scene.c **** 		face->colorBias = shape->faces[i].colorBias;
 166:mini3d/scene.c **** 
 167:mini3d/scene.c **** 		// also not necessary
 168:mini3d/scene.c **** 		face->normal = pnormal(face->p1, face->p2, face->p3);
 169:mini3d/scene.c **** 	}
 170:mini3d/scene.c **** 
 171:mini3d/scene.c **** 	nodeshape->transform = transform;
 172:mini3d/scene.c **** 	nodeshape->center = Matrix3D_apply(transform, shape->center);
 173:mini3d/scene.c **** 	nodeshape->colorBias = 0;
 174:mini3d/scene.c **** 
 175:mini3d/scene.c **** #if ENABLE_ORDERING_TABLE
 176:mini3d/scene.c **** 	nodeshape->orderTableSize = 0;
 177:mini3d/scene.c **** 	nodeshape->orderTable = NULL;
 178:mini3d/scene.c **** #endif
 179:mini3d/scene.c **** 
 180:mini3d/scene.c **** 	nodeshape->next = node->shapes;
 181:mini3d/scene.c **** 	node->shapes = nodeshape;
 182:mini3d/scene.c **** 	++node->shapeCount;
 183:mini3d/scene.c **** }
 184:mini3d/scene.c **** 
 185:mini3d/scene.c **** void
 186:mini3d/scene.c **** Scene3DNode_addShapeWithOffset(Scene3DNode* node, Shape3D* shape, Vector3D offset)
 187:mini3d/scene.c **** {
 188:mini3d/scene.c **** 	Scene3DNode_addShapeWithTransform(node, shape, Matrix3DMakeTranslate(offset.dx, offset.dy, offset.
 189:mini3d/scene.c **** }
 190:mini3d/scene.c **** 
 191:mini3d/scene.c **** void
 192:mini3d/scene.c **** Scene3DNode_addShape(Scene3DNode* node, Shape3D* shape)
 193:mini3d/scene.c **** {
 194:mini3d/scene.c **** 	Scene3DNode_addShapeWithTransform(node, shape, identityMatrix);
 195:mini3d/scene.c **** }
 196:mini3d/scene.c **** 
ARM GAS  /var/folders/cs/83z6p2tj4w57s6p2rt8nwfp00000gn/T//cc3yBana.s 			page 6


 197:mini3d/scene.c **** Scene3DNode*
 198:mini3d/scene.c **** Scene3DNode_newChild(Scene3DNode* node)
 199:mini3d/scene.c **** {
 200:mini3d/scene.c **** 	node->childNodes = m3d_realloc(node->childNodes, sizeof(Scene3DNode*) * (node->nChildren + 1));
 201:mini3d/scene.c **** 
 202:mini3d/scene.c **** 	Scene3DNode* child = m3d_malloc(sizeof(Scene3DNode));
 203:mini3d/scene.c **** 	Scene3DNode_init(child);
 204:mini3d/scene.c **** 
 205:mini3d/scene.c **** 	node->childNodes[node->nChildren++] = child;
 206:mini3d/scene.c **** 	child->parentNode = node;
 207:mini3d/scene.c **** 
 208:mini3d/scene.c **** 	return child;
 209:mini3d/scene.c **** }
 210:mini3d/scene.c **** 
 211:mini3d/scene.c **** static void
 212:mini3d/scene.c **** Scene3D_updateShapeInstance(Scene3D* scene, ShapeInstance* shape, Matrix3D xform, float colorBias, 
 213:mini3d/scene.c **** {
 214:mini3d/scene.c **** 	Shape3D* proto = shape->prototype;
 215:mini3d/scene.c **** 	int i;
 216:mini3d/scene.c **** 
 217:mini3d/scene.c **** 	// transform points
 218:mini3d/scene.c **** 
 219:mini3d/scene.c **** 	for ( i = 0; i < shape->nPoints; ++i )
 220:mini3d/scene.c **** 		shape->points[i] = Matrix3D_apply(xform, Matrix3D_apply(shape->transform, proto->points[i]));
 221:mini3d/scene.c **** 
 222:mini3d/scene.c **** 	shape->center = Matrix3D_apply(xform, Matrix3D_apply(shape->transform, proto->center));
 223:mini3d/scene.c **** 	shape->colorBias = proto->colorBias + colorBias;
 224:mini3d/scene.c **** 	shape->renderStyle = style;
 225:mini3d/scene.c **** 	shape->inverted = xform.inverting;
 226:mini3d/scene.c **** 
 227:mini3d/scene.c **** #if ENABLE_ORDERING_TABLE
 228:mini3d/scene.c **** 	float zmin = 1e23f;
 229:mini3d/scene.c **** 	float zmax = 0;
 230:mini3d/scene.c **** 	int ordersize = shape->prototype->orderTableSize;
 231:mini3d/scene.c **** 
 232:mini3d/scene.c **** 	if ( ordersize != shape->orderTableSize )
 233:mini3d/scene.c **** 	{
 234:mini3d/scene.c **** 		shape->orderTableSize = ordersize;
 235:mini3d/scene.c **** 		shape->orderTable = m3d_realloc(shape->orderTable, ordersize * sizeof(FaceInstance*));
 236:mini3d/scene.c **** 	}
 237:mini3d/scene.c **** 
 238:mini3d/scene.c **** 	memset(shape->orderTable, 0, ordersize * sizeof(FaceInstance*));
 239:mini3d/scene.c **** #endif
 240:mini3d/scene.c **** 
 241:mini3d/scene.c **** 	// recompute face normals
 242:mini3d/scene.c **** 
 243:mini3d/scene.c **** 	for ( i = 0; i < shape->nFaces; ++i )
 244:mini3d/scene.c **** 	{
 245:mini3d/scene.c **** 		FaceInstance* face = &shape->faces[i];
 246:mini3d/scene.c **** 		face->normal = pnormal(face->p1, face->p2, face->p3);
 247:mini3d/scene.c **** 
 248:mini3d/scene.c **** #if ENABLE_ORDERING_TABLE
 249:mini3d/scene.c **** 		if ( ordersize > 0 )
 250:mini3d/scene.c **** 		{
 251:mini3d/scene.c **** 			float z = face->p1->z + face->p2->z + face->p3->z;
 252:mini3d/scene.c **** 
 253:mini3d/scene.c **** 			if ( z < zmin ) zmin = z;
ARM GAS  /var/folders/cs/83z6p2tj4w57s6p2rt8nwfp00000gn/T//cc3yBana.s 			page 7


 254:mini3d/scene.c **** 			if ( z > zmax ) zmax = z;
 255:mini3d/scene.c **** 		}
 256:mini3d/scene.c **** #endif
 257:mini3d/scene.c **** 	}
 258:mini3d/scene.c **** 
 259:mini3d/scene.c **** 	// apply perspective, scale to display
 260:mini3d/scene.c **** 
 261:mini3d/scene.c **** 	for ( i = 0; i < shape->nPoints; ++i )
 262:mini3d/scene.c **** 	{
 263:mini3d/scene.c **** 		Point3D* p = &shape->points[i];
 264:mini3d/scene.c **** 
 265:mini3d/scene.c **** 		if ( p->z > 0 )
 266:mini3d/scene.c **** 		{
 267:mini3d/scene.c **** 			if ( scene->hasPerspective )
 268:mini3d/scene.c **** 			{
 269:mini3d/scene.c **** 				p->x = scene->scale * (p->x / p->z + 1.6666666f * scene->centerx);
 270:mini3d/scene.c **** 				p->y = scene->scale * (p->y / p->z + scene->centery);
 271:mini3d/scene.c **** 			}
 272:mini3d/scene.c **** 			else
 273:mini3d/scene.c **** 			{
 274:mini3d/scene.c **** 				p->x = scene->scale * (p->x + 1.6666666f * scene->centerx);
 275:mini3d/scene.c **** 				p->y = scene->scale * (p->y + scene->centery);
 276:mini3d/scene.c **** 			}
 277:mini3d/scene.c **** 		}
 278:mini3d/scene.c **** 
 279:mini3d/scene.c **** #if ENABLE_Z_BUFFER
 280:mini3d/scene.c **** 		if ( p->z < scene->zmin )
 281:mini3d/scene.c **** 			scene->zmin = p->z;
 282:mini3d/scene.c **** #endif
 283:mini3d/scene.c **** 	}
 284:mini3d/scene.c **** 
 285:mini3d/scene.c **** #if ENABLE_ORDERING_TABLE
 286:mini3d/scene.c **** 	// Put faces in bins separated by average z value
 287:mini3d/scene.c **** 
 288:mini3d/scene.c **** 	if ( ordersize > 0 )
 289:mini3d/scene.c **** 	{
 290:mini3d/scene.c **** 		float d = zmax - zmin + 0.0001f;
 291:mini3d/scene.c **** 
 292:mini3d/scene.c **** 		for ( i = 0; i < shape->nFaces; ++i )
 293:mini3d/scene.c **** 		{
 294:mini3d/scene.c **** 			FaceInstance* face = &shape->faces[i];
 295:mini3d/scene.c **** 
 296:mini3d/scene.c **** 			int idx = ordersize * (face->p1->z + face->p2->z + face->p3->z - zmin) / d;
 297:mini3d/scene.c **** 			face->next = shape->orderTable[idx];
 298:mini3d/scene.c **** 			shape->orderTable[idx] = face;
 299:mini3d/scene.c **** 		}
 300:mini3d/scene.c **** 	}
 301:mini3d/scene.c **** #endif
 302:mini3d/scene.c **** }
 303:mini3d/scene.c **** 
 304:mini3d/scene.c **** void
 305:mini3d/scene.c **** Scene3D_updateNode(Scene3D* scene, Scene3DNode* node, Matrix3D xform, float colorBias, RenderStyle 
 306:mini3d/scene.c **** {
 307:mini3d/scene.c **** 	if ( !node->isVisible )
 308:mini3d/scene.c **** 		return;
 309:mini3d/scene.c **** 
 310:mini3d/scene.c **** 	if ( node->needsUpdate )
ARM GAS  /var/folders/cs/83z6p2tj4w57s6p2rt8nwfp00000gn/T//cc3yBana.s 			page 8


 311:mini3d/scene.c **** 	{
 312:mini3d/scene.c **** 		update = 1;
 313:mini3d/scene.c **** 		node->needsUpdate = 0;
 314:mini3d/scene.c **** 	}
 315:mini3d/scene.c **** 
 316:mini3d/scene.c **** 	if ( update )
 317:mini3d/scene.c **** 	{
 318:mini3d/scene.c **** 		xform = Matrix3D_multiply(node->transform, xform);
 319:mini3d/scene.c **** 		colorBias += node->colorBias;
 320:mini3d/scene.c **** 
 321:mini3d/scene.c **** 		if ( node->renderStyle != kRenderInheritStyle )
 322:mini3d/scene.c **** 			style = node->renderStyle;
 323:mini3d/scene.c **** 
 324:mini3d/scene.c **** 		ShapeInstance* shape = node->shapes;
 325:mini3d/scene.c **** 
 326:mini3d/scene.c **** 		while ( shape != NULL )
 327:mini3d/scene.c **** 		{
 328:mini3d/scene.c **** 			Scene3D_updateShapeInstance(scene, shape, xform, colorBias, style);
 329:mini3d/scene.c **** #if ENABLE_Z_BUFFER
 330:mini3d/scene.c **** 			shape->useZBuffer = node->useZBuffer;
 331:mini3d/scene.c **** #endif
 332:mini3d/scene.c **** 			shape = shape->next;
 333:mini3d/scene.c **** 		}
 334:mini3d/scene.c **** 
 335:mini3d/scene.c **** 		int i;
 336:mini3d/scene.c **** 
 337:mini3d/scene.c **** 		for ( i = 0; i < node->nChildren; ++i )
 338:mini3d/scene.c **** 			Scene3D_updateNode(scene, node->childNodes[i], xform, colorBias, style, update);
 339:mini3d/scene.c **** 	}
 340:mini3d/scene.c **** }
 341:mini3d/scene.c **** 
 342:mini3d/scene.c **** 
 343:mini3d/scene.c **** void
 344:mini3d/scene.c **** Scene3D_init(Scene3D* scene)
 345:mini3d/scene.c **** {
 346:mini3d/scene.c **** 	scene->hasPerspective = 1;
 347:mini3d/scene.c **** 
 348:mini3d/scene.c **** 	Scene3D_setCamera(scene, (Point3D){ 0, 0, 0 }, (Point3D){ 0, 0, 1 }, 1.0, (Vector3D){ 0, 1, 0 });
 349:mini3d/scene.c **** 	Scene3D_setGlobalLight(scene, (Vector3D){ 0, -1, 0 });
 350:mini3d/scene.c **** 
 351:mini3d/scene.c **** 	Scene3D_setCenter(scene, 0.5, 0.5);
 352:mini3d/scene.c **** 
 353:mini3d/scene.c **** 	Scene3DNode_init(&scene->root);
 354:mini3d/scene.c **** 
 355:mini3d/scene.c **** 	scene->shapelist = NULL;
 356:mini3d/scene.c **** 	scene->shapelistsize = 0;
 357:mini3d/scene.c **** }
 358:mini3d/scene.c **** 
 359:mini3d/scene.c **** void
 360:mini3d/scene.c **** Scene3D_deinit(Scene3D* scene)
 361:mini3d/scene.c **** {
 362:mini3d/scene.c **** 	if ( scene->shapelist != NULL )
 363:mini3d/scene.c **** 		m3d_free(scene->shapelist);
 364:mini3d/scene.c **** 
 365:mini3d/scene.c **** 	Scene3DNode_deinit(&scene->root);
 366:mini3d/scene.c **** }
 367:mini3d/scene.c **** 
ARM GAS  /var/folders/cs/83z6p2tj4w57s6p2rt8nwfp00000gn/T//cc3yBana.s 			page 9


 368:mini3d/scene.c **** void
 369:mini3d/scene.c **** Scene3D_setGlobalLight(Scene3D* scene, Vector3D light)
 370:mini3d/scene.c **** {
 371:mini3d/scene.c **** 	scene->light = light;
 372:mini3d/scene.c **** }
 373:mini3d/scene.c **** 
 374:mini3d/scene.c **** void
 375:mini3d/scene.c **** Scene3D_setCenter(Scene3D* scene, float x, float y)
 376:mini3d/scene.c **** {
 377:mini3d/scene.c **** 	scene->centerx = x;
 378:mini3d/scene.c **** 	scene->centery = y;
 379:mini3d/scene.c **** }
 380:mini3d/scene.c **** 
 381:mini3d/scene.c **** Scene3DNode*
 382:mini3d/scene.c **** Scene3D_getRootNode(Scene3D* scene)
 383:mini3d/scene.c **** {
 384:mini3d/scene.c **** 	return &scene->root;
 385:mini3d/scene.c **** }
 386:mini3d/scene.c **** 
 387:mini3d/scene.c **** static int
 388:mini3d/scene.c **** getShapesAtNode(Scene3D* scene, Scene3DNode* node, int count)
 389:mini3d/scene.c **** {
  90              		.loc 1 389 1 view -0
  91              		.cfi_startproc
  92              		@ args = 0, pretend = 0, frame = 0
  93              		@ frame_needed = 0, uses_anonymous_args = 0
 390:mini3d/scene.c **** 	if ( !node->isVisible )
  94              		.loc 1 390 2 view .LVU1
  95              	@ mini3d/scene.c:390: 	if ( !node->isVisible )
  96              		.loc 1 390 7 is_stmt 0 view .LVU2
  97 0000 91F84D30 		ldrb	r3, [r1, #77]	@ zero_extendqisi2	@ *node_33(D), *node_33(D)
  98              	@ mini3d/scene.c:390: 	if ( !node->isVisible )
  99              		.loc 1 390 5 view .LVU3
 100 0004 DB07     		lsls	r3, r3, #31	@, *node_33(D),
 101              	@ mini3d/scene.c:389: {
 389:mini3d/scene.c **** 	if ( !node->isVisible )
 102              		.loc 1 389 1 view .LVU4
 103 0006 2DE9F041 		push	{r4, r5, r6, r7, r8, lr}	@
 104              	.LCFI0:
 105              		.cfi_def_cfa_offset 24
 106              		.cfi_offset 4, -24
 107              		.cfi_offset 5, -20
 108              		.cfi_offset 6, -16
 109              		.cfi_offset 7, -12
 110              		.cfi_offset 8, -8
 111              		.cfi_offset 14, -4
 112              	@ mini3d/scene.c:389: {
 389:mini3d/scene.c **** 	if ( !node->isVisible )
 113              		.loc 1 389 1 view .LVU5
 114 000a 1446     		mov	r4, r2	@ count, tmp161
 115              	@ mini3d/scene.c:390: 	if ( !node->isVisible )
 116              		.loc 1 390 5 view .LVU6
 117 000c 32D5     		bpl	.L2		@,
 391:mini3d/scene.c **** 		return count;
 392:mini3d/scene.c **** 
 393:mini3d/scene.c **** 	ShapeInstance* shape = node->shapes;
 118              		.loc 1 393 2 is_stmt 1 view .LVU7
ARM GAS  /var/folders/cs/83z6p2tj4w57s6p2rt8nwfp00000gn/T//cc3yBana.s 			page 10


 119              	@ mini3d/scene.c:393: 	ShapeInstance* shape = node->shapes;
 120              		.loc 1 393 17 is_stmt 0 view .LVU8
 121 000e 4D6C     		ldr	r5, [r1, #68]	@ shape, node_33(D)->shapes
 122              	.LVL1:
 394:mini3d/scene.c **** 	ShapeInstance** shapes = scene->shapelist;
 123              		.loc 1 394 2 is_stmt 1 view .LVU9
 124 0010 0646     		mov	r6, r0	@ scene, tmp159
 125 0012 0F46     		mov	r7, r1	@ node, tmp160
 126              	@ mini3d/scene.c:394: 	ShapeInstance** shapes = scene->shapelist;
 127              		.loc 1 394 18 is_stmt 0 view .LVU10
 128 0014 D0F8A400 		ldr	r0, [r0, #164]	@ shapes, scene_35(D)->shapelist
 129              	.LVL2:
 395:mini3d/scene.c **** 
 396:mini3d/scene.c **** 	while ( shape != NULL )
 130              		.loc 1 396 2 is_stmt 1 view .LVU11
 131              		.loc 1 396 8 view .LVU12
 132 0018 E5B1     		cbz	r5, .L3	@ shape,
 133 001a D6F8A830 		ldr	r3, [r6, #168]	@ _3, scene_35(D)->shapelistsize
 134              	@ mini3d/scene.c:403: 			scene->shapelist = m3d_realloc(scene->shapelist, (scene->shapelistsize + S
 397:mini3d/scene.c **** 	{
 398:mini3d/scene.c **** 		// check if shape is outside camera view: apply camera transform to shape center
 399:mini3d/scene.c **** 
 400:mini3d/scene.c **** 		if ( count + 1 > scene->shapelistsize )
 401:mini3d/scene.c **** 		{
 402:mini3d/scene.c **** #define SHAPELIST_INCREMENT 16
 403:mini3d/scene.c **** 			scene->shapelist = m3d_realloc(scene->shapelist, (scene->shapelistsize + SHAPELIST_INCREMENT) * 
 135              		.loc 1 403 23 is_stmt 0 view .LVU13
 136 001e DFF85C80 		ldr	r8, .L17	@ tmp158,
 137              	.LVL3:
 138              	.L5:
 400:mini3d/scene.c **** 		{
 139              		.loc 1 400 3 is_stmt 1 view .LVU14
 140              		.loc 1 403 4 view .LVU15
 141              	@ mini3d/scene.c:403: 			scene->shapelist = m3d_realloc(scene->shapelist, (scene->shapelistsize + S
 142              		.loc 1 403 75 is_stmt 0 view .LVU16
 143 0022 03F11002 		add	r2, r3, #16	@ tmp143, _3,
 144              	@ mini3d/scene.c:400: 		if ( count + 1 > scene->shapelistsize )
 400:mini3d/scene.c **** 		{
 145              		.loc 1 400 6 view .LVU17
 146 0026 A342     		cmp	r3, r4	@ _3, count
 147              	@ mini3d/scene.c:409: 		shapes[count++] = shape;
 404:mini3d/scene.c **** 			shapes = scene->shapelist;
 405:mini3d/scene.c **** 
 406:mini3d/scene.c **** 			scene->shapelistsize += SHAPELIST_INCREMENT;
 407:mini3d/scene.c **** 		}
 408:mini3d/scene.c **** 
 409:mini3d/scene.c **** 		shapes[count++] = shape;
 148              		.loc 1 409 15 view .LVU18
 149 0028 04F10104 		add	r4, r4, #1	@ count, count,
 150              	.LVL4:
 151              	@ mini3d/scene.c:403: 			scene->shapelist = m3d_realloc(scene->shapelist, (scene->shapelistsize + S
 403:mini3d/scene.c **** 			shapes = scene->shapelist;
 152              		.loc 1 403 23 view .LVU19
 153 002c 4FEA8201 		lsl	r1, r2, #2	@, tmp143,
 154              	@ mini3d/scene.c:400: 		if ( count + 1 > scene->shapelistsize )
 400:mini3d/scene.c **** 		{
 155              		.loc 1 400 6 view .LVU20
ARM GAS  /var/folders/cs/83z6p2tj4w57s6p2rt8nwfp00000gn/T//cc3yBana.s 			page 11


 156 0030 09DC     		bgt	.L4		@,
 157              	@ mini3d/scene.c:403: 			scene->shapelist = m3d_realloc(scene->shapelist, (scene->shapelistsize + S
 403:mini3d/scene.c **** 			shapes = scene->shapelist;
 158              		.loc 1 403 23 view .LVU21
 159 0032 D8F80030 		ldr	r3, [r8]	@ m3d_realloc, m3d_realloc
 160 0036 D6F8A400 		ldr	r0, [r6, #164]	@, scene_35(D)->shapelist
 161              	.LVL5:
 403:mini3d/scene.c **** 			shapes = scene->shapelist;
 162              		.loc 1 403 23 view .LVU22
 163 003a 9847     		blx	r3		@ m3d_realloc
 164              	.LVL6:
 165              	@ mini3d/scene.c:406: 			scene->shapelistsize += SHAPELIST_INCREMENT;
 406:mini3d/scene.c **** 		}
 166              		.loc 1 406 25 view .LVU23
 167 003c D6F8A830 		ldr	r3, [r6, #168]	@ _3, scene_35(D)->shapelistsize
 168 0040 1033     		adds	r3, r3, #16	@ _3, _3,
 169 0042 C6E92903 		strd	r0, r3, [r6, #164]	@ shapes, _3, scene,
 170              	.L4:
 171              	.LVL7:
 172              		.loc 1 409 3 is_stmt 1 view .LVU24
 173              	@ mini3d/scene.c:409: 		shapes[count++] = shape;
 174              		.loc 1 409 19 is_stmt 0 view .LVU25
 175 0046 00EB8402 		add	r2, r0, r4, lsl #2	@ tmp150, shapes, count,
 176 004a 42F8045C 		str	r5, [r2, #-4]	@ shape, *_14
 410:mini3d/scene.c **** 		shape = shape->next;
 177              		.loc 1 410 3 is_stmt 1 view .LVU26
 178              	@ mini3d/scene.c:410: 		shape = shape->next;
 179              		.loc 1 410 9 is_stmt 0 view .LVU27
 180 004e AD6B     		ldr	r5, [r5, #56]	@ shape, shape_58->next
 181              	.LVL8:
 396:mini3d/scene.c **** 	{
 182              		.loc 1 396 8 is_stmt 1 view .LVU28
 183 0050 002D     		cmp	r5, #0	@ shape
 184 0052 E6D1     		bne	.L5	@
 185              	.L3:
 186              	.LVL9:
 411:mini3d/scene.c **** 	}
 412:mini3d/scene.c **** 
 413:mini3d/scene.c **** 	int i;
 414:mini3d/scene.c **** 
 415:mini3d/scene.c **** 	for ( i = 0; i < node->nChildren; ++i )
 187              		.loc 1 415 15 view .LVU29
 188              	@ mini3d/scene.c:415: 	for ( i = 0; i < node->nChildren; ++i )
 189              		.loc 1 415 2 is_stmt 0 view .LVU30
 190 0054 BB6B     		ldr	r3, [r7, #56]	@ node_33(D)->nChildren, node_33(D)->nChildren
 191 0056 002B     		cmp	r3, #0	@ node_33(D)->nChildren,
 192 0058 0CDD     		ble	.L2		@,
 193              	@ mini3d/scene.c:415: 	for ( i = 0; i < node->nChildren; ++i )
 194              		.loc 1 415 10 view .LVU31
 195 005a 0025     		movs	r5, #0	@ i,
 196              	.LVL10:
 197              	.L6:
 416:mini3d/scene.c **** 		count = getShapesAtNode(scene, node->childNodes[i], count);
 198              		.loc 1 416 3 is_stmt 1 discriminator 3 view .LVU32
 199              	@ mini3d/scene.c:416: 		count = getShapesAtNode(scene, node->childNodes[i], count);
 200              		.loc 1 416 11 is_stmt 0 discriminator 3 view .LVU33
 201 005c FB6B     		ldr	r3, [r7, #60]	@ node_33(D)->childNodes, node_33(D)->childNodes
ARM GAS  /var/folders/cs/83z6p2tj4w57s6p2rt8nwfp00000gn/T//cc3yBana.s 			page 12


 202 005e 2246     		mov	r2, r4	@, count
 203 0060 3046     		mov	r0, r6	@, scene
 204 0062 53F82510 		ldr	r1, [r3, r5, lsl #2]	@, *_18
 205              	@ mini3d/scene.c:415: 	for ( i = 0; i < node->nChildren; ++i )
 415:mini3d/scene.c **** 		count = getShapesAtNode(scene, node->childNodes[i], count);
 206              		.loc 1 415 36 discriminator 3 view .LVU34
 207 0066 0135     		adds	r5, r5, #1	@ i, i,
 208              	.LVL11:
 209              	@ mini3d/scene.c:416: 		count = getShapesAtNode(scene, node->childNodes[i], count);
 210              		.loc 1 416 11 discriminator 3 view .LVU35
 211 0068 FFF7CAFF 		bl	getShapesAtNode		@
 212              	.LVL12:
 213              	@ mini3d/scene.c:415: 	for ( i = 0; i < node->nChildren; ++i )
 415:mini3d/scene.c **** 		count = getShapesAtNode(scene, node->childNodes[i], count);
 214              		.loc 1 415 2 discriminator 3 view .LVU36
 215 006c BB6B     		ldr	r3, [r7, #56]	@ node_33(D)->nChildren, node_33(D)->nChildren
 216              	@ mini3d/scene.c:416: 		count = getShapesAtNode(scene, node->childNodes[i], count);
 217              		.loc 1 416 11 discriminator 3 view .LVU37
 218 006e 0446     		mov	r4, r0	@ count, tmp163
 219              	.LVL13:
 415:mini3d/scene.c **** 		count = getShapesAtNode(scene, node->childNodes[i], count);
 220              		.loc 1 415 36 is_stmt 1 discriminator 3 view .LVU38
 415:mini3d/scene.c **** 		count = getShapesAtNode(scene, node->childNodes[i], count);
 221              		.loc 1 415 15 discriminator 3 view .LVU39
 222              	@ mini3d/scene.c:415: 	for ( i = 0; i < node->nChildren; ++i )
 415:mini3d/scene.c **** 		count = getShapesAtNode(scene, node->childNodes[i], count);
 223              		.loc 1 415 2 is_stmt 0 discriminator 3 view .LVU40
 224 0070 AB42     		cmp	r3, r5	@ node_33(D)->nChildren, i
 225 0072 F3DC     		bgt	.L6		@,
 226              	.LVL14:
 227              	.L2:
 228              	@ mini3d/scene.c:419: }
 417:mini3d/scene.c **** 
 418:mini3d/scene.c **** 	return count;
 419:mini3d/scene.c **** }
 229              		.loc 1 419 1 view .LVU41
 230 0074 2046     		mov	r0, r4	@, count
 231 0076 BDE8F081 		pop	{r4, r5, r6, r7, r8, pc}	@
 232              	.LVL15:
 233              	.L18:
 234              		.loc 1 419 1 view .LVU42
 235 007a 00BF     		.align	2
 236              	.L17:
 237 007c 00000000 		.word	m3d_realloc
 238              		.cfi_endproc
 239              	.LFE32:
 240              		.size	getShapesAtNode, .-getShapesAtNode
 241              		.section	.text.compareZ,"ax",%progbits
 242              		.align	1
 243              		.p2align 4,,15
 244              		.syntax unified
 245              		.thumb
 246              		.thumb_func
 247              		.fpu fpv5-sp-d16
 248              		.type	compareZ, %function
 249              	compareZ:
 250              	.LVL16:
ARM GAS  /var/folders/cs/83z6p2tj4w57s6p2rt8nwfp00000gn/T//cc3yBana.s 			page 13


 251              	.LFB37:
 420:mini3d/scene.c **** 
 421:mini3d/scene.c **** void
 422:mini3d/scene.c **** Scene3D_setCamera(Scene3D* scene, Point3D origin, Point3D lookAt, float scale, Vector3D up)
 423:mini3d/scene.c **** {
 424:mini3d/scene.c **** 	Matrix3D camera = identityMatrix;
 425:mini3d/scene.c **** 	camera.isIdentity = 0;
 426:mini3d/scene.c **** 	
 427:mini3d/scene.c **** 	camera.dx = -origin.x;
 428:mini3d/scene.c **** 	camera.dy = -origin.y;
 429:mini3d/scene.c **** 	camera.dz = -origin.z;
 430:mini3d/scene.c **** 
 431:mini3d/scene.c **** 	Vector3D dir = Vector3DMake(lookAt.x - origin.x, lookAt.y - origin.y, lookAt.z - origin.z);
 432:mini3d/scene.c **** 	
 433:mini3d/scene.c **** 	float l = sqrtf(Vector3D_lengthSquared(&dir));
 434:mini3d/scene.c **** 	
 435:mini3d/scene.c **** 	dir.dx /= l;
 436:mini3d/scene.c **** 	dir.dy /= l;
 437:mini3d/scene.c **** 	dir.dz /= l;
 438:mini3d/scene.c **** 	
 439:mini3d/scene.c **** 	scene->scale = 240 * scale;
 440:mini3d/scene.c **** 
 441:mini3d/scene.c **** 	// first yaw around the y axis
 442:mini3d/scene.c **** 
 443:mini3d/scene.c **** 	float h = 0;
 444:mini3d/scene.c **** 
 445:mini3d/scene.c **** 	if ( dir.dx != 0 || dir.dz != 0 )
 446:mini3d/scene.c **** 	{
 447:mini3d/scene.c **** 		h = sqrtf(dir.dx * dir.dx + dir.dz * dir.dz);
 448:mini3d/scene.c **** 		
 449:mini3d/scene.c **** 		Matrix3D yaw = Matrix3DMake(dir.dz/h, 0, -dir.dx/h, 0, 1, 0, dir.dx/h, 0, dir.dz/h, 0);
 450:mini3d/scene.c **** 		camera = Matrix3D_multiply(camera, yaw);
 451:mini3d/scene.c **** 	}
 452:mini3d/scene.c **** 
 453:mini3d/scene.c **** 	// then pitch up/down to y elevation
 454:mini3d/scene.c **** 
 455:mini3d/scene.c **** 	Matrix3D pitch = Matrix3DMake(1, 0, 0, 0, h, -dir.dy, 0, dir.dy, h, 0);
 456:mini3d/scene.c **** 	camera = Matrix3D_multiply(camera, pitch);
 457:mini3d/scene.c **** 
 458:mini3d/scene.c **** 	// and roll to position the up vector
 459:mini3d/scene.c **** 
 460:mini3d/scene.c **** 	if ( up.dx != 0 || up.dy != 0 )
 461:mini3d/scene.c **** 	{
 462:mini3d/scene.c **** 		l = sqrtf(up.dx * up.dx + up.dy * up.dy);
 463:mini3d/scene.c **** 		Matrix3D roll = Matrix3DMake(up.dy/l, up.dx/l, 0, -up.dx/l, up.dy/l, 0, 0, 0, 1, 0);
 464:mini3d/scene.c **** 	
 465:mini3d/scene.c **** 		scene->camera = Matrix3D_multiply(camera, roll);
 466:mini3d/scene.c **** 	}
 467:mini3d/scene.c **** 	else
 468:mini3d/scene.c **** 		scene->camera = camera;
 469:mini3d/scene.c **** 
 470:mini3d/scene.c **** 	scene->root.needsUpdate = 1;
 471:mini3d/scene.c **** }
 472:mini3d/scene.c **** 
 473:mini3d/scene.c **** typedef uint8_t Pattern[8];
 474:mini3d/scene.c **** 
 475:mini3d/scene.c **** static Pattern patterns[] =
ARM GAS  /var/folders/cs/83z6p2tj4w57s6p2rt8nwfp00000gn/T//cc3yBana.s 			page 14


 476:mini3d/scene.c **** {
 477:mini3d/scene.c **** 	{ 0x00, 0x00, 0x00, 0x00, 0x00, 0x00, 0x00, 0x00 },
 478:mini3d/scene.c **** 	{ 0x80, 0x00, 0x00, 0x00, 0x08, 0x00, 0x00, 0x00 },
 479:mini3d/scene.c **** 	{ 0x88, 0x00, 0x00, 0x00, 0x88, 0x00, 0x00, 0x00 },
 480:mini3d/scene.c **** 	{ 0x88, 0x00, 0x20, 0x00, 0x88, 0x00, 0x02, 0x00 },
 481:mini3d/scene.c **** 	{ 0x88, 0x00, 0x22, 0x00, 0x88, 0x00, 0x22, 0x00 },
 482:mini3d/scene.c **** 	{ 0xa8, 0x00, 0x22, 0x00, 0x8a, 0x00, 0x22, 0x00 },
 483:mini3d/scene.c **** 	{ 0xaa, 0x00, 0x22, 0x00, 0xaa, 0x00, 0x22, 0x00 },
 484:mini3d/scene.c **** 	{ 0xaa, 0x00, 0xa2, 0x00, 0xaa, 0x00, 0x2a, 0x00 },
 485:mini3d/scene.c **** 	{ 0xaa, 0x00, 0xaa, 0x00, 0xaa, 0x00, 0xaa, 0x00 },
 486:mini3d/scene.c **** 	{ 0xaa, 0x40, 0xaa, 0x00, 0xaa, 0x04, 0xaa, 0x00 },
 487:mini3d/scene.c **** 	{ 0xaa, 0x44, 0xaa, 0x00, 0xaa, 0x44, 0xaa, 0x00 },
 488:mini3d/scene.c **** 	{ 0xaa, 0x44, 0xaa, 0x10, 0xaa, 0x44, 0xaa, 0x01 },
 489:mini3d/scene.c **** 	{ 0xaa, 0x44, 0xaa, 0x11, 0xaa, 0x44, 0xaa, 0x11 },
 490:mini3d/scene.c **** 	{ 0xaa, 0x54, 0xaa, 0x11, 0xaa, 0x45, 0xaa, 0x11 },
 491:mini3d/scene.c **** 	{ 0xaa, 0x55, 0xaa, 0x11, 0xaa, 0x55, 0xaa, 0x11 },
 492:mini3d/scene.c **** 	{ 0xaa, 0x55, 0xaa, 0x51, 0xaa, 0x55, 0xaa, 0x15 },
 493:mini3d/scene.c **** 	{ 0xaa, 0x55, 0xaa, 0x55, 0xaa, 0x55, 0xaa, 0x55 },
 494:mini3d/scene.c **** 	{ 0xba, 0x55, 0xaa, 0x55, 0xab, 0x55, 0xaa, 0x55 },
 495:mini3d/scene.c **** 	{ 0xbb, 0x55, 0xaa, 0x55, 0xbb, 0x55, 0xaa, 0x55 },
 496:mini3d/scene.c **** 	{ 0xbb, 0x55, 0xea, 0x55, 0xbb, 0x55, 0xae, 0x55 },
 497:mini3d/scene.c **** 	{ 0xbb, 0x55, 0xee, 0x55, 0xbb, 0x55, 0xee, 0x55 },
 498:mini3d/scene.c **** 	{ 0xfb, 0x55, 0xee, 0x55, 0xbf, 0x55, 0xee, 0x55 },
 499:mini3d/scene.c **** 	{ 0xff, 0x55, 0xee, 0x55, 0xff, 0x55, 0xee, 0x55 },
 500:mini3d/scene.c **** 	{ 0xff, 0x55, 0xfe, 0x55, 0xff, 0x55, 0xef, 0x55 },
 501:mini3d/scene.c **** 	{ 0xff, 0x55, 0xff, 0x55, 0xff, 0x55, 0xff, 0x55 },
 502:mini3d/scene.c **** 	{ 0xff, 0x55, 0xff, 0xd5, 0xff, 0x55, 0xff, 0x5d },
 503:mini3d/scene.c **** 	{ 0xff, 0x55, 0xff, 0xdd, 0xff, 0x55, 0xff, 0xdd },
 504:mini3d/scene.c **** 	{ 0xff, 0x75, 0xff, 0xdd, 0xff, 0x57, 0xff, 0xdd },
 505:mini3d/scene.c **** 	{ 0xff, 0x77, 0xff, 0xdd, 0xff, 0x77, 0xff, 0xdd },
 506:mini3d/scene.c **** 	{ 0xff, 0x77, 0xff, 0xfd, 0xff, 0x77, 0xff, 0xdf },
 507:mini3d/scene.c **** 	{ 0xff, 0x77, 0xff, 0xff, 0xff, 0x77, 0xff, 0xff },
 508:mini3d/scene.c **** 	{ 0xff, 0xf7, 0xff, 0xff, 0xff, 0x7f, 0xff, 0xff },
 509:mini3d/scene.c **** 	{ 0xff, 0xff, 0xff, 0xff, 0xff, 0xff, 0xff, 0xff }
 510:mini3d/scene.c **** };
 511:mini3d/scene.c **** 
 512:mini3d/scene.c **** static inline void
 513:mini3d/scene.c **** drawShapeFace(Scene3D* scene, ShapeInstance* shape, uint8_t* bitmap, int rowstride, FaceInstance* f
 514:mini3d/scene.c **** {
 515:mini3d/scene.c **** 	// If any vertex is behind the camera, skip it
 516:mini3d/scene.c **** 
 517:mini3d/scene.c **** 	if ( face->p1->z <= 0 || face->p2->z <= 0 || face->p3->z <= 0 )
 518:mini3d/scene.c **** 		return;
 519:mini3d/scene.c **** 
 520:mini3d/scene.c **** 	float x1 = face->p1->x;
 521:mini3d/scene.c **** 	float y1 = face->p1->y;
 522:mini3d/scene.c **** 	float x2 = face->p2->x;
 523:mini3d/scene.c **** 	float y2 = face->p2->y;
 524:mini3d/scene.c **** 	float x3 = face->p3->x;
 525:mini3d/scene.c **** 	float y3 = face->p3->y;
 526:mini3d/scene.c **** 
 527:mini3d/scene.c **** 	// quick bounds check
 528:mini3d/scene.c **** 
 529:mini3d/scene.c **** 	if ( (x1 < 0 && x2 < 0 && x3 < 0 && (face->p4 == NULL || face->p4->x < 0)) ||
 530:mini3d/scene.c **** 		 (x1 >= WIDTH && x2 >= WIDTH && x3 >= WIDTH && (face->p4 == NULL || face->p4->x >= WIDTH)) ||
 531:mini3d/scene.c **** 		 (y1 < 0 && y2 < 0 && y3 < 0 && (face->p4 == NULL || face->p4->y < 0)) ||
 532:mini3d/scene.c **** 		 (y1 >= HEIGHT && y2 >= HEIGHT && y3 >= HEIGHT && (face->p4 == NULL || face->p4->y >= HEIGHT)) )
ARM GAS  /var/folders/cs/83z6p2tj4w57s6p2rt8nwfp00000gn/T//cc3yBana.s 			page 15


 533:mini3d/scene.c **** 		return;
 534:mini3d/scene.c **** 
 535:mini3d/scene.c **** 	if ( shape->prototype->isClosed )
 536:mini3d/scene.c **** 	{
 537:mini3d/scene.c **** 		// only render front side of faces
 538:mini3d/scene.c **** 
 539:mini3d/scene.c **** 		float d;
 540:mini3d/scene.c **** 
 541:mini3d/scene.c **** 		if ( scene->hasPerspective ) // use winding order
 542:mini3d/scene.c **** 			d = (x2 - x1) * (y3 - y1) - (y2 - y1) * (x3 - x1);
 543:mini3d/scene.c **** 		else // use direction of normal
 544:mini3d/scene.c **** 			d = face->normal.dz;
 545:mini3d/scene.c **** 
 546:mini3d/scene.c **** 		if ( (d >= 0) ^ (shape->inverted ? 1 : 0) )
 547:mini3d/scene.c **** 			return;
 548:mini3d/scene.c **** 	}
 549:mini3d/scene.c **** 
 550:mini3d/scene.c **** 	// lighting
 551:mini3d/scene.c **** 
 552:mini3d/scene.c **** 	float c = face->colorBias + shape->colorBias;
 553:mini3d/scene.c **** 	float v;
 554:mini3d/scene.c **** 
 555:mini3d/scene.c **** 	if ( c <= -1 )
 556:mini3d/scene.c **** 		v = 0;
 557:mini3d/scene.c **** 	else if ( c >= 1 )
 558:mini3d/scene.c **** 		v = 1;
 559:mini3d/scene.c **** 	else
 560:mini3d/scene.c **** 	{
 561:mini3d/scene.c **** 		if ( shape->inverted )
 562:mini3d/scene.c **** 			v = (1.0f + Vector3DDot(face->normal, scene->light)) / 2;
 563:mini3d/scene.c **** 		else
 564:mini3d/scene.c **** 			v = (1.0f - Vector3DDot(face->normal, scene->light)) / 2;
 565:mini3d/scene.c **** 
 566:mini3d/scene.c **** 		if ( c > 0 )
 567:mini3d/scene.c **** 			v = c + (1-c) * v; // map [0,1] to [c,1]
 568:mini3d/scene.c **** 		else if ( c < 0 )
 569:mini3d/scene.c **** 			v *= 1 + c; // map [0,1] to [0, 1+c]
 570:mini3d/scene.c **** 	}
 571:mini3d/scene.c **** 
 572:mini3d/scene.c **** 	// cheap gamma adjust
 573:mini3d/scene.c **** 	// v = v * v;
 574:mini3d/scene.c **** 
 575:mini3d/scene.c **** 	int vi = (int)(32.99f * v);
 576:mini3d/scene.c **** 
 577:mini3d/scene.c **** 	if ( vi > 32 )
 578:mini3d/scene.c **** 		vi = 32;
 579:mini3d/scene.c **** 	else if ( vi < 0 )
 580:mini3d/scene.c **** 		vi = 0;
 581:mini3d/scene.c **** 
 582:mini3d/scene.c **** 	uint8_t* pattern = (uint8_t*)&patterns[vi];
 583:mini3d/scene.c **** 
 584:mini3d/scene.c **** 	if ( face->p4 != NULL )
 585:mini3d/scene.c **** 	{
 586:mini3d/scene.c **** #if ENABLE_Z_BUFFER
 587:mini3d/scene.c **** 		if ( shape->useZBuffer )
 588:mini3d/scene.c **** 			fillQuad_zbuf(bitmap, rowstride, face->p1, face->p2, face->p3, face->p4, pattern);
 589:mini3d/scene.c **** 		else
ARM GAS  /var/folders/cs/83z6p2tj4w57s6p2rt8nwfp00000gn/T//cc3yBana.s 			page 16


 590:mini3d/scene.c **** #endif
 591:mini3d/scene.c **** 			fillQuad(bitmap, rowstride, face->p1, face->p2, face->p3, face->p4, pattern);
 592:mini3d/scene.c **** 	}
 593:mini3d/scene.c **** 	else
 594:mini3d/scene.c **** 	{
 595:mini3d/scene.c **** #if ENABLE_Z_BUFFER
 596:mini3d/scene.c **** 		if ( shape->useZBuffer )
 597:mini3d/scene.c **** 			fillTriangle_zbuf(bitmap, rowstride, face->p1, face->p2, face->p3, pattern);
 598:mini3d/scene.c **** 		else
 599:mini3d/scene.c **** #endif
 600:mini3d/scene.c **** 			fillTriangle(bitmap, rowstride, face->p1, face->p2, face->p3, pattern);
 601:mini3d/scene.c **** 	}
 602:mini3d/scene.c **** }
 603:mini3d/scene.c **** static inline void
 604:mini3d/scene.c **** drawFilledShape(Scene3D* scene, ShapeInstance* shape, uint8_t* bitmap, int rowstride)
 605:mini3d/scene.c **** {
 606:mini3d/scene.c **** #if ENABLE_ORDERING_TABLE
 607:mini3d/scene.c **** 	if ( shape->orderTableSize > 0 )
 608:mini3d/scene.c **** 	{
 609:mini3d/scene.c **** 		for ( int i = shape->orderTableSize - 1; i >= 0; --i )
 610:mini3d/scene.c **** 		{
 611:mini3d/scene.c **** 			FaceInstance* face = shape->orderTable[i];
 612:mini3d/scene.c **** 
 613:mini3d/scene.c **** 			while ( face != NULL )
 614:mini3d/scene.c **** 			{
 615:mini3d/scene.c **** 				drawShapeFace(scene, shape, bitmap, rowstride, face);
 616:mini3d/scene.c **** 				face = face->next;
 617:mini3d/scene.c **** 			}
 618:mini3d/scene.c **** 		}
 619:mini3d/scene.c **** 	}
 620:mini3d/scene.c **** 	else
 621:mini3d/scene.c **** #endif
 622:mini3d/scene.c **** 	for ( int f = 0; f < shape->nFaces; ++f )
 623:mini3d/scene.c **** 		drawShapeFace(scene, shape, bitmap, rowstride, &shape->faces[f]);
 624:mini3d/scene.c **** }
 625:mini3d/scene.c **** 
 626:mini3d/scene.c **** static inline void
 627:mini3d/scene.c **** drawWireframe(Scene3D* scene, ShapeInstance* shape, uint8_t* bitmap, int rowstride)
 628:mini3d/scene.c **** {
 629:mini3d/scene.c **** 	int f;
 630:mini3d/scene.c **** 	RenderStyle style = shape->renderStyle;
 631:mini3d/scene.c **** 	uint8_t* color = patterns[32];
 632:mini3d/scene.c **** 
 633:mini3d/scene.c **** 	for ( f = 0; f < shape->nFaces; ++f )
 634:mini3d/scene.c **** 	{
 635:mini3d/scene.c **** 		FaceInstance* face = &shape->faces[f];
 636:mini3d/scene.c **** 
 637:mini3d/scene.c **** 		// If any vertex is behind the camera, skip it
 638:mini3d/scene.c **** 
 639:mini3d/scene.c **** 		if ( face->p1->z <= 0 || face->p2->z <= 0 || face->p3->z <= 0 || (face->p4 != NULL && face->p4->x
 640:mini3d/scene.c **** 			continue;
 641:mini3d/scene.c **** 
 642:mini3d/scene.c **** 		float x1 = face->p1->x;
 643:mini3d/scene.c **** 		float y1 = face->p1->y;
 644:mini3d/scene.c **** 		float x2 = face->p2->x;
 645:mini3d/scene.c **** 		float y2 = face->p2->y;
 646:mini3d/scene.c **** 		float x3 = face->p3->x;
ARM GAS  /var/folders/cs/83z6p2tj4w57s6p2rt8nwfp00000gn/T//cc3yBana.s 			page 17


 647:mini3d/scene.c **** 		float y3 = face->p3->y;
 648:mini3d/scene.c **** 		float x4 = (face->p4 != NULL) ? face->p4->x : 0;
 649:mini3d/scene.c **** 		float y4 = (face->p4 != NULL) ? face->p4->y : 0;
 650:mini3d/scene.c **** 
 651:mini3d/scene.c **** 		// quick bounds check
 652:mini3d/scene.c **** 
 653:mini3d/scene.c **** 		if ( (x1 < 0 && x2 < 0 && x3 < 0 && x4 < 0) || (x1 >= WIDTH && x2 >= WIDTH && x3 >= WIDTH && x4 >
 654:mini3d/scene.c **** 			 (y1 < 0 && y2 < 0 && y3 < 0 && x4 < 0) || (y1 >= HEIGHT && y2 >= HEIGHT && y3 >= HEIGHT && y4 >
 655:mini3d/scene.c **** 			continue;
 656:mini3d/scene.c **** 
 657:mini3d/scene.c **** 		if ( (style & kRenderWireframeBack) == 0 )
 658:mini3d/scene.c **** 		{
 659:mini3d/scene.c **** 			// only render front side of faces
 660:mini3d/scene.c **** 
 661:mini3d/scene.c **** 			float d;
 662:mini3d/scene.c **** 
 663:mini3d/scene.c **** 			if ( scene->hasPerspective ) // use winding order
 664:mini3d/scene.c **** 				d = (x2 - x1) * (y3 - y1) - (y2 - y1) * (x3 - x1);
 665:mini3d/scene.c **** 			else // use direction of normal
 666:mini3d/scene.c **** 				d = face->normal.dz;
 667:mini3d/scene.c **** 
 668:mini3d/scene.c **** 			if ( (d > 0) ^ (shape->inverted ? 1 : 0) )
 669:mini3d/scene.c **** 				continue;
 670:mini3d/scene.c **** 		}
 671:mini3d/scene.c **** 
 672:mini3d/scene.c **** 		// XXX - can avoid 1/2 the drawing if we're doing the entire shape (kRenderWireframeBack is set)
 673:mini3d/scene.c **** 		// and the shape is closed: skip lines where y1 > y2
 674:mini3d/scene.c **** 
 675:mini3d/scene.c **** #if ENABLE_Z_BUFFER
 676:mini3d/scene.c **** 		if ( shape->useZBuffer )
 677:mini3d/scene.c **** 		{
 678:mini3d/scene.c **** 			drawLine_zbuf(bitmap, rowstride, face->p1, face->p2, 1, color);
 679:mini3d/scene.c **** 			drawLine_zbuf(bitmap, rowstride, face->p2, face->p3, 1, color);
 680:mini3d/scene.c **** 
 681:mini3d/scene.c **** 			if ( face->p4 != NULL )
 682:mini3d/scene.c **** 			{
 683:mini3d/scene.c **** 				drawLine_zbuf(bitmap, rowstride, face->p3, face->p4, 1, color);
 684:mini3d/scene.c **** 				drawLine_zbuf(bitmap, rowstride, face->p4, face->p1, 1, color);
 685:mini3d/scene.c **** 			}
 686:mini3d/scene.c **** 			else
 687:mini3d/scene.c **** 				drawLine_zbuf(bitmap, rowstride, face->p3, face->p1, 1, color);
 688:mini3d/scene.c **** 		}
 689:mini3d/scene.c **** 		else
 690:mini3d/scene.c **** 		{
 691:mini3d/scene.c **** #endif
 692:mini3d/scene.c **** 			drawLine(bitmap, rowstride, face->p1, face->p2, 1, color);
 693:mini3d/scene.c **** 			drawLine(bitmap, rowstride, face->p2, face->p3, 1, color);
 694:mini3d/scene.c **** 
 695:mini3d/scene.c **** 			if ( face->p4 != NULL )
 696:mini3d/scene.c **** 			{
 697:mini3d/scene.c **** 				drawLine(bitmap, rowstride, face->p3, face->p4, 1, color);
 698:mini3d/scene.c **** 				drawLine(bitmap, rowstride, face->p4, face->p1, 1, color);
 699:mini3d/scene.c **** 			}
 700:mini3d/scene.c **** 			else
 701:mini3d/scene.c **** 				drawLine(bitmap, rowstride, face->p3, face->p1, 1, color);
 702:mini3d/scene.c **** #if ENABLE_Z_BUFFER
 703:mini3d/scene.c **** 		}
ARM GAS  /var/folders/cs/83z6p2tj4w57s6p2rt8nwfp00000gn/T//cc3yBana.s 			page 18


 704:mini3d/scene.c **** #endif
 705:mini3d/scene.c **** 	}
 706:mini3d/scene.c **** }
 707:mini3d/scene.c **** 
 708:mini3d/scene.c **** static int compareZ(const void* a, const void* b)
 709:mini3d/scene.c **** {
 252              		.loc 1 709 1 is_stmt 1 view -0
 253              		.cfi_startproc
 254              		@ args = 0, pretend = 0, frame = 0
 255              		@ frame_needed = 0, uses_anonymous_args = 0
 256              		@ link register save eliminated.
 710:mini3d/scene.c **** 	ShapeInstance* shapea = *(ShapeInstance**)a;
 257              		.loc 1 710 2 view .LVU44
 711:mini3d/scene.c **** 	ShapeInstance* shapeb = *(ShapeInstance**)b;
 258              		.loc 1 711 2 view .LVU45
 712:mini3d/scene.c **** 
 713:mini3d/scene.c **** 	return shapea->center.z < shapeb->center.z;
 259              		.loc 1 713 2 view .LVU46
 260              	@ mini3d/scene.c:713: 	return shapea->center.z < shapeb->center.z;
 261              		.loc 1 713 23 is_stmt 0 view .LVU47
 262 0000 0268     		ldr	r2, [r0]	@ MEM[(struct ShapeInstance * *)a_5(D)], MEM[(struct ShapeInstance * *)a_5(D)]
 263              	@ mini3d/scene.c:713: 	return shapea->center.z < shapeb->center.z;
 264              		.loc 1 713 42 view .LVU48
 265 0002 0B68     		ldr	r3, [r1]	@ MEM[(struct ShapeInstance * *)b_7(D)], MEM[(struct ShapeInstance * *)b_7(D)]
 266              	@ mini3d/scene.c:713: 	return shapea->center.z < shapeb->center.z;
 267              		.loc 1 713 26 view .LVU49
 268 0004 92ED157A 		vldr.32	s14, [r2, #84]	@ shapea_6->center.z, shapea_6->center.z
 269 0008 D3ED157A 		vldr.32	s15, [r3, #84]	@ shapeb_8->center.z, shapeb_8->center.z
 270 000c B4EEE77A 		vcmpe.f32	s14, s15	@ shapea_6->center.z, shapeb_8->center.z
 271 0010 F1EE10FA 		vmrs	APSR_nzcv, FPSCR
 272              	@ mini3d/scene.c:714: }
 714:mini3d/scene.c **** }
 273              		.loc 1 714 1 view .LVU50
 274 0014 4CBF     		ite	mi
 275 0016 0120     		movmi	r0, #1	@,
 276              	.LVL17:
 277              		.loc 1 714 1 view .LVU51
 278 0018 0020     		movpl	r0, #0	@,
 279 001a 7047     		bx	lr	@
 280              		.cfi_endproc
 281              	.LFE37:
 282              		.size	compareZ, .-compareZ
 283              		.section	.text.Scene3DNode_init,"ax",%progbits
 284              		.align	1
 285              		.p2align 4,,15
 286              		.global	Scene3DNode_init
 287              		.syntax unified
 288              		.thumb
 289              		.thumb_func
 290              		.fpu fpv5-sp-d16
 291              		.type	Scene3DNode_init, %function
 292              	Scene3DNode_init:
 293              	.LVL18:
 294              	.LFB12:
  22:mini3d/scene.c **** 	node->transform = identityMatrix;
 295              		.loc 1 22 1 is_stmt 1 view -0
 296              		.cfi_startproc
ARM GAS  /var/folders/cs/83z6p2tj4w57s6p2rt8nwfp00000gn/T//cc3yBana.s 			page 19


 297              		@ args = 0, pretend = 0, frame = 0
 298              		@ frame_needed = 0, uses_anonymous_args = 0
 299              		@ link register save eliminated.
  23:mini3d/scene.c **** 	node->parentNode = NULL;
 300              		.loc 1 23 2 view .LVU53
 301              	@ mini3d/scene.c:22: {
  22:mini3d/scene.c **** 	node->transform = identityMatrix;
 302              		.loc 1 22 1 is_stmt 0 view .LVU54
 303 0000 F0B4     		push	{r4, r5, r6, r7}	@
 304              	.LCFI1:
 305              		.cfi_def_cfa_offset 16
 306              		.cfi_offset 4, -16
 307              		.cfi_offset 5, -12
 308              		.cfi_offset 6, -8
 309              		.cfi_offset 7, -4
 310              	@ mini3d/scene.c:22: {
  22:mini3d/scene.c **** 	node->transform = identityMatrix;
 311              		.loc 1 22 1 view .LVU55
 312 0002 0646     		mov	r6, r0	@ node, tmp129
 313              	@ mini3d/scene.c:23: 	node->transform = identityMatrix;
  23:mini3d/scene.c **** 	node->parentNode = NULL;
 314              		.loc 1 23 18 view .LVU56
 315 0004 0F4D     		ldr	r5, .L22	@ tmp116,
 316              	@ mini3d/scene.c:24: 	node->parentNode = NULL;
  24:mini3d/scene.c **** 	node->childNodes = NULL;
 317              		.loc 1 24 19 view .LVU57
 318 0006 0027     		movs	r7, #0	@ tmp118,
 319              	@ mini3d/scene.c:28: 	node->colorBias = 0;
  28:mini3d/scene.c **** 	node->renderStyle = kRenderInheritStyle;
 320              		.loc 1 28 18 view .LVU58
 321 0008 4FF0000C 		mov	ip, #0	@ tmp122,
 322              	@ mini3d/scene.c:23: 	node->transform = identityMatrix;
  23:mini3d/scene.c **** 	node->parentNode = NULL;
 323              		.loc 1 23 18 view .LVU59
 324 000c 3446     		mov	r4, r6	@ node, node
 325 000e 0FCD     		ldmia	r5!, {r0, r1, r2, r3}	@ tmp116,,,,
 326              	.LVL19:
  23:mini3d/scene.c **** 	node->parentNode = NULL;
 327              		.loc 1 23 18 view .LVU60
 328 0010 0FC4     		stmia	r4!, {r0, r1, r2, r3}	@ node,,,,
 329              	.LVL20:
  23:mini3d/scene.c **** 	node->parentNode = NULL;
 330              		.loc 1 23 18 view .LVU61
 331 0012 0FCD     		ldmia	r5!, {r0, r1, r2, r3}	@ tmp116,,,,
 332 0014 0FC4     		stmia	r4!, {r0, r1, r2, r3}	@ node,,,,
 333 0016 0FCD     		ldmia	r5!, {r0, r1, r2, r3}	@ tmp116,,,,
 334 0018 2D68     		ldr	r5, [r5]	@ identityMatrix, identityMatrix
 335 001a 0FC4     		stmia	r4!, {r0, r1, r2, r3}	@ node,,,,
 336 001c 2560     		str	r5, [r4]	@ identityMatrix, node_2(D)->transform
  24:mini3d/scene.c **** 	node->childNodes = NULL;
 337              		.loc 1 24 2 is_stmt 1 view .LVU62
 338              	@ mini3d/scene.c:29: 	node->renderStyle = kRenderInheritStyle;
  29:mini3d/scene.c **** 	node->isVisible = 1;
 339              		.loc 1 29 20 is_stmt 0 view .LVU63
 340 001e B6F84C30 		ldrh	r3, [r6, #76]	@, MEM[(void *)node_2(D) + 76B]
 341              	@ mini3d/scene.c:28: 	node->colorBias = 0;
  28:mini3d/scene.c **** 	node->renderStyle = kRenderInheritStyle;
ARM GAS  /var/folders/cs/83z6p2tj4w57s6p2rt8nwfp00000gn/T//cc3yBana.s 			page 20


 342              		.loc 1 28 18 view .LVU64
 343 0022 C6F848C0 		str	ip, [r6, #72]	@ float	@ tmp122, node_2(D)->colorBias
 344              	@ mini3d/scene.c:29: 	node->renderStyle = kRenderInheritStyle;
  29:mini3d/scene.c **** 	node->isVisible = 1;
 345              		.loc 1 29 20 view .LVU65
 346 0026 23F4FF63 		bic	r3, r3, #2040	@ tmp124, MEM[(void *)node_2(D) + 76B],
 347              	@ mini3d/scene.c:24: 	node->parentNode = NULL;
  24:mini3d/scene.c **** 	node->childNodes = NULL;
 348              		.loc 1 24 19 view .LVU66
 349 002a 7763     		str	r7, [r6, #52]	@ tmp118, node_2(D)->parentNode
  25:mini3d/scene.c **** 	node->nChildren = 0;
 350              		.loc 1 25 2 is_stmt 1 view .LVU67
 351              	@ mini3d/scene.c:25: 	node->childNodes = NULL;
  25:mini3d/scene.c **** 	node->nChildren = 0;
 352              		.loc 1 25 19 is_stmt 0 view .LVU68
 353 002c F763     		str	r7, [r6, #60]	@ tmp118, node_2(D)->childNodes
  26:mini3d/scene.c **** 	node->shapes = NULL;
 354              		.loc 1 26 2 is_stmt 1 view .LVU69
 355              	@ mini3d/scene.c:29: 	node->renderStyle = kRenderInheritStyle;
  29:mini3d/scene.c **** 	node->isVisible = 1;
 356              		.loc 1 29 20 is_stmt 0 view .LVU70
 357 002e 23F00703 		bic	r3, r3, #7	@ tmp124, tmp124,
 358              	@ mini3d/scene.c:26: 	node->nChildren = 0;
  26:mini3d/scene.c **** 	node->shapes = NULL;
 359              		.loc 1 26 18 view .LVU71
 360 0032 B763     		str	r7, [r6, #56]	@ tmp118, node_2(D)->nChildren
  27:mini3d/scene.c **** 	node->colorBias = 0;
 361              		.loc 1 27 2 is_stmt 1 view .LVU72
  28:mini3d/scene.c **** 	node->renderStyle = kRenderInheritStyle;
 362              		.loc 1 28 2 view .LVU73
  29:mini3d/scene.c **** 	node->isVisible = 1;
 363              		.loc 1 29 2 view .LVU74
  30:mini3d/scene.c **** 	node->needsUpdate = 1;
 364              		.loc 1 30 2 view .LVU75
  31:mini3d/scene.c **** #if ENABLE_Z_BUFFER
 365              		.loc 1 31 2 view .LVU76
  33:mini3d/scene.c **** #endif
 366              		.loc 1 33 2 view .LVU77
 367              	@ mini3d/scene.c:27: 	node->shapes = NULL;
  27:mini3d/scene.c **** 	node->colorBias = 0;
 368              		.loc 1 27 15 is_stmt 0 view .LVU78
 369 0034 7764     		str	r7, [r6, #68]	@ tmp118, node_2(D)->shapes
 370              	@ mini3d/scene.c:29: 	node->renderStyle = kRenderInheritStyle;
  29:mini3d/scene.c **** 	node->isVisible = 1;
 371              		.loc 1 29 20 view .LVU79
 372 0036 43F4E063 		orr	r3, r3, #1792	@ tmp127, tmp124,
 373 003a A6F84C30 		strh	r3, [r6, #76]	@ movhi	@ tmp127, MEM[(void *)node_2(D) + 76B]
 374              	@ mini3d/scene.c:35: }
  35:mini3d/scene.c **** 
 375              		.loc 1 35 1 view .LVU80
 376 003e F0BC     		pop	{r4, r5, r6, r7}	@
 377              	.LCFI2:
 378              		.cfi_restore 7
 379              		.cfi_restore 6
 380              		.cfi_restore 5
 381              		.cfi_restore 4
 382              		.cfi_def_cfa_offset 0
ARM GAS  /var/folders/cs/83z6p2tj4w57s6p2rt8nwfp00000gn/T//cc3yBana.s 			page 21


 383              	.LVL21:
  35:mini3d/scene.c **** 
 384              		.loc 1 35 1 view .LVU81
 385 0040 7047     		bx	lr	@
 386              	.L23:
 387 0042 00BF     		.align	2
 388              	.L22:
 389 0044 00000000 		.word	identityMatrix
 390              		.cfi_endproc
 391              	.LFE12:
 392              		.size	Scene3DNode_init, .-Scene3DNode_init
 393              		.section	.text.Scene3DNode_deinit,"ax",%progbits
 394              		.align	1
 395              		.p2align 4,,15
 396              		.global	Scene3DNode_deinit
 397              		.syntax unified
 398              		.thumb
 399              		.thumb_func
 400              		.fpu fpv5-sp-d16
 401              		.type	Scene3DNode_deinit, %function
 402              	Scene3DNode_deinit:
 403              	.LVL22:
 404              	.LFB13:
  39:mini3d/scene.c **** 	ShapeInstance* shape = node->shapes;
 405              		.loc 1 39 1 is_stmt 1 view -0
 406              		.cfi_startproc
 407              		@ args = 0, pretend = 0, frame = 0
 408              		@ frame_needed = 0, uses_anonymous_args = 0
  40:mini3d/scene.c **** 
 409              		.loc 1 40 2 view .LVU83
 410              	@ mini3d/scene.c:39: {
  39:mini3d/scene.c **** 	ShapeInstance* shape = node->shapes;
 411              		.loc 1 39 1 is_stmt 0 view .LVU84
 412 0000 F8B5     		push	{r3, r4, r5, r6, r7, lr}	@
 413              	.LCFI3:
 414              		.cfi_def_cfa_offset 24
 415              		.cfi_offset 3, -24
 416              		.cfi_offset 4, -20
 417              		.cfi_offset 5, -16
 418              		.cfi_offset 6, -12
 419              		.cfi_offset 7, -8
 420              		.cfi_offset 14, -4
 421              	@ mini3d/scene.c:40: 	ShapeInstance* shape = node->shapes;
  40:mini3d/scene.c **** 
 422              		.loc 1 40 17 view .LVU85
 423 0002 456C     		ldr	r5, [r0, #68]	@ next, node_29(D)->shapes
 424              	.LVL23:
  42:mini3d/scene.c **** 	{
 425              		.loc 1 42 2 is_stmt 1 view .LVU86
  42:mini3d/scene.c **** 	{
 426              		.loc 1 42 8 view .LVU87
 427              	@ mini3d/scene.c:39: {
  39:mini3d/scene.c **** 	ShapeInstance* shape = node->shapes;
 428              		.loc 1 39 1 is_stmt 0 view .LVU88
 429 0004 0746     		mov	r7, r0	@ node, tmp160
 430              	@ mini3d/scene.c:42: 	while ( shape != NULL )
  42:mini3d/scene.c **** 	{
ARM GAS  /var/folders/cs/83z6p2tj4w57s6p2rt8nwfp00000gn/T//cc3yBana.s 			page 22


 431              		.loc 1 42 8 view .LVU89
 432 0006 C5B1     		cbz	r5, .L26	@ next,
 433 0008 1A4E     		ldr	r6, .L41	@ tmp157,
 434              	.LVL24:
 435              	.L25:
 436              	.LBB29:
  44:mini3d/scene.c **** 		Shape3D_release(shape->prototype);
 437              		.loc 1 44 3 is_stmt 1 view .LVU90
 438 000a 2C46     		mov	r4, r5	@ shape, next
 439              	@ mini3d/scene.c:44: 		ShapeInstance* next = shape->next;
  44:mini3d/scene.c **** 		Shape3D_release(shape->prototype);
 440              		.loc 1 44 18 is_stmt 0 view .LVU91
 441 000c AD6B     		ldr	r5, [r5, #56]	@ next, shape_9->next
 442              	.LVL25:
  45:mini3d/scene.c **** 		m3d_free(shape->points);
 443              		.loc 1 45 3 is_stmt 1 view .LVU92
 444 000e 2068     		ldr	r0, [r4]	@, shape_12->prototype
 445 0010 FFF7FEFF 		bl	Shape3D_release		@
 446              	.LVL26:
  46:mini3d/scene.c **** 		m3d_free(shape->faces);
 447              		.loc 1 46 3 view .LVU93
 448 0014 3368     		ldr	r3, [r6]	@ m3d_realloc, m3d_realloc
 449 0016 0021     		movs	r1, #0	@,
 450 0018 206C     		ldr	r0, [r4, #64]	@, shape_12->points
 451 001a 9847     		blx	r3		@ m3d_realloc
 452              	.LVL27:
  47:mini3d/scene.c **** 		m3d_free(shape);
 453              		.loc 1 47 3 view .LVU94
 454 001c 3368     		ldr	r3, [r6]	@ m3d_realloc, m3d_realloc
 455 001e 0021     		movs	r1, #0	@,
 456 0020 A06C     		ldr	r0, [r4, #72]	@, shape_12->faces
 457 0022 9847     		blx	r3		@ m3d_realloc
 458              	.LVL28:
  48:mini3d/scene.c **** 		shape = next;
 459              		.loc 1 48 3 view .LVU95
 460 0024 2046     		mov	r0, r4	@, shape
 461 0026 3368     		ldr	r3, [r6]	@ m3d_realloc, m3d_realloc
 462 0028 0021     		movs	r1, #0	@,
 463 002a 9847     		blx	r3		@ m3d_realloc
 464              	.LVL29:
  49:mini3d/scene.c **** 	}
 465              		.loc 1 49 3 view .LVU96
  49:mini3d/scene.c **** 	}
 466              		.loc 1 49 3 is_stmt 0 view .LVU97
 467              	.LBE29:
  42:mini3d/scene.c **** 	{
 468              		.loc 1 42 8 is_stmt 1 view .LVU98
 469 002c 002D     		cmp	r5, #0	@ next
 470 002e ECD1     		bne	.L25	@
  52:mini3d/scene.c **** 		m3d_free(node->shapes);
 471              		.loc 1 52 2 view .LVU99
 472              	@ mini3d/scene.c:52: 	if ( node->shapes != NULL )
  52:mini3d/scene.c **** 		m3d_free(node->shapes);
 473              		.loc 1 52 11 is_stmt 0 view .LVU100
 474 0030 786C     		ldr	r0, [r7, #68]	@ _7, node_29(D)->shapes
 475              	@ mini3d/scene.c:52: 	if ( node->shapes != NULL )
  52:mini3d/scene.c **** 		m3d_free(node->shapes);
ARM GAS  /var/folders/cs/83z6p2tj4w57s6p2rt8nwfp00000gn/T//cc3yBana.s 			page 23


 476              		.loc 1 52 5 view .LVU101
 477 0032 10B1     		cbz	r0, .L26	@ _7,
  53:mini3d/scene.c **** 
 478              		.loc 1 53 3 is_stmt 1 view .LVU102
 479 0034 3368     		ldr	r3, [r6]	@ m3d_realloc, m3d_realloc
 480 0036 2946     		mov	r1, r5	@, next
 481 0038 9847     		blx	r3		@ m3d_realloc
 482              	.LVL30:
 483              	.L26:
  57:mini3d/scene.c **** 	{
 484              		.loc 1 57 15 discriminator 1 view .LVU103
 485              	@ mini3d/scene.c:57: 	for ( i = 0; i < node->nChildren; ++i )
  57:mini3d/scene.c **** 	{
 486              		.loc 1 57 2 is_stmt 0 discriminator 1 view .LVU104
 487 003a BB6B     		ldr	r3, [r7, #56]	@ node_29(D)->nChildren, node_29(D)->nChildren
 488 003c 002B     		cmp	r3, #0	@ node_29(D)->nChildren,
 489 003e 10DD     		ble	.L28		@,
 490              	@ mini3d/scene.c:57: 	for ( i = 0; i < node->nChildren; ++i )
  57:mini3d/scene.c **** 	{
 491              		.loc 1 57 2 view .LVU105
 492 0040 0024     		movs	r4, #0	@ i,
 493 0042 0C4E     		ldr	r6, .L41	@ tmp157,
 494              	.LVL31:
 495              	.L29:
  59:mini3d/scene.c **** 		m3d_free(node->childNodes[i]);
 496              		.loc 1 59 3 is_stmt 1 discriminator 3 view .LVU106
 497 0044 FB6B     		ldr	r3, [r7, #60]	@ node_29(D)->childNodes, node_29(D)->childNodes
 498 0046 53F82400 		ldr	r0, [r3, r4, lsl #2]	@, *_13
 499 004a FFF7FEFF 		bl	Scene3DNode_deinit		@
 500              	.LVL32:
  60:mini3d/scene.c **** 	}
 501              		.loc 1 60 3 discriminator 3 view .LVU107
 502 004e FA6B     		ldr	r2, [r7, #60]	@ node_29(D)->childNodes, node_29(D)->childNodes
 503 0050 3368     		ldr	r3, [r6]	@ m3d_realloc, m3d_realloc
 504 0052 0021     		movs	r1, #0	@,
 505 0054 52F82400 		ldr	r0, [r2, r4, lsl #2]	@, *_17
 506              	@ mini3d/scene.c:57: 	for ( i = 0; i < node->nChildren; ++i )
  57:mini3d/scene.c **** 	{
 507              		.loc 1 57 36 is_stmt 0 discriminator 3 view .LVU108
 508 0058 0134     		adds	r4, r4, #1	@ i, i,
 509              	.LVL33:
 510              	@ mini3d/scene.c:60: 		m3d_free(node->childNodes[i]);
  60:mini3d/scene.c **** 	}
 511              		.loc 1 60 3 discriminator 3 view .LVU109
 512 005a 9847     		blx	r3		@ m3d_realloc
 513              	.LVL34:
  57:mini3d/scene.c **** 	{
 514              		.loc 1 57 36 is_stmt 1 discriminator 3 view .LVU110
  57:mini3d/scene.c **** 	{
 515              		.loc 1 57 15 discriminator 3 view .LVU111
 516              	@ mini3d/scene.c:57: 	for ( i = 0; i < node->nChildren; ++i )
  57:mini3d/scene.c **** 	{
 517              		.loc 1 57 2 is_stmt 0 discriminator 3 view .LVU112
 518 005c BB6B     		ldr	r3, [r7, #56]	@ node_29(D)->nChildren, node_29(D)->nChildren
 519 005e A342     		cmp	r3, r4	@ node_29(D)->nChildren, i
 520 0060 F0DC     		bgt	.L29		@,
 521              	.LVL35:
ARM GAS  /var/folders/cs/83z6p2tj4w57s6p2rt8nwfp00000gn/T//cc3yBana.s 			page 24


 522              	.L28:
  63:mini3d/scene.c **** 		m3d_free(node->childNodes);
 523              		.loc 1 63 2 is_stmt 1 view .LVU113
 524              	@ mini3d/scene.c:63: 	if ( node->childNodes != NULL )
  63:mini3d/scene.c **** 		m3d_free(node->childNodes);
 525              		.loc 1 63 11 is_stmt 0 view .LVU114
 526 0062 F86B     		ldr	r0, [r7, #60]	@ _20, node_29(D)->childNodes
 527              	@ mini3d/scene.c:63: 	if ( node->childNodes != NULL )
  63:mini3d/scene.c **** 		m3d_free(node->childNodes);
 528              		.loc 1 63 5 view .LVU115
 529 0064 18B1     		cbz	r0, .L30	@ _20,
  64:mini3d/scene.c **** 
 530              		.loc 1 64 3 is_stmt 1 view .LVU116
 531 0066 034B     		ldr	r3, .L41	@ tmp154,
 532 0068 0021     		movs	r1, #0	@,
 533 006a 1B68     		ldr	r3, [r3]	@ m3d_realloc, m3d_realloc
 534 006c 9847     		blx	r3		@ m3d_realloc
 535              	.LVL36:
 536              	.L30:
  66:mini3d/scene.c **** }
 537              		.loc 1 66 2 view .LVU117
 538              	@ mini3d/scene.c:66: 	node->childNodes = NULL;
  66:mini3d/scene.c **** }
 539              		.loc 1 66 19 is_stmt 0 view .LVU118
 540 006e 0023     		movs	r3, #0	@ tmp156,
 541 0070 FB63     		str	r3, [r7, #60]	@ tmp156, node_29(D)->childNodes
 542              	@ mini3d/scene.c:67: }
  67:mini3d/scene.c **** 
 543              		.loc 1 67 1 view .LVU119
 544 0072 F8BD     		pop	{r3, r4, r5, r6, r7, pc}	@
 545              	.LVL37:
 546              	.L42:
  67:mini3d/scene.c **** 
 547              		.loc 1 67 1 view .LVU120
 548              		.align	2
 549              	.L41:
 550 0074 00000000 		.word	m3d_realloc
 551              		.cfi_endproc
 552              	.LFE13:
 553              		.size	Scene3DNode_deinit, .-Scene3DNode_deinit
 554              		.section	.text.Scene3DNode_setTransform,"ax",%progbits
 555              		.align	1
 556              		.p2align 4,,15
 557              		.global	Scene3DNode_setTransform
 558              		.syntax unified
 559              		.thumb
 560              		.thumb_func
 561              		.fpu fpv5-sp-d16
 562              		.type	Scene3DNode_setTransform, %function
 563              	Scene3DNode_setTransform:
 564              	.LVL38:
 565              	.LFB14:
  71:mini3d/scene.c **** 	node->transform = *xform;
 566              		.loc 1 71 1 is_stmt 1 view -0
 567              		.cfi_startproc
 568              		@ args = 0, pretend = 0, frame = 0
 569              		@ frame_needed = 0, uses_anonymous_args = 0
ARM GAS  /var/folders/cs/83z6p2tj4w57s6p2rt8nwfp00000gn/T//cc3yBana.s 			page 25


 570              		@ link register save eliminated.
  72:mini3d/scene.c **** 
 571              		.loc 1 72 2 view .LVU122
 572              	@ mini3d/scene.c:71: {
  71:mini3d/scene.c **** 	node->transform = *xform;
 573              		.loc 1 71 1 is_stmt 0 view .LVU123
 574 0000 70B4     		push	{r4, r5, r6}	@
 575              	.LCFI4:
 576              		.cfi_def_cfa_offset 12
 577              		.cfi_offset 4, -12
 578              		.cfi_offset 5, -8
 579              		.cfi_offset 6, -4
 580              	@ mini3d/scene.c:72: 	node->transform = *xform;
  72:mini3d/scene.c **** 
 581              		.loc 1 72 18 view .LVU124
 582 0002 0D46     		mov	r5, r1	@ xform, tmp120
 583 0004 0646     		mov	r6, r0	@ node, node
 584              	@ mini3d/scene.c:71: {
  71:mini3d/scene.c **** 	node->transform = *xform;
 585              		.loc 1 71 1 view .LVU125
 586 0006 0446     		mov	r4, r0	@ node, tmp119
 587              	@ mini3d/scene.c:72: 	node->transform = *xform;
  72:mini3d/scene.c **** 
 588              		.loc 1 72 18 view .LVU126
 589 0008 0FCD     		ldmia	r5!, {r0, r1, r2, r3}	@ xform,,,,
 590              	.LVL39:
  72:mini3d/scene.c **** 
 591              		.loc 1 72 18 view .LVU127
 592 000a 0FC6     		stmia	r6!, {r0, r1, r2, r3}	@ node,,,,
 593 000c 0FCD     		ldmia	r5!, {r0, r1, r2, r3}	@ xform,,,,
 594              	.LVL40:
  72:mini3d/scene.c **** 
 595              		.loc 1 72 18 view .LVU128
 596 000e 0FC6     		stmia	r6!, {r0, r1, r2, r3}	@ node,,,,
 597 0010 0FCD     		ldmia	r5!, {r0, r1, r2, r3}	@ xform,,,,
 598              	.LVL41:
  72:mini3d/scene.c **** 
 599              		.loc 1 72 18 view .LVU129
 600 0012 0FC6     		stmia	r6!, {r0, r1, r2, r3}	@ node,,,,
 601 0014 2B68     		ldr	r3, [r5]	@ *xform_5(D), *xform_5(D)
 602 0016 3360     		str	r3, [r6]	@ *xform_5(D), node_4(D)->transform
  76:mini3d/scene.c **** 	{
 603              		.loc 1 76 2 is_stmt 1 view .LVU130
  76:mini3d/scene.c **** 	{
 604              		.loc 1 76 8 view .LVU131
 605              	.L44:
  78:mini3d/scene.c **** 		node = node->parentNode;
 606              		.loc 1 78 3 view .LVU132
 607              	@ mini3d/scene.c:78: 		node->needsUpdate = 1;
  78:mini3d/scene.c **** 		node = node->parentNode;
 608              		.loc 1 78 21 is_stmt 0 view .LVU133
 609 0018 94F84D30 		ldrb	r3, [r4, #77]	@ zero_extendqisi2	@ node_13->needsUpdate, node_13->needsUpdate
 610 001c 43F00203 		orr	r3, r3, #2	@ tmp117, node_13->needsUpdate,
 611 0020 84F84D30 		strb	r3, [r4, #77]	@ tmp117, node_13->needsUpdate
  79:mini3d/scene.c **** 	}
 612              		.loc 1 79 3 is_stmt 1 view .LVU134
 613              	@ mini3d/scene.c:79: 		node = node->parentNode;
ARM GAS  /var/folders/cs/83z6p2tj4w57s6p2rt8nwfp00000gn/T//cc3yBana.s 			page 26


  79:mini3d/scene.c **** 	}
 614              		.loc 1 79 8 is_stmt 0 view .LVU135
 615 0024 646B     		ldr	r4, [r4, #52]	@ node, node_13->parentNode
 616              	.LVL42:
  76:mini3d/scene.c **** 	{
 617              		.loc 1 76 8 is_stmt 1 view .LVU136
 618 0026 002C     		cmp	r4, #0	@ node
 619 0028 F6D1     		bne	.L44	@
 620              	@ mini3d/scene.c:81: }
  81:mini3d/scene.c **** 
 621              		.loc 1 81 1 is_stmt 0 view .LVU137
 622 002a 70BC     		pop	{r4, r5, r6}	@
 623              	.LCFI5:
 624              		.cfi_restore 6
 625              		.cfi_restore 5
 626              		.cfi_restore 4
 627              		.cfi_def_cfa_offset 0
 628              	.LVL43:
  81:mini3d/scene.c **** 
 629              		.loc 1 81 1 view .LVU138
 630 002c 7047     		bx	lr	@
 631              		.cfi_endproc
 632              	.LFE14:
 633              		.size	Scene3DNode_setTransform, .-Scene3DNode_setTransform
 634 002e 00BF     		.section	.text.Scene3DNode_addTransform,"ax",%progbits
 635              		.align	1
 636              		.p2align 4,,15
 637              		.global	Scene3DNode_addTransform
 638              		.syntax unified
 639              		.thumb
 640              		.thumb_func
 641              		.fpu fpv5-sp-d16
 642              		.type	Scene3DNode_addTransform, %function
 643              	Scene3DNode_addTransform:
 644              	.LVL44:
 645              	.LFB15:
  85:mini3d/scene.c **** 	Matrix3D m = Matrix3D_multiply(node->transform, *xform);
 646              		.loc 1 85 1 is_stmt 1 view -0
 647              		.cfi_startproc
 648              		@ args = 0, pretend = 0, frame = 56
 649              		@ frame_needed = 0, uses_anonymous_args = 0
  86:mini3d/scene.c **** 	Scene3DNode_setTransform(node, &m);
 650              		.loc 1 86 2 view .LVU140
 651              	@ mini3d/scene.c:85: {
  85:mini3d/scene.c **** 	Matrix3D m = Matrix3D_multiply(node->transform, *xform);
 652              		.loc 1 85 1 is_stmt 0 view .LVU141
 653 0000 F0B5     		push	{r4, r5, r6, r7, lr}	@
 654              	.LCFI6:
 655              		.cfi_def_cfa_offset 20
 656              		.cfi_offset 4, -20
 657              		.cfi_offset 5, -16
 658              		.cfi_offset 6, -12
 659              		.cfi_offset 7, -8
 660              		.cfi_offset 14, -4
 661              	@ mini3d/scene.c:86: 	Matrix3D m = Matrix3D_multiply(node->transform, *xform);
  86:mini3d/scene.c **** 	Scene3DNode_setTransform(node, &m);
 662              		.loc 1 86 15 view .LVU142
ARM GAS  /var/folders/cs/83z6p2tj4w57s6p2rt8nwfp00000gn/T//cc3yBana.s 			page 27


 663 0002 0D46     		mov	r5, r1	@ xform, tmp126
 664              	@ mini3d/scene.c:85: {
  85:mini3d/scene.c **** 	Matrix3D m = Matrix3D_multiply(node->transform, *xform);
 665              		.loc 1 85 1 view .LVU143
 666 0004 A7B0     		sub	sp, sp, #156	@,,
 667              	.LCFI7:
 668              		.cfi_def_cfa_offset 176
 669              	@ mini3d/scene.c:85: {
  85:mini3d/scene.c **** 	Matrix3D m = Matrix3D_multiply(node->transform, *xform);
 670              		.loc 1 85 1 view .LVU144
 671 0006 0446     		mov	r4, r0	@ node, tmp125
 672              	@ mini3d/scene.c:86: 	Matrix3D m = Matrix3D_multiply(node->transform, *xform);
  86:mini3d/scene.c **** 	Scene3DNode_setTransform(node, &m);
 673              		.loc 1 86 15 view .LVU145
 674 0008 0AAE     		add	r6, sp, #40	@ tmp113,,
 675 000a 6F46     		mov	r7, sp	@ tmp116,
 676 000c 0FCD     		ldmia	r5!, {r0, r1, r2, r3}	@ xform,,,,
 677              	.LVL45:
  86:mini3d/scene.c **** 	Scene3DNode_setTransform(node, &m);
 678              		.loc 1 86 15 view .LVU146
 679 000e 0FC6     		stmia	r6!, {r0, r1, r2, r3}	@ tmp113,,,,
 680 0010 0FCD     		ldmia	r5!, {r0, r1, r2, r3}	@ xform,,,,
 681              	.LVL46:
  86:mini3d/scene.c **** 	Scene3DNode_setTransform(node, &m);
 682              		.loc 1 86 15 view .LVU147
 683 0012 0FC6     		stmia	r6!, {r0, r1, r2, r3}	@ tmp113,,,,
 684 0014 0FCD     		ldmia	r5!, {r0, r1, r2, r3}	@ xform,,,,
 685              	.LVL47:
  86:mini3d/scene.c **** 	Scene3DNode_setTransform(node, &m);
 686              		.loc 1 86 15 view .LVU148
 687 0016 D5F800C0 		ldr	ip, [r5]	@ *xform_3(D), *xform_3(D)
 688 001a 04F10C05 		add	r5, r4, #12	@ tmp117, node,
 689              	.LVL48:
  86:mini3d/scene.c **** 	Scene3DNode_setTransform(node, &m);
 690              		.loc 1 86 15 view .LVU149
 691 001e 0FC6     		stmia	r6!, {r0, r1, r2, r3}	@ tmp113,,,,
 692 0020 C6F800C0 		str	ip, [r6]	@ *xform_3(D),
 693              	.LBB30:
 694              	.LBB31:
 695              	@ mini3d/scene.c:72: 	node->transform = *xform;
  72:mini3d/scene.c **** 
 696              		.loc 1 72 18 view .LVU150
 697 0024 2646     		mov	r6, r4	@ node, node
 698              	.LBE31:
 699              	.LBE30:
 700              	@ mini3d/scene.c:86: 	Matrix3D m = Matrix3D_multiply(node->transform, *xform);
  86:mini3d/scene.c **** 	Scene3DNode_setTransform(node, &m);
 701              		.loc 1 86 15 view .LVU151
 702 0026 0FCD     		ldmia	r5!, {r0, r1, r2, r3}	@ tmp117,,,,
 703 0028 0FC7     		stmia	r7!, {r0, r1, r2, r3}	@ tmp116,,,,
 704 002a 0FCD     		ldmia	r5!, {r0, r1, r2, r3}	@ tmp117,,,,
 705 002c 0FC7     		stmia	r7!, {r0, r1, r2, r3}	@ tmp116,,,,
 706 002e 95E80300 		ldm	r5, {r0, r1}	@ tmp117,,
 707              	.LBB34:
 708              	.LBB32:
 709              	@ mini3d/scene.c:72: 	node->transform = *xform;
  72:mini3d/scene.c **** 
ARM GAS  /var/folders/cs/83z6p2tj4w57s6p2rt8nwfp00000gn/T//cc3yBana.s 			page 28


 710              		.loc 1 72 18 view .LVU152
 711 0032 19AD     		add	r5, sp, #100	@ tmp128,,
 712              	.LBE32:
 713              	.LBE34:
 714              	@ mini3d/scene.c:86: 	Matrix3D m = Matrix3D_multiply(node->transform, *xform);
  86:mini3d/scene.c **** 	Scene3DNode_setTransform(node, &m);
 715              		.loc 1 86 15 view .LVU153
 716 0034 87E80300 		stm	r7, {r0, r1}	@ tmp116,,
 717 0038 19A8     		add	r0, sp, #100	@ tmp127,,
 718 003a 94E80E00 		ldm	r4, {r1, r2, r3}	@ node,,,
 719 003e FFF7FEFF 		bl	Matrix3D_multiply		@
 720              	.LVL49:
  87:mini3d/scene.c **** }
 721              		.loc 1 87 2 is_stmt 1 view .LVU154
 722              	.LBB35:
 723              	.LBI30:
  70:mini3d/scene.c **** {
 724              		.loc 1 70 1 view .LVU155
 725              	.LBB33:
  72:mini3d/scene.c **** 
 726              		.loc 1 72 2 view .LVU156
 727              	@ mini3d/scene.c:72: 	node->transform = *xform;
  72:mini3d/scene.c **** 
 728              		.loc 1 72 18 is_stmt 0 view .LVU157
 729 0042 0FCD     		ldmia	r5!, {r0, r1, r2, r3}	@ tmp119,,,,
 730              	.LVL50:
  72:mini3d/scene.c **** 
 731              		.loc 1 72 18 view .LVU158
 732 0044 0FC6     		stmia	r6!, {r0, r1, r2, r3}	@ node,,,,
 733 0046 0FCD     		ldmia	r5!, {r0, r1, r2, r3}	@ tmp119,,,,
 734              	.LVL51:
  72:mini3d/scene.c **** 
 735              		.loc 1 72 18 view .LVU159
 736 0048 0FC6     		stmia	r6!, {r0, r1, r2, r3}	@ node,,,,
 737 004a 0FCD     		ldmia	r5!, {r0, r1, r2, r3}	@ tmp119,,,,
 738              	.LVL52:
  72:mini3d/scene.c **** 
 739              		.loc 1 72 18 view .LVU160
 740 004c 2D68     		ldr	r5, [r5]	@ m, m
 741              	.LVL53:
  72:mini3d/scene.c **** 
 742              		.loc 1 72 18 view .LVU161
 743 004e 0FC6     		stmia	r6!, {r0, r1, r2, r3}	@ node,,,,
 744 0050 3560     		str	r5, [r6]	@ m, node_2(D)->transform
  76:mini3d/scene.c **** 	{
 745              		.loc 1 76 2 is_stmt 1 view .LVU162
  76:mini3d/scene.c **** 	{
 746              		.loc 1 76 8 view .LVU163
 747              	.LVL54:
 748              	.L48:
  78:mini3d/scene.c **** 		node = node->parentNode;
 749              		.loc 1 78 3 view .LVU164
 750              	@ mini3d/scene.c:78: 		node->needsUpdate = 1;
  78:mini3d/scene.c **** 		node = node->parentNode;
 751              		.loc 1 78 21 is_stmt 0 view .LVU165
 752 0052 94F84D30 		ldrb	r3, [r4, #77]	@ zero_extendqisi2	@ node_15->needsUpdate, node_15->needsUpdate
 753 0056 43F00203 		orr	r3, r3, #2	@ tmp123, node_15->needsUpdate,
ARM GAS  /var/folders/cs/83z6p2tj4w57s6p2rt8nwfp00000gn/T//cc3yBana.s 			page 29


 754 005a 84F84D30 		strb	r3, [r4, #77]	@ tmp123, node_15->needsUpdate
  79:mini3d/scene.c **** 	}
 755              		.loc 1 79 3 is_stmt 1 view .LVU166
 756              	@ mini3d/scene.c:79: 		node = node->parentNode;
  79:mini3d/scene.c **** 	}
 757              		.loc 1 79 8 is_stmt 0 view .LVU167
 758 005e 646B     		ldr	r4, [r4, #52]	@ node, node_15->parentNode
 759              	.LVL55:
  76:mini3d/scene.c **** 	{
 760              		.loc 1 76 8 is_stmt 1 view .LVU168
 761 0060 002C     		cmp	r4, #0	@ node
 762 0062 F6D1     		bne	.L48	@
 763              	.LBE33:
 764              	.LBE35:
 765              	@ mini3d/scene.c:88: }
  88:mini3d/scene.c **** 
 766              		.loc 1 88 1 is_stmt 0 view .LVU169
 767 0064 27B0     		add	sp, sp, #156	@,,
 768              	.LCFI8:
 769              		.cfi_def_cfa_offset 20
 770              		@ sp needed	@
 771 0066 F0BD     		pop	{r4, r5, r6, r7, pc}	@
  88:mini3d/scene.c **** 
 772              		.loc 1 88 1 view .LVU170
 773              		.cfi_endproc
 774              	.LFE15:
 775              		.size	Scene3DNode_addTransform, .-Scene3DNode_addTransform
 776              		.section	.text.Scene3DNode_setColorBias,"ax",%progbits
 777              		.align	1
 778              		.p2align 4,,15
 779              		.global	Scene3DNode_setColorBias
 780              		.syntax unified
 781              		.thumb
 782              		.thumb_func
 783              		.fpu fpv5-sp-d16
 784              		.type	Scene3DNode_setColorBias, %function
 785              	Scene3DNode_setColorBias:
 786              	.LVL56:
 787              	.LFB16:
  92:mini3d/scene.c **** 	node->colorBias = bias;
 788              		.loc 1 92 1 is_stmt 1 view -0
 789              		.cfi_startproc
 790              		@ args = 0, pretend = 0, frame = 0
 791              		@ frame_needed = 0, uses_anonymous_args = 0
 792              		@ link register save eliminated.
  93:mini3d/scene.c **** 	node->needsUpdate = 1;
 793              		.loc 1 93 2 view .LVU172
 794              	@ mini3d/scene.c:94: 	node->needsUpdate = 1;
  94:mini3d/scene.c **** }
 795              		.loc 1 94 20 is_stmt 0 view .LVU173
 796 0000 90F84D30 		ldrb	r3, [r0, #77]	@ zero_extendqisi2	@ node_2(D)->needsUpdate, node_2(D)->needsUpdate
 797              	@ mini3d/scene.c:93: 	node->colorBias = bias;
  93:mini3d/scene.c **** 	node->needsUpdate = 1;
 798              		.loc 1 93 18 view .LVU174
 799 0004 80ED120A 		vstr.32	s0, [r0, #72]	@ tmp117, node_2(D)->colorBias
  94:mini3d/scene.c **** }
 800              		.loc 1 94 2 is_stmt 1 view .LVU175
ARM GAS  /var/folders/cs/83z6p2tj4w57s6p2rt8nwfp00000gn/T//cc3yBana.s 			page 30


 801              	@ mini3d/scene.c:94: 	node->needsUpdate = 1;
  94:mini3d/scene.c **** }
 802              		.loc 1 94 20 is_stmt 0 view .LVU176
 803 0008 43F00203 		orr	r3, r3, #2	@ tmp114, node_2(D)->needsUpdate,
 804 000c 80F84D30 		strb	r3, [r0, #77]	@ tmp114, node_2(D)->needsUpdate
 805              	@ mini3d/scene.c:95: }
  95:mini3d/scene.c **** 
 806              		.loc 1 95 1 view .LVU177
 807 0010 7047     		bx	lr	@
 808              		.cfi_endproc
 809              	.LFE16:
 810              		.size	Scene3DNode_setColorBias, .-Scene3DNode_setColorBias
 811 0012 00BF     		.section	.text.Scene3DNode_setRenderStyle,"ax",%progbits
 812              		.align	1
 813              		.p2align 4,,15
 814              		.global	Scene3DNode_setRenderStyle
 815              		.syntax unified
 816              		.thumb
 817              		.thumb_func
 818              		.fpu fpv5-sp-d16
 819              		.type	Scene3DNode_setRenderStyle, %function
 820              	Scene3DNode_setRenderStyle:
 821              	.LVL57:
 822              	.LFB17:
  99:mini3d/scene.c **** 	node->renderStyle = style;
 823              		.loc 1 99 1 is_stmt 1 view -0
 824              		.cfi_startproc
 825              		@ args = 0, pretend = 0, frame = 0
 826              		@ frame_needed = 0, uses_anonymous_args = 0
 827              		@ link register save eliminated.
 100:mini3d/scene.c **** 	node->needsUpdate = 1;
 828              		.loc 1 100 2 view .LVU179
 829              	@ mini3d/scene.c:101: 	node->needsUpdate = 1;
 101:mini3d/scene.c **** }
 830              		.loc 1 101 20 is_stmt 0 view .LVU180
 831 0000 90F84D30 		ldrb	r3, [r0, #77]	@ zero_extendqisi2	@ node_2(D)->needsUpdate, node_2(D)->needsUpdate
 832              	@ mini3d/scene.c:100: 	node->renderStyle = style;
 100:mini3d/scene.c **** 	node->needsUpdate = 1;
 833              		.loc 1 100 20 view .LVU181
 834 0004 80F84C10 		strb	r1, [r0, #76]	@ tmp118, node_2(D)->renderStyle
 101:mini3d/scene.c **** }
 835              		.loc 1 101 2 is_stmt 1 view .LVU182
 836              	@ mini3d/scene.c:101: 	node->needsUpdate = 1;
 101:mini3d/scene.c **** }
 837              		.loc 1 101 20 is_stmt 0 view .LVU183
 838 0008 43F00203 		orr	r3, r3, #2	@ tmp115, node_2(D)->needsUpdate,
 839 000c 80F84D30 		strb	r3, [r0, #77]	@ tmp115, node_2(D)->needsUpdate
 840              	@ mini3d/scene.c:102: }
 102:mini3d/scene.c **** 
 841              		.loc 1 102 1 view .LVU184
 842 0010 7047     		bx	lr	@
 843              		.cfi_endproc
 844              	.LFE17:
 845              		.size	Scene3DNode_setRenderStyle, .-Scene3DNode_setRenderStyle
 846 0012 00BF     		.section	.text.Scene3DNode_getRenderStyle,"ax",%progbits
 847              		.align	1
 848              		.p2align 4,,15
ARM GAS  /var/folders/cs/83z6p2tj4w57s6p2rt8nwfp00000gn/T//cc3yBana.s 			page 31


 849              		.global	Scene3DNode_getRenderStyle
 850              		.syntax unified
 851              		.thumb
 852              		.thumb_func
 853              		.fpu fpv5-sp-d16
 854              		.type	Scene3DNode_getRenderStyle, %function
 855              	Scene3DNode_getRenderStyle:
 856              	.LVL58:
 857              	.LFB18:
 106:mini3d/scene.c **** 	while ( node != NULL )
 858              		.loc 1 106 1 is_stmt 1 view -0
 859              		.cfi_startproc
 860              		@ args = 0, pretend = 0, frame = 0
 861              		@ frame_needed = 0, uses_anonymous_args = 0
 862              		@ link register save eliminated.
 107:mini3d/scene.c **** 	{
 863              		.loc 1 107 8 view .LVU186
 864 0000 28B1     		cbz	r0, .L59	@ node,
 865              	.L55:
 109:mini3d/scene.c **** 			return node->renderStyle;
 866              		.loc 1 109 3 view .LVU187
 112:mini3d/scene.c **** 	}
 867              		.loc 1 112 3 view .LVU188
 868              	@ mini3d/scene.c:109: 		if ( node->renderStyle != kRenderInheritStyle )
 109:mini3d/scene.c **** 			return node->renderStyle;
 869              		.loc 1 109 12 is_stmt 0 view .LVU189
 870 0002 90F84C30 		ldrb	r3, [r0, #76]	@ zero_extendqisi2	@ <retval>, node_8->renderStyle
 871              	@ mini3d/scene.c:109: 		if ( node->renderStyle != kRenderInheritStyle )
 109:mini3d/scene.c **** 			return node->renderStyle;
 872              		.loc 1 109 6 view .LVU190
 873 0006 1BB9     		cbnz	r3, .L54	@ <retval>,
 874              	@ mini3d/scene.c:112: 		node = node->parentNode;
 112:mini3d/scene.c **** 	}
 875              		.loc 1 112 8 view .LVU191
 876 0008 406B     		ldr	r0, [r0, #52]	@ node, node_8->parentNode
 877              	.LVL59:
 107:mini3d/scene.c **** 	{
 878              		.loc 1 107 8 is_stmt 1 view .LVU192
 879 000a 0028     		cmp	r0, #0	@ node
 880 000c F9D1     		bne	.L55	@
 881              	.L59:
 882              	@ mini3d/scene.c:115: 	return kRenderFilled;
 115:mini3d/scene.c **** }
 883              		.loc 1 115 9 is_stmt 0 view .LVU193
 884 000e 0123     		movs	r3, #1	@ <retval>,
 885              	.L54:
 886              	@ mini3d/scene.c:116: }
 116:mini3d/scene.c **** 
 887              		.loc 1 116 1 view .LVU194
 888 0010 1846     		mov	r0, r3	@, <retval>
 889              	.LVL60:
 116:mini3d/scene.c **** 
 890              		.loc 1 116 1 view .LVU195
 891 0012 7047     		bx	lr	@
 892              		.cfi_endproc
 893              	.LFE18:
 894              		.size	Scene3DNode_getRenderStyle, .-Scene3DNode_getRenderStyle
ARM GAS  /var/folders/cs/83z6p2tj4w57s6p2rt8nwfp00000gn/T//cc3yBana.s 			page 32


 895              		.section	.text.Scene3DNode_setVisible,"ax",%progbits
 896              		.align	1
 897              		.p2align 4,,15
 898              		.global	Scene3DNode_setVisible
 899              		.syntax unified
 900              		.thumb
 901              		.thumb_func
 902              		.fpu fpv5-sp-d16
 903              		.type	Scene3DNode_setVisible, %function
 904              	Scene3DNode_setVisible:
 905              	.LVL61:
 906              	.LFB19:
 120:mini3d/scene.c **** 	node->isVisible = visible;
 907              		.loc 1 120 1 is_stmt 1 view -0
 908              		.cfi_startproc
 909              		@ args = 0, pretend = 0, frame = 0
 910              		@ frame_needed = 0, uses_anonymous_args = 0
 911              		@ link register save eliminated.
 121:mini3d/scene.c **** 	node->needsUpdate = 1;
 912              		.loc 1 121 2 view .LVU197
 122:mini3d/scene.c **** }
 913              		.loc 1 122 2 view .LVU198
 914              	@ mini3d/scene.c:121: 	node->isVisible = visible;
 121:mini3d/scene.c **** 	node->needsUpdate = 1;
 915              		.loc 1 121 18 is_stmt 0 view .LVU199
 916 0000 90F84D30 		ldrb	r3, [r0, #77]	@ zero_extendqisi2	@ MEM[(struct Scene3DNode *)node_4(D) + 77B], MEM[(struct Sc
 917 0004 01F00101 		and	r1, r1, #1	@ tmp119, tmp132,
 918              	.LVL62:
 121:mini3d/scene.c **** 	node->needsUpdate = 1;
 919              		.loc 1 121 18 view .LVU200
 920 0008 23F00303 		bic	r3, r3, #3	@ tmp126, MEM[(struct Scene3DNode *)node_4(D) + 77B],
 921 000c 41F00201 		orr	r1, r1, #2	@ tmp123, tmp119,
 922 0010 1943     		orrs	r1, r1, r3	@, tmp129, tmp123, tmp126
 923 0012 80F84D10 		strb	r1, [r0, #77]	@ tmp129, MEM[(struct Scene3DNode *)node_4(D) + 77B]
 924              	@ mini3d/scene.c:123: }
 123:mini3d/scene.c **** 
 925              		.loc 1 123 1 view .LVU201
 926 0016 7047     		bx	lr	@
 927              		.cfi_endproc
 928              	.LFE19:
 929              		.size	Scene3DNode_setVisible, .-Scene3DNode_setVisible
 930              		.section	.text.Scene3DNode_setUsesZBuffer,"ax",%progbits
 931              		.align	1
 932              		.p2align 4,,15
 933              		.global	Scene3DNode_setUsesZBuffer
 934              		.syntax unified
 935              		.thumb
 936              		.thumb_func
 937              		.fpu fpv5-sp-d16
 938              		.type	Scene3DNode_setUsesZBuffer, %function
 939              	Scene3DNode_setUsesZBuffer:
 940              	.LVL63:
 941              	.LFB20:
 127:mini3d/scene.c **** 	node->useZBuffer = flag;
 942              		.loc 1 127 1 is_stmt 1 view -0
 943              		.cfi_startproc
 944              		@ args = 0, pretend = 0, frame = 0
ARM GAS  /var/folders/cs/83z6p2tj4w57s6p2rt8nwfp00000gn/T//cc3yBana.s 			page 33


 945              		@ frame_needed = 0, uses_anonymous_args = 0
 946              		@ link register save eliminated.
 128:mini3d/scene.c **** 	node->needsUpdate = 1;
 947              		.loc 1 128 2 view .LVU203
 129:mini3d/scene.c **** }
 948              		.loc 1 129 2 view .LVU204
 949              	@ mini3d/scene.c:129: 	node->needsUpdate = 1;
 129:mini3d/scene.c **** }
 950              		.loc 1 129 20 is_stmt 0 view .LVU205
 951 0000 01F00101 		and	r1, r1, #1	@ tmp120, tmp135,
 952              	.LVL64:
 129:mini3d/scene.c **** }
 953              		.loc 1 129 20 view .LVU206
 954 0004 90F84D30 		ldrb	r3, [r0, #77]	@ zero_extendqisi2	@ MEM[(struct Scene3DNode *)node_4(D) + 77B], MEM[(struct Sc
 955 0008 8900     		lsls	r1, r1, #2	@ tmp122, tmp120,
 956 000a 23F00603 		bic	r3, r3, #6	@ tmp129, MEM[(struct Scene3DNode *)node_4(D) + 77B],
 957 000e 41F00201 		orr	r1, r1, #2	@ tmp126, tmp122,
 958 0012 1943     		orrs	r1, r1, r3	@, tmp132, tmp126, tmp129
 959 0014 80F84D10 		strb	r1, [r0, #77]	@ tmp132, MEM[(struct Scene3DNode *)node_4(D) + 77B]
 960              	@ mini3d/scene.c:130: }
 130:mini3d/scene.c **** #endif
 961              		.loc 1 130 1 view .LVU207
 962 0018 7047     		bx	lr	@
 963              		.cfi_endproc
 964              	.LFE20:
 965              		.size	Scene3DNode_setUsesZBuffer, .-Scene3DNode_setUsesZBuffer
 966 001a 00BF     		.section	.text.Scene3DNode_addShapeWithTransform,"ax",%progbits
 967              		.align	1
 968              		.p2align 4,,15
 969              		.global	Scene3DNode_addShapeWithTransform
 970              		.syntax unified
 971              		.thumb
 972              		.thumb_func
 973              		.fpu fpv5-sp-d16
 974              		.type	Scene3DNode_addShapeWithTransform, %function
 975              	Scene3DNode_addShapeWithTransform:
 976              	.LVL65:
 977              	.LFB21:
 135:mini3d/scene.c **** 	ShapeInstance* nodeshape = m3d_malloc(sizeof(ShapeInstance));
 978              		.loc 1 135 1 is_stmt 1 view -0
 979              		.cfi_startproc
 980              		@ args = 52, pretend = 8, frame = 8
 981              		@ frame_needed = 0, uses_anonymous_args = 0
 136:mini3d/scene.c **** 	int i;
 982              		.loc 1 136 2 view .LVU209
 983              	@ mini3d/scene.c:135: {
 135:mini3d/scene.c **** 	ShapeInstance* nodeshape = m3d_malloc(sizeof(ShapeInstance));
 984              		.loc 1 135 1 is_stmt 0 view .LVU210
 985 0000 82B0     		sub	sp, sp, #8	@,,
 986              	.LCFI9:
 987              		.cfi_def_cfa_offset 8
 988 0002 2DE9F04F 		push	{r4, r5, r6, r7, r8, r9, r10, fp, lr}	@
 989              	.LCFI10:
 990              		.cfi_def_cfa_offset 44
 991              		.cfi_offset 4, -44
 992              		.cfi_offset 5, -40
 993              		.cfi_offset 6, -36
ARM GAS  /var/folders/cs/83z6p2tj4w57s6p2rt8nwfp00000gn/T//cc3yBana.s 			page 34


 994              		.cfi_offset 7, -32
 995              		.cfi_offset 8, -28
 996              		.cfi_offset 9, -24
 997              		.cfi_offset 10, -20
 998              		.cfi_offset 11, -16
 999              		.cfi_offset 14, -12
 1000 0006 8DB0     		sub	sp, sp, #52	@,,
 1001              	.LCFI11:
 1002              		.cfi_def_cfa_offset 96
 1003              	@ mini3d/scene.c:136: 	ShapeInstance* nodeshape = m3d_malloc(sizeof(ShapeInstance));
 136:mini3d/scene.c **** 	int i;
 1004              		.loc 1 136 29 view .LVU211
 1005 0008 DFF84881 		ldr	r8, .L70	@ tmp154,
 1006              	@ mini3d/scene.c:135: {
 135:mini3d/scene.c **** 	ShapeInstance* nodeshape = m3d_malloc(sizeof(ShapeInstance));
 1007              		.loc 1 135 1 view .LVU212
 1008 000c 0546     		mov	r5, r0	@ tmp219, node
 1009              	@ mini3d/scene.c:136: 	ShapeInstance* nodeshape = m3d_malloc(sizeof(ShapeInstance));
 136:mini3d/scene.c **** 	int i;
 1010              		.loc 1 136 29 view .LVU213
 1011 000e 0020     		movs	r0, #0	@,
 1012              	.LVL66:
 1013              	@ mini3d/scene.c:135: {
 135:mini3d/scene.c **** 	ShapeInstance* nodeshape = m3d_malloc(sizeof(ShapeInstance));
 1014              		.loc 1 135 1 view .LVU214
 1015 0010 16AE     		add	r6, sp, #88	@ tmp237,,
 1016 0012 0F46     		mov	r7, r1	@ tmp220, shape
 1017              	@ mini3d/scene.c:136: 	ShapeInstance* nodeshape = m3d_malloc(sizeof(ShapeInstance));
 136:mini3d/scene.c **** 	int i;
 1018              		.loc 1 136 29 view .LVU215
 1019 0014 D8F80040 		ldr	r4, [r8]	@ m3d_realloc, m3d_realloc
 1020 0018 6821     		movs	r1, #104	@,
 1021              	.LVL67:
 1022              	@ mini3d/scene.c:135: {
 135:mini3d/scene.c **** 	ShapeInstance* nodeshape = m3d_malloc(sizeof(ShapeInstance));
 1023              		.loc 1 135 1 view .LVU216
 1024 001a 0B95     		str	r5, [sp, #44]	@ tmp219, %sfp
 1025              	@ mini3d/scene.c:139: 	nodeshape->renderStyle = kRenderInheritStyle;
 139:mini3d/scene.c **** 	nodeshape->prototype = Shape3D_retain(shape);
 1026              		.loc 1 139 25 view .LVU217
 1027 001c 0546     		mov	r5, r0	@ tmp156,
 1028              	.LVL68:
 1029              	@ mini3d/scene.c:135: {
 135:mini3d/scene.c **** 	ShapeInstance* nodeshape = m3d_malloc(sizeof(ShapeInstance));
 1030              		.loc 1 135 1 view .LVU218
 1031 001e 86E80C00 		stm	r6, {r2, r3}	@ tmp237,,
 1032              	@ mini3d/scene.c:136: 	ShapeInstance* nodeshape = m3d_malloc(sizeof(ShapeInstance));
 136:mini3d/scene.c **** 	int i;
 1033              		.loc 1 136 29 view .LVU219
 1034 0022 A047     		blx	r4		@ m3d_realloc
 1035              	.LVL69:
 1036 0024 0646     		mov	r6, r0	@ tmp221,
 1037              	@ mini3d/scene.c:140: 	nodeshape->prototype = Shape3D_retain(shape);
 140:mini3d/scene.c **** 	nodeshape->nPoints = shape->nPoints;
 1038              		.loc 1 140 25 view .LVU220
 1039 0026 3846     		mov	r0, r7	@, shape
 1040              	.LVL70:
ARM GAS  /var/folders/cs/83z6p2tj4w57s6p2rt8nwfp00000gn/T//cc3yBana.s 			page 35


 137:mini3d/scene.c **** 
 1041              		.loc 1 137 2 is_stmt 1 view .LVU221
 139:mini3d/scene.c **** 	nodeshape->prototype = Shape3D_retain(shape);
 1042              		.loc 1 139 2 view .LVU222
 1043              	@ mini3d/scene.c:139: 	nodeshape->renderStyle = kRenderInheritStyle;
 139:mini3d/scene.c **** 	nodeshape->prototype = Shape3D_retain(shape);
 1044              		.loc 1 139 25 is_stmt 0 view .LVU223
 1045 0028 86F85C50 		strb	r5, [r6, #92]	@ tmp156, nodeshape_46->renderStyle
 140:mini3d/scene.c **** 	nodeshape->nPoints = shape->nPoints;
 1046              		.loc 1 140 2 is_stmt 1 view .LVU224
 1047              	@ mini3d/scene.c:140: 	nodeshape->prototype = Shape3D_retain(shape);
 140:mini3d/scene.c **** 	nodeshape->nPoints = shape->nPoints;
 1048              		.loc 1 140 25 is_stmt 0 view .LVU225
 1049 002c FFF7FEFF 		bl	Shape3D_retain		@
 1050              	.LVL71:
 1051              	@ mini3d/scene.c:141: 	nodeshape->nPoints = shape->nPoints;
 141:mini3d/scene.c **** 	nodeshape->points = m3d_malloc(sizeof(Point3D) * shape->nPoints);
 1052              		.loc 1 141 28 view .LVU226
 1053 0030 7B68     		ldr	r3, [r7, #4]	@ _3, shape_48(D)->nPoints
 1054              	@ mini3d/scene.c:140: 	nodeshape->prototype = Shape3D_retain(shape);
 140:mini3d/scene.c **** 	nodeshape->nPoints = shape->nPoints;
 1055              		.loc 1 140 25 view .LVU227
 1056 0032 0246     		mov	r2, r0	@ tmp222,
 1057              	@ mini3d/scene.c:142: 	nodeshape->points = m3d_malloc(sizeof(Point3D) * shape->nPoints);
 142:mini3d/scene.c **** 
 1058              		.loc 1 142 22 view .LVU228
 1059 0034 2846     		mov	r0, r5	@, tmp156
 1060 0036 03EB4301 		add	r1, r3, r3, lsl #1	@ tmp160, _3, _3,
 1061              	@ mini3d/scene.c:141: 	nodeshape->nPoints = shape->nPoints;
 141:mini3d/scene.c **** 	nodeshape->points = m3d_malloc(sizeof(Point3D) * shape->nPoints);
 1062              		.loc 1 141 21 view .LVU229
 1063 003a F363     		str	r3, [r6, #60]	@ _3, nodeshape_46->nPoints
 1064              	@ mini3d/scene.c:140: 	nodeshape->prototype = Shape3D_retain(shape);
 140:mini3d/scene.c **** 	nodeshape->nPoints = shape->nPoints;
 1065              		.loc 1 140 23 view .LVU230
 1066 003c 3260     		str	r2, [r6]	@ tmp222, nodeshape_46->prototype
 141:mini3d/scene.c **** 	nodeshape->points = m3d_malloc(sizeof(Point3D) * shape->nPoints);
 1067              		.loc 1 141 2 is_stmt 1 view .LVU231
 142:mini3d/scene.c **** 
 1068              		.loc 1 142 2 view .LVU232
 1069              	@ mini3d/scene.c:142: 	nodeshape->points = m3d_malloc(sizeof(Point3D) * shape->nPoints);
 142:mini3d/scene.c **** 
 1070              		.loc 1 142 22 is_stmt 0 view .LVU233
 1071 003e D8F80030 		ldr	r3, [r8]	@ m3d_realloc, m3d_realloc
 1072 0042 8900     		lsls	r1, r1, #2	@, tmp160,
 1073 0044 9847     		blx	r3		@ m3d_realloc
 1074              	.LVL72:
 1075              	@ mini3d/scene.c:148: 	nodeshape->nFaces = shape->nFaces;
 148:mini3d/scene.c **** 	nodeshape->faces = m3d_malloc(sizeof(FaceInstance) * shape->nFaces);
 1076              		.loc 1 148 27 view .LVU234
 1077 0046 FB68     		ldr	r3, [r7, #12]	@ _8, shape_48(D)->nFaces
 1078              	@ mini3d/scene.c:142: 	nodeshape->points = m3d_malloc(sizeof(Point3D) * shape->nPoints);
 142:mini3d/scene.c **** 
 1079              		.loc 1 142 22 view .LVU235
 1080 0048 0446     		mov	r4, r0	@ tmp223,
 1081              	@ mini3d/scene.c:149: 	nodeshape->faces = m3d_malloc(sizeof(FaceInstance) * shape->nFaces);
 149:mini3d/scene.c **** 
ARM GAS  /var/folders/cs/83z6p2tj4w57s6p2rt8nwfp00000gn/T//cc3yBana.s 			page 36


 1082              		.loc 1 149 21 view .LVU236
 1083 004a D8F80020 		ldr	r2, [r8]	@ m3d_realloc, m3d_realloc
 1084 004e 03EBC301 		add	r1, r3, r3, lsl #3	@ tmp166, _8, _8,
 1085 0052 2846     		mov	r0, r5	@, tmp156
 1086              	@ mini3d/scene.c:148: 	nodeshape->nFaces = shape->nFaces;
 148:mini3d/scene.c **** 	nodeshape->faces = m3d_malloc(sizeof(FaceInstance) * shape->nFaces);
 1087              		.loc 1 148 20 view .LVU237
 1088 0054 C6E91043 		strd	r4, r3, [r6, #64]	@ tmp223, _8, nodeshape,
 149:mini3d/scene.c **** 
 1089              		.loc 1 149 2 is_stmt 1 view .LVU238
 1090              	@ mini3d/scene.c:149: 	nodeshape->faces = m3d_malloc(sizeof(FaceInstance) * shape->nFaces);
 149:mini3d/scene.c **** 
 1091              		.loc 1 149 21 is_stmt 0 view .LVU239
 1092 0058 8900     		lsls	r1, r1, #2	@, tmp166,
 1093 005a 9047     		blx	r2		@ m3d_realloc
 1094              	.LVL73:
 1095              	@ mini3d/scene.c:151: 	for ( i = 0; i < shape->nFaces; ++i )
 151:mini3d/scene.c **** 	{
 1096              		.loc 1 151 2 view .LVU240
 1097 005c FB68     		ldr	r3, [r7, #12]	@ shape_48(D)->nFaces, shape_48(D)->nFaces
 1098              	@ mini3d/scene.c:149: 	nodeshape->faces = m3d_malloc(sizeof(FaceInstance) * shape->nFaces);
 149:mini3d/scene.c **** 
 1099              		.loc 1 149 19 view .LVU241
 1100 005e B064     		str	r0, [r6, #72]	@ pretmp_103, nodeshape_46->faces
 151:mini3d/scene.c **** 	{
 1101              		.loc 1 151 2 is_stmt 1 view .LVU242
 1102              	.LVL74:
 151:mini3d/scene.c **** 	{
 1103              		.loc 1 151 15 view .LVU243
 1104              	@ mini3d/scene.c:151: 	for ( i = 0; i < shape->nFaces; ++i )
 151:mini3d/scene.c **** 	{
 1105              		.loc 1 151 2 is_stmt 0 view .LVU244
 1106 0060 AB42     		cmp	r3, r5	@ shape_48(D)->nFaces,
 1107 0062 3FDD     		ble	.L63		@,
 1108 0064 8346     		mov	fp, r0	@ pretmp_103, tmp224
 1109              	.LBB36:
 1110              	@ mini3d/scene.c:160: 		if ( shape->faces[i].p4 != 0xffff )
 160:mini3d/scene.c **** 			face->p4 = &nodeshape->points[shape->faces[i].p4];
 1111              		.loc 1 160 6 view .LVU245
 1112 0066 4FF6FF78 		movw	r8, #65535	@ tmp190,
 1113              	.LBE36:
 1114              	@ mini3d/scene.c:151: 	for ( i = 0; i < shape->nFaces; ++i )
 151:mini3d/scene.c **** 	{
 1115              		.loc 1 151 10 view .LVU246
 1116 006a A946     		mov	r9, r5	@ i, ivtmp.158
 1117 006c 01E0     		b	.L65		@
 1118              	.LVL75:
 1119              	.L69:
 151:mini3d/scene.c **** 	{
 1120              		.loc 1 151 10 view .LVU247
 1121 006e D6F848B0 		ldr	fp, [r6, #72]	@ pretmp_103, nodeshape_46->faces
 1122              	.LVL76:
 1123              	.L65:
 1124              	.LBB37:
 154:mini3d/scene.c **** 
 1125              		.loc 1 154 3 is_stmt 1 view .LVU248
 161:mini3d/scene.c **** 		else
ARM GAS  /var/folders/cs/83z6p2tj4w57s6p2rt8nwfp00000gn/T//cc3yBana.s 			page 37


 1126              		.loc 1 161 4 view .LVU249
 1127              	@ mini3d/scene.c:156: 		face->p1 = &nodeshape->points[shape->faces[i].p1];
 156:mini3d/scene.c **** 		face->p2 = &nodeshape->points[shape->faces[i].p2];
 1128              		.loc 1 156 45 is_stmt 0 view .LVU250
 1129 0072 3A69     		ldr	r2, [r7, #16]	@ shape_48(D)->faces, shape_48(D)->faces
 1130              	@ mini3d/scene.c:154: 		FaceInstance* face = &nodeshape->faces[i];
 154:mini3d/scene.c **** 
 1131              		.loc 1 154 17 view .LVU251
 1132 0074 05EB450E 		add	lr, r5, r5, lsl #1	@ tmp173, ivtmp.158, ivtmp.158,
 1133              	@ mini3d/scene.c:156: 		face->p1 = &nodeshape->points[shape->faces[i].p1];
 156:mini3d/scene.c **** 		face->p2 = &nodeshape->points[shape->faces[i].p2];
 1134              		.loc 1 156 24 view .LVU252
 1135 0078 336C     		ldr	r3, [r6, #64]	@ _16, nodeshape_46->points
 1136              	.LBE37:
 1137              	@ mini3d/scene.c:151: 	for ( i = 0; i < shape->nFaces; ++i )
 151:mini3d/scene.c **** 	{
 1138              		.loc 1 151 34 view .LVU253
 1139 007a 09F10109 		add	r9, r9, #1	@ i, i,
 1140              	.LVL77:
 1141              	.LBB38:
 1142              	@ mini3d/scene.c:156: 		face->p1 = &nodeshape->points[shape->faces[i].p1];
 156:mini3d/scene.c **** 		face->p2 = &nodeshape->points[shape->faces[i].p2];
 1143              		.loc 1 156 48 view .LVU254
 1144 007e 505B     		ldrh	r0, [r2, r5]	@ _19->p1, _19->p1
 1145              	@ mini3d/scene.c:156: 		face->p1 = &nodeshape->points[shape->faces[i].p1];
 156:mini3d/scene.c **** 		face->p2 = &nodeshape->points[shape->faces[i].p2];
 1146              		.loc 1 156 45 view .LVU255
 1147 0080 02EB050C 		add	ip, r2, r5	@ _19, shape_48(D)->faces, ivtmp.158
 1148              	@ mini3d/scene.c:154: 		FaceInstance* face = &nodeshape->faces[i];
 154:mini3d/scene.c **** 
 1149              		.loc 1 154 17 view .LVU256
 1150 0084 0BEB0E04 		add	r4, fp, lr	@ face, pretmp_103, tmp173
 1151              	.LVL78:
 156:mini3d/scene.c **** 		face->p2 = &nodeshape->points[shape->faces[i].p2];
 1152              		.loc 1 156 3 is_stmt 1 view .LVU257
 1153 0088 0C35     		adds	r5, r5, #12	@ ivtmp.158, ivtmp.158,
 1154              	@ mini3d/scene.c:156: 		face->p1 = &nodeshape->points[shape->faces[i].p1];
 156:mini3d/scene.c **** 		face->p2 = &nodeshape->points[shape->faces[i].p2];
 1155              		.loc 1 156 32 is_stmt 0 view .LVU258
 1156 008a 00EB4000 		add	r0, r0, r0, lsl #1	@ tmp178, _19->p1, _19->p1,
 1157              	@ mini3d/scene.c:160: 		if ( shape->faces[i].p4 != 0xffff )
 160:mini3d/scene.c **** 			face->p4 = &nodeshape->points[shape->faces[i].p4];
 1158              		.loc 1 160 23 view .LVU259
 1159 008e BCF806A0 		ldrh	r10, [ip, #6]	@ _32, _19->p4
 1160              	@ mini3d/scene.c:157: 		face->p2 = &nodeshape->points[shape->faces[i].p2];
 157:mini3d/scene.c **** 		face->p3 = &nodeshape->points[shape->faces[i].p3];
 1161              		.loc 1 157 48 view .LVU260
 1162 0092 BCF80210 		ldrh	r1, [ip, #2]	@ _19->p2, _19->p2
 1163              	@ mini3d/scene.c:158: 		face->p3 = &nodeshape->points[shape->faces[i].p3];
 158:mini3d/scene.c **** 
 1164              		.loc 1 158 48 view .LVU261
 1165 0096 BCF80420 		ldrh	r2, [ip, #4]	@ _19->p3, _19->p3
 1166              	@ mini3d/scene.c:156: 		face->p1 = &nodeshape->points[shape->faces[i].p1];
 156:mini3d/scene.c **** 		face->p2 = &nodeshape->points[shape->faces[i].p2];
 1167              		.loc 1 156 14 view .LVU262
 1168 009a 03EB8000 		add	r0, r3, r0, lsl #2	@ _23, _16, tmp178,
 1169              	@ mini3d/scene.c:160: 		if ( shape->faces[i].p4 != 0xffff )
ARM GAS  /var/folders/cs/83z6p2tj4w57s6p2rt8nwfp00000gn/T//cc3yBana.s 			page 38


 160:mini3d/scene.c **** 			face->p4 = &nodeshape->points[shape->faces[i].p4];
 1170              		.loc 1 160 6 view .LVU263
 1171 009e C245     		cmp	r10, r8	@ _32, tmp190
 1172              	@ mini3d/scene.c:157: 		face->p2 = &nodeshape->points[shape->faces[i].p2];
 157:mini3d/scene.c **** 		face->p3 = &nodeshape->points[shape->faces[i].p3];
 1173              		.loc 1 157 32 view .LVU264
 1174 00a0 01EB4101 		add	r1, r1, r1, lsl #1	@ tmp183, _19->p2, _19->p2,
 1175              	@ mini3d/scene.c:156: 		face->p1 = &nodeshape->points[shape->faces[i].p1];
 156:mini3d/scene.c **** 		face->p2 = &nodeshape->points[shape->faces[i].p2];
 1176              		.loc 1 156 12 view .LVU265
 1177 00a4 4BF80E00 		str	r0, [fp, lr]	@ _23, face_66->p1
 157:mini3d/scene.c **** 		face->p3 = &nodeshape->points[shape->faces[i].p3];
 1178              		.loc 1 157 3 is_stmt 1 view .LVU266
 1179              	@ mini3d/scene.c:158: 		face->p3 = &nodeshape->points[shape->faces[i].p3];
 158:mini3d/scene.c **** 
 1180              		.loc 1 158 32 is_stmt 0 view .LVU267
 1181 00a8 02EB4202 		add	r2, r2, r2, lsl #1	@ tmp188, _19->p3, _19->p3,
 1182              	@ mini3d/scene.c:161: 			face->p4 = &nodeshape->points[shape->faces[i].p4];
 161:mini3d/scene.c **** 		else
 1183              		.loc 1 161 33 view .LVU268
 1184 00ac 0AEB4A0E 		add	lr, r10, r10, lsl #1	@ tmp193, _32, _32,
 1185              	@ mini3d/scene.c:165: 		face->colorBias = shape->faces[i].colorBias;
 165:mini3d/scene.c **** 
 1186              		.loc 1 165 19 view .LVU269
 1187 00b0 DCF808C0 		ldr	ip, [ip, #8]	@ float	@ _19->colorBias, _19->colorBias
 1188              	@ mini3d/scene.c:157: 		face->p2 = &nodeshape->points[shape->faces[i].p2];
 157:mini3d/scene.c **** 		face->p3 = &nodeshape->points[shape->faces[i].p3];
 1189              		.loc 1 157 14 view .LVU270
 1190 00b4 03EB8101 		add	r1, r3, r1, lsl #2	@ _27, _16, tmp183,
 1191              	@ mini3d/scene.c:158: 		face->p3 = &nodeshape->points[shape->faces[i].p3];
 158:mini3d/scene.c **** 
 1192              		.loc 1 158 14 view .LVU271
 1193 00b8 03EB8202 		add	r2, r3, r2, lsl #2	@ _31, _16, tmp188,
 1194              	@ mini3d/scene.c:165: 		face->colorBias = shape->faces[i].colorBias;
 165:mini3d/scene.c **** 
 1195              		.loc 1 165 19 view .LVU272
 1196 00bc C4F81CC0 		str	ip, [r4, #28]	@ float	@ _19->colorBias, face_66->colorBias
 1197              	@ mini3d/scene.c:161: 			face->p4 = &nodeshape->points[shape->faces[i].p4];
 161:mini3d/scene.c **** 		else
 1198              		.loc 1 161 15 view .LVU273
 1199 00c0 03EB8E03 		add	r3, r3, lr, lsl #2	@ _35, _16, tmp193,
 1200              	@ mini3d/scene.c:163: 			face->p4 = NULL;
 163:mini3d/scene.c **** 
 1201              		.loc 1 163 13 view .LVU274
 1202 00c4 08BF     		it	eq
 1203 00c6 0023     		moveq	r3, #0	@ _35,
 1204              	@ mini3d/scene.c:157: 		face->p2 = &nodeshape->points[shape->faces[i].p2];
 157:mini3d/scene.c **** 		face->p3 = &nodeshape->points[shape->faces[i].p3];
 1205              		.loc 1 157 12 view .LVU275
 1206 00c8 6160     		str	r1, [r4, #4]	@ _27, face_66->p2
 158:mini3d/scene.c **** 
 1207              		.loc 1 158 3 is_stmt 1 view .LVU276
 1208 00ca E360     		str	r3, [r4, #12]	@ _35, face_66->p4
 1209              	@ mini3d/scene.c:158: 		face->p3 = &nodeshape->points[shape->faces[i].p3];
 158:mini3d/scene.c **** 
 1210              		.loc 1 158 12 is_stmt 0 view .LVU277
 1211 00cc A260     		str	r2, [r4, #8]	@ _31, face_66->p3
ARM GAS  /var/folders/cs/83z6p2tj4w57s6p2rt8nwfp00000gn/T//cc3yBana.s 			page 39


 160:mini3d/scene.c **** 			face->p4 = &nodeshape->points[shape->faces[i].p4];
 1212              		.loc 1 160 3 is_stmt 1 view .LVU278
 165:mini3d/scene.c **** 
 1213              		.loc 1 165 3 view .LVU279
 168:mini3d/scene.c **** 	}
 1214              		.loc 1 168 3 view .LVU280
 1215              	@ mini3d/scene.c:168: 		face->normal = pnormal(face->p1, face->p2, face->p3);
 168:mini3d/scene.c **** 	}
 1216              		.loc 1 168 18 is_stmt 0 view .LVU281
 1217 00ce FFF7FEFF 		bl	pnormal		@
 1218              	.LVL79:
 1219              	.LBE38:
 1220              	@ mini3d/scene.c:151: 	for ( i = 0; i < shape->nFaces; ++i )
 151:mini3d/scene.c **** 	{
 1221              		.loc 1 151 2 view .LVU282
 1222 00d2 FB68     		ldr	r3, [r7, #12]	@ shape_48(D)->nFaces, shape_48(D)->nFaces
 1223              	.LBB39:
 1224              	@ mini3d/scene.c:168: 		face->normal = pnormal(face->p1, face->p2, face->p3);
 168:mini3d/scene.c **** 	}
 1225              		.loc 1 168 18 view .LVU283
 1226 00d4 84ED040A 		vstr.32	s0, [r4, #16]	@ tmp225, face_66->normal
 1227              	.LBE39:
 1228              	@ mini3d/scene.c:151: 	for ( i = 0; i < shape->nFaces; ++i )
 151:mini3d/scene.c **** 	{
 1229              		.loc 1 151 2 view .LVU284
 1230 00d8 4B45     		cmp	r3, r9	@ shape_48(D)->nFaces, i
 1231              	.LBB40:
 1232              	@ mini3d/scene.c:168: 		face->normal = pnormal(face->p1, face->p2, face->p3);
 168:mini3d/scene.c **** 	}
 1233              		.loc 1 168 18 view .LVU285
 1234 00da C4ED050A 		vstr.32	s1, [r4, #20]	@ tmp226, face_66->normal
 1235 00de 84ED061A 		vstr.32	s2, [r4, #24]	@ tmp227, face_66->normal
 1236              	.LBE40:
 151:mini3d/scene.c **** 	{
 1237              		.loc 1 151 34 is_stmt 1 view .LVU286
 1238              	.LVL80:
 151:mini3d/scene.c **** 	{
 1239              		.loc 1 151 15 view .LVU287
 1240              	@ mini3d/scene.c:151: 	for ( i = 0; i < shape->nFaces; ++i )
 151:mini3d/scene.c **** 	{
 1241              		.loc 1 151 2 is_stmt 0 view .LVU288
 1242 00e2 C4DC     		bgt	.L69		@,
 1243              	.LVL81:
 1244              	.L63:
 171:mini3d/scene.c **** 	nodeshape->center = Matrix3D_apply(transform, shape->center);
 1245              		.loc 1 171 2 is_stmt 1 view .LVU289
 1246              	@ mini3d/scene.c:171: 	nodeshape->transform = transform;
 171:mini3d/scene.c **** 	nodeshape->center = Matrix3D_apply(transform, shape->center);
 1247              		.loc 1 171 23 is_stmt 0 view .LVU290
 1248 00e4 16AD     		add	r5, sp, #88	@ tmp201,,
 1249 00e6 341D     		adds	r4, r6, #4	@ tmp200, nodeshape,
 1250              	@ mini3d/scene.c:172: 	nodeshape->center = Matrix3D_apply(transform, shape->center);
 172:mini3d/scene.c **** 	nodeshape->colorBias = 0;
 1251              		.loc 1 172 22 view .LVU291
 1252 00e8 0DF1680E 		add	lr, sp, #104	@ tmp207,,
 1253              	.LVL82:
 172:mini3d/scene.c **** 	nodeshape->colorBias = 0;
ARM GAS  /var/folders/cs/83z6p2tj4w57s6p2rt8nwfp00000gn/T//cc3yBana.s 			page 40


 1254              		.loc 1 172 22 view .LVU292
 1255 00ec EC46     		mov	ip, sp	@ tmp206,
 1256              	@ mini3d/scene.c:171: 	nodeshape->transform = transform;
 171:mini3d/scene.c **** 	nodeshape->center = Matrix3D_apply(transform, shape->center);
 1257              		.loc 1 171 23 view .LVU293
 1258 00ee 0FCD     		ldmia	r5!, {r0, r1, r2, r3}	@ tmp201,,,,
 1259 00f0 0FC4     		stmia	r4!, {r0, r1, r2, r3}	@ tmp200,,,,
 1260 00f2 0FCD     		ldmia	r5!, {r0, r1, r2, r3}	@ tmp201,,,,
 1261 00f4 0FC4     		stmia	r4!, {r0, r1, r2, r3}	@ tmp200,,,,
 1262 00f6 0FCD     		ldmia	r5!, {r0, r1, r2, r3}	@ tmp201,,,,
 1263 00f8 2D68     		ldr	r5, [r5]	@ transform, transform
 1264 00fa 0FC4     		stmia	r4!, {r0, r1, r2, r3}	@ tmp200,,,,
 1265              	@ mini3d/scene.c:172: 	nodeshape->center = Matrix3D_apply(transform, shape->center);
 172:mini3d/scene.c **** 	nodeshape->colorBias = 0;
 1266              		.loc 1 172 22 view .LVU294
 1267 00fc BEE80F00 		ldmia	lr!, {r0, r1, r2, r3}	@ tmp207,,,,
 1268              	.LVL83:
 1269              	@ mini3d/scene.c:171: 	nodeshape->transform = transform;
 171:mini3d/scene.c **** 	nodeshape->center = Matrix3D_apply(transform, shape->center);
 1270              		.loc 1 171 23 view .LVU295
 1271 0100 2560     		str	r5, [r4]	@ transform, nodeshape_46->transform
 172:mini3d/scene.c **** 	nodeshape->colorBias = 0;
 1272              		.loc 1 172 2 is_stmt 1 view .LVU296
 1273              	@ mini3d/scene.c:172: 	nodeshape->center = Matrix3D_apply(transform, shape->center);
 172:mini3d/scene.c **** 	nodeshape->colorBias = 0;
 1274              		.loc 1 172 22 is_stmt 0 view .LVU297
 1275 0102 ACE80F00 		stmia	ip!, {r0, r1, r2, r3}	@ tmp206,,,,
 1276 0106 BEE80F00 		ldmia	lr!, {r0, r1, r2, r3}	@ tmp207,,,,
 1277              	.LVL84:
 172:mini3d/scene.c **** 	nodeshape->colorBias = 0;
 1278              		.loc 1 172 22 view .LVU298
 1279 010a 97ED050A 		vldr.32	s0, [r7, #20]	@, shape_48(D)->center
 1280 010e D7ED060A 		vldr.32	s1, [r7, #24]	@, shape_48(D)->center
 1281 0112 97ED071A 		vldr.32	s2, [r7, #28]	@, shape_48(D)->center
 1282 0116 ACE80F00 		stmia	ip!, {r0, r1, r2, r3}	@ tmp206,,,,
 1283 011a 16AB     		add	r3, sp, #88	@ tmp238,,
 1284 011c 0FCB     		ldm	r3, {r0, r1, r2, r3}	@ tmp238,,,,
 1285 011e CCF80050 		str	r5, [ip]	@ transform,
 1286 0122 FFF7FEFF 		bl	Matrix3D_apply		@
 1287              	.LVL85:
 1288              	@ mini3d/scene.c:182: 	++node->shapeCount;
 182:mini3d/scene.c **** }
 1289              		.loc 1 182 2 view .LVU299
 1290 0126 0B9C     		ldr	r4, [sp, #44]	@ node, %sfp
 1291              	@ mini3d/scene.c:176: 	nodeshape->orderTableSize = 0;
 176:mini3d/scene.c **** 	nodeshape->orderTable = NULL;
 1292              		.loc 1 176 28 view .LVU300
 1293 0128 0022     		movs	r2, #0	@ tmp213,
 1294              	@ mini3d/scene.c:173: 	nodeshape->colorBias = 0;
 173:mini3d/scene.c **** 
 1295              		.loc 1 173 23 view .LVU301
 1296 012a 0020     		movs	r0, #0	@ tmp212,
 1297              	@ mini3d/scene.c:182: 	++node->shapeCount;
 182:mini3d/scene.c **** }
 1298              		.loc 1 182 2 view .LVU302
 1299 012c 236C     		ldr	r3, [r4, #64]	@ node_62(D)->shapeCount, node_62(D)->shapeCount
 1300              	@ mini3d/scene.c:180: 	nodeshape->next = node->shapes;
ARM GAS  /var/folders/cs/83z6p2tj4w57s6p2rt8nwfp00000gn/T//cc3yBana.s 			page 41


 180:mini3d/scene.c **** 	node->shapes = nodeshape;
 1301              		.loc 1 180 18 view .LVU303
 1302 012e 616C     		ldr	r1, [r4, #68]	@ node_62(D)->shapes, node_62(D)->shapes
 1303              	@ mini3d/scene.c:182: 	++node->shapeCount;
 182:mini3d/scene.c **** }
 1304              		.loc 1 182 2 view .LVU304
 1305 0130 0133     		adds	r3, r3, #1	@ tmp216, node_62(D)->shapeCount,
 1306              	@ mini3d/scene.c:172: 	nodeshape->center = Matrix3D_apply(transform, shape->center);
 172:mini3d/scene.c **** 	nodeshape->colorBias = 0;
 1307              		.loc 1 172 22 view .LVU305
 1308 0132 86ED130A 		vstr.32	s0, [r6, #76]	@ tmp228, nodeshape_46->center
 1309 0136 C6ED140A 		vstr.32	s1, [r6, #80]	@ tmp229, nodeshape_46->center
 1310 013a 86ED151A 		vstr.32	s2, [r6, #84]	@ tmp230, nodeshape_46->center
 173:mini3d/scene.c **** 
 1311              		.loc 1 173 2 is_stmt 1 view .LVU306
 1312              	@ mini3d/scene.c:173: 	nodeshape->colorBias = 0;
 173:mini3d/scene.c **** 
 1313              		.loc 1 173 23 is_stmt 0 view .LVU307
 1314 013e B065     		str	r0, [r6, #88]	@ float	@ tmp212, nodeshape_46->colorBias
 176:mini3d/scene.c **** 	nodeshape->orderTable = NULL;
 1315              		.loc 1 176 2 is_stmt 1 view .LVU308
 1316              	@ mini3d/scene.c:180: 	nodeshape->next = node->shapes;
 180:mini3d/scene.c **** 	node->shapes = nodeshape;
 1317              		.loc 1 180 18 is_stmt 0 view .LVU309
 1318 0140 B163     		str	r1, [r6, #56]	@ node_62(D)->shapes, nodeshape_46->next
 1319              	@ mini3d/scene.c:177: 	nodeshape->orderTable = NULL;
 177:mini3d/scene.c **** #endif
 1320              		.loc 1 177 24 view .LVU310
 1321 0142 C6E91822 		strd	r2, r2, [r6, #96]	@ tmp213, tmp213, nodeshape,
 180:mini3d/scene.c **** 	node->shapes = nodeshape;
 1322              		.loc 1 180 2 is_stmt 1 view .LVU311
 181:mini3d/scene.c **** 	++node->shapeCount;
 1323              		.loc 1 181 2 view .LVU312
 1324              	@ mini3d/scene.c:182: 	++node->shapeCount;
 182:mini3d/scene.c **** }
 1325              		.loc 1 182 2 is_stmt 0 view .LVU313
 1326 0146 2364     		str	r3, [r4, #64]	@ tmp216, node_62(D)->shapeCount
 1327              	@ mini3d/scene.c:181: 	node->shapes = nodeshape;
 181:mini3d/scene.c **** 	++node->shapeCount;
 1328              		.loc 1 181 15 view .LVU314
 1329 0148 6664     		str	r6, [r4, #68]	@ nodeshape, node_62(D)->shapes
 182:mini3d/scene.c **** }
 1330              		.loc 1 182 2 is_stmt 1 view .LVU315
 1331              	@ mini3d/scene.c:183: }
 183:mini3d/scene.c **** 
 1332              		.loc 1 183 1 is_stmt 0 view .LVU316
 1333 014a 0DB0     		add	sp, sp, #52	@,,
 1334              	.LCFI12:
 1335              		.cfi_def_cfa_offset 44
 1336              		@ sp needed	@
 1337 014c BDE8F04F 		pop	{r4, r5, r6, r7, r8, r9, r10, fp, lr}	@
 1338              	.LCFI13:
 1339              		.cfi_restore 14
 1340              		.cfi_restore 11
 1341              		.cfi_restore 10
 1342              		.cfi_restore 9
 1343              		.cfi_restore 8
ARM GAS  /var/folders/cs/83z6p2tj4w57s6p2rt8nwfp00000gn/T//cc3yBana.s 			page 42


 1344              		.cfi_restore 7
 1345              		.cfi_restore 6
 1346              		.cfi_restore 5
 1347              		.cfi_restore 4
 1348              		.cfi_def_cfa_offset 8
 1349              	.LVL86:
 183:mini3d/scene.c **** 
 1350              		.loc 1 183 1 view .LVU317
 1351 0150 02B0     		add	sp, sp, #8	@,,
 1352              	.LCFI14:
 1353              		.cfi_def_cfa_offset 0
 1354 0152 7047     		bx	lr	@
 1355              	.L71:
 1356              		.align	2
 1357              	.L70:
 1358 0154 00000000 		.word	m3d_realloc
 1359              		.cfi_endproc
 1360              	.LFE21:
 1361              		.size	Scene3DNode_addShapeWithTransform, .-Scene3DNode_addShapeWithTransform
 1362              		.section	.text.Scene3DNode_addShapeWithOffset,"ax",%progbits
 1363              		.align	1
 1364              		.p2align 4,,15
 1365              		.global	Scene3DNode_addShapeWithOffset
 1366              		.syntax unified
 1367              		.thumb
 1368              		.thumb_func
 1369              		.fpu fpv5-sp-d16
 1370              		.type	Scene3DNode_addShapeWithOffset, %function
 1371              	Scene3DNode_addShapeWithOffset:
 1372              	.LVL87:
 1373              	.LFB22:
 187:mini3d/scene.c **** 	Scene3DNode_addShapeWithTransform(node, shape, Matrix3DMakeTranslate(offset.dx, offset.dy, offset.
 1374              		.loc 1 187 1 is_stmt 1 view -0
 1375              		.cfi_startproc
 1376              		@ args = 0, pretend = 0, frame = 72
 1377              		@ frame_needed = 0, uses_anonymous_args = 0
 188:mini3d/scene.c **** }
 1378              		.loc 1 188 2 view .LVU319
 1379              	@ mini3d/scene.c:187: {
 187:mini3d/scene.c **** 	Scene3DNode_addShapeWithTransform(node, shape, Matrix3DMakeTranslate(offset.dx, offset.dy, offset.
 1380              		.loc 1 187 1 is_stmt 0 view .LVU320
 1381 0000 2DE9F041 		push	{r4, r5, r6, r7, r8, lr}	@
 1382              	.LCFI15:
 1383              		.cfi_def_cfa_offset 24
 1384              		.cfi_offset 4, -24
 1385              		.cfi_offset 5, -20
 1386              		.cfi_offset 6, -16
 1387              		.cfi_offset 7, -12
 1388              		.cfi_offset 8, -8
 1389              		.cfi_offset 14, -4
 1390 0004 9EB0     		sub	sp, sp, #120	@,,
 1391              	.LCFI16:
 1392              		.cfi_def_cfa_offset 144
 1393              	@ mini3d/scene.c:187: {
 187:mini3d/scene.c **** 	Scene3DNode_addShapeWithTransform(node, shape, Matrix3DMakeTranslate(offset.dx, offset.dy, offset.
 1394              		.loc 1 187 1 view .LVU321
 1395 0006 0746     		mov	r7, r0	@ tmp125, node
ARM GAS  /var/folders/cs/83z6p2tj4w57s6p2rt8nwfp00000gn/T//cc3yBana.s 			page 43


 1396 0008 8846     		mov	r8, r1	@ shape, tmp126
 1397              	@ mini3d/scene.c:188: 	Scene3DNode_addShapeWithTransform(node, shape, Matrix3DMakeTranslate(offset.
 188:mini3d/scene.c **** }
 1398              		.loc 1 188 2 view .LVU322
 1399 000a 11AE     		add	r6, sp, #68	@ tmp118,,
 1400 000c 13AD     		add	r5, sp, #76	@ tmp123,,
 1401              	@ mini3d/scene.c:187: {
 187:mini3d/scene.c **** 	Scene3DNode_addShapeWithTransform(node, shape, Matrix3DMakeTranslate(offset.dx, offset.dy, offset.
 1402              		.loc 1 187 1 view .LVU323
 1403 000e 8DED0D0A 		vstr.32	s0, [sp, #52]	@ tmp127, offset
 1404              	@ mini3d/scene.c:188: 	Scene3DNode_addShapeWithTransform(node, shape, Matrix3DMakeTranslate(offset.
 188:mini3d/scene.c **** }
 1405              		.loc 1 188 2 view .LVU324
 1406 0012 6C46     		mov	r4, sp	@ tmp122,
 1407 0014 3046     		mov	r0, r6	@, tmp118
 1408              	.LVL88:
 1409              	@ mini3d/scene.c:187: {
 187:mini3d/scene.c **** 	Scene3DNode_addShapeWithTransform(node, shape, Matrix3DMakeTranslate(offset.dx, offset.dy, offset.
 1410              		.loc 1 187 1 view .LVU325
 1411 0016 CDED0E0A 		vstr.32	s1, [sp, #56]	@ tmp128, offset
 1412 001a 8DED0F1A 		vstr.32	s2, [sp, #60]	@ tmp129, offset
 1413              	@ mini3d/scene.c:188: 	Scene3DNode_addShapeWithTransform(node, shape, Matrix3DMakeTranslate(offset.
 188:mini3d/scene.c **** }
 1414              		.loc 1 188 2 view .LVU326
 1415 001e FFF7FEFF 		bl	Matrix3DMakeTranslate		@
 1416              	.LVL89:
 188:mini3d/scene.c **** }
 1417              		.loc 1 188 2 view .LVU327
 1418 0022 0FCD     		ldmia	r5!, {r0, r1, r2, r3}	@ tmp123,,,,
 1419 0024 0FC4     		stmia	r4!, {r0, r1, r2, r3}	@ tmp122,,,,
 1420 0026 0FCD     		ldmia	r5!, {r0, r1, r2, r3}	@ tmp123,,,,
 1421 0028 0FC4     		stmia	r4!, {r0, r1, r2, r3}	@ tmp122,,,,
 1422 002a 95E80700 		ldm	r5, {r0, r1, r2}	@ tmp123,,,
 1423 002e 84E80700 		stm	r4, {r0, r1, r2}	@ tmp122,,,
 1424 0032 4146     		mov	r1, r8	@, shape
 1425 0034 3846     		mov	r0, r7	@, node
 1426 0036 96E80C00 		ldm	r6, {r2, r3}	@ tmp118,,
 1427 003a FFF7FEFF 		bl	Scene3DNode_addShapeWithTransform		@
 1428              	.LVL90:
 1429              	@ mini3d/scene.c:189: }
 189:mini3d/scene.c **** 
 1430              		.loc 1 189 1 view .LVU328
 1431 003e 1EB0     		add	sp, sp, #120	@,,
 1432              	.LCFI17:
 1433              		.cfi_def_cfa_offset 24
 1434              		@ sp needed	@
 1435 0040 BDE8F081 		pop	{r4, r5, r6, r7, r8, pc}	@
 189:mini3d/scene.c **** 
 1436              		.loc 1 189 1 view .LVU329
 1437              		.cfi_endproc
 1438              	.LFE22:
 1439              		.size	Scene3DNode_addShapeWithOffset, .-Scene3DNode_addShapeWithOffset
 1440              		.section	.text.Scene3DNode_addShape,"ax",%progbits
 1441              		.align	1
 1442              		.p2align 4,,15
 1443              		.global	Scene3DNode_addShape
 1444              		.syntax unified
ARM GAS  /var/folders/cs/83z6p2tj4w57s6p2rt8nwfp00000gn/T//cc3yBana.s 			page 44


 1445              		.thumb
 1446              		.thumb_func
 1447              		.fpu fpv5-sp-d16
 1448              		.type	Scene3DNode_addShape, %function
 1449              	Scene3DNode_addShape:
 1450              	.LVL91:
 1451              	.LFB23:
 193:mini3d/scene.c **** 	Scene3DNode_addShapeWithTransform(node, shape, identityMatrix);
 1452              		.loc 1 193 1 is_stmt 1 view -0
 1453              		.cfi_startproc
 1454              		@ args = 0, pretend = 0, frame = 0
 1455              		@ frame_needed = 0, uses_anonymous_args = 0
 194:mini3d/scene.c **** }
 1456              		.loc 1 194 2 view .LVU331
 1457              	@ mini3d/scene.c:193: {
 193:mini3d/scene.c **** 	Scene3DNode_addShapeWithTransform(node, shape, identityMatrix);
 1458              		.loc 1 193 1 is_stmt 0 view .LVU332
 1459 0000 F0B5     		push	{r4, r5, r6, r7, lr}	@
 1460              	.LCFI18:
 1461              		.cfi_def_cfa_offset 20
 1462              		.cfi_offset 4, -20
 1463              		.cfi_offset 5, -16
 1464              		.cfi_offset 6, -12
 1465              		.cfi_offset 7, -8
 1466              		.cfi_offset 14, -4
 1467              	@ mini3d/scene.c:194: 	Scene3DNode_addShapeWithTransform(node, shape, identityMatrix);
 194:mini3d/scene.c **** }
 1468              		.loc 1 194 2 view .LVU333
 1469 0002 0B4E     		ldr	r6, .L76	@ tmp112,
 1470              	@ mini3d/scene.c:193: {
 193:mini3d/scene.c **** 	Scene3DNode_addShapeWithTransform(node, shape, identityMatrix);
 1471              		.loc 1 193 1 view .LVU334
 1472 0004 8DB0     		sub	sp, sp, #52	@,,
 1473              	.LCFI19:
 1474              		.cfi_def_cfa_offset 72
 1475              	@ mini3d/scene.c:193: {
 193:mini3d/scene.c **** 	Scene3DNode_addShapeWithTransform(node, shape, identityMatrix);
 1476              		.loc 1 193 1 view .LVU335
 1477 0006 8C46     		mov	ip, r1	@ tmp116, shape
 1478 0008 0746     		mov	r7, r0	@ tmp115, node
 1479              	@ mini3d/scene.c:194: 	Scene3DNode_addShapeWithTransform(node, shape, identityMatrix);
 194:mini3d/scene.c **** }
 1480              		.loc 1 194 2 view .LVU336
 1481 000a 06F10805 		add	r5, r6, #8	@ tmp114, tmp112,
 1482 000e 6C46     		mov	r4, sp	@ tmp113,
 1483 0010 0FCD     		ldmia	r5!, {r0, r1, r2, r3}	@ tmp114,,,,
 1484              	.LVL92:
 194:mini3d/scene.c **** }
 1485              		.loc 1 194 2 view .LVU337
 1486 0012 0FC4     		stmia	r4!, {r0, r1, r2, r3}	@ tmp113,,,,
 1487 0014 0FCD     		ldmia	r5!, {r0, r1, r2, r3}	@ tmp114,,,,
 1488 0016 0FC4     		stmia	r4!, {r0, r1, r2, r3}	@ tmp113,,,,
 1489 0018 95E80700 		ldm	r5, {r0, r1, r2}	@ tmp114,,,
 1490 001c 84E80700 		stm	r4, {r0, r1, r2}	@ tmp113,,,
 1491 0020 6146     		mov	r1, ip	@, tmp116
 1492 0022 3846     		mov	r0, r7	@, tmp115
 1493 0024 96E80C00 		ldm	r6, {r2, r3}	@ tmp112,,
ARM GAS  /var/folders/cs/83z6p2tj4w57s6p2rt8nwfp00000gn/T//cc3yBana.s 			page 45


 1494 0028 FFF7FEFF 		bl	Scene3DNode_addShapeWithTransform		@
 1495              	.LVL93:
 1496              	@ mini3d/scene.c:195: }
 195:mini3d/scene.c **** 
 1497              		.loc 1 195 1 view .LVU338
 1498 002c 0DB0     		add	sp, sp, #52	@,,
 1499              	.LCFI20:
 1500              		.cfi_def_cfa_offset 20
 1501              		@ sp needed	@
 1502 002e F0BD     		pop	{r4, r5, r6, r7, pc}	@
 1503              	.LVL94:
 1504              	.L77:
 195:mini3d/scene.c **** 
 1505              		.loc 1 195 1 view .LVU339
 1506              		.align	2
 1507              	.L76:
 1508 0030 00000000 		.word	identityMatrix
 1509              		.cfi_endproc
 1510              	.LFE23:
 1511              		.size	Scene3DNode_addShape, .-Scene3DNode_addShape
 1512              		.section	.text.Scene3DNode_newChild,"ax",%progbits
 1513              		.align	1
 1514              		.p2align 4,,15
 1515              		.global	Scene3DNode_newChild
 1516              		.syntax unified
 1517              		.thumb
 1518              		.thumb_func
 1519              		.fpu fpv5-sp-d16
 1520              		.type	Scene3DNode_newChild, %function
 1521              	Scene3DNode_newChild:
 1522              	.LVL95:
 1523              	.LFB24:
 199:mini3d/scene.c **** 	node->childNodes = m3d_realloc(node->childNodes, sizeof(Scene3DNode*) * (node->nChildren + 1));
 1524              		.loc 1 199 1 is_stmt 1 view -0
 1525              		.cfi_startproc
 1526              		@ args = 0, pretend = 0, frame = 0
 1527              		@ frame_needed = 0, uses_anonymous_args = 0
 200:mini3d/scene.c **** 
 1528              		.loc 1 200 2 view .LVU341
 1529              	@ mini3d/scene.c:199: {
 199:mini3d/scene.c **** 	node->childNodes = m3d_realloc(node->childNodes, sizeof(Scene3DNode*) * (node->nChildren + 1));
 1530              		.loc 1 199 1 is_stmt 0 view .LVU342
 1531 0000 F8B5     		push	{r3, r4, r5, r6, r7, lr}	@
 1532              	.LCFI21:
 1533              		.cfi_def_cfa_offset 24
 1534              		.cfi_offset 3, -24
 1535              		.cfi_offset 4, -20
 1536              		.cfi_offset 5, -16
 1537              		.cfi_offset 6, -12
 1538              		.cfi_offset 7, -8
 1539              		.cfi_offset 14, -4
 1540              	@ mini3d/scene.c:199: {
 199:mini3d/scene.c **** 	node->childNodes = m3d_realloc(node->childNodes, sizeof(Scene3DNode*) * (node->nChildren + 1));
 1541              		.loc 1 199 1 view .LVU343
 1542 0002 0746     		mov	r7, r0	@ node, tmp153
 1543              	@ mini3d/scene.c:200: 	node->childNodes = m3d_realloc(node->childNodes, sizeof(Scene3DNode*) * (nod
 200:mini3d/scene.c **** 
ARM GAS  /var/folders/cs/83z6p2tj4w57s6p2rt8nwfp00000gn/T//cc3yBana.s 			page 46


 1544              		.loc 1 200 21 view .LVU344
 1545 0004 194C     		ldr	r4, .L80	@ tmp133,
 1546              	.LBB41:
 1547              	.LBB42:
 1548              	@ mini3d/scene.c:23: 	node->transform = identityMatrix;
  23:mini3d/scene.c **** 	node->parentNode = NULL;
 1549              		.loc 1 23 18 view .LVU345
 1550 0006 1A4D     		ldr	r5, .L80+4	@ tmp139,
 1551              	.LBE42:
 1552              	.LBE41:
 1553              	@ mini3d/scene.c:200: 	node->childNodes = m3d_realloc(node->childNodes, sizeof(Scene3DNode*) * (nod
 200:mini3d/scene.c **** 
 1554              		.loc 1 200 21 view .LVU346
 1555 0008 2368     		ldr	r3, [r4]	@ m3d_realloc, m3d_realloc
 1556 000a D0E90E10 		ldrd	r1, r0, [r0, #56]	@ node_16(D)->nChildren,, node,
 1557              	.LVL96:
 1558              	@ mini3d/scene.c:200: 	node->childNodes = m3d_realloc(node->childNodes, sizeof(Scene3DNode*) * (nod
 200:mini3d/scene.c **** 
 1559              		.loc 1 200 91 view .LVU347
 1560 000e 0131     		adds	r1, r1, #1	@ tmp129, node_16(D)->nChildren,
 1561              	@ mini3d/scene.c:200: 	node->childNodes = m3d_realloc(node->childNodes, sizeof(Scene3DNode*) * (nod
 200:mini3d/scene.c **** 
 1562              		.loc 1 200 21 view .LVU348
 1563 0010 8900     		lsls	r1, r1, #2	@, tmp129,
 1564 0012 9847     		blx	r3		@ m3d_realloc
 1565              	.LVL97:
 1566              	@ mini3d/scene.c:202: 	Scene3DNode* child = m3d_malloc(sizeof(Scene3DNode));
 202:mini3d/scene.c **** 	Scene3DNode_init(child);
 1567              		.loc 1 202 23 view .LVU349
 1568 0014 2368     		ldr	r3, [r4]	@ m3d_realloc, m3d_realloc
 1569              	@ mini3d/scene.c:200: 	node->childNodes = m3d_realloc(node->childNodes, sizeof(Scene3DNode*) * (nod
 200:mini3d/scene.c **** 
 1570              		.loc 1 200 19 view .LVU350
 1571 0016 F863     		str	r0, [r7, #60]	@ tmp154, node_16(D)->childNodes
 202:mini3d/scene.c **** 	Scene3DNode_init(child);
 1572              		.loc 1 202 2 is_stmt 1 view .LVU351
 1573              	@ mini3d/scene.c:202: 	Scene3DNode* child = m3d_malloc(sizeof(Scene3DNode));
 202:mini3d/scene.c **** 	Scene3DNode_init(child);
 1574              		.loc 1 202 23 is_stmt 0 view .LVU352
 1575 0018 5421     		movs	r1, #84	@,
 1576 001a 0020     		movs	r0, #0	@,
 1577 001c 9847     		blx	r3		@ m3d_realloc
 1578              	.LVL98:
 1579 001e 0646     		mov	r6, r0	@ <retval>, tmp155
 1580              	.LVL99:
 203:mini3d/scene.c **** 
 1581              		.loc 1 203 2 is_stmt 1 view .LVU353
 1582              	.LBB45:
 1583              	.LBI41:
  21:mini3d/scene.c **** {
 1584              		.loc 1 21 1 view .LVU354
 1585              	.LBB43:
  23:mini3d/scene.c **** 	node->parentNode = NULL;
 1586              		.loc 1 23 2 view .LVU355
 1587              	@ mini3d/scene.c:25: 	node->childNodes = NULL;
  25:mini3d/scene.c **** 	node->nChildren = 0;
 1588              		.loc 1 25 19 is_stmt 0 view .LVU356
ARM GAS  /var/folders/cs/83z6p2tj4w57s6p2rt8nwfp00000gn/T//cc3yBana.s 			page 47


 1589 0020 4FF0000C 		mov	ip, #0	@ tmp141,
 1590              	@ mini3d/scene.c:28: 	node->colorBias = 0;
  28:mini3d/scene.c **** 	node->renderStyle = kRenderInheritStyle;
 1591              		.loc 1 28 18 view .LVU357
 1592 0024 4FF0000E 		mov	lr, #0	@ tmp144,
 1593              	@ mini3d/scene.c:23: 	node->transform = identityMatrix;
  23:mini3d/scene.c **** 	node->parentNode = NULL;
 1594              		.loc 1 23 18 view .LVU358
 1595 0028 3446     		mov	r4, r6	@ <retval>, <retval>
 1596 002a 0FCD     		ldmia	r5!, {r0, r1, r2, r3}	@ tmp139,,,,
 1597              	.LVL100:
  23:mini3d/scene.c **** 	node->parentNode = NULL;
 1598              		.loc 1 23 18 view .LVU359
 1599 002c 0FC4     		stmia	r4!, {r0, r1, r2, r3}	@ <retval>,,,,
 1600              	.LVL101:
  23:mini3d/scene.c **** 	node->parentNode = NULL;
 1601              		.loc 1 23 18 view .LVU360
 1602 002e 0FCD     		ldmia	r5!, {r0, r1, r2, r3}	@ tmp139,,,,
 1603 0030 0FC4     		stmia	r4!, {r0, r1, r2, r3}	@ <retval>,,,,
 1604 0032 0FCD     		ldmia	r5!, {r0, r1, r2, r3}	@ tmp139,,,,
 1605 0034 2D68     		ldr	r5, [r5]	@ identityMatrix, identityMatrix
 1606 0036 0FC4     		stmia	r4!, {r0, r1, r2, r3}	@ <retval>,,,,
 1607 0038 2560     		str	r5, [r4]	@ identityMatrix, child_20->transform
  24:mini3d/scene.c **** 	node->childNodes = NULL;
 1608              		.loc 1 24 2 is_stmt 1 view .LVU361
  25:mini3d/scene.c **** 	node->nChildren = 0;
 1609              		.loc 1 25 2 view .LVU362
 1610              	.LBE43:
 1611              	.LBE45:
 1612              	@ mini3d/scene.c:209: }
 209:mini3d/scene.c **** 
 1613              		.loc 1 209 1 is_stmt 0 view .LVU363
 1614 003a 3046     		mov	r0, r6	@, <retval>
 1615              	.LBB46:
 1616              	.LBB44:
 1617              	@ mini3d/scene.c:29: 	node->renderStyle = kRenderInheritStyle;
  29:mini3d/scene.c **** 	node->isVisible = 1;
 1618              		.loc 1 29 20 view .LVU364
 1619 003c B6F84C30 		ldrh	r3, [r6, #76]	@, MEM[(void *)child_20 + 76B]
 1620              	@ mini3d/scene.c:28: 	node->colorBias = 0;
  28:mini3d/scene.c **** 	node->renderStyle = kRenderInheritStyle;
 1621              		.loc 1 28 18 view .LVU365
 1622 0040 C6F848E0 		str	lr, [r6, #72]	@ float	@ tmp144, child_20->colorBias
 1623              	@ mini3d/scene.c:29: 	node->renderStyle = kRenderInheritStyle;
  29:mini3d/scene.c **** 	node->isVisible = 1;
 1624              		.loc 1 29 20 view .LVU366
 1625 0044 23F4FF63 		bic	r3, r3, #2040	@ tmp146, MEM[(void *)child_20 + 76B],
 1626              	@ mini3d/scene.c:27: 	node->shapes = NULL;
  27:mini3d/scene.c **** 	node->colorBias = 0;
 1627              		.loc 1 27 15 view .LVU367
 1628 0048 C6F844C0 		str	ip, [r6, #68]	@ tmp141, child_20->shapes
 1629              	@ mini3d/scene.c:29: 	node->renderStyle = kRenderInheritStyle;
  29:mini3d/scene.c **** 	node->isVisible = 1;
 1630              		.loc 1 29 20 view .LVU368
 1631 004c 23F00703 		bic	r3, r3, #7	@ tmp146, tmp146,
 1632 0050 43F4E063 		orr	r3, r3, #1792	@ tmp149, tmp146,
 1633              	@ mini3d/scene.c:26: 	node->nChildren = 0;
ARM GAS  /var/folders/cs/83z6p2tj4w57s6p2rt8nwfp00000gn/T//cc3yBana.s 			page 48


  26:mini3d/scene.c **** 	node->shapes = NULL;
 1634              		.loc 1 26 18 view .LVU369
 1635 0054 C6E90ECC 		strd	ip, ip, [r6, #56]	@ tmp141, tmp141, <retval>,
  27:mini3d/scene.c **** 	node->colorBias = 0;
 1636              		.loc 1 27 2 is_stmt 1 view .LVU370
  28:mini3d/scene.c **** 	node->renderStyle = kRenderInheritStyle;
 1637              		.loc 1 28 2 view .LVU371
  29:mini3d/scene.c **** 	node->isVisible = 1;
 1638              		.loc 1 29 2 view .LVU372
  30:mini3d/scene.c **** 	node->needsUpdate = 1;
 1639              		.loc 1 30 2 view .LVU373
  31:mini3d/scene.c **** #if ENABLE_Z_BUFFER
 1640              		.loc 1 31 2 view .LVU374
  33:mini3d/scene.c **** #endif
 1641              		.loc 1 33 2 view .LVU375
 1642              	@ mini3d/scene.c:29: 	node->renderStyle = kRenderInheritStyle;
  29:mini3d/scene.c **** 	node->isVisible = 1;
 1643              		.loc 1 29 20 is_stmt 0 view .LVU376
 1644 0058 A6F84C30 		strh	r3, [r6, #76]	@ movhi	@ tmp149, MEM[(void *)child_20 + 76B]
 1645              	.LVL102:
  29:mini3d/scene.c **** 	node->isVisible = 1;
 1646              		.loc 1 29 20 view .LVU377
 1647              	.LBE44:
 1648              	.LBE46:
 205:mini3d/scene.c **** 	child->parentNode = node;
 1649              		.loc 1 205 2 is_stmt 1 view .LVU378
 1650              	@ mini3d/scene.c:205: 	node->childNodes[node->nChildren++] = child;
 205:mini3d/scene.c **** 	child->parentNode = node;
 1651              		.loc 1 205 23 is_stmt 0 view .LVU379
 1652 005c D7E90E32 		ldrd	r3, r2, [r7, #56]	@ _10, _9, node,
 1653              	@ mini3d/scene.c:205: 	node->childNodes[node->nChildren++] = child;
 205:mini3d/scene.c **** 	child->parentNode = node;
 1654              		.loc 1 205 34 view .LVU380
 1655 0060 591C     		adds	r1, r3, #1	@ tmp151, _10,
 1656 0062 B963     		str	r1, [r7, #56]	@ tmp151, node_16(D)->nChildren
 1657              	@ mini3d/scene.c:205: 	node->childNodes[node->nChildren++] = child;
 205:mini3d/scene.c **** 	child->parentNode = node;
 1658              		.loc 1 205 38 view .LVU381
 1659 0064 42F82360 		str	r6, [r2, r3, lsl #2]	@ <retval>, *_14
 206:mini3d/scene.c **** 
 1660              		.loc 1 206 2 is_stmt 1 view .LVU382
 1661              	@ mini3d/scene.c:206: 	child->parentNode = node;
 206:mini3d/scene.c **** 
 1662              		.loc 1 206 20 is_stmt 0 view .LVU383
 1663 0068 7763     		str	r7, [r6, #52]	@ node, child_20->parentNode
 208:mini3d/scene.c **** }
 1664              		.loc 1 208 2 is_stmt 1 view .LVU384
 1665              	@ mini3d/scene.c:209: }
 209:mini3d/scene.c **** 
 1666              		.loc 1 209 1 is_stmt 0 view .LVU385
 1667 006a F8BD     		pop	{r3, r4, r5, r6, r7, pc}	@
 1668              	.LVL103:
 1669              	.L81:
 209:mini3d/scene.c **** 
 1670              		.loc 1 209 1 view .LVU386
 1671              		.align	2
 1672              	.L80:
ARM GAS  /var/folders/cs/83z6p2tj4w57s6p2rt8nwfp00000gn/T//cc3yBana.s 			page 49


 1673 006c 00000000 		.word	m3d_realloc
 1674 0070 00000000 		.word	identityMatrix
 1675              		.cfi_endproc
 1676              	.LFE24:
 1677              		.size	Scene3DNode_newChild, .-Scene3DNode_newChild
 1678              		.section	.text.Scene3D_updateNode,"ax",%progbits
 1679              		.align	1
 1680              		.p2align 4,,15
 1681              		.global	Scene3D_updateNode
 1682              		.syntax unified
 1683              		.thumb
 1684              		.thumb_func
 1685              		.fpu fpv5-sp-d16
 1686              		.type	Scene3D_updateNode, %function
 1687              	Scene3D_updateNode:
 1688              	.LVL104:
 1689              	.LFB26:
 306:mini3d/scene.c **** 	if ( !node->isVisible )
 1690              		.loc 1 306 1 is_stmt 1 view -0
 1691              		.cfi_startproc
 1692              		@ args = 60, pretend = 8, frame = 96
 1693              		@ frame_needed = 0, uses_anonymous_args = 0
 307:mini3d/scene.c **** 		return;
 1694              		.loc 1 307 2 view .LVU388
 1695              	@ mini3d/scene.c:306: {
 306:mini3d/scene.c **** 	if ( !node->isVisible )
 1696              		.loc 1 306 1 is_stmt 0 view .LVU389
 1697 0000 82B0     		sub	sp, sp, #8	@,,
 1698              	.LCFI22:
 1699              		.cfi_def_cfa_offset 8
 1700 0002 2DE9F04F 		push	{r4, r5, r6, r7, r8, r9, r10, fp, lr}	@
 1701              	.LCFI23:
 1702              		.cfi_def_cfa_offset 44
 1703              		.cfi_offset 4, -44
 1704              		.cfi_offset 5, -40
 1705              		.cfi_offset 6, -36
 1706              		.cfi_offset 7, -32
 1707              		.cfi_offset 8, -28
 1708              		.cfi_offset 9, -24
 1709              		.cfi_offset 10, -20
 1710              		.cfi_offset 11, -16
 1711              		.cfi_offset 14, -12
 1712 0006 8A46     		mov	r10, r1	@ node, tmp405
 1713              	@ mini3d/scene.c:307: 	if ( !node->isVisible )
 307:mini3d/scene.c **** 		return;
 1714              		.loc 1 307 7 view .LVU390
 1715 0008 91F84D10 		ldrb	r1, [r1, #77]	@ zero_extendqisi2	@ _1, *node_20(D)
 1716              	.LVL105:
 1717              	@ mini3d/scene.c:306: {
 306:mini3d/scene.c **** 	if ( !node->isVisible )
 1718              		.loc 1 306 1 view .LVU391
 1719 000c 0646     		mov	r6, r0	@ scene, tmp404
 1720              	@ mini3d/scene.c:307: 	if ( !node->isVisible )
 307:mini3d/scene.c **** 		return;
 1721              		.loc 1 307 5 view .LVU392
 1722 000e CD07     		lsls	r5, r1, #31	@, _1,
 1723              	@ mini3d/scene.c:306: {
ARM GAS  /var/folders/cs/83z6p2tj4w57s6p2rt8nwfp00000gn/T//cc3yBana.s 			page 50


 306:mini3d/scene.c **** 	if ( !node->isVisible )
 1724              		.loc 1 306 1 view .LVU393
 1725 0010 2DED068B 		vpush.64	{d8, d9, d10}	@
 1726              	.LCFI24:
 1727              		.cfi_def_cfa_offset 68
 1728              		.cfi_offset 80, -68
 1729              		.cfi_offset 81, -64
 1730              		.cfi_offset 82, -60
 1731              		.cfi_offset 83, -56
 1732              		.cfi_offset 84, -52
 1733              		.cfi_offset 85, -48
 1734 0014 B1B0     		sub	sp, sp, #196	@,,
 1735              	.LCFI25:
 1736              		.cfi_def_cfa_offset 264
 1737              	@ mini3d/scene.c:306: {
 306:mini3d/scene.c **** 	if ( !node->isVisible )
 1738              		.loc 1 306 1 view .LVU394
 1739 0016 9DF83441 		ldrb	r4, [sp, #308]	@ zero_extendqisi2	@ style, style
 1740 001a 40A8     		add	r0, sp, #256	@ tmp463,,
 1741              	.LVL106:
 306:mini3d/scene.c **** 	if ( !node->isVisible )
 1742              		.loc 1 306 1 view .LVU395
 1743 001c 1994     		str	r4, [sp, #100]	@ style, %sfp
 1744 001e 80E80C00 		stm	r0, {r2, r3}	@ tmp463,,
 1745              	@ mini3d/scene.c:307: 	if ( !node->isVisible )
 307:mini3d/scene.c **** 		return;
 1746              		.loc 1 307 5 view .LVU396
 1747 0022 40F18481 		bpl	.L82		@,
 310:mini3d/scene.c **** 	{
 1748              		.loc 1 310 2 is_stmt 1 view .LVU397
 1749              	@ mini3d/scene.c:310: 	if ( node->needsUpdate )
 310:mini3d/scene.c **** 	{
 1750              		.loc 1 310 5 is_stmt 0 view .LVU398
 1751 0026 8C07     		lsls	r4, r1, #30	@, _1,
 1752 0028 F0EE408A 		vmov.f32	s17, s0	@ colorBias, tmp406
 1753 002c 40F17B81 		bpl	.L84		@,
 312:mini3d/scene.c **** 		node->needsUpdate = 0;
 1754              		.loc 1 312 3 is_stmt 1 view .LVU399
 1755              	.LVL107:
 313:mini3d/scene.c **** 	}
 1756              		.loc 1 313 3 view .LVU400
 1757              	@ mini3d/scene.c:312: 		update = 1;
 312:mini3d/scene.c **** 		node->needsUpdate = 0;
 1758              		.loc 1 312 10 is_stmt 0 view .LVU401
 1759 0030 0123     		movs	r3, #1	@ tmp464,
 1760              	@ mini3d/scene.c:313: 		node->needsUpdate = 0;
 313:mini3d/scene.c **** 	}
 1761              		.loc 1 313 21 view .LVU402
 1762 0032 6FF34101 		bfc	r1, #1, #1	@ node_20(D)->needsUpdate,,
 1763              	@ mini3d/scene.c:312: 		update = 1;
 312:mini3d/scene.c **** 		node->needsUpdate = 0;
 1764              		.loc 1 312 10 view .LVU403
 1765 0036 4E93     		str	r3, [sp, #312]	@ tmp464, update
 1766              	@ mini3d/scene.c:313: 		node->needsUpdate = 0;
 313:mini3d/scene.c **** 	}
 1767              		.loc 1 313 21 view .LVU404
 1768 0038 8AF84D10 		strb	r1, [r10, #77]	@ node_20(D)->needsUpdate, node_20(D)->needsUpdate
ARM GAS  /var/folders/cs/83z6p2tj4w57s6p2rt8nwfp00000gn/T//cc3yBana.s 			page 51


 316:mini3d/scene.c **** 	{
 1769              		.loc 1 316 2 is_stmt 1 view .LVU405
 1770              	.LVL108:
 1771              	.L85:
 1772              	.LBB55:
 318:mini3d/scene.c **** 		colorBias += node->colorBias;
 1773              		.loc 1 318 3 view .LVU406
 1774              	@ mini3d/scene.c:318: 		xform = Matrix3D_multiply(node->transform, xform);
 318:mini3d/scene.c **** 		colorBias += node->colorBias;
 1775              		.loc 1 318 11 is_stmt 0 view .LVU407
 1776 003c 40AD     		add	r5, sp, #256	@ tmp235,,
 1777 003e 0AAC     		add	r4, sp, #40	@ tmp234,,
 1778 0040 0AF10C07 		add	r7, r10, #12	@ tmp238, node,
 1779 0044 0FCD     		ldmia	r5!, {r0, r1, r2, r3}	@ tmp235,,,,
 1780 0046 0FC4     		stmia	r4!, {r0, r1, r2, r3}	@ tmp234,,,,
 1781 0048 0FCD     		ldmia	r5!, {r0, r1, r2, r3}	@ tmp235,,,,
 1782 004a 0FC4     		stmia	r4!, {r0, r1, r2, r3}	@ tmp234,,,,
 1783 004c 0FCD     		ldmia	r5!, {r0, r1, r2, r3}	@ tmp235,,,,
 1784 004e D5F800C0 		ldr	ip, [r5]	@ xform, xform
 1785 0052 6D46     		mov	r5, sp	@ tmp237,
 1786 0054 0FC4     		stmia	r4!, {r0, r1, r2, r3}	@ tmp234,,,,
 1787 0056 C4F800C0 		str	ip, [r4]	@ xform,
 1788 005a 0FCF     		ldmia	r7!, {r0, r1, r2, r3}	@ tmp238,,,,
 1789 005c 0FC5     		stmia	r5!, {r0, r1, r2, r3}	@ tmp237,,,,
 1790 005e 0FCF     		ldmia	r7!, {r0, r1, r2, r3}	@ tmp238,,,,
 1791 0060 0FC5     		stmia	r5!, {r0, r1, r2, r3}	@ tmp237,,,,
 1792 0062 97E80300 		ldm	r7, {r0, r1}	@ tmp238,,
 1793 0066 85E80300 		stm	r5, {r0, r1}	@ tmp237,,
 1794 006a 40A8     		add	r0, sp, #256	@,,
 1795 006c 9AE80E00 		ldm	r10, {r1, r2, r3}	@ node,,,
 1796 0070 FFF7FEFF 		bl	Matrix3D_multiply		@
 1797              	.LVL109:
 319:mini3d/scene.c **** 
 1798              		.loc 1 319 3 is_stmt 1 view .LVU408
 1799              	@ mini3d/scene.c:321: 		if ( node->renderStyle != kRenderInheritStyle )
 321:mini3d/scene.c **** 			style = node->renderStyle;
 1800              		.loc 1 321 6 is_stmt 0 view .LVU409
 1801 0074 199A     		ldr	r2, [sp, #100]	@ style, %sfp
 1802              	@ mini3d/scene.c:321: 		if ( node->renderStyle != kRenderInheritStyle )
 321:mini3d/scene.c **** 			style = node->renderStyle;
 1803              		.loc 1 321 12 view .LVU410
 1804 0076 9AF84C30 		ldrb	r3, [r10, #76]	@ zero_extendqisi2	@ _5, node_20(D)->renderStyle
 1805              	@ mini3d/scene.c:319: 		colorBias += node->colorBias;
 319:mini3d/scene.c **** 
 1806              		.loc 1 319 13 view .LVU411
 1807 007a 9AED120A 		vldr.32	s0, [r10, #72]	@ node_20(D)->colorBias, node_20(D)->colorBias
 1808              	@ mini3d/scene.c:321: 		if ( node->renderStyle != kRenderInheritStyle )
 321:mini3d/scene.c **** 			style = node->renderStyle;
 1809              		.loc 1 321 6 view .LVU412
 1810 007e 002B     		cmp	r3, #0	@ _5,
 1811 0080 18BF     		it	ne		@
 1812 0082 1A46     		movne	r2, r3	@, style, _5
 1813              	@ mini3d/scene.c:324: 		ShapeInstance* shape = node->shapes;
 324:mini3d/scene.c **** 
 1814              		.loc 1 324 18 view .LVU413
 1815 0084 DAF84440 		ldr	r4, [r10, #68]	@ shape, node_20(D)->shapes
 1816              	@ mini3d/scene.c:319: 		colorBias += node->colorBias;
ARM GAS  /var/folders/cs/83z6p2tj4w57s6p2rt8nwfp00000gn/T//cc3yBana.s 			page 52


 319:mini3d/scene.c **** 
 1817              		.loc 1 319 13 view .LVU414
 1818 0088 78EE808A 		vadd.f32	s17, s17, s0	@ colorBias, colorBias, node_20(D)->colorBias
 1819              	.LVL110:
 321:mini3d/scene.c **** 			style = node->renderStyle;
 1820              		.loc 1 321 3 is_stmt 1 view .LVU415
 1821              	@ mini3d/scene.c:321: 		if ( node->renderStyle != kRenderInheritStyle )
 321:mini3d/scene.c **** 			style = node->renderStyle;
 1822              		.loc 1 321 6 is_stmt 0 view .LVU416
 1823 008c 1992     		str	r2, [sp, #100]	@ style, %sfp
 1824              	.LVL111:
 324:mini3d/scene.c **** 
 1825              		.loc 1 324 3 is_stmt 1 view .LVU417
 326:mini3d/scene.c **** 		{
 1826              		.loc 1 326 3 view .LVU418
 326:mini3d/scene.c **** 		{
 1827              		.loc 1 326 9 view .LVU419
 1828 008e 002C     		cmp	r4, #0	@ shape
 1829 0090 00F0A281 		beq	.L112	@
 1830 0094 9DF80031 		ldrb	r3, [sp, #256]	@ zero_extendqisi2	@ xform, xform
 1831 0098 CDF86CA0 		str	r10, [sp, #108]	@ node, %sfp
 1832 009c 43F34003 		sbfx	r3, r3, #1, #1	@ tmp244, xform,,
 1833              	.LBB56:
 1834              	.LBB57:
 1835              	.LBB58:
 1836              	@ mini3d/scene.c:274: 				p->x = scene->scale * (p->x + 1.6666666f * scene->centerx);
 274:mini3d/scene.c **** 				p->y = scene->scale * (p->y + scene->centery);
 1837              		.loc 1 274 33 is_stmt 0 view .LVU420
 1838 00a0 9FEDA69A 		vldr.32	s18, .L139	@ tmp399,
 1839              	.LBE58:
 1840              	.LBB59:
 1841              	@ mini3d/scene.c:290: 		float d = zmax - zmin + 0.0001f;
 290:mini3d/scene.c **** 
 1842              		.loc 1 290 9 view .LVU421
 1843 00a4 DFEDA69A 		vldr.32	s19, .L139+4	@ tmp401,
 1844 00a8 5BB2     		sxtb	r3, r3	@ pretmp_235, tmp244
 1845 00aa 9A46     		mov	r10, r3	@ pretmp_235, pretmp_235
 1846              	.LVL112:
 1847              	.L111:
 290:mini3d/scene.c **** 
 1848              		.loc 1 290 9 view .LVU422
 1849              	.LBE59:
 1850              	.LBE57:
 1851              	.LBE56:
 328:mini3d/scene.c **** #if ENABLE_Z_BUFFER
 1852              		.loc 1 328 4 is_stmt 1 view .LVU423
 328:mini3d/scene.c **** #if ENABLE_Z_BUFFER
 1853              		.loc 1 328 4 is_stmt 0 view .LVU424
 1854 00ac 0DF5807C 		add	ip, sp, #256	@ tmp246,,
 1855 00b0 23AF     		add	r7, sp, #140	@ tmp472,,
 1856              	.LBB76:
 1857              	.LBB72:
 1858              	@ mini3d/scene.c:214: 	Shape3D* proto = shape->prototype;
 214:mini3d/scene.c **** 	int i;
 1859              		.loc 1 214 11 view .LVU425
 1860 00b2 D4F80090 		ldr	r9, [r4]	@ proto, shape_179->prototype
 1861 00b6 BCE80F00 		ldmia	ip!, {r0, r1, r2, r3}	@ tmp246,,,,
ARM GAS  /var/folders/cs/83z6p2tj4w57s6p2rt8nwfp00000gn/T//cc3yBana.s 			page 53


 1862 00ba 0FC7     		stmia	r7!, {r0, r1, r2, r3}	@ tmp245,,,,
 1863 00bc BCE80F00 		ldmia	ip!, {r0, r1, r2, r3}	@ tmp246,,,,
 1864 00c0 0FC7     		stmia	r7!, {r0, r1, r2, r3}	@ tmp245,,,,
 1865 00c2 BCE80F00 		ldmia	ip!, {r0, r1, r2, r3}	@ tmp246,,,,
 1866 00c6 0FC7     		stmia	r7!, {r0, r1, r2, r3}	@ tmp245,,,,
 1867              	@ mini3d/scene.c:219: 	for ( i = 0; i < shape->nPoints; ++i )
 219:mini3d/scene.c **** 		shape->points[i] = Matrix3D_apply(xform, Matrix3D_apply(shape->transform, proto->points[i]));
 1868              		.loc 1 219 2 view .LVU426
 1869 00c8 E36B     		ldr	r3, [r4, #60]	@ tmp473, shape_179->nPoints
 1870 00ca DCF80050 		ldr	r5, [ip]	@ xform, xform
 1871 00ce 002B     		cmp	r3, #0	@ tmp473,
 1872 00d0 3D60     		str	r5, [r7]	@ xform, xform
 1873              	.LVL113:
 219:mini3d/scene.c **** 		shape->points[i] = Matrix3D_apply(xform, Matrix3D_apply(shape->transform, proto->points[i]));
 1874              		.loc 1 219 2 view .LVU427
 1875              	.LBE72:
 1876              	.LBI56:
 212:mini3d/scene.c **** {
 1877              		.loc 1 212 1 is_stmt 1 view .LVU428
 1878              	.LBB73:
 214:mini3d/scene.c **** 	int i;
 1879              		.loc 1 214 2 view .LVU429
 215:mini3d/scene.c **** 
 1880              		.loc 1 215 2 view .LVU430
 219:mini3d/scene.c **** 		shape->points[i] = Matrix3D_apply(xform, Matrix3D_apply(shape->transform, proto->points[i]));
 1881              		.loc 1 219 2 view .LVU431
 219:mini3d/scene.c **** 		shape->points[i] = Matrix3D_apply(xform, Matrix3D_apply(shape->transform, proto->points[i]));
 1882              		.loc 1 219 15 view .LVU432
 1883              	@ mini3d/scene.c:219: 	for ( i = 0; i < shape->nPoints; ++i )
 219:mini3d/scene.c **** 		shape->points[i] = Matrix3D_apply(xform, Matrix3D_apply(shape->transform, proto->points[i]));
 1884              		.loc 1 219 2 is_stmt 0 view .LVU433
 1885 00d2 40F3B681 		ble	.L135		@,
 1886              	@ mini3d/scene.c:219: 	for ( i = 0; i < shape->nPoints; ++i )
 219:mini3d/scene.c **** 		shape->points[i] = Matrix3D_apply(xform, Matrix3D_apply(shape->transform, proto->points[i]));
 1887              		.loc 1 219 10 view .LVU434
 1888 00d6 4FF0000B 		mov	fp, #0	@ i,
 1889 00da 04F11405 		add	r5, r4, #20	@ tmp393, shape,
 1890 00de 271D     		adds	r7, r4, #4	@ tmp392, shape,
 1891              	.LVL114:
 1892              	.L90:
 220:mini3d/scene.c **** 
 1893              		.loc 1 220 3 is_stmt 1 view .LVU435
 1894              	@ mini3d/scene.c:220: 		shape->points[i] = Matrix3D_apply(xform, Matrix3D_apply(shape->transform, p
 220:mini3d/scene.c **** 
 1895              		.loc 1 220 22 is_stmt 0 view .LVU436
 1896 00e0 D9F80830 		ldr	r3, [r9, #8]	@ proto_36->points, proto_36->points
 1897 00e4 0BEB4B08 		add	r8, fp, fp, lsl #1	@ tmp280, i, i,
 1898 00e8 AE46     		mov	lr, r5	@ tmp292, tmp393
 1899 00ea EC46     		mov	ip, sp	@ tmp291,
 1900 00ec 03EB8803 		add	r3, r3, r8, lsl #2	@ tmp284, proto_36->points, tmp280,
 1901              	@ mini3d/scene.c:219: 	for ( i = 0; i < shape->nPoints; ++i )
 219:mini3d/scene.c **** 		shape->points[i] = Matrix3D_apply(xform, Matrix3D_apply(shape->transform, proto->points[i]));
 1902              		.loc 1 219 35 view .LVU437
 1903 00f0 0BF1010B 		add	fp, fp, #1	@ i, i,
 1904              	.LVL115:
 219:mini3d/scene.c **** 		shape->points[i] = Matrix3D_apply(xform, Matrix3D_apply(shape->transform, proto->points[i]));
 1905              		.loc 1 219 35 view .LVU438
ARM GAS  /var/folders/cs/83z6p2tj4w57s6p2rt8nwfp00000gn/T//cc3yBana.s 			page 54


 1906 00f4 4FEA8808 		lsl	r8, r8, #2	@ tmp281, tmp280,
 1907              	@ mini3d/scene.c:220: 		shape->points[i] = Matrix3D_apply(xform, Matrix3D_apply(shape->transform, p
 220:mini3d/scene.c **** 
 1908              		.loc 1 220 22 view .LVU439
 1909 00f8 93ED000A 		vldr.32	s0, [r3]	@ *_41, *_41
 1910 00fc D3ED010A 		vldr.32	s1, [r3, #4]	@ *_41, *_41
 1911 0100 93ED021A 		vldr.32	s2, [r3, #8]	@ *_41, *_41
 1912 0104 BEE80F00 		ldmia	lr!, {r0, r1, r2, r3}	@ tmp292,,,,
 1913 0108 ACE80F00 		stmia	ip!, {r0, r1, r2, r3}	@ tmp291,,,,
 1914 010c BEE80F00 		ldmia	lr!, {r0, r1, r2, r3}	@ tmp292,,,,
 1915 0110 ACE80F00 		stmia	ip!, {r0, r1, r2, r3}	@ tmp291,,,,
 1916 0114 DEF80030 		ldr	r3, [lr]	@ shape_179->transform, shape_179->transform
 1917 0118 CCF80030 		str	r3, [ip]	@ shape_179->transform,
 1918 011c 97E80F00 		ldm	r7, {r0, r1, r2, r3}	@ tmp392,,,,
 1919 0120 FFF7FEFF 		bl	Matrix3D_apply		@
 1920              	.LVL116:
 1921 0124 9DF88C30 		ldrb	r3, [sp, #140]	@ zero_extendqisi2	@, xform.inverting
 1922              	@ mini3d/scene.c:220: 		shape->points[i] = Matrix3D_apply(xform, Matrix3D_apply(shape->transform, p
 220:mini3d/scene.c **** 
 1923              		.loc 1 220 16 view .LVU440
 1924 0128 226C     		ldr	r2, [r4, #64]	@ shape_179->points, shape_179->points
 1925              	@ mini3d/scene.c:220: 		shape->points[i] = Matrix3D_apply(xform, Matrix3D_apply(shape->transform, p
 220:mini3d/scene.c **** 
 1926              		.loc 1 220 22 view .LVU441
 1927 012a 0DF19C0E 		add	lr, sp, #156	@ tmp478,,
 1928 012e 6AF34103 		bfi	r3, r10, #1, #1	@ xform.inverting, pretmp_235,,
 1929 0132 EC46     		mov	ip, sp	@ tmp304,
 1930              	@ mini3d/scene.c:220: 		shape->points[i] = Matrix3D_apply(xform, Matrix3D_apply(shape->transform, p
 220:mini3d/scene.c **** 
 1931              		.loc 1 220 16 view .LVU442
 1932 0134 9044     		add	r8, r8, r2	@ _43, shape_179->points
 1933              	@ mini3d/scene.c:220: 		shape->points[i] = Matrix3D_apply(xform, Matrix3D_apply(shape->transform, p
 220:mini3d/scene.c **** 
 1934              		.loc 1 220 22 view .LVU443
 1935 0136 8DED200A 		vstr.32	s0, [sp, #128]	@ tmp413, D.8658
 1936 013a 8DF88C30 		strb	r3, [sp, #140]	@ xform.inverting, xform.inverting
 1937 013e CDED210A 		vstr.32	s1, [sp, #132]	@ tmp414, D.8658
 1938 0142 8DED221A 		vstr.32	s2, [sp, #136]	@ tmp415, D.8658
 1939 0146 BEE80F00 		ldmia	lr!, {r0, r1, r2, r3}	@ tmp305,,,,
 1940 014a ACE80F00 		stmia	ip!, {r0, r1, r2, r3}	@ tmp304,,,,
 1941 014e BEE80F00 		ldmia	lr!, {r0, r1, r2, r3}	@ tmp305,,,,
 1942 0152 DEF800E0 		ldr	lr, [lr]	@ xform, xform
 1943 0156 ACE80F00 		stmia	ip!, {r0, r1, r2, r3}	@ tmp304,,,,
 1944 015a 23AB     		add	r3, sp, #140	@ tmp479,,
 1945 015c 0FCB     		ldm	r3, {r0, r1, r2, r3}	@ tmp479,,,,
 1946 015e CCF800E0 		str	lr, [ip]	@ xform,
 1947 0162 FFF7FEFF 		bl	Matrix3D_apply		@
 1948              	.LVL117:
 1949              	@ mini3d/scene.c:219: 	for ( i = 0; i < shape->nPoints; ++i )
 219:mini3d/scene.c **** 		shape->points[i] = Matrix3D_apply(xform, Matrix3D_apply(shape->transform, proto->points[i]));
 1950              		.loc 1 219 2 view .LVU444
 1951 0166 E36B     		ldr	r3, [r4, #60]	@ shape_179->nPoints, shape_179->nPoints
 1952              	@ mini3d/scene.c:220: 		shape->points[i] = Matrix3D_apply(xform, Matrix3D_apply(shape->transform, p
 220:mini3d/scene.c **** 
 1953              		.loc 1 220 22 view .LVU445
 1954 0168 88ED000A 		vstr.32	s0, [r8]	@ tmp416, *_43
 1955              	@ mini3d/scene.c:219: 	for ( i = 0; i < shape->nPoints; ++i )
ARM GAS  /var/folders/cs/83z6p2tj4w57s6p2rt8nwfp00000gn/T//cc3yBana.s 			page 55


 219:mini3d/scene.c **** 		shape->points[i] = Matrix3D_apply(xform, Matrix3D_apply(shape->transform, proto->points[i]));
 1956              		.loc 1 219 2 view .LVU446
 1957 016c 9B45     		cmp	fp, r3	@ i, shape_179->nPoints
 1958              	@ mini3d/scene.c:220: 		shape->points[i] = Matrix3D_apply(xform, Matrix3D_apply(shape->transform, p
 220:mini3d/scene.c **** 
 1959              		.loc 1 220 22 view .LVU447
 1960 016e C8ED010A 		vstr.32	s1, [r8, #4]	@ tmp417, *_43
 1961 0172 88ED021A 		vstr.32	s2, [r8, #8]	@ tmp418, *_43
 219:mini3d/scene.c **** 		shape->points[i] = Matrix3D_apply(xform, Matrix3D_apply(shape->transform, proto->points[i]));
 1962              		.loc 1 219 35 is_stmt 1 view .LVU448
 1963              	.LVL118:
 219:mini3d/scene.c **** 		shape->points[i] = Matrix3D_apply(xform, Matrix3D_apply(shape->transform, proto->points[i]));
 1964              		.loc 1 219 15 view .LVU449
 1965              	@ mini3d/scene.c:219: 	for ( i = 0; i < shape->nPoints; ++i )
 219:mini3d/scene.c **** 		shape->points[i] = Matrix3D_apply(xform, Matrix3D_apply(shape->transform, proto->points[i]));
 1966              		.loc 1 219 2 is_stmt 0 view .LVU450
 1967 0176 B3DB     		blt	.L90		@,
 1968              	.LVL119:
 1969              	.L93:
 222:mini3d/scene.c **** 	shape->colorBias = proto->colorBias + colorBias;
 1970              		.loc 1 222 2 is_stmt 1 view .LVU451
 1971              	@ mini3d/scene.c:222: 	shape->center = Matrix3D_apply(xform, Matrix3D_apply(shape->transform, proto
 222:mini3d/scene.c **** 	shape->colorBias = proto->colorBias + colorBias;
 1972              		.loc 1 222 18 is_stmt 0 view .LVU452
 1973 0178 EC46     		mov	ip, sp	@ tmp252,
 1974 017a 99ED050A 		vldr.32	s0, [r9, #20]	@ proto_36->center, proto_36->center
 1975 017e D9ED060A 		vldr.32	s1, [r9, #24]	@ proto_36->center, proto_36->center
 1976 0182 99ED071A 		vldr.32	s2, [r9, #28]	@ proto_36->center, proto_36->center
 1977 0186 0FCD     		ldmia	r5!, {r0, r1, r2, r3}	@ tmp253,,,,
 1978 0188 ACE80F00 		stmia	ip!, {r0, r1, r2, r3}	@ tmp252,,,,
 1979 018c 0FCD     		ldmia	r5!, {r0, r1, r2, r3}	@ tmp253,,,,
 1980 018e ACE80F00 		stmia	ip!, {r0, r1, r2, r3}	@ tmp252,,,,
 1981 0192 2B68     		ldr	r3, [r5]	@ shape_179->transform, shape_179->transform
 1982 0194 6D46     		mov	r5, sp	@ tmp264,
 1983 0196 CCF80030 		str	r3, [ip]	@ shape_179->transform,
 1984 019a 97E80F00 		ldm	r7, {r0, r1, r2, r3}	@ tmp392,,,,
 1985 019e FFF7FEFF 		bl	Matrix3D_apply		@
 1986              	.LVL120:
 1987 01a2 9DF88C30 		ldrb	r3, [sp, #140]	@ zero_extendqisi2	@, xform.inverting
 1988 01a6 27AF     		add	r7, sp, #156	@ tmp474,,
 1989 01a8 8DED1D0A 		vstr.32	s0, [sp, #116]	@ tmp407, D.8657
 1990 01ac 6AF34103 		bfi	r3, r10, #1, #1	@ xform.inverting, pretmp_235,,
 1991 01b0 CDED1E0A 		vstr.32	s1, [sp, #120]	@ tmp408, D.8657
 1992 01b4 8DED1F1A 		vstr.32	s2, [sp, #124]	@ tmp409, D.8657
 1993 01b8 8DF88C30 		strb	r3, [sp, #140]	@ xform.inverting, xform.inverting
 1994 01bc 0FCF     		ldmia	r7!, {r0, r1, r2, r3}	@ tmp265,,,,
 1995 01be 0FC5     		stmia	r5!, {r0, r1, r2, r3}	@ tmp264,,,,
 1996 01c0 0FCF     		ldmia	r7!, {r0, r1, r2, r3}	@ tmp265,,,,
 1997 01c2 3F68     		ldr	r7, [r7]	@ xform, xform
 1998 01c4 0FC5     		stmia	r5!, {r0, r1, r2, r3}	@ tmp264,,,,
 1999 01c6 23AB     		add	r3, sp, #140	@ tmp475,,
 2000 01c8 0FCB     		ldm	r3, {r0, r1, r2, r3}	@ tmp475,,,,
 2001 01ca 2F60     		str	r7, [r5]	@ xform,
 2002 01cc FFF7FEFF 		bl	Matrix3D_apply		@
 2003              	.LVL121:
 2004              	@ mini3d/scene.c:225: 	shape->inverted = xform.inverting;
 225:mini3d/scene.c **** 
ARM GAS  /var/folders/cs/83z6p2tj4w57s6p2rt8nwfp00000gn/T//cc3yBana.s 			page 56


 2005              		.loc 1 225 18 view .LVU453
 2006 01d0 94F85D30 		ldrb	r3, [r4, #93]	@ zero_extendqisi2	@, shape_179->inverted
 2007              	@ mini3d/scene.c:230: 	int ordersize = shape->prototype->orderTableSize;
 230:mini3d/scene.c **** 
 2008              		.loc 1 230 6 view .LVU454
 2009 01d4 2268     		ldr	r2, [r4]	@ shape_179->prototype, shape_179->prototype
 2010              	@ mini3d/scene.c:225: 	shape->inverted = xform.inverting;
 225:mini3d/scene.c **** 
 2011              		.loc 1 225 18 view .LVU455
 2012 01d6 6AF30003 		bfi	r3, r10, #0, #1	@ shape_179->inverted, pretmp_235,,
 2013              	@ mini3d/scene.c:224: 	shape->renderStyle = style;
 224:mini3d/scene.c **** 	shape->inverted = xform.inverting;
 2014              		.loc 1 224 21 view .LVU456
 2015 01da 1999     		ldr	r1, [sp, #100]	@ style, %sfp
 2016              	@ mini3d/scene.c:223: 	shape->colorBias = proto->colorBias + colorBias;
 223:mini3d/scene.c **** 	shape->renderStyle = style;
 2017              		.loc 1 223 38 view .LVU457
 2018 01dc D9ED087A 		vldr.32	s15, [r9, #32]	@ proto_36->colorBias, proto_36->colorBias
 2019              	@ mini3d/scene.c:225: 	shape->inverted = xform.inverting;
 225:mini3d/scene.c **** 
 2020              		.loc 1 225 18 view .LVU458
 2021 01e0 84F85D30 		strb	r3, [r4, #93]	@ shape_179->inverted, shape_179->inverted
 2022              	@ mini3d/scene.c:224: 	shape->renderStyle = style;
 224:mini3d/scene.c **** 	shape->inverted = xform.inverting;
 2023              		.loc 1 224 21 view .LVU459
 2024 01e4 84F85C10 		strb	r1, [r4, #92]	@ style, shape_179->renderStyle
 2025              	@ mini3d/scene.c:223: 	shape->colorBias = proto->colorBias + colorBias;
 223:mini3d/scene.c **** 	shape->renderStyle = style;
 2026              		.loc 1 223 38 view .LVU460
 2027 01e8 77EEA87A 		vadd.f32	s15, s15, s17	@ tmp271, proto_36->colorBias, colorBias
 2028              	@ mini3d/scene.c:230: 	int ordersize = shape->prototype->orderTableSize;
 230:mini3d/scene.c **** 
 2029              		.loc 1 230 6 view .LVU461
 2030 01ec 976A     		ldr	r7, [r2, #40]	@ ordersize, _49->orderTableSize
 2031              	@ mini3d/scene.c:232: 	if ( ordersize != shape->orderTableSize )
 232:mini3d/scene.c **** 	{
 2032              		.loc 1 232 5 view .LVU462
 2033 01ee 236E     		ldr	r3, [r4, #96]	@ shape_179->orderTableSize, shape_179->orderTableSize
 2034              	@ mini3d/scene.c:223: 	shape->colorBias = proto->colorBias + colorBias;
 223:mini3d/scene.c **** 	shape->renderStyle = style;
 2035              		.loc 1 223 19 view .LVU463
 2036 01f0 C4ED167A 		vstr.32	s15, [r4, #88]	@ tmp271, shape_179->colorBias
 2037              	@ mini3d/scene.c:232: 	if ( ordersize != shape->orderTableSize )
 232:mini3d/scene.c **** 	{
 2038              		.loc 1 232 5 view .LVU464
 2039 01f4 9F42     		cmp	r7, r3	@ ordersize, shape_179->orderTableSize
 2040              	@ mini3d/scene.c:222: 	shape->center = Matrix3D_apply(xform, Matrix3D_apply(shape->transform, proto
 222:mini3d/scene.c **** 	shape->colorBias = proto->colorBias + colorBias;
 2041              		.loc 1 222 18 view .LVU465
 2042 01f6 84ED130A 		vstr.32	s0, [r4, #76]	@ tmp410, shape_179->center
 2043 01fa C4ED140A 		vstr.32	s1, [r4, #80]	@ tmp411, shape_179->center
 2044 01fe 84ED151A 		vstr.32	s2, [r4, #84]	@ tmp412, shape_179->center
 223:mini3d/scene.c **** 	shape->renderStyle = style;
 2045              		.loc 1 223 2 is_stmt 1 view .LVU466
 224:mini3d/scene.c **** 	shape->inverted = xform.inverting;
 2046              		.loc 1 224 2 view .LVU467
 225:mini3d/scene.c **** 
ARM GAS  /var/folders/cs/83z6p2tj4w57s6p2rt8nwfp00000gn/T//cc3yBana.s 			page 57


 2047              		.loc 1 225 2 view .LVU468
 228:mini3d/scene.c **** 	float zmax = 0;
 2048              		.loc 1 228 2 view .LVU469
 2049              	.LVL122:
 229:mini3d/scene.c **** 	int ordersize = shape->prototype->orderTableSize;
 2050              		.loc 1 229 2 view .LVU470
 230:mini3d/scene.c **** 
 2051              		.loc 1 230 2 view .LVU471
 232:mini3d/scene.c **** 	{
 2052              		.loc 1 232 2 view .LVU472
 2053              	@ mini3d/scene.c:232: 	if ( ordersize != shape->orderTableSize )
 232:mini3d/scene.c **** 	{
 2054              		.loc 1 232 5 is_stmt 0 view .LVU473
 2055 0202 00F01081 		beq	.L136		@,
 234:mini3d/scene.c **** 		shape->orderTable = m3d_realloc(shape->orderTable, ordersize * sizeof(FaceInstance*));
 2056              		.loc 1 234 3 is_stmt 1 view .LVU474
 2057              	@ mini3d/scene.c:235: 		shape->orderTable = m3d_realloc(shape->orderTable, ordersize * sizeof(FaceI
 235:mini3d/scene.c **** 	}
 2058              		.loc 1 235 23 is_stmt 0 view .LVU475
 2059 0206 BA00     		lsls	r2, r7, #2	@ _55, ordersize,
 2060 0208 4E4B     		ldr	r3, .L139+8	@ tmp313,
 2061 020a 606E     		ldr	r0, [r4, #100]	@, shape_179->orderTable
 2062 020c 1146     		mov	r1, r2	@, _55
 2063 020e 1B68     		ldr	r3, [r3]	@ m3d_realloc, m3d_realloc
 2064              	@ mini3d/scene.c:234: 		shape->orderTableSize = ordersize;
 234:mini3d/scene.c **** 		shape->orderTable = m3d_realloc(shape->orderTable, ordersize * sizeof(FaceInstance*));
 2065              		.loc 1 234 25 view .LVU476
 2066 0210 2766     		str	r7, [r4, #96]	@ ordersize, shape_179->orderTableSize
 235:mini3d/scene.c **** 	}
 2067              		.loc 1 235 3 is_stmt 1 view .LVU477
 2068              	@ mini3d/scene.c:235: 		shape->orderTable = m3d_realloc(shape->orderTable, ordersize * sizeof(FaceI
 235:mini3d/scene.c **** 	}
 2069              		.loc 1 235 23 is_stmt 0 view .LVU478
 2070 0212 1A92     		str	r2, [sp, #104]	@ _55, %sfp
 2071 0214 9847     		blx	r3		@ m3d_realloc
 2072              	.LVL123:
 2073              	@ mini3d/scene.c:238: 	memset(shape->orderTable, 0, ordersize * sizeof(FaceInstance*));
 238:mini3d/scene.c **** #endif
 2074              		.loc 1 238 2 view .LVU479
 2075 0216 0021     		movs	r1, #0	@,
 2076              	@ mini3d/scene.c:235: 		shape->orderTable = m3d_realloc(shape->orderTable, ordersize * sizeof(FaceI
 235:mini3d/scene.c **** 	}
 2077              		.loc 1 235 21 view .LVU480
 2078 0218 1A9A     		ldr	r2, [sp, #104]	@ _55, %sfp
 238:mini3d/scene.c **** #endif
 2079              		.loc 1 238 2 is_stmt 1 view .LVU481
 2080              	@ mini3d/scene.c:235: 		shape->orderTable = m3d_realloc(shape->orderTable, ordersize * sizeof(FaceI
 235:mini3d/scene.c **** 	}
 2081              		.loc 1 235 21 is_stmt 0 view .LVU482
 2082 021a 6066     		str	r0, [r4, #100]	@ _56, shape_179->orderTable
 2083              	@ mini3d/scene.c:238: 	memset(shape->orderTable, 0, ordersize * sizeof(FaceInstance*));
 238:mini3d/scene.c **** #endif
 2084              		.loc 1 238 2 view .LVU483
 2085 021c FFF7FEFF 		bl	memset		@
 2086              	.LVL124:
 243:mini3d/scene.c **** 	{
 2087              		.loc 1 243 2 is_stmt 1 view .LVU484
ARM GAS  /var/folders/cs/83z6p2tj4w57s6p2rt8nwfp00000gn/T//cc3yBana.s 			page 58


 243:mini3d/scene.c **** 	{
 2088              		.loc 1 243 15 view .LVU485
 2089              	@ mini3d/scene.c:243: 	for ( i = 0; i < shape->nFaces; ++i )
 243:mini3d/scene.c **** 	{
 2090              		.loc 1 243 24 is_stmt 0 view .LVU486
 2091 0220 616C     		ldr	r1, [r4, #68]	@ _79, shape_179->nFaces
 2092              	@ mini3d/scene.c:243: 	for ( i = 0; i < shape->nFaces; ++i )
 243:mini3d/scene.c **** 	{
 2093              		.loc 1 243 2 view .LVU487
 2094 0222 0029     		cmp	r1, #0	@ _79,
 2095 0224 40F30881 		ble	.L116		@,
 2096              	.L138:
 2097 0228 4FF00008 		mov	r8, #0	@ ivtmp.186,
 2098              	@ mini3d/scene.c:229: 	float zmax = 0;
 229:mini3d/scene.c **** 	int ordersize = shape->prototype->orderTableSize;
 2099              		.loc 1 229 8 view .LVU488
 2100 022c 9FED468A 		vldr.32	s16, .L139+12	@ zmax,
 2101              	@ mini3d/scene.c:228: 	float zmin = 1e23f;
 228:mini3d/scene.c **** 	float zmax = 0;
 2102              		.loc 1 228 8 view .LVU489
 2103 0230 9FED46AA 		vldr.32	s20, .L139+16	@ zmin,
 2104              	@ mini3d/scene.c:243: 	for ( i = 0; i < shape->nFaces; ++i )
 243:mini3d/scene.c **** 	{
 2105              		.loc 1 243 10 view .LVU490
 2106 0234 C346     		mov	fp, r8	@ i, ivtmp.186
 2107              	.LVL125:
 2108              	.L100:
 2109              	.LBB64:
 245:mini3d/scene.c **** 		face->normal = pnormal(face->p1, face->p2, face->p3);
 2110              		.loc 1 245 3 is_stmt 1 view .LVU491
 2111              	@ mini3d/scene.c:245: 		FaceInstance* face = &shape->faces[i];
 245:mini3d/scene.c **** 		face->normal = pnormal(face->p1, face->p2, face->p3);
 2112              		.loc 1 245 17 is_stmt 0 view .LVU492
 2113 0236 D4F84890 		ldr	r9, [r4, #72]	@ shape_179->faces, shape_179->faces
 2114              	.LBE64:
 2115              	@ mini3d/scene.c:243: 	for ( i = 0; i < shape->nFaces; ++i )
 243:mini3d/scene.c **** 	{
 2116              		.loc 1 243 34 view .LVU493
 2117 023a 0BF1010B 		add	fp, fp, #1	@ i, i,
 2118              	.LVL126:
 2119              	.LBB67:
 2120              	@ mini3d/scene.c:245: 		FaceInstance* face = &shape->faces[i];
 245:mini3d/scene.c **** 		face->normal = pnormal(face->p1, face->p2, face->p3);
 2121              		.loc 1 245 17 view .LVU494
 2122 023e 09EB0805 		add	r5, r9, r8	@ face, shape_179->faces, ivtmp.186
 2123              	.LVL127:
 246:mini3d/scene.c **** 
 2124              		.loc 1 246 3 is_stmt 1 view .LVU495
 2125              	@ mini3d/scene.c:246: 		face->normal = pnormal(face->p1, face->p2, face->p3);
 246:mini3d/scene.c **** 
 2126              		.loc 1 246 18 is_stmt 0 view .LVU496
 2127 0242 59F80800 		ldr	r0, [r9, r8]	@, face_64->p1
 2128 0246 D5E90112 		ldrd	r1, r2, [r5, #4]	@,, face,
 2129 024a FFF7FEFF 		bl	pnormal		@
 2130              	.LVL128:
 2131              	.LBB65:
 251:mini3d/scene.c **** 
ARM GAS  /var/folders/cs/83z6p2tj4w57s6p2rt8nwfp00000gn/T//cc3yBana.s 			page 59


 2132              		.loc 1 251 4 is_stmt 1 view .LVU497
 2133              	.LBE65:
 2134              	@ mini3d/scene.c:249: 		if ( ordersize > 0 )
 249:mini3d/scene.c **** 		{
 2135              		.loc 1 249 6 is_stmt 0 view .LVU498
 2136 024e 002F     		cmp	r7, #0	@ ordersize,
 2137              	@ mini3d/scene.c:246: 		face->normal = pnormal(face->p1, face->p2, face->p3);
 246:mini3d/scene.c **** 
 2138              		.loc 1 246 18 view .LVU499
 2139 0250 85ED040A 		vstr.32	s0, [r5, #16]	@ tmp420, face_64->normal
 2140 0254 C5ED050A 		vstr.32	s1, [r5, #20]	@ tmp421, face_64->normal
 2141 0258 85ED061A 		vstr.32	s2, [r5, #24]	@ tmp422, face_64->normal
 249:mini3d/scene.c **** 		{
 2142              		.loc 1 249 3 is_stmt 1 view .LVU500
 2143              	@ mini3d/scene.c:249: 		if ( ordersize > 0 )
 249:mini3d/scene.c **** 		{
 2144              		.loc 1 249 6 is_stmt 0 view .LVU501
 2145 025c 1ADD     		ble	.L96		@,
 2146              	.LBB66:
 2147              	@ mini3d/scene.c:251: 			float z = face->p1->z + face->p2->z + face->p3->z;
 251:mini3d/scene.c **** 
 2148              		.loc 1 251 36 view .LVU502
 2149 025e 6B68     		ldr	r3, [r5, #4]	@ face_64->p2, face_64->p2
 2150              	@ mini3d/scene.c:251: 			float z = face->p1->z + face->p2->z + face->p3->z;
 251:mini3d/scene.c **** 
 2151              		.loc 1 251 22 view .LVU503
 2152 0260 59F80820 		ldr	r2, [r9, r8]	@ face_64->p1, face_64->p1
 2153              	@ mini3d/scene.c:251: 			float z = face->p1->z + face->p2->z + face->p3->z;
 251:mini3d/scene.c **** 
 2154              		.loc 1 251 26 view .LVU504
 2155 0264 93ED027A 		vldr.32	s14, [r3, #8]	@ _70->z, _70->z
 2156 0268 D2ED027A 		vldr.32	s15, [r2, #8]	@ _68->z, _68->z
 2157              	@ mini3d/scene.c:251: 			float z = face->p1->z + face->p2->z + face->p3->z;
 251:mini3d/scene.c **** 
 2158              		.loc 1 251 50 view .LVU505
 2159 026c AB68     		ldr	r3, [r5, #8]	@ face_64->p3, face_64->p3
 2160              	@ mini3d/scene.c:251: 			float z = face->p1->z + face->p2->z + face->p3->z;
 251:mini3d/scene.c **** 
 2161              		.loc 1 251 26 view .LVU506
 2162 026e 77EE877A 		vadd.f32	s15, s15, s14	@ tmp328, _68->z, _70->z
 2163              	@ mini3d/scene.c:251: 			float z = face->p1->z + face->p2->z + face->p3->z;
 251:mini3d/scene.c **** 
 2164              		.loc 1 251 10 view .LVU507
 2165 0272 93ED027A 		vldr.32	s14, [r3, #8]	@ _73->z, _73->z
 2166 0276 77EE877A 		vadd.f32	s15, s15, s14	@ z, tmp328, _73->z
 2167              	.LVL129:
 253:mini3d/scene.c **** 			if ( z > zmax ) zmax = z;
 2168              		.loc 1 253 4 is_stmt 1 view .LVU508
 2169              	@ mini3d/scene.c:253: 			if ( z < zmin ) zmin = z;
 253:mini3d/scene.c **** 			if ( z > zmax ) zmax = z;
 2170              		.loc 1 253 25 is_stmt 0 view .LVU509
 2171 027a F4EE4A7A 		vcmp.f32	s15, s20	@ z, zmin
 2172 027e F1EE10FA 		vmrs	APSR_nzcv, FPSCR
 2173              	@ mini3d/scene.c:254: 			if ( z > zmax ) zmax = z;
 254:mini3d/scene.c **** 		}
 2174              		.loc 1 254 25 view .LVU510
 2175 0282 F4EE487A 		vcmp.f32	s15, s16	@ z, zmax
ARM GAS  /var/folders/cs/83z6p2tj4w57s6p2rt8nwfp00000gn/T//cc3yBana.s 			page 60


 2176              	@ mini3d/scene.c:253: 			if ( z < zmin ) zmin = z;
 253:mini3d/scene.c **** 			if ( z > zmax ) zmax = z;
 2177              		.loc 1 253 25 view .LVU511
 2178 0286 48BF     		it	mi	@
 2179 0288 B0EE67AA 		vmovmi.f32	s20, s15	@, zmin, z
 2180              	.LVL130:
 254:mini3d/scene.c **** 		}
 2181              		.loc 1 254 4 is_stmt 1 view .LVU512
 2182              	@ mini3d/scene.c:254: 			if ( z > zmax ) zmax = z;
 254:mini3d/scene.c **** 		}
 2183              		.loc 1 254 25 is_stmt 0 view .LVU513
 2184 028c F1EE10FA 		vmrs	APSR_nzcv, FPSCR
 2185 0290 37FE888A 		vselgt.f32	s16, s15, s16	@, zmax, z, zmax
 2186              	.LVL131:
 2187              	.L96:
 254:mini3d/scene.c **** 		}
 2188              		.loc 1 254 25 view .LVU514
 2189              	.LBE66:
 2190              	.LBE67:
 243:mini3d/scene.c **** 	{
 2191              		.loc 1 243 34 is_stmt 1 view .LVU515
 243:mini3d/scene.c **** 	{
 2192              		.loc 1 243 15 view .LVU516
 2193              	@ mini3d/scene.c:243: 	for ( i = 0; i < shape->nFaces; ++i )
 243:mini3d/scene.c **** 	{
 2194              		.loc 1 243 24 is_stmt 0 view .LVU517
 2195 0294 616C     		ldr	r1, [r4, #68]	@ _79, shape_179->nFaces
 2196 0296 08F12408 		add	r8, r8, #36	@ ivtmp.186, ivtmp.186,
 2197              	@ mini3d/scene.c:243: 	for ( i = 0; i < shape->nFaces; ++i )
 243:mini3d/scene.c **** 	{
 2198              		.loc 1 243 2 view .LVU518
 2199 029a 8B45     		cmp	fp, r1	@ i, _79
 2200 029c CBDB     		blt	.L100		@,
 2201              	.LVL132:
 2202              	.L95:
 261:mini3d/scene.c **** 	{
 2203              		.loc 1 261 15 is_stmt 1 view .LVU519
 2204              	@ mini3d/scene.c:261: 	for ( i = 0; i < shape->nPoints; ++i )
 261:mini3d/scene.c **** 	{
 2205              		.loc 1 261 24 is_stmt 0 view .LVU520
 2206 029e E26B     		ldr	r2, [r4, #60]	@ _187, shape_179->nPoints
 2207              	@ mini3d/scene.c:261: 	for ( i = 0; i < shape->nPoints; ++i )
 261:mini3d/scene.c **** 	{
 2208              		.loc 1 261 2 view .LVU521
 2209 02a0 002A     		cmp	r2, #0	@ _187,
 2210 02a2 55DD     		ble	.L110		@,
 2211 02a4 02EB4202 		add	r2, r2, r2, lsl #1	@ tmp335, _187, _187,
 2212 02a8 236C     		ldr	r3, [r4, #64]	@ ivtmp.183, shape_179->points
 2213 02aa 03EB8202 		add	r2, r3, r2, lsl #2	@ _217, ivtmp.183, tmp335,
 2214 02ae 25E0     		b	.L109		@
 2215              	.LVL133:
 2216              	.L137:
 2217              	.LBB68:
 2218              	@ mini3d/scene.c:269: 				p->x = scene->scale * (p->x / p->z + 1.6666666f * scene->centerx);
 269:mini3d/scene.c **** 				p->y = scene->scale * (p->y / p->z + scene->centery);
 2219              		.loc 1 269 33 view .LVU522
 2220 02b0 93ED007A 		vldr.32	s14, [r3]	@ MEM[base: _221, offset: 0B], MEM[base: _221, offset: 0B]
ARM GAS  /var/folders/cs/83z6p2tj4w57s6p2rt8nwfp00000gn/T//cc3yBana.s 			page 61


 2221              	@ mini3d/scene.c:270: 				p->y = scene->scale * (p->y / p->z + scene->centery);
 270:mini3d/scene.c **** 			}
 2222              		.loc 1 270 33 view .LVU523
 2223 02b4 93ED015A 		vldr.32	s10, [r3, #4]	@ MEM[base: _221, offset: 4B], MEM[base: _221, offset: 4B]
 2224              	@ mini3d/scene.c:269: 				p->x = scene->scale * (p->x / p->z + 1.6666666f * scene->centerx);
 269:mini3d/scene.c **** 				p->y = scene->scale * (p->y / p->z + scene->centery);
 2225              		.loc 1 269 33 view .LVU524
 2226 02b8 C7EE276A 		vdiv.f32	s13, s14, s15	@ tmp343, MEM[base: _221, offset: 0B], _85
 2227              	@ mini3d/scene.c:269: 				p->x = scene->scale * (p->x / p->z + 1.6666666f * scene->centerx);
 269:mini3d/scene.c **** 				p->y = scene->scale * (p->y / p->z + scene->centery);
 2228              		.loc 1 269 40 view .LVU525
 2229 02bc D6ED115A 		vldr.32	s11, [r6, #68]	@ scene_28(D)->centerx, scene_28(D)->centerx
 2230              	@ mini3d/scene.c:269: 				p->x = scene->scale * (p->x / p->z + 1.6666666f * scene->centerx);
 269:mini3d/scene.c **** 				p->y = scene->scale * (p->y / p->z + scene->centery);
 2231              		.loc 1 269 17 view .LVU526
 2232 02c0 96ED136A 		vldr.32	s12, [r6, #76]	@ _88, scene_28(D)->scale
 2233              	@ mini3d/scene.c:270: 				p->y = scene->scale * (p->y / p->z + scene->centery);
 270:mini3d/scene.c **** 			}
 2234              		.loc 1 270 33 view .LVU527
 2235 02c4 85EE277A 		vdiv.f32	s14, s10, s15	@ tmp348, MEM[base: _221, offset: 4B], _85
 2236              	@ mini3d/scene.c:269: 				p->x = scene->scale * (p->x / p->z + 1.6666666f * scene->centerx);
 269:mini3d/scene.c **** 				p->y = scene->scale * (p->y / p->z + scene->centery);
 2237              		.loc 1 269 40 view .LVU528
 2238 02c8 E5EE896A 		vfma.f32	s13, s11, s18	@ _93, scene_28(D)->centerx, tmp399
 2239              	.L134:
 2240              	@ mini3d/scene.c:274: 				p->x = scene->scale * (p->x + 1.6666666f * scene->centerx);
 274:mini3d/scene.c **** 				p->y = scene->scale * (p->y + scene->centery);
 2241              		.loc 1 274 25 view .LVU529
 2242 02cc 66EE266A 		vmul.f32	s13, s12, s13	@ tmp356, _100, _104
 2243              	@ mini3d/scene.c:274: 				p->x = scene->scale * (p->x + 1.6666666f * scene->centerx);
 274:mini3d/scene.c **** 				p->y = scene->scale * (p->y + scene->centery);
 2244              		.loc 1 274 10 view .LVU530
 2245 02d0 C3ED006A 		vstr.32	s13, [r3]	@ tmp356, MEM[base: _221, offset: 0B]
 275:mini3d/scene.c **** 			}
 2246              		.loc 1 275 5 is_stmt 1 view .LVU531
 2247              	@ mini3d/scene.c:275: 				p->y = scene->scale * (p->y + scene->centery);
 275:mini3d/scene.c **** 			}
 2248              		.loc 1 275 33 is_stmt 0 view .LVU532
 2249 02d4 D6ED126A 		vldr.32	s13, [r6, #72]	@ scene_28(D)->centery, scene_28(D)->centery
 2250 02d8 37EE267A 		vadd.f32	s14, s14, s13	@ tmp357, MEM[base: _221, offset: 4B], scene_28(D)->centery
 2251              	@ mini3d/scene.c:275: 				p->y = scene->scale * (p->y + scene->centery);
 275:mini3d/scene.c **** 			}
 2252              		.loc 1 275 25 view .LVU533
 2253 02dc 27EE067A 		vmul.f32	s14, s14, s12	@ tmp360, tmp357, _100
 2254              	@ mini3d/scene.c:275: 				p->y = scene->scale * (p->y + scene->centery);
 275:mini3d/scene.c **** 			}
 2255              		.loc 1 275 10 view .LVU534
 2256 02e0 83ED017A 		vstr.32	s14, [r3, #4]	@ tmp360, MEM[base: _221, offset: 4B]
 2257              	.L104:
 280:mini3d/scene.c **** 			scene->zmin = p->z;
 2258              		.loc 1 280 3 is_stmt 1 view .LVU535
 281:mini3d/scene.c **** #endif
 2259              		.loc 1 281 4 view .LVU536
 2260              	.LBE68:
 261:mini3d/scene.c **** 	{
 2261              		.loc 1 261 35 view .LVU537
 261:mini3d/scene.c **** 	{
ARM GAS  /var/folders/cs/83z6p2tj4w57s6p2rt8nwfp00000gn/T//cc3yBana.s 			page 62


 2262              		.loc 1 261 15 view .LVU538
 2263              	.LBB69:
 2264              	@ mini3d/scene.c:280: 		if ( p->z < scene->zmin )
 280:mini3d/scene.c **** 			scene->zmin = p->z;
 2265              		.loc 1 280 6 is_stmt 0 view .LVU539
 2266 02e4 96ED2B7A 		vldr.32	s14, [r6, #172]	@ scene_28(D)->zmin, scene_28(D)->zmin
 2267 02e8 0C33     		adds	r3, r3, #12	@ ivtmp.183, ivtmp.183,
 2268              	.LVL134:
 280:mini3d/scene.c **** 			scene->zmin = p->z;
 2269              		.loc 1 280 6 view .LVU540
 2270 02ea F4EEC77A 		vcmpe.f32	s15, s14	@ _85, scene_28(D)->zmin
 2271 02ee F1EE10FA 		vmrs	APSR_nzcv, FPSCR
 2272              	@ mini3d/scene.c:281: 			scene->zmin = p->z;
 281:mini3d/scene.c **** #endif
 2273              		.loc 1 281 16 view .LVU541
 2274 02f2 48BF     		it	mi
 2275 02f4 C6ED2B7A 		vstrmi.32	s15, [r6, #172]	@ _85, scene_28(D)->zmin
 2276              	.LBE69:
 2277              	@ mini3d/scene.c:261: 	for ( i = 0; i < shape->nPoints; ++i )
 261:mini3d/scene.c **** 	{
 2278              		.loc 1 261 2 view .LVU542
 2279 02f8 9A42     		cmp	r2, r3	@ _217, ivtmp.183
 2280 02fa 29D0     		beq	.L110		@,
 2281              	.LVL135:
 2282              	.L109:
 2283              	.LBB70:
 263:mini3d/scene.c **** 
 2284              		.loc 1 263 3 is_stmt 1 view .LVU543
 265:mini3d/scene.c **** 		{
 2285              		.loc 1 265 3 view .LVU544
 267:mini3d/scene.c **** 			{
 2286              		.loc 1 267 4 view .LVU545
 2287              	@ mini3d/scene.c:265: 		if ( p->z > 0 )
 265:mini3d/scene.c **** 		{
 2288              		.loc 1 265 9 is_stmt 0 view .LVU546
 2289 02fc D3ED027A 		vldr.32	s15, [r3, #8]	@ _85, MEM[base: _221, offset: 8B]
 2290              	@ mini3d/scene.c:265: 		if ( p->z > 0 )
 265:mini3d/scene.c **** 		{
 2291              		.loc 1 265 6 view .LVU547
 2292 0300 F5EEC07A 		vcmpe.f32	s15, #0	@ _85
 2293 0304 F1EE10FA 		vmrs	APSR_nzcv, FPSCR
 2294 0308 ECDD     		ble	.L104		@,
 269:mini3d/scene.c **** 				p->y = scene->scale * (p->y / p->z + scene->centery);
 2295              		.loc 1 269 5 is_stmt 1 view .LVU548
 274:mini3d/scene.c **** 				p->y = scene->scale * (p->y + scene->centery);
 2296              		.loc 1 274 5 view .LVU549
 2297              	@ mini3d/scene.c:267: 			if ( scene->hasPerspective )
 267:mini3d/scene.c **** 			{
 2298              		.loc 1 267 9 is_stmt 0 view .LVU550
 2299 030a 3078     		ldrb	r0, [r6]	@ zero_extendqisi2	@ *scene_28(D), *scene_28(D)
 2300              	@ mini3d/scene.c:267: 			if ( scene->hasPerspective )
 267:mini3d/scene.c **** 			{
 2301              		.loc 1 267 7 view .LVU551
 2302 030c C007     		lsls	r0, r0, #31	@, *scene_28(D),
 2303 030e CFD4     		bmi	.L137		@,
 2304              	@ mini3d/scene.c:274: 				p->x = scene->scale * (p->x + 1.6666666f * scene->centerx);
 274:mini3d/scene.c **** 				p->y = scene->scale * (p->y + scene->centery);
ARM GAS  /var/folders/cs/83z6p2tj4w57s6p2rt8nwfp00000gn/T//cc3yBana.s 			page 63


 2305              		.loc 1 274 33 view .LVU552
 2306 0310 96ED117A 		vldr.32	s14, [r6, #68]	@ scene_28(D)->centerx, scene_28(D)->centerx
 2307 0314 D3ED006A 		vldr.32	s13, [r3]	@ MEM[base: _221, offset: 0B], MEM[base: _221, offset: 0B]
 2308              	@ mini3d/scene.c:274: 				p->x = scene->scale * (p->x + 1.6666666f * scene->centerx);
 274:mini3d/scene.c **** 				p->y = scene->scale * (p->y + scene->centery);
 2309              		.loc 1 274 17 view .LVU553
 2310 0318 96ED136A 		vldr.32	s12, [r6, #76]	@ _100, scene_28(D)->scale
 2311              	@ mini3d/scene.c:274: 				p->x = scene->scale * (p->x + 1.6666666f * scene->centerx);
 274:mini3d/scene.c **** 				p->y = scene->scale * (p->y + scene->centery);
 2312              		.loc 1 274 33 view .LVU554
 2313 031c E7EE096A 		vfma.f32	s13, s14, s18	@ _104, scene_28(D)->centerx, tmp399
 2314              	@ mini3d/scene.c:275: 				p->y = scene->scale * (p->y + scene->centery);
 275:mini3d/scene.c **** 			}
 2315              		.loc 1 275 33 view .LVU555
 2316 0320 93ED017A 		vldr.32	s14, [r3, #4]	@ MEM[base: _221, offset: 4B], MEM[base: _221, offset: 4B]
 2317 0324 D2E7     		b	.L134		@
 2318              	.LVL136:
 2319              	.L84:
 275:mini3d/scene.c **** 			}
 2320              		.loc 1 275 33 view .LVU556
 2321              	.LBE70:
 2322              	.LBE73:
 2323              	.LBE76:
 2324              	.LBE55:
 316:mini3d/scene.c **** 	{
 2325              		.loc 1 316 2 is_stmt 1 view .LVU557
 2326              	@ mini3d/scene.c:316: 	if ( update )
 316:mini3d/scene.c **** 	{
 2327              		.loc 1 316 5 is_stmt 0 view .LVU558
 2328 0326 4E9B     		ldr	r3, [sp, #312]	@ tmp466, update
 2329 0328 002B     		cmp	r3, #0	@ tmp466
 2330 032a 7FF487AE 		bne	.L85	@
 2331              	.LVL137:
 2332              	.L82:
 2333              	@ mini3d/scene.c:340: }
 340:mini3d/scene.c **** 
 2334              		.loc 1 340 1 view .LVU559
 2335 032e 31B0     		add	sp, sp, #196	@,,
 2336              	.LCFI26:
 2337              		.cfi_remember_state
 2338              		.cfi_def_cfa_offset 68
 2339              		@ sp needed	@
 2340 0330 BDEC068B 		vldm	sp!, {d8-d10}	@,
 2341              	.LCFI27:
 2342              		.cfi_restore 84
 2343              		.cfi_restore 85
 2344              		.cfi_restore 82
 2345              		.cfi_restore 83
 2346              		.cfi_restore 80
 2347              		.cfi_restore 81
 2348              		.cfi_def_cfa_offset 44
 2349 0334 BDE8F04F 		pop	{r4, r5, r6, r7, r8, r9, r10, fp, lr}	@
 2350              	.LCFI28:
 2351              		.cfi_restore 14
 2352              		.cfi_restore 11
 2353              		.cfi_restore 10
 2354              		.cfi_restore 9
ARM GAS  /var/folders/cs/83z6p2tj4w57s6p2rt8nwfp00000gn/T//cc3yBana.s 			page 64


 2355              		.cfi_restore 8
 2356              		.cfi_restore 7
 2357              		.cfi_restore 6
 2358              		.cfi_restore 5
 2359              		.cfi_restore 4
 2360              		.cfi_def_cfa_offset 8
 2361              	.LVL138:
 340:mini3d/scene.c **** 
 2362              		.loc 1 340 1 view .LVU560
 2363 0338 02B0     		add	sp, sp, #8	@,,
 2364              	.LCFI29:
 2365              		.cfi_def_cfa_offset 0
 2366 033a 7047     		bx	lr	@
 2367              	.L140:
 2368              		.align	2
 2369              	.L139:
 2370 033c 5555D53F 		.word	1070945621
 2371 0340 17B7D138 		.word	953267991
 2372 0344 00000000 		.word	m3d_realloc
 2373 0348 00000000 		.word	0
 2374 034c 1668A965 		.word	1705601046
 2375              	.LVL139:
 2376              	.L110:
 2377              	.LCFI30:
 2378              		.cfi_restore_state
 2379              	.LBB79:
 2380              	.LBB77:
 2381              	.LBB74:
 288:mini3d/scene.c **** 	{
 2382              		.loc 1 288 2 is_stmt 1 view .LVU561
 2383              	@ mini3d/scene.c:288: 	if ( ordersize > 0 )
 288:mini3d/scene.c **** 	{
 2384              		.loc 1 288 5 is_stmt 0 view .LVU562
 2385 0350 002F     		cmp	r7, #0	@ ordersize,
 2386 0352 30DD     		ble	.L103		@,
 2387              	.LBB71:
 290:mini3d/scene.c **** 
 2388              		.loc 1 290 3 is_stmt 1 view .LVU563
 2389              	@ mini3d/scene.c:290: 		float d = zmax - zmin + 0.0001f;
 290:mini3d/scene.c **** 
 2390              		.loc 1 290 18 is_stmt 0 view .LVU564
 2391 0354 38EE4A8A 		vsub.f32	s16, s16, s20	@ tmp369, zmax, zmin
 2392              	@ mini3d/scene.c:292: 		for ( i = 0; i < shape->nFaces; ++i )
 292:mini3d/scene.c **** 		{
 2393              		.loc 1 292 3 view .LVU565
 2394 0358 0029     		cmp	r1, #0	@ _79,
 2395              	@ mini3d/scene.c:290: 		float d = zmax - zmin + 0.0001f;
 290:mini3d/scene.c **** 
 2396              		.loc 1 290 9 view .LVU566
 2397 035a 38EE298A 		vadd.f32	s16, s16, s19	@ d, tmp369, tmp401
 2398              	.LVL140:
 292:mini3d/scene.c **** 		{
 2399              		.loc 1 292 3 is_stmt 1 view .LVU567
 292:mini3d/scene.c **** 		{
 2400              		.loc 1 292 16 view .LVU568
 2401              	@ mini3d/scene.c:292: 		for ( i = 0; i < shape->nFaces; ++i )
 292:mini3d/scene.c **** 		{
ARM GAS  /var/folders/cs/83z6p2tj4w57s6p2rt8nwfp00000gn/T//cc3yBana.s 			page 65


 2402              		.loc 1 292 3 is_stmt 0 view .LVU569
 2403 035e 2ADD     		ble	.L103		@,
 2404 0360 07EE907A 		vmov	s15, r7	@ int	@ ordersize, ordersize
 2405              	.LBB60:
 2406              	@ mini3d/scene.c:297: 			face->next = shape->orderTable[idx];
 297:mini3d/scene.c **** 			shape->orderTable[idx] = face;
 2407              		.loc 1 297 22 view .LVU570
 2408 0364 0025     		movs	r5, #0	@ ivtmp.180,
 2409 0366 D4F864C0 		ldr	ip, [r4, #100]	@ _135, shape_179->orderTable
 2410 036a B8EEE77A 		vcvt.f32.s32	s14, s15	@ _255, ordersize
 2411              	.LBE60:
 2412              	@ mini3d/scene.c:292: 		for ( i = 0; i < shape->nFaces; ++i )
 292:mini3d/scene.c **** 		{
 2413              		.loc 1 292 11 view .LVU571
 2414 036e 2F46     		mov	r7, r5	@ i, ivtmp.180
 2415              	.LVL141:
 2416              	.L113:
 2417              	.LBB61:
 294:mini3d/scene.c **** 
 2418              		.loc 1 294 4 is_stmt 1 view .LVU572
 2419              	@ mini3d/scene.c:294: 			FaceInstance* face = &shape->faces[i];
 294:mini3d/scene.c **** 
 2420              		.loc 1 294 18 is_stmt 0 view .LVU573
 2421 0370 A36C     		ldr	r3, [r4, #72]	@ shape_179->faces, shape_179->faces
 2422              	.LBE61:
 2423              	@ mini3d/scene.c:292: 		for ( i = 0; i < shape->nFaces; ++i )
 292:mini3d/scene.c **** 		{
 2424              		.loc 1 292 35 view .LVU574
 2425 0372 0137     		adds	r7, r7, #1	@ i, i,
 2426              	.LVL142:
 2427              	.LBB62:
 2428              	@ mini3d/scene.c:294: 			FaceInstance* face = &shape->faces[i];
 294:mini3d/scene.c **** 
 2429              		.loc 1 294 18 view .LVU575
 2430 0374 5A19     		adds	r2, r3, r5	@ face, shape_179->faces, ivtmp.180
 2431              	.LVL143:
 296:mini3d/scene.c **** 			face->next = shape->orderTable[idx];
 2432              		.loc 1 296 4 is_stmt 1 view .LVU576
 297:mini3d/scene.c **** 			shape->orderTable[idx] = face;
 2433              		.loc 1 297 4 view .LVU577
 2434              	@ mini3d/scene.c:296: 			int idx = ordersize * (face->p1->z + face->p2->z + face->p3->z - zmin) / d
 296:mini3d/scene.c **** 			face->next = shape->orderTable[idx];
 2435              		.loc 1 296 35 is_stmt 0 view .LVU578
 2436 0376 5859     		ldr	r0, [r3, r5]	@ face_121->p1, face_121->p1
 2437              	.LBE62:
 2438              	@ mini3d/scene.c:292: 		for ( i = 0; i < shape->nFaces; ++i )
 292:mini3d/scene.c **** 		{
 2439              		.loc 1 292 3 view .LVU579
 2440 0378 8F42     		cmp	r7, r1	@ i, _79
 2441 037a 05F12405 		add	r5, r5, #36	@ ivtmp.180, ivtmp.180,
 2442              	.LBB63:
 2443              	@ mini3d/scene.c:296: 			int idx = ordersize * (face->p1->z + face->p2->z + face->p3->z - zmin) / d
 296:mini3d/scene.c **** 			face->next = shape->orderTable[idx];
 2444              		.loc 1 296 49 view .LVU580
 2445 037e 5368     		ldr	r3, [r2, #4]	@ face_121->p2, face_121->p2
 2446              	@ mini3d/scene.c:296: 			int idx = ordersize * (face->p1->z + face->p2->z + face->p3->z - zmin) / d
 296:mini3d/scene.c **** 			face->next = shape->orderTable[idx];
ARM GAS  /var/folders/cs/83z6p2tj4w57s6p2rt8nwfp00000gn/T//cc3yBana.s 			page 66


 2447              		.loc 1 296 39 view .LVU581
 2448 0380 D0ED027A 		vldr.32	s15, [r0, #8]	@ _123->z, _123->z
 2449 0384 D3ED026A 		vldr.32	s13, [r3, #8]	@ _125->z, _125->z
 2450              	@ mini3d/scene.c:296: 			int idx = ordersize * (face->p1->z + face->p2->z + face->p3->z - zmin) / d
 296:mini3d/scene.c **** 			face->next = shape->orderTable[idx];
 2451              		.loc 1 296 63 view .LVU582
 2452 0388 9368     		ldr	r3, [r2, #8]	@ face_121->p3, face_121->p3
 2453              	@ mini3d/scene.c:296: 			int idx = ordersize * (face->p1->z + face->p2->z + face->p3->z - zmin) / d
 296:mini3d/scene.c **** 			face->next = shape->orderTable[idx];
 2454              		.loc 1 296 39 view .LVU583
 2455 038a 77EEA67A 		vadd.f32	s15, s15, s13	@ tmp374, _123->z, _125->z
 2456              	@ mini3d/scene.c:296: 			int idx = ordersize * (face->p1->z + face->p2->z + face->p3->z - zmin) / d
 296:mini3d/scene.c **** 			face->next = shape->orderTable[idx];
 2457              		.loc 1 296 53 view .LVU584
 2458 038e D3ED026A 		vldr.32	s13, [r3, #8]	@ _128->z, _128->z
 2459 0392 77EEA67A 		vadd.f32	s15, s15, s13	@ tmp378, tmp374, _128->z
 2460              	@ mini3d/scene.c:296: 			int idx = ordersize * (face->p1->z + face->p2->z + face->p3->z - zmin) / d
 296:mini3d/scene.c **** 			face->next = shape->orderTable[idx];
 2461              		.loc 1 296 67 view .LVU585
 2462 0396 77EECA7A 		vsub.f32	s15, s15, s20	@ tmp380, tmp378, zmin
 2463              	@ mini3d/scene.c:296: 			int idx = ordersize * (face->p1->z + face->p2->z + face->p3->z - zmin) / d
 296:mini3d/scene.c **** 			face->next = shape->orderTable[idx];
 2464              		.loc 1 296 24 view .LVU586
 2465 039a 67EE877A 		vmul.f32	s15, s15, s14	@ tmp381, tmp380, _255
 2466              	@ mini3d/scene.c:296: 			int idx = ordersize * (face->p1->z + face->p2->z + face->p3->z - zmin) / d
 296:mini3d/scene.c **** 			face->next = shape->orderTable[idx];
 2467              		.loc 1 296 75 view .LVU587
 2468 039e C7EE886A 		vdiv.f32	s13, s15, s16	@ tmp382, tmp381, d
 2469              	@ mini3d/scene.c:296: 			int idx = ordersize * (face->p1->z + face->p2->z + face->p3->z - zmin) / d
 296:mini3d/scene.c **** 			face->next = shape->orderTable[idx];
 2470              		.loc 1 296 8 view .LVU588
 2471 03a2 FDEEE67A 		vcvt.s32.f32	s15, s13	@ idx, tmp382
 2472 03a6 17EE903A 		vmov	r3, s15	@ int	@ idx, idx
 2473              	@ mini3d/scene.c:297: 			face->next = shape->orderTable[idx];
 297:mini3d/scene.c **** 			shape->orderTable[idx] = face;
 2474              		.loc 1 297 34 view .LVU589
 2475 03aa 5CF82300 		ldr	r0, [ip, r3, lsl #2]	@ _139, *_138
 2476              	@ mini3d/scene.c:297: 			face->next = shape->orderTable[idx];
 297:mini3d/scene.c **** 			shape->orderTable[idx] = face;
 2477              		.loc 1 297 15 view .LVU590
 2478 03ae 1062     		str	r0, [r2, #32]	@ _139, face_121->next
 298:mini3d/scene.c **** 		}
 2479              		.loc 1 298 4 is_stmt 1 view .LVU591
 2480              	@ mini3d/scene.c:298: 			shape->orderTable[idx] = face;
 298:mini3d/scene.c **** 		}
 2481              		.loc 1 298 27 is_stmt 0 view .LVU592
 2482 03b0 4CF82320 		str	r2, [ip, r3, lsl #2]	@ face, *_138
 2483              	.LBE63:
 292:mini3d/scene.c **** 		{
 2484              		.loc 1 292 35 is_stmt 1 view .LVU593
 2485              	.LVL144:
 292:mini3d/scene.c **** 		{
 2486              		.loc 1 292 16 view .LVU594
 2487              	@ mini3d/scene.c:292: 		for ( i = 0; i < shape->nFaces; ++i )
 292:mini3d/scene.c **** 		{
 2488              		.loc 1 292 3 is_stmt 0 view .LVU595
 2489 03b4 DCD1     		bne	.L113		@,
ARM GAS  /var/folders/cs/83z6p2tj4w57s6p2rt8nwfp00000gn/T//cc3yBana.s 			page 67


 2490              	.LVL145:
 2491              	.L103:
 292:mini3d/scene.c **** 		{
 2492              		.loc 1 292 3 view .LVU596
 2493              	.LBE71:
 2494              	.LBE74:
 2495              	.LBE77:
 330:mini3d/scene.c **** #endif
 2496              		.loc 1 330 4 is_stmt 1 view .LVU597
 2497              	@ mini3d/scene.c:330: 			shape->useZBuffer = node->useZBuffer;
 330:mini3d/scene.c **** #endif
 2498              		.loc 1 330 28 is_stmt 0 view .LVU598
 2499 03b6 1B9B     		ldr	r3, [sp, #108]	@ node, %sfp
 2500              	@ mini3d/scene.c:330: 			shape->useZBuffer = node->useZBuffer;
 330:mini3d/scene.c **** #endif
 2501              		.loc 1 330 22 view .LVU599
 2502 03b8 94F85D20 		ldrb	r2, [r4, #93]	@ zero_extendqisi2	@, shape_179->useZBuffer
 2503              	@ mini3d/scene.c:330: 			shape->useZBuffer = node->useZBuffer;
 330:mini3d/scene.c **** #endif
 2504              		.loc 1 330 28 view .LVU600
 2505 03bc 93F84D30 		ldrb	r3, [r3, #77]	@ zero_extendqisi2	@ *node_20(D), *node_20(D)
 2506 03c0 43F38003 		sbfx	r3, r3, #2, #1	@ tmp365, *node_20(D),,
 2507              	@ mini3d/scene.c:330: 			shape->useZBuffer = node->useZBuffer;
 330:mini3d/scene.c **** #endif
 2508              		.loc 1 330 22 view .LVU601
 2509 03c4 63F34102 		bfi	r2, r3, #1, #1	@ shape_179->useZBuffer, tmp365,,
 2510 03c8 84F85D20 		strb	r2, [r4, #93]	@ shape_179->useZBuffer, shape_179->useZBuffer
 332:mini3d/scene.c **** 		}
 2511              		.loc 1 332 4 is_stmt 1 view .LVU602
 2512              	@ mini3d/scene.c:332: 			shape = shape->next;
 332:mini3d/scene.c **** 		}
 2513              		.loc 1 332 10 is_stmt 0 view .LVU603
 2514 03cc A46B     		ldr	r4, [r4, #56]	@ shape, shape_179->next
 2515              	.LVL146:
 326:mini3d/scene.c **** 		{
 2516              		.loc 1 326 9 is_stmt 1 view .LVU604
 2517 03ce 002C     		cmp	r4, #0	@ shape
 2518 03d0 7FF46CAE 		bne	.L111	@
 2519 03d4 DDF86CA0 		ldr	r10, [sp, #108]	@ node, %sfp
 2520              	.LVL147:
 2521              	.L112:
 337:mini3d/scene.c **** 			Scene3D_updateNode(scene, node->childNodes[i], xform, colorBias, style, update);
 2522              		.loc 1 337 16 view .LVU605
 2523              	@ mini3d/scene.c:337: 		for ( i = 0; i < node->nChildren; ++i )
 337:mini3d/scene.c **** 			Scene3D_updateNode(scene, node->childNodes[i], xform, colorBias, style, update);
 2524              		.loc 1 337 3 is_stmt 0 view .LVU606
 2525 03d8 DAF83830 		ldr	r3, [r10, #56]	@ node_20(D)->nChildren, node_20(D)->nChildren
 2526 03dc 002B     		cmp	r3, #0	@ node_20(D)->nChildren,
 2527 03de A6DD     		ble	.L82		@,
 2528              	@ mini3d/scene.c:337: 		for ( i = 0; i < node->nChildren; ++i )
 337:mini3d/scene.c **** 			Scene3D_updateNode(scene, node->childNodes[i], xform, colorBias, style, update);
 2529              		.loc 1 337 11 view .LVU607
 2530 03e0 0027     		movs	r7, #0	@ i,
 2531 03e2 DDF86480 		ldr	r8, [sp, #100]	@ style, %sfp
 2532 03e6 DDF83891 		ldr	r9, [sp, #312]	@ update, update
 2533              	.LVL148:
 2534              	.L89:
ARM GAS  /var/folders/cs/83z6p2tj4w57s6p2rt8nwfp00000gn/T//cc3yBana.s 			page 68


 338:mini3d/scene.c **** 	}
 2535              		.loc 1 338 4 is_stmt 1 discriminator 3 view .LVU608
 2536 03ea DAF83C30 		ldr	r3, [r10, #60]	@ node_20(D)->childNodes, node_20(D)->childNodes
 2537 03ee 42AD     		add	r5, sp, #264	@ tmp484,,
 2538 03f0 6C46     		mov	r4, sp	@ tmp387,
 2539 03f2 B0EE680A 		vmov.f32	s0, s17	@, colorBias
 2540 03f6 53F827C0 		ldr	ip, [r3, r7, lsl #2]	@ *_10, *_10
 2541              	@ mini3d/scene.c:337: 		for ( i = 0; i < node->nChildren; ++i )
 337:mini3d/scene.c **** 			Scene3D_updateNode(scene, node->childNodes[i], xform, colorBias, style, update);
 2542              		.loc 1 337 37 is_stmt 0 discriminator 3 view .LVU609
 2543 03fa 0137     		adds	r7, r7, #1	@ i, i,
 2544              	.LVL149:
 2545              	@ mini3d/scene.c:338: 			Scene3D_updateNode(scene, node->childNodes[i], xform, colorBias, style, up
 338:mini3d/scene.c **** 	}
 2546              		.loc 1 338 4 discriminator 3 view .LVU610
 2547 03fc CDE90B89 		strd	r8, r9, [sp, #44]	@ style, update,,
 2548 0400 0FCD     		ldmia	r5!, {r0, r1, r2, r3}	@ tmp388,,,,
 2549 0402 0FC4     		stmia	r4!, {r0, r1, r2, r3}	@ tmp387,,,,
 2550 0404 0FCD     		ldmia	r5!, {r0, r1, r2, r3}	@ tmp388,,,,
 2551 0406 0FC4     		stmia	r4!, {r0, r1, r2, r3}	@ tmp387,,,,
 2552 0408 40AB     		add	r3, sp, #256	@ tmp485,,
 2553 040a 95E80700 		ldm	r5, {r0, r1, r2}	@ tmp388,,,
 2554 040e 84E80700 		stm	r4, {r0, r1, r2}	@ tmp387,,,
 2555 0412 6146     		mov	r1, ip	@, *_10
 2556 0414 3046     		mov	r0, r6	@, scene
 2557 0416 0CCB     		ldm	r3, {r2, r3}	@ tmp485,,
 2558 0418 FFF7FEFF 		bl	Scene3D_updateNode		@
 2559              	.LVL150:
 337:mini3d/scene.c **** 			Scene3D_updateNode(scene, node->childNodes[i], xform, colorBias, style, update);
 2560              		.loc 1 337 37 is_stmt 1 discriminator 3 view .LVU611
 337:mini3d/scene.c **** 			Scene3D_updateNode(scene, node->childNodes[i], xform, colorBias, style, update);
 2561              		.loc 1 337 16 discriminator 3 view .LVU612
 2562              	@ mini3d/scene.c:337: 		for ( i = 0; i < node->nChildren; ++i )
 337:mini3d/scene.c **** 			Scene3D_updateNode(scene, node->childNodes[i], xform, colorBias, style, update);
 2563              		.loc 1 337 3 is_stmt 0 discriminator 3 view .LVU613
 2564 041c DAF83830 		ldr	r3, [r10, #56]	@ node_20(D)->nChildren, node_20(D)->nChildren
 2565 0420 BB42     		cmp	r3, r7	@ node_20(D)->nChildren, i
 2566 0422 E2DC     		bgt	.L89		@,
 2567 0424 83E7     		b	.L82		@
 2568              	.LVL151:
 2569              	.L136:
 2570              	.LBB78:
 2571              	.LBB75:
 2572              	@ mini3d/scene.c:238: 	memset(shape->orderTable, 0, ordersize * sizeof(FaceInstance*));
 238:mini3d/scene.c **** #endif
 2573              		.loc 1 238 2 view .LVU614
 2574 0426 0021     		movs	r1, #0	@,
 2575 0428 BA00     		lsls	r2, r7, #2	@ _55, ordersize,
 2576 042a 606E     		ldr	r0, [r4, #100]	@ _56, shape_179->orderTable
 238:mini3d/scene.c **** #endif
 2577              		.loc 1 238 2 is_stmt 1 view .LVU615
 2578 042c FFF7FEFF 		bl	memset		@
 2579              	.LVL152:
 243:mini3d/scene.c **** 	{
 2580              		.loc 1 243 2 view .LVU616
 243:mini3d/scene.c **** 	{
 2581              		.loc 1 243 15 view .LVU617
ARM GAS  /var/folders/cs/83z6p2tj4w57s6p2rt8nwfp00000gn/T//cc3yBana.s 			page 69


 2582              	@ mini3d/scene.c:243: 	for ( i = 0; i < shape->nFaces; ++i )
 243:mini3d/scene.c **** 	{
 2583              		.loc 1 243 24 is_stmt 0 view .LVU618
 2584 0430 616C     		ldr	r1, [r4, #68]	@ _79, shape_179->nFaces
 2585              	@ mini3d/scene.c:243: 	for ( i = 0; i < shape->nFaces; ++i )
 243:mini3d/scene.c **** 	{
 2586              		.loc 1 243 2 view .LVU619
 2587 0432 0029     		cmp	r1, #0	@ _79,
 2588 0434 3FF7F8AE 		bgt	.L138		@,
 2589              	.L116:
 2590              	@ mini3d/scene.c:229: 	float zmax = 0;
 229:mini3d/scene.c **** 	int ordersize = shape->prototype->orderTableSize;
 2591              		.loc 1 229 8 view .LVU620
 2592 0438 1FED3D8A 		vldr.32	s16, .L139+12	@ zmax,
 2593              	@ mini3d/scene.c:228: 	float zmin = 1e23f;
 228:mini3d/scene.c **** 	float zmax = 0;
 2594              		.loc 1 228 8 view .LVU621
 2595 043c 1FED3DAA 		vldr.32	s20, .L139+16	@ zmin,
 2596 0440 2DE7     		b	.L95		@
 2597              	.LVL153:
 2598              	.L135:
 228:mini3d/scene.c **** 	float zmax = 0;
 2599              		.loc 1 228 8 view .LVU622
 2600 0442 04F11405 		add	r5, r4, #20	@ tmp393, shape,
 2601 0446 271D     		adds	r7, r4, #4	@ tmp392, shape,
 2602 0448 96E6     		b	.L93		@
 2603              	.LBE75:
 2604              	.LBE78:
 2605              	.LBE79:
 2606              		.cfi_endproc
 2607              	.LFE26:
 2608              		.size	Scene3D_updateNode, .-Scene3D_updateNode
 2609 044a 00BF     		.section	.text.Scene3D_deinit,"ax",%progbits
 2610              		.align	1
 2611              		.p2align 4,,15
 2612              		.global	Scene3D_deinit
 2613              		.syntax unified
 2614              		.thumb
 2615              		.thumb_func
 2616              		.fpu fpv5-sp-d16
 2617              		.type	Scene3D_deinit, %function
 2618              	Scene3D_deinit:
 2619              	.LVL154:
 2620              	.LFB28:
 361:mini3d/scene.c **** 	if ( scene->shapelist != NULL )
 2621              		.loc 1 361 1 is_stmt 1 view -0
 2622              		.cfi_startproc
 2623              		@ args = 0, pretend = 0, frame = 0
 2624              		@ frame_needed = 0, uses_anonymous_args = 0
 362:mini3d/scene.c **** 		m3d_free(scene->shapelist);
 2625              		.loc 1 362 2 view .LVU624
 2626              	@ mini3d/scene.c:361: {
 361:mini3d/scene.c **** 	if ( scene->shapelist != NULL )
 2627              		.loc 1 361 1 is_stmt 0 view .LVU625
 2628 0000 10B5     		push	{r4, lr}	@
 2629              	.LCFI31:
 2630              		.cfi_def_cfa_offset 8
ARM GAS  /var/folders/cs/83z6p2tj4w57s6p2rt8nwfp00000gn/T//cc3yBana.s 			page 70


 2631              		.cfi_offset 4, -8
 2632              		.cfi_offset 14, -4
 2633              	@ mini3d/scene.c:361: {
 361:mini3d/scene.c **** 	if ( scene->shapelist != NULL )
 2634              		.loc 1 361 1 view .LVU626
 2635 0002 0446     		mov	r4, r0	@ scene, tmp117
 2636              	@ mini3d/scene.c:362: 	if ( scene->shapelist != NULL )
 362:mini3d/scene.c **** 		m3d_free(scene->shapelist);
 2637              		.loc 1 362 12 view .LVU627
 2638 0004 D0F8A400 		ldr	r0, [r0, #164]	@ _1, scene_6(D)->shapelist
 2639              	.LVL155:
 2640              	@ mini3d/scene.c:362: 	if ( scene->shapelist != NULL )
 362:mini3d/scene.c **** 		m3d_free(scene->shapelist);
 2641              		.loc 1 362 5 view .LVU628
 2642 0008 18B1     		cbz	r0, .L142	@ _1,
 363:mini3d/scene.c **** 
 2643              		.loc 1 363 3 is_stmt 1 view .LVU629
 2644 000a 054B     		ldr	r3, .L147	@ tmp114,
 2645 000c 0021     		movs	r1, #0	@,
 2646 000e 1B68     		ldr	r3, [r3]	@ m3d_realloc, m3d_realloc
 2647 0010 9847     		blx	r3		@ m3d_realloc
 2648              	.LVL156:
 2649              	.L142:
 365:mini3d/scene.c **** }
 2650              		.loc 1 365 2 view .LVU630
 2651 0012 04F15000 		add	r0, r4, #80	@, scene,
 2652              	@ mini3d/scene.c:366: }
 366:mini3d/scene.c **** 
 2653              		.loc 1 366 1 is_stmt 0 view .LVU631
 2654 0016 BDE81040 		pop	{r4, lr}	@
 2655              	.LCFI32:
 2656              		.cfi_restore 14
 2657              		.cfi_restore 4
 2658              		.cfi_def_cfa_offset 0
 2659              	.LVL157:
 2660              	@ mini3d/scene.c:365: 	Scene3DNode_deinit(&scene->root);
 365:mini3d/scene.c **** }
 2661              		.loc 1 365 2 view .LVU632
 2662 001a FFF7FEBF 		b	Scene3DNode_deinit		@
 2663              	.LVL158:
 2664              	.L148:
 365:mini3d/scene.c **** }
 2665              		.loc 1 365 2 view .LVU633
 2666 001e 00BF     		.align	2
 2667              	.L147:
 2668 0020 00000000 		.word	m3d_realloc
 2669              		.cfi_endproc
 2670              	.LFE28:
 2671              		.size	Scene3D_deinit, .-Scene3D_deinit
 2672              		.section	.text.Scene3D_setGlobalLight,"ax",%progbits
 2673              		.align	1
 2674              		.p2align 4,,15
 2675              		.global	Scene3D_setGlobalLight
 2676              		.syntax unified
 2677              		.thumb
 2678              		.thumb_func
 2679              		.fpu fpv5-sp-d16
ARM GAS  /var/folders/cs/83z6p2tj4w57s6p2rt8nwfp00000gn/T//cc3yBana.s 			page 71


 2680              		.type	Scene3D_setGlobalLight, %function
 2681              	Scene3D_setGlobalLight:
 2682              	.LVL159:
 2683              	.LFB29:
 370:mini3d/scene.c **** 	scene->light = light;
 2684              		.loc 1 370 1 is_stmt 1 view -0
 2685              		.cfi_startproc
 2686              		@ args = 0, pretend = 0, frame = 16
 2687              		@ frame_needed = 0, uses_anonymous_args = 0
 2688              		@ link register save eliminated.
 371:mini3d/scene.c **** }
 2689              		.loc 1 371 2 view .LVU635
 2690              	@ mini3d/scene.c:370: {
 370:mini3d/scene.c **** 	scene->light = light;
 2691              		.loc 1 370 1 is_stmt 0 view .LVU636
 2692 0000 84B0     		sub	sp, sp, #16	@,,
 2693              	.LCFI33:
 2694              		.cfi_def_cfa_offset 16
 2695              	@ mini3d/scene.c:371: 	scene->light = light;
 371:mini3d/scene.c **** }
 2696              		.loc 1 371 15 view .LVU637
 2697 0002 00F13803 		add	r3, r0, #56	@ tmp114, tmp116,
 2698 0006 04AA     		add	r2, sp, #16	@ tmp120,,
 2699              	@ mini3d/scene.c:370: {
 370:mini3d/scene.c **** 	scene->light = light;
 2700              		.loc 1 370 1 view .LVU638
 2701 0008 8DED010A 		vstr.32	s0, [sp, #4]	@ tmp117, light
 2702 000c CDED020A 		vstr.32	s1, [sp, #8]	@ tmp118, light
 2703 0010 8DED031A 		vstr.32	s2, [sp, #12]	@ tmp119, light
 2704              	@ mini3d/scene.c:371: 	scene->light = light;
 371:mini3d/scene.c **** }
 2705              		.loc 1 371 15 view .LVU639
 2706 0014 12E90700 		ldmdb	r2, {r0, r1, r2}	@ tmp120,,,
 2707              	.LVL160:
 371:mini3d/scene.c **** }
 2708              		.loc 1 371 15 view .LVU640
 2709 0018 83E80700 		stm	r3, {r0, r1, r2}	@ tmp114,,,
 2710              	@ mini3d/scene.c:372: }
 372:mini3d/scene.c **** 
 2711              		.loc 1 372 1 view .LVU641
 2712 001c 04B0     		add	sp, sp, #16	@,,
 2713              	.LCFI34:
 2714              		.cfi_def_cfa_offset 0
 2715              		@ sp needed	@
 2716 001e 7047     		bx	lr	@
 2717              		.cfi_endproc
 2718              	.LFE29:
 2719              		.size	Scene3D_setGlobalLight, .-Scene3D_setGlobalLight
 2720              		.section	.text.Scene3D_setCenter,"ax",%progbits
 2721              		.align	1
 2722              		.p2align 4,,15
 2723              		.global	Scene3D_setCenter
 2724              		.syntax unified
 2725              		.thumb
 2726              		.thumb_func
 2727              		.fpu fpv5-sp-d16
 2728              		.type	Scene3D_setCenter, %function
ARM GAS  /var/folders/cs/83z6p2tj4w57s6p2rt8nwfp00000gn/T//cc3yBana.s 			page 72


 2729              	Scene3D_setCenter:
 2730              	.LVL161:
 2731              	.LFB30:
 376:mini3d/scene.c **** 	scene->centerx = x;
 2732              		.loc 1 376 1 is_stmt 1 view -0
 2733              		.cfi_startproc
 2734              		@ args = 0, pretend = 0, frame = 0
 2735              		@ frame_needed = 0, uses_anonymous_args = 0
 2736              		@ link register save eliminated.
 377:mini3d/scene.c **** 	scene->centery = y;
 2737              		.loc 1 377 2 view .LVU643
 2738              	@ mini3d/scene.c:377: 	scene->centerx = x;
 377:mini3d/scene.c **** 	scene->centery = y;
 2739              		.loc 1 377 17 is_stmt 0 view .LVU644
 2740 0000 80ED110A 		vstr.32	s0, [r0, #68]	@ tmp114, scene_2(D)->centerx
 378:mini3d/scene.c **** }
 2741              		.loc 1 378 2 is_stmt 1 view .LVU645
 2742              	@ mini3d/scene.c:378: 	scene->centery = y;
 378:mini3d/scene.c **** }
 2743              		.loc 1 378 17 is_stmt 0 view .LVU646
 2744 0004 C0ED120A 		vstr.32	s1, [r0, #72]	@ tmp115, scene_2(D)->centery
 2745              	@ mini3d/scene.c:379: }
 379:mini3d/scene.c **** 
 2746              		.loc 1 379 1 view .LVU647
 2747 0008 7047     		bx	lr	@
 2748              		.cfi_endproc
 2749              	.LFE30:
 2750              		.size	Scene3D_setCenter, .-Scene3D_setCenter
 2751 000a 00BF     		.section	.text.Scene3D_getRootNode,"ax",%progbits
 2752              		.align	1
 2753              		.p2align 4,,15
 2754              		.global	Scene3D_getRootNode
 2755              		.syntax unified
 2756              		.thumb
 2757              		.thumb_func
 2758              		.fpu fpv5-sp-d16
 2759              		.type	Scene3D_getRootNode, %function
 2760              	Scene3D_getRootNode:
 2761              	.LVL162:
 2762              	.LFB31:
 383:mini3d/scene.c **** 	return &scene->root;
 2763              		.loc 1 383 1 is_stmt 1 view -0
 2764              		.cfi_startproc
 2765              		@ args = 0, pretend = 0, frame = 0
 2766              		@ frame_needed = 0, uses_anonymous_args = 0
 2767              		@ link register save eliminated.
 384:mini3d/scene.c **** }
 2768              		.loc 1 384 2 view .LVU649
 2769              	@ mini3d/scene.c:385: }
 385:mini3d/scene.c **** 
 2770              		.loc 1 385 1 is_stmt 0 view .LVU650
 2771 0000 5030     		adds	r0, r0, #80	@, tmp113,
 2772              	.LVL163:
 385:mini3d/scene.c **** 
 2773              		.loc 1 385 1 view .LVU651
 2774 0002 7047     		bx	lr	@
 2775              		.cfi_endproc
ARM GAS  /var/folders/cs/83z6p2tj4w57s6p2rt8nwfp00000gn/T//cc3yBana.s 			page 73


 2776              	.LFE31:
 2777              		.size	Scene3D_getRootNode, .-Scene3D_getRootNode
 2778              		.section	.text.Scene3D_setCamera,"ax",%progbits
 2779              		.align	1
 2780              		.p2align 4,,15
 2781              		.global	Scene3D_setCamera
 2782              		.syntax unified
 2783              		.thumb
 2784              		.thumb_func
 2785              		.fpu fpv5-sp-d16
 2786              		.type	Scene3D_setCamera, %function
 2787              	Scene3D_setCamera:
 2788              	.LVL164:
 2789              	.LFB33:
 423:mini3d/scene.c **** 	Matrix3D camera = identityMatrix;
 2790              		.loc 1 423 1 is_stmt 1 view -0
 2791              		.cfi_startproc
 2792              		@ args = 0, pretend = 0, frame = 256
 2793              		@ frame_needed = 0, uses_anonymous_args = 0
 2794              	@ mini3d/scene.c:431: 	Vector3D dir = Vector3DMake(lookAt.x - origin.x, lookAt.y - origin.y, lookAt
 431:mini3d/scene.c **** 	
 2795              		.loc 1 431 17 is_stmt 0 view .LVU653
 2796 0000 32EE606A 		vsub.f32	s12, s4, s1	@ _7, lookAt, origin
 2797              	.LVL165:
 2798              	@ mini3d/scene.c:439: 	scene->scale = 240 * scale;
 439:mini3d/scene.c **** 
 2799              		.loc 1 439 21 view .LVU654
 2800 0004 9FEDAE5A 		vldr.32	s10, .L163	@ tmp175,
 2801              	@ mini3d/scene.c:431: 	Vector3D dir = Vector3DMake(lookAt.x - origin.x, lookAt.y - origin.y, lookAt
 431:mini3d/scene.c **** 	
 2802              		.loc 1 431 17 view .LVU655
 2803 0008 71EEC05A 		vsub.f32	s11, s3, s0	@ _5, lookAt, origin
 2804 000c 72EEC16A 		vsub.f32	s13, s5, s2	@ _9, lookAt, origin
 2805              	.LBB80:
 2806              	.LBB81:
 2807              	@ mini3d/3dmath.h:69: 	return v->dx * v->dx + v->dy * v->dy + v->dz * v->dz;
 2808              		.file 2 "mini3d/3dmath.h"
   1:mini3d/3dmath.h **** //
   2:mini3d/3dmath.h **** //  pd3d.h
   3:mini3d/3dmath.h **** //  Playdate Simulator
   4:mini3d/3dmath.h **** //
   5:mini3d/3dmath.h **** //  Created by Dave Hayden on 8/25/15.
   6:mini3d/3dmath.h **** //  Copyright (c) 2015 Panic, Inc. All rights reserved.
   7:mini3d/3dmath.h **** //
   8:mini3d/3dmath.h **** 
   9:mini3d/3dmath.h **** #ifndef __Playdate_Simulator__pd3d__
  10:mini3d/3dmath.h **** #define __Playdate_Simulator__pd3d__
  11:mini3d/3dmath.h **** 
  12:mini3d/3dmath.h **** #include <stdio.h>
  13:mini3d/3dmath.h **** #include <stdint.h>
  14:mini3d/3dmath.h **** #include <math.h>
  15:mini3d/3dmath.h **** 
  16:mini3d/3dmath.h **** #if TARGET_PLAYDATE
  17:mini3d/3dmath.h **** static inline float _lib3d_sqrtf(float x)
  18:mini3d/3dmath.h **** {
  19:mini3d/3dmath.h **** 	float result;
  20:mini3d/3dmath.h **** 	asm ("vsqrt.f32 %0, %1" : "=t"(result) : "t"(x));
ARM GAS  /var/folders/cs/83z6p2tj4w57s6p2rt8nwfp00000gn/T//cc3yBana.s 			page 74


  21:mini3d/3dmath.h **** 	return result;
  22:mini3d/3dmath.h **** }
  23:mini3d/3dmath.h **** #define sqrtf(f) _lib3d_sqrtf(f)
  24:mini3d/3dmath.h **** #endif
  25:mini3d/3dmath.h **** 
  26:mini3d/3dmath.h **** typedef struct
  27:mini3d/3dmath.h **** {
  28:mini3d/3dmath.h **** 	float x;
  29:mini3d/3dmath.h **** 	float y;
  30:mini3d/3dmath.h **** 	float z;
  31:mini3d/3dmath.h **** } Point3D;
  32:mini3d/3dmath.h **** 
  33:mini3d/3dmath.h **** static inline Point3D Point3DMake(float x, float y, float z)
  34:mini3d/3dmath.h **** {
  35:mini3d/3dmath.h **** 	return (Point3D){ .x = x, .y = y, .z = z };
  36:mini3d/3dmath.h **** }
  37:mini3d/3dmath.h **** 
  38:mini3d/3dmath.h **** static inline int Point3D_equals(Point3D a, Point3D b)
  39:mini3d/3dmath.h **** {
  40:mini3d/3dmath.h **** 	return (a.x == b.x) && (a.y == b.y) && (a.z == b.z);
  41:mini3d/3dmath.h **** }
  42:mini3d/3dmath.h **** 
  43:mini3d/3dmath.h **** typedef struct
  44:mini3d/3dmath.h **** {
  45:mini3d/3dmath.h **** 	float dx;
  46:mini3d/3dmath.h **** 	float dy;
  47:mini3d/3dmath.h **** 	float dz;
  48:mini3d/3dmath.h **** } Vector3D;
  49:mini3d/3dmath.h **** 
  50:mini3d/3dmath.h **** static inline Vector3D Vector3DMake(float dx, float dy, float dz)
  51:mini3d/3dmath.h **** {
  52:mini3d/3dmath.h **** 	return (Vector3D){ .dx = dx, .dy = dy, .dz = dz };
  53:mini3d/3dmath.h **** }
  54:mini3d/3dmath.h **** 
  55:mini3d/3dmath.h **** static inline Vector3D Vector3DCross(Vector3D a, Vector3D b)
  56:mini3d/3dmath.h **** {
  57:mini3d/3dmath.h **** 	return (Vector3D){ .dx = a.dy * b.dz - a.dz * b.dy, .dy = a.dz * b.dx - a.dx * b.dz, .dz = a.dx * 
  58:mini3d/3dmath.h **** }
  59:mini3d/3dmath.h **** 
  60:mini3d/3dmath.h **** static inline float Vector3DDot(Vector3D a, Vector3D b)
  61:mini3d/3dmath.h **** {
  62:mini3d/3dmath.h **** 	return a.dx * b.dx + a.dy * b.dy + a.dz * b.dz;
  63:mini3d/3dmath.h **** }
  64:mini3d/3dmath.h **** 
  65:mini3d/3dmath.h **** Vector3D pnormal(Point3D* p1, Point3D* p2, Point3D* p3);
  66:mini3d/3dmath.h **** 
  67:mini3d/3dmath.h **** static inline float Vector3D_lengthSquared(Vector3D* v)
  68:mini3d/3dmath.h **** {
  69:mini3d/3dmath.h **** 	return v->dx * v->dx + v->dy * v->dy + v->dz * v->dz;
 2809              		.loc 2 69 31 view .LVU656
 2810 0010 66EE067A 		vmul.f32	s15, s12, s12	@ tmp172, _7, _7
 2811              	.LVL166:
 2812              		.loc 2 69 31 view .LVU657
 2813              	.LBE81:
 2814              	.LBE80:
 2815              	@ mini3d/scene.c:439: 	scene->scale = 240 * scale;
 439:mini3d/scene.c **** 
ARM GAS  /var/folders/cs/83z6p2tj4w57s6p2rt8nwfp00000gn/T//cc3yBana.s 			page 75


 2816              		.loc 1 439 21 view .LVU658
 2817 0014 23EE053A 		vmul.f32	s6, s6, s10	@ tmp174, tmp271, tmp175
 2818              	.LVL167:
 2819              	.LBB85:
 2820              	.LBB82:
 2821              	@ mini3d/3dmath.h:69: 	return v->dx * v->dx + v->dy * v->dy + v->dz * v->dz;
 2822              		.loc 2 69 23 view .LVU659
 2823 0018 E5EEA57A 		vfma.f32	s15, s11, s11	@ _57, _5, _5
 2824              	.LBE82:
 2825              	.LBE85:
 2826              	@ mini3d/scene.c:423: {
 423:mini3d/scene.c **** 	Matrix3D camera = identityMatrix;
 2827              		.loc 1 423 1 view .LVU660
 2828 001c 2DE9F04F 		push	{r4, r5, r6, r7, r8, r9, r10, fp, lr}	@
 2829              	.LCFI35:
 2830              		.cfi_def_cfa_offset 36
 2831              		.cfi_offset 4, -36
 2832              		.cfi_offset 5, -32
 2833              		.cfi_offset 6, -28
 2834              		.cfi_offset 7, -24
 2835              		.cfi_offset 8, -20
 2836              		.cfi_offset 9, -16
 2837              		.cfi_offset 10, -12
 2838              		.cfi_offset 11, -8
 2839              		.cfi_offset 14, -4
 2840 0020 2DED088B 		vpush.64	{d8, d9, d10, d11}	@
 2841              	.LCFI36:
 2842              		.cfi_def_cfa_offset 68
 2843              		.cfi_offset 80, -68
 2844              		.cfi_offset 81, -64
 2845              		.cfi_offset 82, -60
 2846              		.cfi_offset 83, -56
 2847              		.cfi_offset 84, -52
 2848              		.cfi_offset 85, -48
 2849              		.cfi_offset 86, -44
 2850              		.cfi_offset 87, -40
 2851 0024 D9B0     		sub	sp, sp, #356	@,,
 2852              	.LCFI37:
 2853              		.cfi_def_cfa_offset 424
 2854              	@ mini3d/scene.c:424: 	Matrix3D camera = identityMatrix;
 424:mini3d/scene.c **** 	camera.isIdentity = 0;
 2855              		.loc 1 424 11 view .LVU661
 2856 0026 A74D     		ldr	r5, .L163+4	@ tmp167,
 2857              	.LBB86:
 2858              	.LBB83:
 2859              	@ mini3d/3dmath.h:69: 	return v->dx * v->dx + v->dy * v->dy + v->dz * v->dz;
 2860              		.loc 2 69 39 view .LVU662
 2861 0028 E6EEA67A 		vfma.f32	s15, s13, s13	@ _59, _9, _9
 2862              	.LBE83:
 2863              	.LBE86:
 2864              	@ mini3d/scene.c:423: {
 423:mini3d/scene.c **** 	Matrix3D camera = identityMatrix;
 2865              		.loc 1 423 1 view .LVU663
 2866 002c 0746     		mov	r7, r0	@ scene, tmp264
 2867              	.LBB87:
 2868              	.LBB88:
 2869              	@ mini3d/3dmath.h:20: 	asm ("vsqrt.f32 %0, %1" : "=t"(result) : "t"(x));
ARM GAS  /var/folders/cs/83z6p2tj4w57s6p2rt8nwfp00000gn/T//cc3yBana.s 			page 76


  20:mini3d/3dmath.h **** 	return result;
 2870              		.loc 2 20 2 view .LVU664
 2871              		.syntax unified
 2872              	@ 20 "mini3d/3dmath.h" 1
 2873 002e F1EEE77A 		vsqrt.f32 s15, s15	@ result, _59
 2874              	@ 0 "" 2
 2875              		.thumb
 2876              		.syntax unified
 2877              	.LBE88:
 2878              	.LBE87:
 2879              	@ mini3d/scene.c:435: 	dir.dx /= l;
 435:mini3d/scene.c **** 	dir.dy /= l;
 2880              		.loc 1 435 9 view .LVU665
 2881 0032 85EEA77A 		vdiv.f32	s14, s11, s15	@ _11, _5, result
 2882              	@ mini3d/scene.c:424: 	Matrix3D camera = identityMatrix;
 424:mini3d/scene.c **** 	camera.isIdentity = 0;
 2883              		.loc 1 424 11 view .LVU666
 2884 0036 31AE     		add	r6, sp, #196	@ tmp261,,
 2885              	@ mini3d/scene.c:423: {
 423:mini3d/scene.c **** 	Matrix3D camera = identityMatrix;
 2886              		.loc 1 423 1 view .LVU667
 2887 0038 CDED2E0A 		vstr.32	s1, [sp, #184]	@ origin, origin
 2888              	@ mini3d/scene.c:424: 	Matrix3D camera = identityMatrix;
 424:mini3d/scene.c **** 	camera.isIdentity = 0;
 2889              		.loc 1 424 11 view .LVU668
 2890 003c 3446     		mov	r4, r6	@ tmp166, tmp261
 2891              	@ mini3d/scene.c:423: {
 423:mini3d/scene.c **** 	Matrix3D camera = identityMatrix;
 2892              		.loc 1 423 1 view .LVU669
 2893 003e 8DED2B2A 		vstr.32	s4, [sp, #172]	@ lookAt, lookAt
 2894 0042 8DED2D0A 		vstr.32	s0, [sp, #180]	@ origin, origin
 2895 0046 CDED2A1A 		vstr.32	s3, [sp, #168]	@ lookAt, lookAt
 2896 004a 8DED2F1A 		vstr.32	s2, [sp, #188]	@ origin, origin
 2897              	@ mini3d/scene.c:436: 	dir.dy /= l;
 436:mini3d/scene.c **** 	dir.dz /= l;
 2898              		.loc 1 436 9 view .LVU670
 2899 004e 86EE27BA 		vdiv.f32	s22, s12, s15	@ _12, _7, result
 2900              	@ mini3d/scene.c:423: {
 423:mini3d/scene.c **** 	Matrix3D camera = identityMatrix;
 2901              		.loc 1 423 1 view .LVU671
 2902 0052 CDED2C2A 		vstr.32	s5, [sp, #176]	@ lookAt, lookAt
 2903 0056 CDED273A 		vstr.32	s7, [sp, #156]	@ up, up
 2904 005a 8DED284A 		vstr.32	s8, [sp, #160]	@ up, up
 2905 005e CDED294A 		vstr.32	s9, [sp, #164]	@ tmp274, up
 2906              	@ mini3d/scene.c:437: 	dir.dz /= l;
 437:mini3d/scene.c **** 	
 2907              		.loc 1 437 9 view .LVU672
 2908 0062 86EEA76A 		vdiv.f32	s12, s13, s15	@ _13, _9, result
 2909              	@ mini3d/scene.c:423: {
 423:mini3d/scene.c **** 	Matrix3D camera = identityMatrix;
 2910              		.loc 1 423 1 view .LVU673
 2911 0066 B0EE63AA 		vmov.f32	s20, s7	@ up, tmp272
 2912              	.LVL168:
 2913              	@ mini3d/scene.c:445: 	if ( dir.dx != 0 || dir.dz != 0 )
 445:mini3d/scene.c **** 	{
 2914              		.loc 1 445 19 view .LVU674
 2915 006a B5EE407A 		vcmp.f32	s14, #0	@ _11
ARM GAS  /var/folders/cs/83z6p2tj4w57s6p2rt8nwfp00000gn/T//cc3yBana.s 			page 77


 2916              	@ mini3d/scene.c:428: 	camera.dy = -origin.y;
 428:mini3d/scene.c **** 	camera.dz = -origin.z;
 2917              		.loc 1 428 14 view .LVU675
 2918 006e F1EE609A 		vneg.f32	s19, s1	@ camera$44, origin
 2919              	@ mini3d/scene.c:423: {
 423:mini3d/scene.c **** 	Matrix3D camera = identityMatrix;
 2920              		.loc 1 423 1 view .LVU676
 2921 0072 F0EE44AA 		vmov.f32	s21, s8	@ up, tmp273
 2922              	.LVL169:
 424:mini3d/scene.c **** 	camera.isIdentity = 0;
 2923              		.loc 1 424 2 is_stmt 1 view .LVU677
 2924              	@ mini3d/scene.c:445: 	if ( dir.dx != 0 || dir.dz != 0 )
 445:mini3d/scene.c **** 	{
 2925              		.loc 1 445 19 is_stmt 0 view .LVU678
 2926 0076 F1EE10FA 		vmrs	APSR_nzcv, FPSCR
 2927              	@ mini3d/scene.c:427: 	camera.dx = -origin.x;
 427:mini3d/scene.c **** 	camera.dy = -origin.y;
 2928              		.loc 1 427 14 view .LVU679
 2929 007a B1EE409A 		vneg.f32	s18, s0	@ camera$40, origin
 2930              	@ mini3d/scene.c:429: 	camera.dz = -origin.z;
 429:mini3d/scene.c **** 
 2931              		.loc 1 429 14 view .LVU680
 2932 007e B1EE418A 		vneg.f32	s16, s2	@ camera$48, origin
 2933              	@ mini3d/scene.c:424: 	Matrix3D camera = identityMatrix;
 424:mini3d/scene.c **** 	camera.isIdentity = 0;
 2934              		.loc 1 424 11 view .LVU681
 2935 0082 0FCD     		ldmia	r5!, {r0, r1, r2, r3}	@ tmp167,,,,
 2936              	.LVL170:
 424:mini3d/scene.c **** 	camera.isIdentity = 0;
 2937              		.loc 1 424 11 view .LVU682
 2938 0084 0FC4     		stmia	r4!, {r0, r1, r2, r3}	@ tmp166,,,,
 2939 0086 0FCD     		ldmia	r5!, {r0, r1, r2, r3}	@ tmp167,,,,
 2940 0088 0FC4     		stmia	r4!, {r0, r1, r2, r3}	@ tmp166,,,,
 2941 008a 0FCD     		ldmia	r5!, {r0, r1, r2, r3}	@ tmp167,,,,
 2942 008c 0FC4     		stmia	r4!, {r0, r1, r2, r3}	@ tmp166,,,,
 2943 008e 2B68     		ldr	r3, [r5]	@ identityMatrix, identityMatrix
 2944              	@ mini3d/scene.c:439: 	scene->scale = 240 * scale;
 439:mini3d/scene.c **** 
 2945              		.loc 1 439 15 view .LVU683
 2946 0090 87ED133A 		vstr.32	s6, [r7, #76]	@ tmp174, scene_38(D)->scale
 2947              	@ mini3d/scene.c:424: 	Matrix3D camera = identityMatrix;
 424:mini3d/scene.c **** 	camera.isIdentity = 0;
 2948              		.loc 1 424 11 view .LVU684
 2949 0094 2360     		str	r3, [r4]	@ identityMatrix, camera
 2950              	.LVL171:
 425:mini3d/scene.c **** 	
 2951              		.loc 1 425 2 is_stmt 1 view .LVU685
 427:mini3d/scene.c **** 	camera.dy = -origin.y;
 2952              		.loc 1 427 2 view .LVU686
 428:mini3d/scene.c **** 	camera.dz = -origin.z;
 2953              		.loc 1 428 2 view .LVU687
 429:mini3d/scene.c **** 
 2954              		.loc 1 429 2 view .LVU688
 431:mini3d/scene.c **** 	
 2955              		.loc 1 431 2 view .LVU689
  52:mini3d/3dmath.h **** }
 2956              		.loc 2 52 2 view .LVU690
ARM GAS  /var/folders/cs/83z6p2tj4w57s6p2rt8nwfp00000gn/T//cc3yBana.s 			page 78


 433:mini3d/scene.c **** 	
 2957              		.loc 1 433 2 view .LVU691
 2958              	.LBB90:
 2959              	.LBI80:
  67:mini3d/3dmath.h **** {
 2960              		.loc 2 67 21 view .LVU692
 2961              	.LBB84:
 2962              		.loc 2 69 2 view .LVU693
 2963              		.loc 2 69 2 is_stmt 0 view .LVU694
 2964              	.LBE84:
 2965              	.LBE90:
 2966              	.LBB91:
 2967              	.LBI87:
  17:mini3d/3dmath.h **** {
 2968              		.loc 2 17 21 is_stmt 1 view .LVU695
 2969              	.LBB89:
  19:mini3d/3dmath.h **** 	asm ("vsqrt.f32 %0, %1" : "=t"(result) : "t"(x));
 2970              		.loc 2 19 2 view .LVU696
  20:mini3d/3dmath.h **** 	return result;
 2971              		.loc 2 20 2 view .LVU697
  21:mini3d/3dmath.h **** }
 2972              		.loc 2 21 2 view .LVU698
  21:mini3d/3dmath.h **** }
 2973              		.loc 2 21 2 is_stmt 0 view .LVU699
 2974              	.LBE89:
 2975              	.LBE91:
 435:mini3d/scene.c **** 	dir.dy /= l;
 2976              		.loc 1 435 2 is_stmt 1 view .LVU700
 436:mini3d/scene.c **** 	dir.dz /= l;
 2977              		.loc 1 436 2 view .LVU701
 437:mini3d/scene.c **** 	
 2978              		.loc 1 437 2 view .LVU702
 439:mini3d/scene.c **** 
 2979              		.loc 1 439 2 view .LVU703
 443:mini3d/scene.c **** 
 2980              		.loc 1 443 2 view .LVU704
 445:mini3d/scene.c **** 	{
 2981              		.loc 1 445 2 view .LVU705
 2982              	@ mini3d/scene.c:445: 	if ( dir.dx != 0 || dir.dz != 0 )
 445:mini3d/scene.c **** 	{
 2983              		.loc 1 445 19 is_stmt 0 view .LVU706
 2984 0096 10D1     		bne	.L160		@,
 2985 0098 B5EE406A 		vcmp.f32	s12, #0	@ _13
 2986 009c F1EE10FA 		vmrs	APSR_nzcv, FPSCR
 2987 00a0 14BF     		ite	ne
 2988 00a2 4FF0010A 		movne	r10, #1	@ tmp181,
 2989 00a6 4FF0000A 		moveq	r10, #0	@ tmp181,
 2990 00aa 06D1     		bne	.L160		@,
 2991              	@ mini3d/scene.c:443: 	float h = 0;
 443:mini3d/scene.c **** 
 2992              		.loc 1 443 8 view .LVU707
 2993 00ac DFED868A 		vldr.32	s17, .L163+8	@ result,
 2994 00b0 0DF12809 		add	r9, sp, #40	@ tmp263,,
 2995 00b4 0DF1D008 		add	r8, sp, #208	@ tmp262,,
 2996 00b8 56E0     		b	.L154		@
 2997              	.L160:
 2998              	.LBB92:
ARM GAS  /var/folders/cs/83z6p2tj4w57s6p2rt8nwfp00000gn/T//cc3yBana.s 			page 79


 447:mini3d/scene.c **** 		
 2999              		.loc 1 447 3 is_stmt 1 view .LVU708
 3000              	@ mini3d/scene.c:447: 		h = sqrtf(dir.dx * dir.dx + dir.dz * dir.dz);
 447:mini3d/scene.c **** 		
 3001              		.loc 1 447 7 is_stmt 0 view .LVU709
 3002 00ba 66EE068A 		vmul.f32	s17, s12, s12	@ tmp182, _13, _13
 3003              	@ mini3d/scene.c:449: 		Matrix3D yaw = Matrix3DMake(dir.dz/h, 0, -dir.dx/h, 0, 1, 0, dir.dx/h, 0, d
 449:mini3d/scene.c **** 		camera = Matrix3D_multiply(camera, yaw);
 3004              		.loc 1 449 18 view .LVU710
 3005 00be DFED823A 		vldr.32	s7, .L163+8	@,
 3006              	.LVL172:
 3007              	@ mini3d/scene.c:449: 		Matrix3D yaw = Matrix3DMake(dir.dz/h, 0, -dir.dx/h, 0, 1, 0, dir.dx/h, 0, d
 449:mini3d/scene.c **** 		camera = Matrix3D_multiply(camera, yaw);
 3008              		.loc 1 449 44 view .LVU711
 3009 00c2 B1EE471A 		vneg.f32	s2, s14	@ tmp189, _11
 3010              	.LVL173:
 3011              	@ mini3d/scene.c:450: 		camera = Matrix3D_multiply(camera, yaw);
 450:mini3d/scene.c **** 	}
 3012              		.loc 1 450 12 view .LVU712
 3013 00c6 0DF12809 		add	r9, sp, #40	@ tmp263,,
 3014 00ca 4BAC     		add	r4, sp, #300	@ tmp276,,
 3015              	@ mini3d/scene.c:449: 		Matrix3D yaw = Matrix3DMake(dir.dz/h, 0, -dir.dx/h, 0, 1, 0, dir.dx/h, 0, d
 449:mini3d/scene.c **** 		camera = Matrix3D_multiply(camera, yaw);
 3016              		.loc 1 449 18 view .LVU713
 3017 00cc F0EE632A 		vmov.f32	s5, s7	@,
 3018              	@ mini3d/scene.c:447: 		h = sqrtf(dir.dx * dir.dx + dir.dz * dir.dz);
 447:mini3d/scene.c **** 		
 3019              		.loc 1 447 7 view .LVU714
 3020 00d0 E7EE078A 		vfma.f32	s17, s14, s14	@ _17, _11, _11
 3021              	.LVL174:
 3022              	.LBB93:
 3023              	.LBI93:
  17:mini3d/3dmath.h **** {
 3024              		.loc 2 17 21 is_stmt 1 view .LVU715
 3025              	.LBB94:
  19:mini3d/3dmath.h **** 	asm ("vsqrt.f32 %0, %1" : "=t"(result) : "t"(x));
 3026              		.loc 2 19 2 view .LVU716
  20:mini3d/3dmath.h **** 	return result;
 3027              		.loc 2 20 2 view .LVU717
 3028              	.LBE94:
 3029              	.LBE93:
 3030              	@ mini3d/scene.c:449: 		Matrix3D yaw = Matrix3DMake(dir.dz/h, 0, -dir.dx/h, 0, 1, 0, dir.dx/h, 0, d
 449:mini3d/scene.c **** 		camera = Matrix3D_multiply(camera, yaw);
 3031              		.loc 1 449 18 is_stmt 0 view .LVU718
 3032 00d4 4BA8     		add	r0, sp, #300	@ tmp275,,
 3033              	.LBB96:
 3034              	.LBB95:
 3035              	@ mini3d/3dmath.h:20: 	asm ("vsqrt.f32 %0, %1" : "=t"(result) : "t"(x));
  20:mini3d/3dmath.h **** 	return result;
 3036              		.loc 2 20 2 view .LVU719
 3037              		.syntax unified
 3038              	@ 20 "mini3d/3dmath.h" 1
 3039 00d6 F1EEE88A 		vsqrt.f32 s17, s17	@ result, _17
 3040              	@ 0 "" 2
 3041              	.LVL175:
  21:mini3d/3dmath.h **** }
 3042              		.loc 2 21 2 is_stmt 1 view .LVU720
ARM GAS  /var/folders/cs/83z6p2tj4w57s6p2rt8nwfp00000gn/T//cc3yBana.s 			page 80


  21:mini3d/3dmath.h **** }
 3043              		.loc 2 21 2 is_stmt 0 view .LVU721
 3044              		.thumb
 3045              		.syntax unified
 3046              	.LBE95:
 3047              	.LBE96:
 449:mini3d/scene.c **** 		camera = Matrix3D_multiply(camera, yaw);
 3048              		.loc 1 449 3 is_stmt 1 view .LVU722
 3049              	@ mini3d/scene.c:449: 		Matrix3D yaw = Matrix3DMake(dir.dz/h, 0, -dir.dx/h, 0, 1, 0, dir.dx/h, 0, d
 449:mini3d/scene.c **** 		camera = Matrix3D_multiply(camera, yaw);
 3050              		.loc 1 449 18 is_stmt 0 view .LVU723
 3051 00da 86EE284A 		vdiv.f32	s8, s12, s17	@ _18, _13, result
 3052              	.LVL176:
 449:mini3d/scene.c **** 		camera = Matrix3D_multiply(camera, yaw);
 3053              		.loc 1 449 18 view .LVU724
 3054 00de 0021     		movs	r1, #0	@,
 3055              	@ mini3d/scene.c:450: 		camera = Matrix3D_multiply(camera, yaw);
 450:mini3d/scene.c **** 	}
 3056              		.loc 1 450 12 view .LVU725
 3057 00e0 4D46     		mov	r5, r9	@ tmp195, tmp263
 3058 00e2 0DF1D008 		add	r8, sp, #208	@ tmp262,,
 3059              	@ mini3d/scene.c:449: 		Matrix3D yaw = Matrix3DMake(dir.dz/h, 0, -dir.dx/h, 0, 1, 0, dir.dx/h, 0, d
 449:mini3d/scene.c **** 		camera = Matrix3D_multiply(camera, yaw);
 3060              		.loc 1 449 18 view .LVU726
 3061 00e6 87EE283A 		vdiv.f32	s6, s14, s17	@, _11, result
 3062 00ea 81EE281A 		vdiv.f32	s2, s2, s17	@, tmp189, result
 3063 00ee F0EE631A 		vmov.f32	s3, s7	@,
 3064 00f2 B0EE440A 		vmov.f32	s0, s8	@,
 3065              	.LVL177:
 449:mini3d/scene.c **** 		camera = Matrix3D_multiply(camera, yaw);
 3066              		.loc 1 449 18 view .LVU727
 3067 00f6 F0EE630A 		vmov.f32	s1, s7	@,
 3068              	.LVL178:
 449:mini3d/scene.c **** 		camera = Matrix3D_multiply(camera, yaw);
 3069              		.loc 1 449 18 view .LVU728
 3070 00fa B7EE002A 		vmov.f32	s4, #1.0e+0	@,
 3071 00fe FFF7FEFF 		bl	Matrix3DMake		@
 3072              	.LVL179:
 450:mini3d/scene.c **** 	}
 3073              		.loc 1 450 3 is_stmt 1 view .LVU729
 3074              	@ mini3d/scene.c:450: 		camera = Matrix3D_multiply(camera, yaw);
 450:mini3d/scene.c **** 	}
 3075              		.loc 1 450 12 is_stmt 0 view .LVU730
 3076 0102 8DED3B9A 		vstr.32	s18, [sp, #236]	@ camera$40, MEM[(struct  *)&camera + 40B]
 3077 0106 CDED3C9A 		vstr.32	s19, [sp, #240]	@ camera$44, MEM[(struct  *)&camera + 44B]
 3078 010a C446     		mov	ip, r8	@ tmp199, tmp262
 3079 010c 8DED3D8A 		vstr.32	s16, [sp, #244]	@ camera$48, MEM[(struct  *)&camera + 48B]
 3080 0110 0FCC     		ldmia	r4!, {r0, r1, r2, r3}	@ tmp196,,,,
 3081 0112 0FC5     		stmia	r5!, {r0, r1, r2, r3}	@ tmp195,,,,
 3082 0114 0FCC     		ldmia	r4!, {r0, r1, r2, r3}	@ tmp196,,,,
 3083 0116 0FC5     		stmia	r5!, {r0, r1, r2, r3}	@ tmp195,,,,
 3084 0118 0FCC     		ldmia	r4!, {r0, r1, r2, r3}	@ tmp196,,,,
 3085 011a 9DF8C4E0 		ldrb	lr, [sp, #196]	@ zero_extendqisi2	@, camera.isIdentity
 3086 011e D4F800A0 		ldr	r10, [r4]	@ yaw, yaw
 3087 0122 6C46     		mov	r4, sp	@ tmp198,
 3088 0124 6FF3000E 		bfc	lr, #0, #1	@ camera.isIdentity,,
 3089 0128 0FC5     		stmia	r5!, {r0, r1, r2, r3}	@ tmp195,,,,
ARM GAS  /var/folders/cs/83z6p2tj4w57s6p2rt8nwfp00000gn/T//cc3yBana.s 			page 81


 3090 012a 8DF8C4E0 		strb	lr, [sp, #196]	@ camera.isIdentity, camera.isIdentity
 3091 012e C5F800A0 		str	r10, [r5]	@ yaw,
 3092 0132 BCE80F00 		ldmia	ip!, {r0, r1, r2, r3}	@ tmp199,,,,
 3093 0136 0FC4     		stmia	r4!, {r0, r1, r2, r3}	@ tmp198,,,,
 3094 0138 BCE80F00 		ldmia	ip!, {r0, r1, r2, r3}	@ tmp199,,,,
 3095 013c 0FC4     		stmia	r4!, {r0, r1, r2, r3}	@ tmp198,,,,
 3096 013e 9CE80300 		ldm	ip, {r0, r1}	@ tmp199,,
 3097 0142 84E80300 		stm	r4, {r0, r1}	@ tmp198,,
 3098 0146 3046     		mov	r0, r6	@, tmp261
 3099 0148 96E80E00 		ldm	r6, {r1, r2, r3}	@ tmp261,,,
 3100 014c FFF7FEFF 		bl	Matrix3D_multiply		@
 3101              	.LVL180:
 3102 0150 9DF8C4A0 		ldrb	r10, [sp, #196]	@ zero_extendqisi2	@ camera, camera
 3103 0154 9DED3B9A 		vldr.32	s18, [sp, #236]	@ camera$40, MEM[(struct  *)&camera + 40B]
 3104 0158 4AF3000A 		sbfx	r10, r10, #0, #1	@ tmp204, camera,,
 3105 015c DDED3C9A 		vldr.32	s19, [sp, #240]	@ camera$44, MEM[(struct  *)&camera + 44B]
 3106 0160 9DED3D8A 		vldr.32	s16, [sp, #244]	@ camera$48, MEM[(struct  *)&camera + 48B]
 3107 0164 4FFA8AFA 		sxtb	r10, r10	@ camera$isIdentity, tmp204
 3108              	.LVL181:
 3109              	.L154:
 450:mini3d/scene.c **** 	}
 3110              		.loc 1 450 12 view .LVU731
 3111              	.LBE92:
 455:mini3d/scene.c **** 	camera = Matrix3D_multiply(camera, pitch);
 3112              		.loc 1 455 2 is_stmt 1 view .LVU732
 3113              	@ mini3d/scene.c:455: 	Matrix3D pitch = Matrix3DMake(1, 0, 0, 0, h, -dir.dy, 0, dir.dy, h, 0);
 455:mini3d/scene.c **** 	camera = Matrix3D_multiply(camera, pitch);
 3114              		.loc 1 455 19 is_stmt 0 view .LVU733
 3115 0168 9FED573A 		vldr.32	s6, .L163+8	@,
 3116              	@ mini3d/scene.c:456: 	camera = Matrix3D_multiply(camera, pitch);
 456:mini3d/scene.c **** 
 3117              		.loc 1 456 11 view .LVU734
 3118 016c 3EAC     		add	r4, sp, #248	@ tmp278,,
 3119              	@ mini3d/scene.c:455: 	Matrix3D pitch = Matrix3DMake(1, 0, 0, 0, h, -dir.dy, 0, dir.dy, h, 0);
 455:mini3d/scene.c **** 	camera = Matrix3D_multiply(camera, pitch);
 3120              		.loc 1 455 19 view .LVU735
 3121 016e B0EE684A 		vmov.f32	s8, s17	@, result
 3122 0172 0021     		movs	r1, #0	@,
 3123 0174 F0EE431A 		vmov.f32	s3, s6	@,
 3124 0178 3EA8     		add	r0, sp, #248	@ tmp277,,
 3125 017a B0EE431A 		vmov.f32	s2, s6	@,
 3126              	@ mini3d/scene.c:456: 	camera = Matrix3D_multiply(camera, pitch);
 456:mini3d/scene.c **** 
 3127              		.loc 1 456 11 view .LVU736
 3128 017e 4D46     		mov	r5, r9	@ tmp214, tmp263
 3129              	@ mini3d/scene.c:455: 	Matrix3D pitch = Matrix3DMake(1, 0, 0, 0, h, -dir.dy, 0, dir.dy, h, 0);
 455:mini3d/scene.c **** 	camera = Matrix3D_multiply(camera, pitch);
 3130              		.loc 1 455 19 view .LVU737
 3131 0180 B0EE682A 		vmov.f32	s4, s17	@, tmp24
 3132 0184 F0EE430A 		vmov.f32	s1, s6	@,
 3133 0188 F0EE4B3A 		vmov.f32	s7, s22	@, _12
 3134 018c F1EE4B2A 		vneg.f32	s5, s22	@, tmp23
 3135 0190 B7EE000A 		vmov.f32	s0, #1.0e+0	@,
 3136 0194 FFF7FEFF 		bl	Matrix3DMake		@
 3137              	.LVL182:
 456:mini3d/scene.c **** 
 3138              		.loc 1 456 2 is_stmt 1 view .LVU738
ARM GAS  /var/folders/cs/83z6p2tj4w57s6p2rt8nwfp00000gn/T//cc3yBana.s 			page 82


 3139              	@ mini3d/scene.c:456: 	camera = Matrix3D_multiply(camera, pitch);
 456:mini3d/scene.c **** 
 3140              		.loc 1 456 11 is_stmt 0 view .LVU739
 3141 0198 8DED3B9A 		vstr.32	s18, [sp, #236]	@ camera$40, MEM[(struct  *)&camera + 40B]
 3142 019c CDED3C9A 		vstr.32	s19, [sp, #240]	@ camera$44, MEM[(struct  *)&camera + 44B]
 3143 01a0 C446     		mov	ip, r8	@ tmp218, tmp262
 3144 01a2 8DED3D8A 		vstr.32	s16, [sp, #244]	@ camera$48, MEM[(struct  *)&camera + 48B]
 3145 01a6 0FCC     		ldmia	r4!, {r0, r1, r2, r3}	@ tmp215,,,,
 3146 01a8 0FC5     		stmia	r5!, {r0, r1, r2, r3}	@ tmp214,,,,
 3147 01aa 0FCC     		ldmia	r4!, {r0, r1, r2, r3}	@ tmp215,,,,
 3148 01ac 0FC5     		stmia	r5!, {r0, r1, r2, r3}	@ tmp214,,,,
 3149 01ae 0FCC     		ldmia	r4!, {r0, r1, r2, r3}	@ tmp215,,,,
 3150 01b0 9DF8C4E0 		ldrb	lr, [sp, #196]	@ zero_extendqisi2	@, camera.isIdentity
 3151 01b4 D4F800B0 		ldr	fp, [r4]	@ pitch, pitch
 3152 01b8 6C46     		mov	r4, sp	@ tmp217,
 3153 01ba 6AF3000E 		bfi	lr, r10, #0, #1	@ camera.isIdentity, camera$isIdentity,,
 3154 01be 0FC5     		stmia	r5!, {r0, r1, r2, r3}	@ tmp214,,,,
 3155 01c0 8DF8C4E0 		strb	lr, [sp, #196]	@ camera.isIdentity, camera.isIdentity
 3156 01c4 C5F800B0 		str	fp, [r5]	@ pitch,
 3157 01c8 18AD     		add	r5, sp, #96	@ tmp280,,
 3158 01ca BCE80F00 		ldmia	ip!, {r0, r1, r2, r3}	@ tmp218,,,,
 3159 01ce 0FC4     		stmia	r4!, {r0, r1, r2, r3}	@ tmp217,,,,
 3160 01d0 BCE80F00 		ldmia	ip!, {r0, r1, r2, r3}	@ tmp218,,,,
 3161 01d4 0FC4     		stmia	r4!, {r0, r1, r2, r3}	@ tmp217,,,,
 3162 01d6 9CE80300 		ldm	ip, {r0, r1}	@ tmp218,,
 3163 01da 84E80300 		stm	r4, {r0, r1}	@ tmp217,,
 3164 01de 18A8     		add	r0, sp, #96	@ tmp279,,
 3165 01e0 3446     		mov	r4, r6	@ tmp222, tmp261
 3166 01e2 96E80E00 		ldm	r6, {r1, r2, r3}	@ tmp261,,,
 3167 01e6 FFF7FEFF 		bl	Matrix3D_multiply		@
 3168              	.LVL183:
 3169              	@ mini3d/scene.c:460: 	if ( up.dx != 0 || up.dy != 0 )
 460:mini3d/scene.c **** 	{
 3170              		.loc 1 460 18 view .LVU740
 3171 01ea F5EE40AA 		vcmp.f32	s21, #0	@ up
 3172              	@ mini3d/scene.c:456: 	camera = Matrix3D_multiply(camera, pitch);
 456:mini3d/scene.c **** 
 3173              		.loc 1 456 11 view .LVU741
 3174 01ee 0FCD     		ldmia	r5!, {r0, r1, r2, r3}	@ tmp223,,,,
 3175 01f0 0FC4     		stmia	r4!, {r0, r1, r2, r3}	@ tmp222,,,,
 3176 01f2 0FCD     		ldmia	r5!, {r0, r1, r2, r3}	@ tmp223,,,,
 3177 01f4 0FC4     		stmia	r4!, {r0, r1, r2, r3}	@ tmp222,,,,
 3178 01f6 0FCD     		ldmia	r5!, {r0, r1, r2, r3}	@ tmp223,,,,
 3179              	@ mini3d/scene.c:460: 	if ( up.dx != 0 || up.dy != 0 )
 460:mini3d/scene.c **** 	{
 3180              		.loc 1 460 18 view .LVU742
 3181 01f8 F1EE10FA 		vmrs	APSR_nzcv, FPSCR
 3182              	@ mini3d/scene.c:456: 	camera = Matrix3D_multiply(camera, pitch);
 456:mini3d/scene.c **** 
 3183              		.loc 1 456 11 view .LVU743
 3184 01fc 0FC4     		stmia	r4!, {r0, r1, r2, r3}	@ tmp222,,,,
 3185 01fe 2B68     		ldr	r3, [r5]	@ tmp224,
 3186 0200 2360     		str	r3, [r4]	@ tmp224, camera
 3187              	.LVL184:
 460:mini3d/scene.c **** 	{
 3188              		.loc 1 460 2 is_stmt 1 view .LVU744
 3189              	@ mini3d/scene.c:460: 	if ( up.dx != 0 || up.dy != 0 )
ARM GAS  /var/folders/cs/83z6p2tj4w57s6p2rt8nwfp00000gn/T//cc3yBana.s 			page 83


 460:mini3d/scene.c **** 	{
 3190              		.loc 1 460 18 is_stmt 0 view .LVU745
 3191 0202 0ED1     		bne	.L161		@,
 3192 0204 B5EE40AA 		vcmp.f32	s20, #0	@ up
 3193 0208 F1EE10FA 		vmrs	APSR_nzcv, FPSCR
 3194 020c 09D1     		bne	.L161		@,
 468:mini3d/scene.c **** 
 3195              		.loc 1 468 3 is_stmt 1 view .LVU746
 3196              	@ mini3d/scene.c:468: 		scene->camera = camera;
 468:mini3d/scene.c **** 
 3197              		.loc 1 468 17 is_stmt 0 view .LVU747
 3198 020e 3C1D     		adds	r4, r7, #4	@ tmp253, scene,
 3199 0210 0FCE     		ldmia	r6!, {r0, r1, r2, r3}	@ tmp254,,,,
 3200              	.LVL185:
 468:mini3d/scene.c **** 
 3201              		.loc 1 468 17 view .LVU748
 3202 0212 0FC4     		stmia	r4!, {r0, r1, r2, r3}	@ tmp253,,,,
 3203 0214 0FCE     		ldmia	r6!, {r0, r1, r2, r3}	@ tmp254,,,,
 3204              	.LVL186:
 468:mini3d/scene.c **** 
 3205              		.loc 1 468 17 view .LVU749
 3206 0216 0FC4     		stmia	r4!, {r0, r1, r2, r3}	@ tmp253,,,,
 3207 0218 0FCE     		ldmia	r6!, {r0, r1, r2, r3}	@ tmp254,,,,
 3208              	.LVL187:
 468:mini3d/scene.c **** 
 3209              		.loc 1 468 17 view .LVU750
 3210 021a 3568     		ldr	r5, [r6]	@ camera, camera
 3211 021c 0FC4     		stmia	r4!, {r0, r1, r2, r3}	@ tmp253,,,,
 3212 021e 2560     		str	r5, [r4]	@ camera, scene_38(D)->camera
 3213 0220 43E0     		b	.L158		@
 3214              	.LVL188:
 3215              	.L161:
 3216              	.LBB97:
 462:mini3d/scene.c **** 		Matrix3D roll = Matrix3DMake(up.dy/l, up.dx/l, 0, -up.dx/l, up.dy/l, 0, 0, 0, 1, 0);
 3217              		.loc 1 462 3 is_stmt 1 view .LVU751
 3218              	@ mini3d/scene.c:462: 		l = sqrtf(up.dx * up.dx + up.dy * up.dy);
 462:mini3d/scene.c **** 		Matrix3D roll = Matrix3DMake(up.dy/l, up.dx/l, 0, -up.dx/l, up.dy/l, 0, 0, 0, 1, 0);
 3219              		.loc 1 462 7 is_stmt 0 view .LVU752
 3220 0222 6AEEAA0A 		vmul.f32	s1, s21, s21	@ tmp231, up, up
 3221              	@ mini3d/scene.c:463: 		Matrix3D roll = Matrix3DMake(up.dy/l, up.dx/l, 0, -up.dx/l, up.dy/l, 0, 0, 
 463:mini3d/scene.c **** 	
 3222              		.loc 1 463 19 view .LVU753
 3223 0226 DFED283A 		vldr.32	s7, .L163+8	@,
 3224              	@ mini3d/scene.c:463: 		Matrix3D roll = Matrix3DMake(up.dy/l, up.dx/l, 0, -up.dx/l, up.dy/l, 0, 0, 
 463:mini3d/scene.c **** 	
 3225              		.loc 1 463 53 view .LVU754
 3226 022a F1EE4A1A 		vneg.f32	s3, s20	@ tmp237, up
 3227              	@ mini3d/scene.c:465: 		scene->camera = Matrix3D_multiply(camera, roll);
 465:mini3d/scene.c **** 	}
 3228              		.loc 1 465 19 view .LVU755
 3229 022e 4BAD     		add	r5, sp, #300	@ tmp282,,
 3230              	@ mini3d/scene.c:463: 		Matrix3D roll = Matrix3DMake(up.dy/l, up.dx/l, 0, -up.dx/l, up.dy/l, 0, 0, 
 463:mini3d/scene.c **** 	
 3231              		.loc 1 463 19 view .LVU756
 3232 0230 B0EE633A 		vmov.f32	s6, s7	@,
 3233 0234 4BA8     		add	r0, sp, #300	@ tmp281,,
 3234              	@ mini3d/scene.c:462: 		l = sqrtf(up.dx * up.dx + up.dy * up.dy);
ARM GAS  /var/folders/cs/83z6p2tj4w57s6p2rt8nwfp00000gn/T//cc3yBana.s 			page 84


 462:mini3d/scene.c **** 		Matrix3D roll = Matrix3DMake(up.dy/l, up.dx/l, 0, -up.dx/l, up.dy/l, 0, 0, 0, 1, 0);
 3235              		.loc 1 462 7 view .LVU757
 3236 0236 EAEE0A0A 		vfma.f32	s1, s20, s20	@ _25, up, up
 3237              	.LVL189:
 3238              	.LBB98:
 3239              	.LBI98:
  17:mini3d/3dmath.h **** {
 3240              		.loc 2 17 21 is_stmt 1 view .LVU758
 3241              	.LBB99:
  19:mini3d/3dmath.h **** 	asm ("vsqrt.f32 %0, %1" : "=t"(result) : "t"(x));
 3242              		.loc 2 19 2 view .LVU759
  20:mini3d/3dmath.h **** 	return result;
 3243              		.loc 2 20 2 view .LVU760
 3244              	.LBE99:
 3245              	.LBE98:
 3246              	@ mini3d/scene.c:463: 		Matrix3D roll = Matrix3DMake(up.dy/l, up.dx/l, 0, -up.dx/l, up.dy/l, 0, 0, 
 463:mini3d/scene.c **** 	
 3247              		.loc 1 463 19 is_stmt 0 view .LVU761
 3248 023a 0021     		movs	r1, #0	@,
 3249              	.LBB101:
 3250              	.LBB100:
 3251              	@ mini3d/3dmath.h:20: 	asm ("vsqrt.f32 %0, %1" : "=t"(result) : "t"(x));
  20:mini3d/3dmath.h **** 	return result;
 3252              		.loc 2 20 2 view .LVU762
 3253              		.syntax unified
 3254              	@ 20 "mini3d/3dmath.h" 1
 3255 023c F1EEE00A 		vsqrt.f32 s1, s1	@ result, _25
 3256              	@ 0 "" 2
 3257              	.LVL190:
  21:mini3d/3dmath.h **** }
 3258              		.loc 2 21 2 is_stmt 1 view .LVU763
  21:mini3d/3dmath.h **** }
 3259              		.loc 2 21 2 is_stmt 0 view .LVU764
 3260              		.thumb
 3261              		.syntax unified
 3262              	.LBE100:
 3263              	.LBE101:
 463:mini3d/scene.c **** 	
 3264              		.loc 1 463 3 is_stmt 1 view .LVU765
 3265              	@ mini3d/scene.c:463: 		Matrix3D roll = Matrix3DMake(up.dy/l, up.dx/l, 0, -up.dx/l, up.dy/l, 0, 0, 
 463:mini3d/scene.c **** 	
 3266              		.loc 1 463 19 is_stmt 0 view .LVU766
 3267 0240 8AEEA02A 		vdiv.f32	s4, s21, s1	@ _26, up, result
 3268              	@ mini3d/scene.c:465: 		scene->camera = Matrix3D_multiply(camera, roll);
 465:mini3d/scene.c **** 	}
 3269              		.loc 1 465 19 view .LVU767
 3270 0244 4C46     		mov	r4, r9	@ tmp242, tmp263
 3271              	@ mini3d/scene.c:463: 		Matrix3D roll = Matrix3DMake(up.dy/l, up.dx/l, 0, -up.dx/l, up.dy/l, 0, 0, 
 463:mini3d/scene.c **** 	
 3272              		.loc 1 463 19 view .LVU768
 3273 0246 C1EEA01A 		vdiv.f32	s3, s3, s1	@, tmp237, result
 3274 024a F0EE632A 		vmov.f32	s5, s7	@,
 3275 024e CAEE200A 		vdiv.f32	s1, s20, s1	@, up, result
 3276              	.LVL191:
 463:mini3d/scene.c **** 	
 3277              		.loc 1 463 19 view .LVU769
 3278 0252 B0EE420A 		vmov.f32	s0, s4	@,
ARM GAS  /var/folders/cs/83z6p2tj4w57s6p2rt8nwfp00000gn/T//cc3yBana.s 			page 85


 3279 0256 B0EE631A 		vmov.f32	s2, s7	@,
 3280 025a B7EE004A 		vmov.f32	s8, #1.0e+0	@,
 3281 025e FFF7FEFF 		bl	Matrix3DMake		@
 3282              	.LVL192:
 465:mini3d/scene.c **** 	}
 3283              		.loc 1 465 3 is_stmt 1 view .LVU770
 3284              	@ mini3d/scene.c:465: 		scene->camera = Matrix3D_multiply(camera, roll);
 465:mini3d/scene.c **** 	}
 3285              		.loc 1 465 19 is_stmt 0 view .LVU771
 3286 0262 EC46     		mov	ip, sp	@ tmp245,
 3287 0264 0FCD     		ldmia	r5!, {r0, r1, r2, r3}	@ tmp243,,,,
 3288 0266 0FC4     		stmia	r4!, {r0, r1, r2, r3}	@ tmp242,,,,
 3289 0268 0FCD     		ldmia	r5!, {r0, r1, r2, r3}	@ tmp243,,,,
 3290 026a 0FC4     		stmia	r4!, {r0, r1, r2, r3}	@ tmp242,,,,
 3291 026c 0FCD     		ldmia	r5!, {r0, r1, r2, r3}	@ tmp243,,,,
 3292 026e 0FC4     		stmia	r4!, {r0, r1, r2, r3}	@ tmp242,,,,
 3293 0270 2D68     		ldr	r5, [r5]	@ roll, roll
 3294 0272 B8E80F00 		ldmia	r8!, {r0, r1, r2, r3}	@ tmp246,,,,
 3295 0276 2560     		str	r5, [r4]	@ roll,
 3296 0278 18AC     		add	r4, sp, #96	@ tmp284,,
 3297 027a 3D1D     		adds	r5, r7, #4	@ tmp250, scene,
 3298 027c ACE80F00 		stmia	ip!, {r0, r1, r2, r3}	@ tmp245,,,,
 3299 0280 B8E80F00 		ldmia	r8!, {r0, r1, r2, r3}	@ tmp246,,,,
 3300 0284 ACE80F00 		stmia	ip!, {r0, r1, r2, r3}	@ tmp245,,,,
 3301 0288 98E80300 		ldm	r8, {r0, r1}	@ tmp246,,
 3302 028c 8CE80300 		stm	ip, {r0, r1}	@ tmp245,,
 3303 0290 18A8     		add	r0, sp, #96	@ tmp283,,
 3304 0292 96E80E00 		ldm	r6, {r1, r2, r3}	@ tmp261,,,
 3305 0296 FFF7FEFF 		bl	Matrix3D_multiply		@
 3306              	.LVL193:
 3307 029a 0FCC     		ldmia	r4!, {r0, r1, r2, r3}	@ tmp251,,,,
 3308 029c 0FC5     		stmia	r5!, {r0, r1, r2, r3}	@ tmp250,,,,
 3309 029e 0FCC     		ldmia	r4!, {r0, r1, r2, r3}	@ tmp251,,,,
 3310 02a0 0FC5     		stmia	r5!, {r0, r1, r2, r3}	@ tmp250,,,,
 3311 02a2 0FCC     		ldmia	r4!, {r0, r1, r2, r3}	@ tmp251,,,,
 3312 02a4 0FC5     		stmia	r5!, {r0, r1, r2, r3}	@ tmp250,,,,
 3313 02a6 2368     		ldr	r3, [r4]	@ tmp252,
 3314 02a8 2B60     		str	r3, [r5]	@ tmp252, scene_38(D)->camera
 3315              	.LVL194:
 3316              	.L158:
 465:mini3d/scene.c **** 	}
 3317              		.loc 1 465 19 view .LVU772
 3318              	.LBE97:
 470:mini3d/scene.c **** }
 3319              		.loc 1 470 2 is_stmt 1 view .LVU773
 3320              	@ mini3d/scene.c:470: 	scene->root.needsUpdate = 1;
 470:mini3d/scene.c **** }
 3321              		.loc 1 470 26 is_stmt 0 view .LVU774
 3322 02aa 97F89D30 		ldrb	r3, [r7, #157]	@ zero_extendqisi2	@ scene_38(D)->root.needsUpdate, scene_38(D)->root.needsUpd
 3323 02ae 43F00203 		orr	r3, r3, #2	@ tmp258, scene_38(D)->root.needsUpdate,
 3324 02b2 87F89D30 		strb	r3, [r7, #157]	@ tmp258, scene_38(D)->root.needsUpdate
 3325              	.LVL195:
 3326              	@ mini3d/scene.c:471: }
 471:mini3d/scene.c **** 
 3327              		.loc 1 471 1 view .LVU775
 3328 02b6 59B0     		add	sp, sp, #356	@,,
 3329              	.LCFI38:
ARM GAS  /var/folders/cs/83z6p2tj4w57s6p2rt8nwfp00000gn/T//cc3yBana.s 			page 86


 3330              		.cfi_def_cfa_offset 68
 3331              		@ sp needed	@
 3332 02b8 BDEC088B 		vldm	sp!, {d8-d11}	@,
 3333              	.LCFI39:
 3334              		.cfi_restore 86
 3335              		.cfi_restore 87
 3336              		.cfi_restore 84
 3337              		.cfi_restore 85
 3338              		.cfi_restore 82
 3339              		.cfi_restore 83
 3340              		.cfi_restore 80
 3341              		.cfi_restore 81
 3342              		.cfi_def_cfa_offset 36
 3343              	.LVL196:
 471:mini3d/scene.c **** 
 3344              		.loc 1 471 1 view .LVU776
 3345 02bc BDE8F08F 		pop	{r4, r5, r6, r7, r8, r9, r10, fp, pc}	@
 3346              	.LVL197:
 3347              	.L164:
 471:mini3d/scene.c **** 
 3348              		.loc 1 471 1 view .LVU777
 3349              		.align	2
 3350              	.L163:
 3351 02c0 00007043 		.word	1131413504
 3352 02c4 00000000 		.word	identityMatrix
 3353 02c8 00000000 		.word	0
 3354              		.cfi_endproc
 3355              	.LFE33:
 3356              		.size	Scene3D_setCamera, .-Scene3D_setCamera
 3357              		.section	.text.Scene3D_init,"ax",%progbits
 3358              		.align	1
 3359              		.p2align 4,,15
 3360              		.global	Scene3D_init
 3361              		.syntax unified
 3362              		.thumb
 3363              		.thumb_func
 3364              		.fpu fpv5-sp-d16
 3365              		.type	Scene3D_init, %function
 3366              	Scene3D_init:
 3367              	.LVL198:
 3368              	.LFB27:
 345:mini3d/scene.c **** 	scene->hasPerspective = 1;
 3369              		.loc 1 345 1 is_stmt 1 view -0
 3370              		.cfi_startproc
 3371              		@ args = 0, pretend = 0, frame = 40
 3372              		@ frame_needed = 0, uses_anonymous_args = 0
 346:mini3d/scene.c **** 
 3373              		.loc 1 346 2 view .LVU779
 3374              	@ mini3d/scene.c:346: 	scene->hasPerspective = 1;
 346:mini3d/scene.c **** 
 3375              		.loc 1 346 24 is_stmt 0 view .LVU780
 3376 0000 0378     		ldrb	r3, [r0]	@ zero_extendqisi2	@ scene_2(D)->hasPerspective, scene_2(D)->hasPerspective
 3377              	@ mini3d/scene.c:348: 	Scene3D_setCamera(scene, (Point3D){ 0, 0, 0 }, (Point3D){ 0, 0, 1 }, 1.0, (V
 348:mini3d/scene.c **** 	Scene3D_setGlobalLight(scene, (Vector3D){ 0, -1, 0 });
 3378              		.loc 1 348 58 view .LVU781
 3379 0002 B7EE004A 		vmov.f32	s8, #1.0e+0	@ tmp123,
 3380              	@ mini3d/scene.c:345: {
ARM GAS  /var/folders/cs/83z6p2tj4w57s6p2rt8nwfp00000gn/T//cc3yBana.s 			page 87


 345:mini3d/scene.c **** 	scene->hasPerspective = 1;
 3381              		.loc 1 345 1 view .LVU782
 3382 0006 F0B5     		push	{r4, r5, r6, r7, lr}	@
 3383              	.LCFI40:
 3384              		.cfi_def_cfa_offset 20
 3385              		.cfi_offset 4, -20
 3386              		.cfi_offset 5, -16
 3387              		.cfi_offset 6, -12
 3388              		.cfi_offset 7, -8
 3389              		.cfi_offset 14, -4
 3390              	@ mini3d/scene.c:346: 	scene->hasPerspective = 1;
 346:mini3d/scene.c **** 
 3391              		.loc 1 346 24 view .LVU783
 3392 0008 43F00103 		orr	r3, r3, #1	@ tmp116, scene_2(D)->hasPerspective,
 3393              	@ mini3d/scene.c:348: 	Scene3D_setCamera(scene, (Point3D){ 0, 0, 0 }, (Point3D){ 0, 0, 1 }, 1.0, (V
 348:mini3d/scene.c **** 	Scene3D_setGlobalLight(scene, (Vector3D){ 0, -1, 0 });
 3394              		.loc 1 348 2 view .LVU784
 3395 000c B0EE443A 		vmov.f32	s6, s8	@,
 3396 0010 F0EE442A 		vmov.f32	s5, s8	@,
 3397              	@ mini3d/scene.c:345: {
 345:mini3d/scene.c **** 	scene->hasPerspective = 1;
 3398              		.loc 1 345 1 view .LVU785
 3399 0014 0446     		mov	r4, r0	@ scene, tmp158
 3400              	.LBB102:
 3401              	.LBB103:
 3402              	@ mini3d/scene.c:23: 	node->transform = identityMatrix;
  23:mini3d/scene.c **** 	node->parentNode = NULL;
 3403              		.loc 1 23 18 view .LVU786
 3404 0016 234E     		ldr	r6, .L167	@ tmp143,
 3405              	@ mini3d/scene.c:24: 	node->parentNode = NULL;
  24:mini3d/scene.c **** 	node->childNodes = NULL;
 3406              		.loc 1 24 19 view .LVU787
 3407 0018 0027     		movs	r7, #0	@ tmp145,
 3408              	@ mini3d/scene.c:23: 	node->transform = identityMatrix;
  23:mini3d/scene.c **** 	node->parentNode = NULL;
 3409              		.loc 1 23 18 view .LVU788
 3410 001a 04F15005 		add	r5, r4, #80	@ tmp142, scene,
 3411              	.LBE103:
 3412              	.LBE102:
 3413              	@ mini3d/scene.c:345: {
 345:mini3d/scene.c **** 	scene->hasPerspective = 1;
 3414              		.loc 1 345 1 view .LVU789
 3415 001e 2DED028B 		vpush.64	{d8}	@
 3416              	.LCFI41:
 3417              		.cfi_def_cfa_offset 28
 3418              		.cfi_offset 80, -28
 3419              		.cfi_offset 81, -24
 3420              	@ mini3d/scene.c:348: 	Scene3D_setCamera(scene, (Point3D){ 0, 0, 0 }, (Point3D){ 0, 0, 1 }, 1.0, (V
 348:mini3d/scene.c **** 	Scene3D_setGlobalLight(scene, (Vector3D){ 0, -1, 0 });
 3421              		.loc 1 348 36 view .LVU790
 3422 0022 9FED218A 		vldr.32	s16, .L167+4	@ tmp118,
 3423              	@ mini3d/scene.c:345: {
 345:mini3d/scene.c **** 	scene->hasPerspective = 1;
 3424              		.loc 1 345 1 view .LVU791
 3425 0026 8BB0     		sub	sp, sp, #44	@,,
 3426              	.LCFI42:
 3427              		.cfi_def_cfa_offset 72
ARM GAS  /var/folders/cs/83z6p2tj4w57s6p2rt8nwfp00000gn/T//cc3yBana.s 			page 88


 3428              	@ mini3d/scene.c:346: 	scene->hasPerspective = 1;
 346:mini3d/scene.c **** 
 3429              		.loc 1 346 24 view .LVU792
 3430 0028 0370     		strb	r3, [r0]	@ tmp116, scene_2(D)->hasPerspective
 348:mini3d/scene.c **** 	Scene3D_setGlobalLight(scene, (Vector3D){ 0, -1, 0 });
 3431              		.loc 1 348 2 is_stmt 1 view .LVU793
 3432 002a F0EE483A 		vmov.f32	s7, s16	@, tmp118
 3433 002e F0EE484A 		vmov.f32	s9, s16	@, tmp118
 3434 0032 F0EE481A 		vmov.f32	s3, s16	@, tmp118
 3435 0036 B0EE482A 		vmov.f32	s4, s16	@, tmp118
 3436 003a B0EE480A 		vmov.f32	s0, s16	@, tmp118
 3437 003e F0EE480A 		vmov.f32	s1, s16	@, tmp118
 3438 0042 B0EE481A 		vmov.f32	s2, s16	@, tmp118
 3439 0046 FFF7FEFF 		bl	Scene3D_setCamera		@
 3440              	.LVL199:
 349:mini3d/scene.c **** 
 3441              		.loc 1 349 2 view .LVU794
 3442              	.LBB106:
 3443              	.LBI106:
 369:mini3d/scene.c **** {
 3444              		.loc 1 369 1 view .LVU795
 3445              	.LBB107:
 371:mini3d/scene.c **** }
 3446              		.loc 1 371 2 view .LVU796
 3447              	.LBE107:
 3448              	.LBE106:
 3449              	.LBB111:
 3450              	.LBB112:
 3451              	@ mini3d/scene.c:377: 	scene->centerx = x;
 377:mini3d/scene.c **** 	scene->centery = y;
 3452              		.loc 1 377 17 is_stmt 0 view .LVU797
 3453 004a 4FF07C53 		mov	r3, #1056964608	@ tmp139,
 3454              	.LBE112:
 3455              	.LBE111:
 3456              	.LBB116:
 3457              	.LBB108:
 3458              	@ mini3d/scene.c:371: 	scene->light = light;
 371:mini3d/scene.c **** }
 3459              		.loc 1 371 15 view .LVU798
 3460 004e 174A     		ldr	r2, .L167+8	@ tmp137,
 3461              	.LBE108:
 3462              	.LBE116:
 3463              	.LBB117:
 3464              	.LBB113:
 3465              	@ mini3d/scene.c:377: 	scene->centerx = x;
 377:mini3d/scene.c **** 	scene->centery = y;
 3466              		.loc 1 377 17 view .LVU799
 3467 0050 6364     		str	r3, [r4, #68]	@ float	@ tmp139, scene_2(D)->centerx
 3468              	.LBE113:
 3469              	.LBE117:
 3470              	.LBB118:
 3471              	.LBB109:
 3472              	@ mini3d/scene.c:371: 	scene->light = light;
 371:mini3d/scene.c **** }
 3473              		.loc 1 371 15 view .LVU800
 3474 0052 E263     		str	r2, [r4, #60]	@ float	@ tmp137, MEM[(struct Scene3D *)scene_2(D) + 60B]
 3475              	.LBE109:
ARM GAS  /var/folders/cs/83z6p2tj4w57s6p2rt8nwfp00000gn/T//cc3yBana.s 			page 89


 3476              	.LBE118:
 3477              	.LBB119:
 3478              	.LBB114:
 3479              	@ mini3d/scene.c:378: 	scene->centery = y;
 378:mini3d/scene.c **** }
 3480              		.loc 1 378 17 view .LVU801
 3481 0054 A364     		str	r3, [r4, #72]	@ float	@ tmp139, scene_2(D)->centery
 3482              	.LBE114:
 3483              	.LBE119:
 3484              	.LBB120:
 3485              	.LBB110:
 3486              	@ mini3d/scene.c:371: 	scene->light = light;
 371:mini3d/scene.c **** }
 3487              		.loc 1 371 15 view .LVU802
 3488 0056 84ED0E8A 		vstr.32	s16, [r4, #56]	@ tmp118, MEM[(struct Scene3D *)scene_2(D) + 56B]
 3489 005a 84ED108A 		vstr.32	s16, [r4, #64]	@ tmp118, MEM[(struct Scene3D *)scene_2(D) + 64B]
 3490              	.LVL200:
 371:mini3d/scene.c **** }
 3491              		.loc 1 371 15 view .LVU803
 3492              	.LBE110:
 3493              	.LBE120:
 351:mini3d/scene.c **** 
 3494              		.loc 1 351 2 is_stmt 1 view .LVU804
 3495              	.LBB121:
 3496              	.LBI111:
 375:mini3d/scene.c **** {
 3497              		.loc 1 375 1 view .LVU805
 3498              	.LBB115:
 377:mini3d/scene.c **** 	scene->centery = y;
 3499              		.loc 1 377 2 view .LVU806
 378:mini3d/scene.c **** }
 3500              		.loc 1 378 2 view .LVU807
 378:mini3d/scene.c **** }
 3501              		.loc 1 378 2 is_stmt 0 view .LVU808
 3502              	.LBE115:
 3503              	.LBE121:
 353:mini3d/scene.c **** 
 3504              		.loc 1 353 2 is_stmt 1 view .LVU809
 3505              	.LBB122:
 3506              	.LBI102:
  21:mini3d/scene.c **** {
 3507              		.loc 1 21 1 view .LVU810
 3508              	.LBB104:
  23:mini3d/scene.c **** 	node->parentNode = NULL;
 3509              		.loc 1 23 2 view .LVU811
 3510              	@ mini3d/scene.c:23: 	node->transform = identityMatrix;
  23:mini3d/scene.c **** 	node->parentNode = NULL;
 3511              		.loc 1 23 18 is_stmt 0 view .LVU812
 3512 005e 0FCE     		ldmia	r6!, {r0, r1, r2, r3}	@ tmp143,,,,
 3513 0060 0FC5     		stmia	r5!, {r0, r1, r2, r3}	@ tmp142,,,,
 3514              	.LVL201:
  23:mini3d/scene.c **** 	node->parentNode = NULL;
 3515              		.loc 1 23 18 view .LVU813
 3516 0062 0FCE     		ldmia	r6!, {r0, r1, r2, r3}	@ tmp143,,,,
 3517 0064 0FC5     		stmia	r5!, {r0, r1, r2, r3}	@ tmp142,,,,
 3518              	.LVL202:
  23:mini3d/scene.c **** 	node->parentNode = NULL;
ARM GAS  /var/folders/cs/83z6p2tj4w57s6p2rt8nwfp00000gn/T//cc3yBana.s 			page 90


 3519              		.loc 1 23 18 view .LVU814
 3520 0066 0FCE     		ldmia	r6!, {r0, r1, r2, r3}	@ tmp143,,,,
 3521 0068 3668     		ldr	r6, [r6]	@ identityMatrix, identityMatrix
 3522 006a 0FC5     		stmia	r5!, {r0, r1, r2, r3}	@ tmp142,,,,
 3523              	.LVL203:
  23:mini3d/scene.c **** 	node->parentNode = NULL;
 3524              		.loc 1 23 18 view .LVU815
 3525 006c 2E60     		str	r6, [r5]	@ identityMatrix, MEM[(struct Scene3DNode *)scene_2(D) + 80B].transform
  24:mini3d/scene.c **** 	node->childNodes = NULL;
 3526              		.loc 1 24 2 is_stmt 1 view .LVU816
 3527              	@ mini3d/scene.c:24: 	node->parentNode = NULL;
  24:mini3d/scene.c **** 	node->childNodes = NULL;
 3528              		.loc 1 24 19 is_stmt 0 view .LVU817
 3529 006e C4F88470 		str	r7, [r4, #132]	@ tmp145, MEM[(struct Scene3DNode *)scene_2(D) + 80B].parentNode
  25:mini3d/scene.c **** 	node->nChildren = 0;
 3530              		.loc 1 25 2 is_stmt 1 view .LVU818
 3531              	@ mini3d/scene.c:25: 	node->childNodes = NULL;
  25:mini3d/scene.c **** 	node->nChildren = 0;
 3532              		.loc 1 25 19 is_stmt 0 view .LVU819
 3533 0072 C4F88C70 		str	r7, [r4, #140]	@ tmp145, MEM[(struct Scene3DNode *)scene_2(D) + 80B].childNodes
  26:mini3d/scene.c **** 	node->shapes = NULL;
 3534              		.loc 1 26 2 is_stmt 1 view .LVU820
 3535              	@ mini3d/scene.c:29: 	node->renderStyle = kRenderInheritStyle;
  29:mini3d/scene.c **** 	node->isVisible = 1;
 3536              		.loc 1 29 20 is_stmt 0 view .LVU821
 3537 0076 B4F89C30 		ldrh	r3, [r4, #156]	@, MEM[(void *)scene_2(D) + 156B]
 3538              	@ mini3d/scene.c:28: 	node->colorBias = 0;
  28:mini3d/scene.c **** 	node->renderStyle = kRenderInheritStyle;
 3539              		.loc 1 28 18 view .LVU822
 3540 007a 84ED268A 		vstr.32	s16, [r4, #152]	@ tmp118, MEM[(struct Scene3DNode *)scene_2(D) + 80B].colorBias
 3541              	@ mini3d/scene.c:29: 	node->renderStyle = kRenderInheritStyle;
  29:mini3d/scene.c **** 	node->isVisible = 1;
 3542              		.loc 1 29 20 view .LVU823
 3543 007e 23F4FF63 		bic	r3, r3, #2040	@ tmp151, MEM[(void *)scene_2(D) + 156B],
 3544              	@ mini3d/scene.c:26: 	node->nChildren = 0;
  26:mini3d/scene.c **** 	node->shapes = NULL;
 3545              		.loc 1 26 18 view .LVU824
 3546 0082 C4F88870 		str	r7, [r4, #136]	@ tmp145, MEM[(struct Scene3DNode *)scene_2(D) + 80B].nChildren
  27:mini3d/scene.c **** 	node->colorBias = 0;
 3547              		.loc 1 27 2 is_stmt 1 view .LVU825
  28:mini3d/scene.c **** 	node->renderStyle = kRenderInheritStyle;
 3548              		.loc 1 28 2 view .LVU826
  29:mini3d/scene.c **** 	node->isVisible = 1;
 3549              		.loc 1 29 2 view .LVU827
  30:mini3d/scene.c **** 	node->needsUpdate = 1;
 3550              		.loc 1 30 2 view .LVU828
  31:mini3d/scene.c **** #if ENABLE_Z_BUFFER
 3551              		.loc 1 31 2 view .LVU829
  33:mini3d/scene.c **** #endif
 3552              		.loc 1 33 2 view .LVU830
 3553              	@ mini3d/scene.c:27: 	node->shapes = NULL;
  27:mini3d/scene.c **** 	node->colorBias = 0;
 3554              		.loc 1 27 15 is_stmt 0 view .LVU831
 3555 0086 C4F89470 		str	r7, [r4, #148]	@ tmp145, MEM[(struct Scene3DNode *)scene_2(D) + 80B].shapes
 3556              	@ mini3d/scene.c:29: 	node->renderStyle = kRenderInheritStyle;
  29:mini3d/scene.c **** 	node->isVisible = 1;
 3557              		.loc 1 29 20 view .LVU832
ARM GAS  /var/folders/cs/83z6p2tj4w57s6p2rt8nwfp00000gn/T//cc3yBana.s 			page 91


 3558 008a 23F00703 		bic	r3, r3, #7	@ tmp151, tmp151,
 3559 008e 43F4E063 		orr	r3, r3, #1792	@ tmp154, tmp151,
 3560              	.LBE104:
 3561              	.LBE122:
 3562              	@ mini3d/scene.c:356: 	scene->shapelistsize = 0;
 356:mini3d/scene.c **** }
 3563              		.loc 1 356 23 view .LVU833
 3564 0092 C4E92977 		strd	r7, r7, [r4, #164]	@ tmp145, tmp145, scene,
 3565              	.LBB123:
 3566              	.LBB105:
 3567              	@ mini3d/scene.c:29: 	node->renderStyle = kRenderInheritStyle;
  29:mini3d/scene.c **** 	node->isVisible = 1;
 3568              		.loc 1 29 20 view .LVU834
 3569 0096 A4F89C30 		strh	r3, [r4, #156]	@ movhi	@ tmp154, MEM[(void *)scene_2(D) + 156B]
 3570              	.LVL204:
  29:mini3d/scene.c **** 	node->isVisible = 1;
 3571              		.loc 1 29 20 view .LVU835
 3572              	.LBE105:
 3573              	.LBE123:
 355:mini3d/scene.c **** 	scene->shapelistsize = 0;
 3574              		.loc 1 355 2 is_stmt 1 view .LVU836
 356:mini3d/scene.c **** }
 3575              		.loc 1 356 2 view .LVU837
 3576              	@ mini3d/scene.c:357: }
 357:mini3d/scene.c **** 
 3577              		.loc 1 357 1 is_stmt 0 view .LVU838
 3578 009a 0BB0     		add	sp, sp, #44	@,,
 3579              	.LCFI43:
 3580              		.cfi_def_cfa_offset 28
 3581              		@ sp needed	@
 3582 009c BDEC028B 		vldm	sp!, {d8}	@
 3583              	.LCFI44:
 3584              		.cfi_restore 80
 3585              		.cfi_restore 81
 3586              		.cfi_def_cfa_offset 20
 3587 00a0 F0BD     		pop	{r4, r5, r6, r7, pc}	@
 3588              	.LVL205:
 3589              	.L168:
 357:mini3d/scene.c **** 
 3590              		.loc 1 357 1 view .LVU839
 3591 00a2 00BF     		.align	2
 3592              	.L167:
 3593 00a4 00000000 		.word	identityMatrix
 3594 00a8 00000000 		.word	0
 3595 00ac 000080BF 		.word	-1082130432
 3596              		.cfi_endproc
 3597              	.LFE27:
 3598              		.size	Scene3D_init, .-Scene3D_init
 3599              		.section	.text.Scene3D_drawNode,"ax",%progbits
 3600              		.align	1
 3601              		.p2align 4,,15
 3602              		.global	Scene3D_drawNode
 3603              		.syntax unified
 3604              		.thumb
 3605              		.thumb_func
 3606              		.fpu fpv5-sp-d16
 3607              		.type	Scene3D_drawNode, %function
ARM GAS  /var/folders/cs/83z6p2tj4w57s6p2rt8nwfp00000gn/T//cc3yBana.s 			page 92


 3608              	Scene3D_drawNode:
 3609              	.LVL206:
 3610              	.LFB38:
 715:mini3d/scene.c **** 
 716:mini3d/scene.c **** void
 717:mini3d/scene.c **** Scene3D_drawNode(Scene3D* scene, Scene3DNode* node, uint8_t* bitmap, int rowstride)
 718:mini3d/scene.c **** {
 3611              		.loc 1 718 1 is_stmt 1 view -0
 3612              		.cfi_startproc
 3613              		@ args = 0, pretend = 0, frame = 16
 3614              		@ frame_needed = 0, uses_anonymous_args = 0
 719:mini3d/scene.c **** 	// order shapes by z
 720:mini3d/scene.c **** 
 721:mini3d/scene.c **** 	int count = getShapesAtNode(scene, node, 0);
 3615              		.loc 1 721 2 view .LVU841
 3616              	@ mini3d/scene.c:718: {
 718:mini3d/scene.c **** 	// order shapes by z
 3617              		.loc 1 718 1 is_stmt 0 view .LVU842
 3618 0000 2DE9F04F 		push	{r4, r5, r6, r7, r8, r9, r10, fp, lr}	@
 3619              	.LCFI45:
 3620              		.cfi_def_cfa_offset 36
 3621              		.cfi_offset 4, -36
 3622              		.cfi_offset 5, -32
 3623              		.cfi_offset 6, -28
 3624              		.cfi_offset 7, -24
 3625              		.cfi_offset 8, -20
 3626              		.cfi_offset 9, -16
 3627              		.cfi_offset 10, -12
 3628              		.cfi_offset 11, -8
 3629              		.cfi_offset 14, -4
 3630 0004 9346     		mov	fp, r2	@ tmp717, bitmap
 3631              	@ mini3d/scene.c:721: 	int count = getShapesAtNode(scene, node, 0);
 3632              		.loc 1 721 14 view .LVU843
 3633 0006 0022     		movs	r2, #0	@,
 3634              	.LVL207:
 3635              	@ mini3d/scene.c:718: {
 718:mini3d/scene.c **** 	// order shapes by z
 3636              		.loc 1 718 1 view .LVU844
 3637 0008 9A46     		mov	r10, r3	@ rowstride, tmp718
 3638 000a 8146     		mov	r9, r0	@ scene, tmp716
 3639 000c 2DED068B 		vpush.64	{d8, d9, d10}	@
 3640              	.LCFI46:
 3641              		.cfi_def_cfa_offset 60
 3642              		.cfi_offset 80, -60
 3643              		.cfi_offset 81, -56
 3644              		.cfi_offset 82, -52
 3645              		.cfi_offset 83, -48
 3646              		.cfi_offset 84, -44
 3647              		.cfi_offset 85, -40
 3648 0010 89B0     		sub	sp, sp, #36	@,,
 3649              	.LCFI47:
 3650              		.cfi_def_cfa_offset 96
 3651              	@ mini3d/scene.c:721: 	int count = getShapesAtNode(scene, node, 0);
 3652              		.loc 1 721 14 view .LVU845
 3653 0012 FFF7FEFF 		bl	getShapesAtNode		@
 3654              	.LVL208:
 3655              	@ mini3d/scene.c:725: 	if ( count > 1 )
ARM GAS  /var/folders/cs/83z6p2tj4w57s6p2rt8nwfp00000gn/T//cc3yBana.s 			page 93


 722:mini3d/scene.c **** 
 723:mini3d/scene.c **** 	// and draw back to front
 724:mini3d/scene.c **** 
 725:mini3d/scene.c **** 	if ( count > 1 )
 3656              		.loc 1 725 5 view .LVU846
 3657 0016 0128     		cmp	r0, #1	@ count,
 3658              	@ mini3d/scene.c:721: 	int count = getShapesAtNode(scene, node, 0);
 721:mini3d/scene.c **** 
 3659              		.loc 1 721 14 view .LVU847
 3660 0018 0590     		str	r0, [sp, #20]	@ count, %sfp
 3661              	.LVL209:
 3662              		.loc 1 725 2 is_stmt 1 view .LVU848
 3663              	@ mini3d/scene.c:725: 	if ( count > 1 )
 3664              		.loc 1 725 5 is_stmt 0 view .LVU849
 3665 001a 00F34D84 		bgt	.L356		@,
 3666              	.LVL210:
 726:mini3d/scene.c **** 		qsort(scene->shapelist, count, sizeof(ShapeInstance*), compareZ);
 727:mini3d/scene.c **** 
 728:mini3d/scene.c **** 	int i;
 729:mini3d/scene.c **** 
 730:mini3d/scene.c **** 	for ( i = 0; i < count; ++i )
 3667              		.loc 1 730 15 is_stmt 1 discriminator 1 view .LVU850
 3668              	@ mini3d/scene.c:730: 	for ( i = 0; i < count; ++i )
 3669              		.loc 1 730 2 is_stmt 0 discriminator 1 view .LVU851
 3670 001e 40F0DB81 		bne	.L169		@,
 3671              	.LVL211:
 3672              	.L171:
 3673              	@ mini3d/scene.c:718: {
 718:mini3d/scene.c **** 	// order shapes by z
 3674              		.loc 1 718 1 view .LVU852
 3675 0022 0023     		movs	r3, #0	@ i,
 3676              	.LBB148:
 3677              	.LBB149:
 3678              	.LBB150:
 3679              	.LBB151:
 3680              	.LBB152:
 3681              	.LBB153:
 3682              	.LBB154:
 3683              	@ mini3d/scene.c:529: 	if ( (x1 < 0 && x2 < 0 && x3 < 0 && (face->p4 == NULL || face->p4->x < 0)) |
 529:mini3d/scene.c **** 		 (x1 >= WIDTH && x2 >= WIDTH && x3 >= WIDTH && (face->p4 == NULL || face->p4->x >= WIDTH)) ||
 3684              		.loc 1 529 77 view .LVU853
 3685 0024 9FED818A 		vldr.32	s16, .L374	@ tmp710,
 3686 0028 9FED819A 		vldr.32	s18, .L374+4	@ tmp711,
 3687 002c 0AEE10AA 		vmov	s20, r10	@ int	@ rowstride, rowstride
 3688              	.LBE154:
 3689              	.LBE153:
 3690              	.LBE152:
 3691              	.LBE151:
 3692              	.LBE150:
 3693              	.LBE149:
 3694              	.LBE148:
 3695              	@ mini3d/scene.c:718: {
 718:mini3d/scene.c **** 	// order shapes by z
 3696              		.loc 1 718 1 view .LVU854
 3697 0030 0493     		str	r3, [sp, #16]	@ i, %sfp
 3698 0032 09E0     		b	.L269		@
 3699              	.LVL212:
ARM GAS  /var/folders/cs/83z6p2tj4w57s6p2rt8nwfp00000gn/T//cc3yBana.s 			page 94


 3700              	.L180:
 3701              	.LBB246:
 731:mini3d/scene.c **** 	{
 732:mini3d/scene.c **** 		ShapeInstance* shape = scene->shapelist[i];
 733:mini3d/scene.c **** 		RenderStyle style = shape->renderStyle;
 734:mini3d/scene.c **** 
 735:mini3d/scene.c **** 		if ( style & kRenderFilled )
 736:mini3d/scene.c **** 			drawFilledShape(scene, shape, bitmap, rowstride);
 737:mini3d/scene.c **** 
 738:mini3d/scene.c **** 		if ( style & kRenderWireframe )
 3702              		.loc 1 738 3 is_stmt 1 view .LVU855
 3703              	@ mini3d/scene.c:738: 		if ( style & kRenderWireframe )
 3704              		.loc 1 738 6 is_stmt 0 view .LVU856
 3705 0034 BC07     		lsls	r4, r7, #30	@, style,
 3706 0036 00F1E280 		bmi	.L357		@,
 3707              	.LVL213:
 3708              	.L177:
 3709              		.loc 1 738 6 view .LVU857
 3710              	.LBE246:
 730:mini3d/scene.c **** 	{
 3711              		.loc 1 730 26 is_stmt 1 discriminator 2 view .LVU858
 3712 003a 049B     		ldr	r3, [sp, #16]	@ i, %sfp
 3713              	@ mini3d/scene.c:730: 	for ( i = 0; i < count; ++i )
 730:mini3d/scene.c **** 	{
 3714              		.loc 1 730 2 is_stmt 0 discriminator 2 view .LVU859
 3715 003c 059A     		ldr	r2, [sp, #20]	@ count, %sfp
 3716              	@ mini3d/scene.c:730: 	for ( i = 0; i < count; ++i )
 730:mini3d/scene.c **** 	{
 3717              		.loc 1 730 26 discriminator 2 view .LVU860
 3718 003e 0133     		adds	r3, r3, #1	@ i, i,
 3719              	@ mini3d/scene.c:730: 	for ( i = 0; i < count; ++i )
 730:mini3d/scene.c **** 	{
 3720              		.loc 1 730 2 discriminator 2 view .LVU861
 3721 0040 9A42     		cmp	r2, r3	@ count, i
 3722              	@ mini3d/scene.c:730: 	for ( i = 0; i < count; ++i )
 730:mini3d/scene.c **** 	{
 3723              		.loc 1 730 26 discriminator 2 view .LVU862
 3724 0042 0493     		str	r3, [sp, #16]	@ i, %sfp
 3725              	.LVL214:
 730:mini3d/scene.c **** 	{
 3726              		.loc 1 730 15 is_stmt 1 discriminator 2 view .LVU863
 3727              	@ mini3d/scene.c:730: 	for ( i = 0; i < count; ++i )
 730:mini3d/scene.c **** 	{
 3728              		.loc 1 730 2 is_stmt 0 discriminator 2 view .LVU864
 3729 0044 40F3C881 		ble	.L169		@,
 3730              	.LVL215:
 3731              	.L269:
 3732              	.LBB247:
 732:mini3d/scene.c **** 		RenderStyle style = shape->renderStyle;
 3733              		.loc 1 732 3 is_stmt 1 view .LVU865
 3734              	@ mini3d/scene.c:732: 		ShapeInstance* shape = scene->shapelist[i];
 732:mini3d/scene.c **** 		RenderStyle style = shape->renderStyle;
 3735              		.loc 1 732 18 is_stmt 0 view .LVU866
 3736 0048 D9F8A430 		ldr	r3, [r9, #164]	@ scene_14(D)->shapelist, scene_14(D)->shapelist
 3737 004c 049A     		ldr	r2, [sp, #16]	@ i, %sfp
 3738 004e 53F82250 		ldr	r5, [r3, r2, lsl #2]	@ shape, *_6
 3739              	.LVL216:
ARM GAS  /var/folders/cs/83z6p2tj4w57s6p2rt8nwfp00000gn/T//cc3yBana.s 			page 95


 733:mini3d/scene.c **** 
 3740              		.loc 1 733 3 is_stmt 1 view .LVU867
 3741              	@ mini3d/scene.c:733: 		RenderStyle style = shape->renderStyle;
 733:mini3d/scene.c **** 
 3742              		.loc 1 733 15 is_stmt 0 view .LVU868
 3743 0052 95F85C70 		ldrb	r7, [r5, #92]	@ zero_extendqisi2	@ style, shape_20->renderStyle
 3744              	.LVL217:
 735:mini3d/scene.c **** 			drawFilledShape(scene, shape, bitmap, rowstride);
 3745              		.loc 1 735 3 is_stmt 1 view .LVU869
 3746              	@ mini3d/scene.c:735: 		if ( style & kRenderFilled )
 735:mini3d/scene.c **** 			drawFilledShape(scene, shape, bitmap, rowstride);
 3747              		.loc 1 735 6 is_stmt 0 view .LVU870
 3748 0056 FE07     		lsls	r6, r7, #31	@, style,
 3749 0058 ECD5     		bpl	.L180		@,
 736:mini3d/scene.c **** 
 3750              		.loc 1 736 4 is_stmt 1 view .LVU871
 3751              	.LVL218:
 3752              	.LBB223:
 3753              	.LBI149:
 604:mini3d/scene.c **** {
 3754              		.loc 1 604 1 view .LVU872
 3755              	.LBB217:
 607:mini3d/scene.c **** 	{
 3756              		.loc 1 607 2 view .LVU873
 3757              	@ mini3d/scene.c:607: 	if ( shape->orderTableSize > 0 )
 607:mini3d/scene.c **** 	{
 3758              		.loc 1 607 12 is_stmt 0 view .LVU874
 3759 005a 2E6E     		ldr	r6, [r5, #96]	@ _28, shape_20->orderTableSize
 3760              	@ mini3d/scene.c:607: 	if ( shape->orderTableSize > 0 )
 607:mini3d/scene.c **** 	{
 3761              		.loc 1 607 5 view .LVU875
 3762 005c 002E     		cmp	r6, #0	@ _28,
 3763 005e 40F3AF82 		ble	.L358		@,
 609:mini3d/scene.c **** 		{
 3764              		.loc 1 609 3 is_stmt 1 view .LVU876
 3765              	.LBB183:
 609:mini3d/scene.c **** 		{
 3766              		.loc 1 609 9 view .LVU877
 3767              	@ mini3d/scene.c:609: 		for ( int i = shape->orderTableSize - 1; i >= 0; --i )
 609:mini3d/scene.c **** 		{
 3768              		.loc 1 609 13 is_stmt 0 view .LVU878
 3769 0062 013E     		subs	r6, r6, #1	@ i, _28,
 3770              	.LVL219:
 609:mini3d/scene.c **** 		{
 3771              		.loc 1 609 44 is_stmt 1 view .LVU879
 3772              	.LBB179:
 3773              	.LBB173:
 3774              	.LBB167:
 3775              	@ mini3d/scene.c:531: 		 (y1 < 0 && y2 < 0 && y3 < 0 && (face->p4 == NULL || face->p4->y < 0)) ||
 531:mini3d/scene.c **** 		 (y1 >= HEIGHT && y2 >= HEIGHT && y3 >= HEIGHT && (face->p4 == NULL || face->p4->y >= HEIGHT)) )
 3776              		.loc 1 531 74 is_stmt 0 view .LVU880
 3777 0064 DFED738A 		vldr.32	s17, .L374+8	@ tmp702,
 3778 0068 DFF8D481 		ldr	r8, .L374+20	@ _425,
 3779 006c 1AEE10AA 		vmov	r10, s20	@ int	@ rowstride, rowstride
 3780 0070 0697     		str	r7, [sp, #24]	@ style, %sfp
 3781              	.LVL220:
 3782              	.L179:
ARM GAS  /var/folders/cs/83z6p2tj4w57s6p2rt8nwfp00000gn/T//cc3yBana.s 			page 96


 531:mini3d/scene.c **** 		 (y1 >= HEIGHT && y2 >= HEIGHT && y3 >= HEIGHT && (face->p4 == NULL || face->p4->y >= HEIGHT)) )
 3783              		.loc 1 531 74 view .LVU881
 3784              	.LBE167:
 3785              	.LBE173:
 611:mini3d/scene.c **** 
 3786              		.loc 1 611 4 is_stmt 1 view .LVU882
 3787              	@ mini3d/scene.c:611: 			FaceInstance* face = shape->orderTable[i];
 611:mini3d/scene.c **** 
 3788              		.loc 1 611 18 is_stmt 0 view .LVU883
 3789 0072 6B6E     		ldr	r3, [r5, #100]	@ shape_20->orderTable, shape_20->orderTable
 3790 0074 53F82640 		ldr	r4, [r3, r6, lsl #2]	@ face, *_34
 3791              	.LVL221:
 613:mini3d/scene.c **** 			{
 3792              		.loc 1 613 4 is_stmt 1 view .LVU884
 613:mini3d/scene.c **** 			{
 3793              		.loc 1 613 10 view .LVU885
 3794 0078 6CBB     		cbnz	r4, .L178	@ face,
 3795 007a B9E0     		b	.L211		@
 3796              	.LVL222:
 3797              	.L362:
 613:mini3d/scene.c **** 			{
 3798              		.loc 1 613 10 is_stmt 0 view .LVU886
 3799 007c 95F85D70 		ldrb	r7, [r5, #93]	@ zero_extendqisi2	@ _81, *shape_20
 3800              	.LVL223:
 3801              	.L199:
 3802              	.LBB174:
 3803              	.LBB168:
 552:mini3d/scene.c **** 	float v;
 3804              		.loc 1 552 2 is_stmt 1 view .LVU887
 3805              	@ mini3d/scene.c:552: 	float c = face->colorBias + shape->colorBias;
 552:mini3d/scene.c **** 	float v;
 3806              		.loc 1 552 8 is_stmt 0 view .LVU888
 3807 0080 D4ED077A 		vldr.32	s15, [r4, #28]	@ face_365->colorBias, face_365->colorBias
 3808              	@ mini3d/scene.c:555: 	if ( c <= -1 )
 555:mini3d/scene.c **** 		v = 0;
 3809              		.loc 1 555 5 view .LVU889
 3810 0084 BFEE007A 		vmov.f32	s14, #-1.0e+0	@ tmp431,
 3811              	@ mini3d/scene.c:552: 	float c = face->colorBias + shape->colorBias;
 552:mini3d/scene.c **** 	float v;
 3812              		.loc 1 552 8 view .LVU890
 3813 0088 D5ED166A 		vldr.32	s13, [r5, #88]	@ shape_20->colorBias, shape_20->colorBias
 3814 008c 77EEA67A 		vadd.f32	s15, s15, s13	@ c, face_365->colorBias, shape_20->colorBias
 3815              	.LVL224:
 553:mini3d/scene.c **** 
 3816              		.loc 1 553 2 is_stmt 1 view .LVU891
 555:mini3d/scene.c **** 		v = 0;
 3817              		.loc 1 555 2 view .LVU892
 3818              	@ mini3d/scene.c:555: 	if ( c <= -1 )
 555:mini3d/scene.c **** 		v = 0;
 3819              		.loc 1 555 5 is_stmt 0 view .LVU893
 3820 0090 F4EEC77A 		vcmpe.f32	s15, s14	@ c, tmp431
 3821 0094 F1EE10FA 		vmrs	APSR_nzcv, FPSCR
 3822 0098 40F2A381 		bls	.L273		@,
 557:mini3d/scene.c **** 		v = 1;
 3823              		.loc 1 557 7 is_stmt 1 view .LVU894
 3824              	@ mini3d/scene.c:557: 	else if ( c >= 1 )
 557:mini3d/scene.c **** 		v = 1;
ARM GAS  /var/folders/cs/83z6p2tj4w57s6p2rt8nwfp00000gn/T//cc3yBana.s 			page 97


 3825              		.loc 1 557 10 is_stmt 0 view .LVU895
 3826 009c B7EE007A 		vmov.f32	s14, #1.0e+0	@ tmp432,
 3827 00a0 F4EEC77A 		vcmpe.f32	s15, s14	@ c, tmp432
 3828 00a4 F1EE10FA 		vmrs	APSR_nzcv, FPSCR
 3829 00a8 C0F2E381 		blt	.L359		@,
 3830 00ac 6248     		ldr	r0, .L374+12	@ _425,
 3831              	.LVL225:
 3832              	.L202:
 575:mini3d/scene.c **** 
 3833              		.loc 1 575 2 is_stmt 1 view .LVU896
 577:mini3d/scene.c **** 		vi = 32;
 3834              		.loc 1 577 2 view .LVU897
 582:mini3d/scene.c **** 
 3835              		.loc 1 582 2 view .LVU898
 584:mini3d/scene.c **** 	{
 3836              		.loc 1 584 2 view .LVU899
 3837              	@ mini3d/scene.c:584: 	if ( face->p4 != NULL )
 584:mini3d/scene.c **** 	{
 3838              		.loc 1 584 11 is_stmt 0 view .LVU900
 3839 00ae D4F80CC0 		ldr	ip, [r4, #12]	@ _126, face_365->p4
 3840              	@ mini3d/scene.c:584: 	if ( face->p4 != NULL )
 584:mini3d/scene.c **** 	{
 3841              		.loc 1 584 5 view .LVU901
 3842 00b2 BCF1000F 		cmp	ip, #0	@ _126
 3843 00b6 00F09B81 		beq	.L208	@
 3844              	.L367:
 587:mini3d/scene.c **** 			fillQuad_zbuf(bitmap, rowstride, face->p1, face->p2, face->p3, face->p4, pattern);
 3845              		.loc 1 587 3 is_stmt 1 view .LVU902
 3846              	@ mini3d/scene.c:587: 		if ( shape->useZBuffer )
 587:mini3d/scene.c **** 			fillQuad_zbuf(bitmap, rowstride, face->p1, face->p2, face->p3, face->p4, pattern);
 3847              		.loc 1 587 6 is_stmt 0 view .LVU903
 3848 00ba BF07     		lsls	r7, r7, #30	@, _81,
 3849              	@ mini3d/scene.c:588: 			fillQuad_zbuf(bitmap, rowstride, face->p1, face->p2, face->p3, face->p4, p
 588:mini3d/scene.c **** 		else
 3850              		.loc 1 588 4 view .LVU904
 3851 00bc 0091     		str	r1, [sp]	@ _50,
 3852              	.LVL226:
 588:mini3d/scene.c **** 		else
 3853              		.loc 1 588 4 view .LVU905
 3854 00be 5146     		mov	r1, r10	@, rowstride
 3855 00c0 CDE901C0 		strd	ip, r0, [sp, #4]	@ _126, _425,,
 3856 00c4 5846     		mov	r0, fp	@, bitmap
 3857              	@ mini3d/scene.c:587: 		if ( shape->useZBuffer )
 587:mini3d/scene.c **** 			fillQuad_zbuf(bitmap, rowstride, face->p1, face->p2, face->p3, face->p4, pattern);
 3858              		.loc 1 587 6 view .LVU906
 3859 00c6 40F1CE81 		bpl	.L209		@,
 3860              	.LVL227:
 588:mini3d/scene.c **** 		else
 3861              		.loc 1 588 4 is_stmt 1 view .LVU907
 3862 00ca FFF7FEFF 		bl	fillQuad_zbuf		@
 3863              	.LVL228:
 3864              	.L181:
 588:mini3d/scene.c **** 		else
 3865              		.loc 1 588 4 is_stmt 0 view .LVU908
 3866              	.LBE168:
 3867              	.LBE174:
 616:mini3d/scene.c **** 			}
ARM GAS  /var/folders/cs/83z6p2tj4w57s6p2rt8nwfp00000gn/T//cc3yBana.s 			page 98


 3868              		.loc 1 616 5 is_stmt 1 view .LVU909
 3869              	@ mini3d/scene.c:616: 				face = face->next;
 616:mini3d/scene.c **** 			}
 3870              		.loc 1 616 10 is_stmt 0 view .LVU910
 3871 00ce 246A     		ldr	r4, [r4, #32]	@ face, face_365->next
 3872              	.LVL229:
 613:mini3d/scene.c **** 			{
 3873              		.loc 1 613 10 is_stmt 1 view .LVU911
 3874 00d0 002C     		cmp	r4, #0	@ face
 3875 00d2 00F08D80 		beq	.L211	@
 3876              	.L178:
 615:mini3d/scene.c **** 				face = face->next;
 3877              		.loc 1 615 5 view .LVU912
 3878              	.LVL230:
 3879              	.LBB175:
 3880              	.LBI153:
 513:mini3d/scene.c **** {
 3881              		.loc 1 513 1 view .LVU913
 3882              	.LBB169:
 517:mini3d/scene.c **** 		return;
 3883              		.loc 1 517 2 view .LVU914
 3884              	@ mini3d/scene.c:517: 	if ( face->p1->z <= 0 || face->p2->z <= 0 || face->p3->z <= 0 )
 517:mini3d/scene.c **** 		return;
 3885              		.loc 1 517 11 is_stmt 0 view .LVU915
 3886 00d6 2268     		ldr	r2, [r4]	@ _46, face_365->p1
 3887              	@ mini3d/scene.c:517: 	if ( face->p1->z <= 0 || face->p2->z <= 0 || face->p3->z <= 0 )
 517:mini3d/scene.c **** 		return;
 3888              		.loc 1 517 5 view .LVU916
 3889 00d8 D2ED027A 		vldr.32	s15, [r2, #8]	@ _46->z, _46->z
 3890 00dc F5EEC07A 		vcmpe.f32	s15, #0	@ _46->z
 3891 00e0 F1EE10FA 		vmrs	APSR_nzcv, FPSCR
 3892 00e4 F3D9     		bls	.L181		@,
 3893              	@ mini3d/scene.c:517: 	if ( face->p1->z <= 0 || face->p2->z <= 0 || face->p3->z <= 0 )
 517:mini3d/scene.c **** 		return;
 3894              		.loc 1 517 31 view .LVU917
 3895 00e6 6368     		ldr	r3, [r4, #4]	@ _48, face_365->p2
 3896              	@ mini3d/scene.c:517: 	if ( face->p1->z <= 0 || face->p2->z <= 0 || face->p3->z <= 0 )
 517:mini3d/scene.c **** 		return;
 3897              		.loc 1 517 24 view .LVU918
 3898 00e8 D3ED027A 		vldr.32	s15, [r3, #8]	@ _48->z, _48->z
 3899 00ec F5EEC07A 		vcmpe.f32	s15, #0	@ _48->z
 3900 00f0 F1EE10FA 		vmrs	APSR_nzcv, FPSCR
 3901 00f4 EBD9     		bls	.L181		@,
 3902              	@ mini3d/scene.c:517: 	if ( face->p1->z <= 0 || face->p2->z <= 0 || face->p3->z <= 0 )
 517:mini3d/scene.c **** 		return;
 3903              		.loc 1 517 51 view .LVU919
 3904 00f6 A168     		ldr	r1, [r4, #8]	@ _50, face_365->p3
 3905              	@ mini3d/scene.c:517: 	if ( face->p1->z <= 0 || face->p2->z <= 0 || face->p3->z <= 0 )
 517:mini3d/scene.c **** 		return;
 3906              		.loc 1 517 44 view .LVU920
 3907 00f8 D1ED027A 		vldr.32	s15, [r1, #8]	@ _50->z, _50->z
 3908 00fc F5EEC07A 		vcmpe.f32	s15, #0	@ _50->z
 3909 0100 F1EE10FA 		vmrs	APSR_nzcv, FPSCR
 3910 0104 E3D9     		bls	.L181		@,
 520:mini3d/scene.c **** 	float y1 = face->p1->y;
 3911              		.loc 1 520 2 is_stmt 1 view .LVU921
 3912              	@ mini3d/scene.c:520: 	float x1 = face->p1->x;
ARM GAS  /var/folders/cs/83z6p2tj4w57s6p2rt8nwfp00000gn/T//cc3yBana.s 			page 99


 520:mini3d/scene.c **** 	float y1 = face->p1->y;
 3913              		.loc 1 520 8 is_stmt 0 view .LVU922
 3914 0106 92ED005A 		vldr.32	s10, [r2]	@ x1, _46->x
 3915              	.LVL231:
 521:mini3d/scene.c **** 	float x2 = face->p2->x;
 3916              		.loc 1 521 2 is_stmt 1 view .LVU923
 3917              	@ mini3d/scene.c:521: 	float y1 = face->p1->y;
 521:mini3d/scene.c **** 	float x2 = face->p2->x;
 3918              		.loc 1 521 8 is_stmt 0 view .LVU924
 3919 010a D2ED015A 		vldr.32	s11, [r2, #4]	@ y1, _46->y
 3920              	.LVL232:
 522:mini3d/scene.c **** 	float y2 = face->p2->y;
 3921              		.loc 1 522 2 is_stmt 1 view .LVU925
 3922              	@ mini3d/scene.c:529: 	if ( (x1 < 0 && x2 < 0 && x3 < 0 && (face->p4 == NULL || face->p4->x < 0)) |
 529:mini3d/scene.c **** 		 (x1 >= WIDTH && x2 >= WIDTH && x3 >= WIDTH && (face->p4 == NULL || face->p4->x >= WIDTH)) ||
 3923              		.loc 1 529 5 is_stmt 0 view .LVU926
 3924 010e B5EEC05A 		vcmpe.f32	s10, #0	@ x1
 3925              	@ mini3d/scene.c:522: 	float x2 = face->p2->x;
 522:mini3d/scene.c **** 	float y2 = face->p2->y;
 3926              		.loc 1 522 8 view .LVU927
 3927 0112 93ED007A 		vldr.32	s14, [r3]	@ x2, _48->x
 3928              	.LVL233:
 523:mini3d/scene.c **** 	float x3 = face->p3->x;
 3929              		.loc 1 523 2 is_stmt 1 view .LVU928
 3930              	@ mini3d/scene.c:523: 	float y2 = face->p2->y;
 523:mini3d/scene.c **** 	float x3 = face->p3->x;
 3931              		.loc 1 523 8 is_stmt 0 view .LVU929
 3932 0116 D3ED016A 		vldr.32	s13, [r3, #4]	@ y2, _48->y
 3933              	.LVL234:
 524:mini3d/scene.c **** 	float y3 = face->p3->y;
 3934              		.loc 1 524 2 is_stmt 1 view .LVU930
 3935              	@ mini3d/scene.c:524: 	float x3 = face->p3->x;
 524:mini3d/scene.c **** 	float y3 = face->p3->y;
 3936              		.loc 1 524 8 is_stmt 0 view .LVU931
 3937 011a D1ED007A 		vldr.32	s15, [r1]	@ x3, _50->x
 3938              	.LVL235:
 525:mini3d/scene.c **** 
 3939              		.loc 1 525 2 is_stmt 1 view .LVU932
 3940              	@ mini3d/scene.c:529: 	if ( (x1 < 0 && x2 < 0 && x3 < 0 && (face->p4 == NULL || face->p4->x < 0)) |
 529:mini3d/scene.c **** 		 (x1 >= WIDTH && x2 >= WIDTH && x3 >= WIDTH && (face->p4 == NULL || face->p4->x >= WIDTH)) ||
 3941              		.loc 1 529 5 is_stmt 0 view .LVU933
 3942 011e F1EE10FA 		vmrs	APSR_nzcv, FPSCR
 3943              	@ mini3d/scene.c:525: 	float y3 = face->p3->y;
 525:mini3d/scene.c **** 
 3944              		.loc 1 525 8 view .LVU934
 3945 0122 91ED016A 		vldr.32	s12, [r1, #4]	@ y3, _50->y
 3946              	.LVL236:
 529:mini3d/scene.c **** 		 (x1 >= WIDTH && x2 >= WIDTH && x3 >= WIDTH && (face->p4 == NULL || face->p4->x >= WIDTH)) ||
 3947              		.loc 1 529 2 is_stmt 1 view .LVU935
 3948              	@ mini3d/scene.c:529: 	if ( (x1 < 0 && x2 < 0 && x3 < 0 && (face->p4 == NULL || face->p4->x < 0)) |
 529:mini3d/scene.c **** 		 (x1 >= WIDTH && x2 >= WIDTH && x3 >= WIDTH && (face->p4 == NULL || face->p4->x >= WIDTH)) ||
 3949              		.loc 1 529 5 is_stmt 0 view .LVU936
 3950 0126 00F16C81 		bmi	.L360		@,
 3951              	.L182:
 3952              	@ mini3d/scene.c:529: 	if ( (x1 < 0 && x2 < 0 && x3 < 0 && (face->p4 == NULL || face->p4->x < 0)) |
 529:mini3d/scene.c **** 		 (x1 >= WIDTH && x2 >= WIDTH && x3 >= WIDTH && (face->p4 == NULL || face->p4->x >= WIDTH)) ||
 3953              		.loc 1 529 77 view .LVU937
ARM GAS  /var/folders/cs/83z6p2tj4w57s6p2rt8nwfp00000gn/T//cc3yBana.s 			page 100


 3954 012a B4EEC85A 		vcmpe.f32	s10, s16	@ x1, tmp710
 3955 012e F1EE10FA 		vmrs	APSR_nzcv, FPSCR
 3956 0132 13DB     		blt	.L186		@,
 3957              	@ mini3d/scene.c:530: 		 (x1 >= WIDTH && x2 >= WIDTH && x3 >= WIDTH && (face->p4 == NULL || face->p
 530:mini3d/scene.c **** 		 (y1 < 0 && y2 < 0 && y3 < 0 && (face->p4 == NULL || face->p4->y < 0)) ||
 3958              		.loc 1 530 17 view .LVU938
 3959 0134 B4EEC87A 		vcmpe.f32	s14, s16	@ x2, tmp710
 3960 0138 F1EE10FA 		vmrs	APSR_nzcv, FPSCR
 3961 013c 0EDB     		blt	.L186		@,
 3962              	@ mini3d/scene.c:530: 		 (x1 >= WIDTH && x2 >= WIDTH && x3 >= WIDTH && (face->p4 == NULL || face->p
 530:mini3d/scene.c **** 		 (y1 < 0 && y2 < 0 && y3 < 0 && (face->p4 == NULL || face->p4->y < 0)) ||
 3963              		.loc 1 530 32 view .LVU939
 3964 013e F4EEC87A 		vcmpe.f32	s15, s16	@ x3, tmp710
 3965 0142 F1EE10FA 		vmrs	APSR_nzcv, FPSCR
 3966 0146 09DB     		blt	.L186		@,
 3967              	@ mini3d/scene.c:530: 		 (x1 >= WIDTH && x2 >= WIDTH && x3 >= WIDTH && (face->p4 == NULL || face->p
 530:mini3d/scene.c **** 		 (y1 < 0 && y2 < 0 && y3 < 0 && (face->p4 == NULL || face->p4->y < 0)) ||
 3968              		.loc 1 530 55 view .LVU940
 3969 0148 E068     		ldr	r0, [r4, #12]	@ _60, face_365->p4
 3970              	@ mini3d/scene.c:530: 		 (x1 >= WIDTH && x2 >= WIDTH && x3 >= WIDTH && (face->p4 == NULL || face->p
 530:mini3d/scene.c **** 		 (y1 < 0 && y2 < 0 && y3 < 0 && (face->p4 == NULL || face->p4->y < 0)) ||
 3971              		.loc 1 530 47 view .LVU941
 3972 014a 0028     		cmp	r0, #0	@ _60
 3973 014c BFD0     		beq	.L181	@
 3974              	@ mini3d/scene.c:530: 		 (x1 >= WIDTH && x2 >= WIDTH && x3 >= WIDTH && (face->p4 == NULL || face->p
 530:mini3d/scene.c **** 		 (y1 < 0 && y2 < 0 && y3 < 0 && (face->p4 == NULL || face->p4->y < 0)) ||
 3975              		.loc 1 530 68 view .LVU942
 3976 014e D0ED004A 		vldr.32	s9, [r0]	@ _60->x, _60->x
 3977 0152 F4EEC84A 		vcmpe.f32	s9, s16	@ _60->x, tmp710
 3978 0156 F1EE10FA 		vmrs	APSR_nzcv, FPSCR
 3979 015a B8DA     		bge	.L181		@,
 3980              	.L186:
 3981              	@ mini3d/scene.c:530: 		 (x1 >= WIDTH && x2 >= WIDTH && x3 >= WIDTH && (face->p4 == NULL || face->p
 530:mini3d/scene.c **** 		 (y1 < 0 && y2 < 0 && y3 < 0 && (face->p4 == NULL || face->p4->y < 0)) ||
 3982              		.loc 1 530 94 view .LVU943
 3983 015c F5EEC05A 		vcmpe.f32	s11, #0	@ y1
 3984 0160 F1EE10FA 		vmrs	APSR_nzcv, FPSCR
 3985 0164 00F16681 		bmi	.L361		@,
 3986              	.L190:
 3987              	@ mini3d/scene.c:531: 		 (y1 < 0 && y2 < 0 && y3 < 0 && (face->p4 == NULL || face->p4->y < 0)) ||
 531:mini3d/scene.c **** 		 (y1 >= HEIGHT && y2 >= HEIGHT && y3 >= HEIGHT && (face->p4 == NULL || face->p4->y >= HEIGHT)) )
 3988              		.loc 1 531 74 view .LVU944
 3989 0168 F4EEE85A 		vcmpe.f32	s11, s17	@ y1, tmp702
 3990 016c F1EE10FA 		vmrs	APSR_nzcv, FPSCR
 3991 0170 13DB     		blt	.L194		@,
 3992              	@ mini3d/scene.c:532: 		 (y1 >= HEIGHT && y2 >= HEIGHT && y3 >= HEIGHT && (face->p4 == NULL || face
 532:mini3d/scene.c **** 		return;
 3993              		.loc 1 532 18 view .LVU945
 3994 0172 F4EEE86A 		vcmpe.f32	s13, s17	@ y2, tmp702
 3995 0176 F1EE10FA 		vmrs	APSR_nzcv, FPSCR
 3996 017a 0EDB     		blt	.L194		@,
 3997              	@ mini3d/scene.c:532: 		 (y1 >= HEIGHT && y2 >= HEIGHT && y3 >= HEIGHT && (face->p4 == NULL || face
 532:mini3d/scene.c **** 		return;
 3998              		.loc 1 532 34 view .LVU946
 3999 017c B4EEE86A 		vcmpe.f32	s12, s17	@ y3, tmp702
 4000 0180 F1EE10FA 		vmrs	APSR_nzcv, FPSCR
 4001 0184 09DB     		blt	.L194		@,
ARM GAS  /var/folders/cs/83z6p2tj4w57s6p2rt8nwfp00000gn/T//cc3yBana.s 			page 101


 4002              	@ mini3d/scene.c:532: 		 (y1 >= HEIGHT && y2 >= HEIGHT && y3 >= HEIGHT && (face->p4 == NULL || face
 532:mini3d/scene.c **** 		return;
 4003              		.loc 1 532 58 view .LVU947
 4004 0186 E068     		ldr	r0, [r4, #12]	@ _64, face_365->p4
 4005              	@ mini3d/scene.c:532: 		 (y1 >= HEIGHT && y2 >= HEIGHT && y3 >= HEIGHT && (face->p4 == NULL || face
 532:mini3d/scene.c **** 		return;
 4006              		.loc 1 532 50 view .LVU948
 4007 0188 0028     		cmp	r0, #0	@ _64
 4008 018a A0D0     		beq	.L181	@
 4009              	@ mini3d/scene.c:532: 		 (y1 >= HEIGHT && y2 >= HEIGHT && y3 >= HEIGHT && (face->p4 == NULL || face
 532:mini3d/scene.c **** 		return;
 4010              		.loc 1 532 71 view .LVU949
 4011 018c D0ED014A 		vldr.32	s9, [r0, #4]	@ _64->y, _64->y
 4012 0190 F4EEE84A 		vcmpe.f32	s9, s17	@ _64->y, tmp702
 4013 0194 F1EE10FA 		vmrs	APSR_nzcv, FPSCR
 4014 0198 99DA     		bge	.L181		@,
 4015              	.L194:
 535:mini3d/scene.c **** 	{
 4016              		.loc 1 535 2 is_stmt 1 view .LVU950
 4017              	@ mini3d/scene.c:535: 	if ( shape->prototype->isClosed )
 535:mini3d/scene.c **** 	{
 4018              		.loc 1 535 7 is_stmt 0 view .LVU951
 4019 019a 2868     		ldr	r0, [r5]	@ shape_20->prototype, shape_20->prototype
 4020 019c 90F82400 		ldrb	r0, [r0, #36]	@ zero_extendqisi2	@ *_66, *_66
 4021              	@ mini3d/scene.c:535: 	if ( shape->prototype->isClosed )
 535:mini3d/scene.c **** 	{
 4022              		.loc 1 535 5 view .LVU952
 4023 01a0 C007     		lsls	r0, r0, #31	@, *_66,
 4024 01a2 7FF56BAF 		bpl	.L362		@,
 4025              	.LBB155:
 539:mini3d/scene.c **** 
 4026              		.loc 1 539 3 is_stmt 1 view .LVU953
 541:mini3d/scene.c **** 			d = (x2 - x1) * (y3 - y1) - (y2 - y1) * (x3 - x1);
 4027              		.loc 1 541 3 view .LVU954
 4028              	@ mini3d/scene.c:541: 		if ( scene->hasPerspective ) // use winding order
 541:mini3d/scene.c **** 			d = (x2 - x1) * (y3 - y1) - (y2 - y1) * (x3 - x1);
 4029              		.loc 1 541 8 is_stmt 0 view .LVU955
 4030 01a6 99F80000 		ldrb	r0, [r9]	@ zero_extendqisi2	@ *scene_14(D), *scene_14(D)
 4031              	@ mini3d/scene.c:541: 		if ( scene->hasPerspective ) // use winding order
 541:mini3d/scene.c **** 			d = (x2 - x1) * (y3 - y1) - (y2 - y1) * (x3 - x1);
 4032              		.loc 1 541 6 view .LVU956
 4033 01aa C707     		lsls	r7, r0, #31	@, *scene_14(D),
 4034 01ac 40F15E81 		bpl	.L200		@,
 542:mini3d/scene.c **** 		else // use direction of normal
 4035              		.loc 1 542 4 is_stmt 1 view .LVU957
 4036              	@ mini3d/scene.c:542: 			d = (x2 - x1) * (y3 - y1) - (y2 - y1) * (x3 - x1);
 542:mini3d/scene.c **** 		else // use direction of normal
 4037              		.loc 1 542 36 is_stmt 0 view .LVU958
 4038 01b0 76EEE56A 		vsub.f32	s13, s13, s11	@ tmp419, y2, y1
 4039              	.LVL237:
 4040              	@ mini3d/scene.c:542: 			d = (x2 - x1) * (y3 - y1) - (y2 - y1) * (x3 - x1);
 542:mini3d/scene.c **** 		else // use direction of normal
 4041              		.loc 1 542 48 view .LVU959
 4042 01b4 77EEC57A 		vsub.f32	s15, s15, s10	@ tmp420, x3, x1
 4043              	.LVL238:
 4044              	@ mini3d/scene.c:542: 			d = (x2 - x1) * (y3 - y1) - (y2 - y1) * (x3 - x1);
 542:mini3d/scene.c **** 		else // use direction of normal
ARM GAS  /var/folders/cs/83z6p2tj4w57s6p2rt8nwfp00000gn/T//cc3yBana.s 			page 102


 4045              		.loc 1 542 12 view .LVU960
 4046 01b8 37EE457A 		vsub.f32	s14, s14, s10	@ tmp417, x2, x1
 4047              	.LVL239:
 4048              	@ mini3d/scene.c:542: 			d = (x2 - x1) * (y3 - y1) - (y2 - y1) * (x3 - x1);
 542:mini3d/scene.c **** 		else // use direction of normal
 4049              		.loc 1 542 24 view .LVU961
 4050 01bc 36EE656A 		vsub.f32	s12, s12, s11	@ tmp418, y3, y1
 4051              	.LVL240:
 4052              	@ mini3d/scene.c:542: 			d = (x2 - x1) * (y3 - y1) - (y2 - y1) * (x3 - x1);
 542:mini3d/scene.c **** 		else // use direction of normal
 4053              		.loc 1 542 6 view .LVU962
 4054 01c0 67EEE67A 		vnmul.f32	s15, s15, s13	@ tmp422, tmp420, tmp419
 4055 01c4 E7EE067A 		vfma.f32	s15, s14, s12	@ d, tmp417, tmp418
 4056              	.LVL241:
 4057              	.L201:
 546:mini3d/scene.c **** 			return;
 4058              		.loc 1 546 3 is_stmt 1 view .LVU963
 4059              	@ mini3d/scene.c:546: 		if ( (d >= 0) ^ (shape->inverted ? 1 : 0) )
 546:mini3d/scene.c **** 			return;
 4060              		.loc 1 546 8 is_stmt 0 view .LVU964
 4061 01c8 F5EEC07A 		vcmpe.f32	s15, #0	@ d
 4062              	@ mini3d/scene.c:546: 		if ( (d >= 0) ^ (shape->inverted ? 1 : 0) )
 546:mini3d/scene.c **** 			return;
 4063              		.loc 1 546 36 view .LVU965
 4064 01cc 95F85D70 		ldrb	r7, [r5, #93]	@ zero_extendqisi2	@ _81, *shape_20
 4065              	@ mini3d/scene.c:546: 		if ( (d >= 0) ^ (shape->inverted ? 1 : 0) )
 546:mini3d/scene.c **** 			return;
 4066              		.loc 1 546 6 view .LVU966
 4067 01d0 07F00100 		and	r0, r7, #1	@ tmp428, _81,
 4068              	@ mini3d/scene.c:546: 		if ( (d >= 0) ^ (shape->inverted ? 1 : 0) )
 546:mini3d/scene.c **** 			return;
 4069              		.loc 1 546 8 view .LVU967
 4070 01d4 F1EE10FA 		vmrs	APSR_nzcv, FPSCR
 4071              	@ mini3d/scene.c:546: 		if ( (d >= 0) ^ (shape->inverted ? 1 : 0) )
 546:mini3d/scene.c **** 			return;
 4072              		.loc 1 546 6 view .LVU968
 4073 01d8 ACBF     		ite	ge
 4074 01da 4FF0010C 		movge	ip, #1	@ tmp427,
 4075 01de 4FF0000C 		movlt	ip, #0	@ tmp427,
 4076 01e2 8445     		cmp	ip, r0	@ tmp427, tmp428
 4077 01e4 3FF44CAF 		beq	.L199		@,
 4078              	.LVL242:
 546:mini3d/scene.c **** 			return;
 4079              		.loc 1 546 6 view .LVU969
 4080              	.LBE155:
 4081              	.LBE169:
 4082              	.LBE175:
 616:mini3d/scene.c **** 			}
 4083              		.loc 1 616 5 is_stmt 1 view .LVU970
 4084              	@ mini3d/scene.c:616: 				face = face->next;
 616:mini3d/scene.c **** 			}
 4085              		.loc 1 616 10 is_stmt 0 view .LVU971
 4086 01e8 246A     		ldr	r4, [r4, #32]	@ face, face_365->next
 4087              	.LVL243:
 613:mini3d/scene.c **** 			{
 4088              		.loc 1 613 10 is_stmt 1 view .LVU972
 4089 01ea 002C     		cmp	r4, #0	@ face
ARM GAS  /var/folders/cs/83z6p2tj4w57s6p2rt8nwfp00000gn/T//cc3yBana.s 			page 103


 4090 01ec 7FF473AF 		bne	.L178	@
 4091              	.L211:
 613:mini3d/scene.c **** 			{
 4092              		.loc 1 613 10 is_stmt 0 view .LVU973
 4093              	.LBE179:
 609:mini3d/scene.c **** 		{
 4094              		.loc 1 609 52 is_stmt 1 view .LVU974
 4095              	@ mini3d/scene.c:609: 		for ( int i = shape->orderTableSize - 1; i >= 0; --i )
 609:mini3d/scene.c **** 		{
 4096              		.loc 1 609 3 is_stmt 0 view .LVU975
 4097 01f0 013E     		subs	r6, r6, #1	@ i, i,
 4098              	.LVL244:
 609:mini3d/scene.c **** 		{
 4099              		.loc 1 609 3 view .LVU976
 4100 01f2 BFF43EAF 		bcs	.L179		@,
 4101 01f6 069F     		ldr	r7, [sp, #24]	@ style, %sfp
 4102              	.LVL245:
 609:mini3d/scene.c **** 		{
 4103              		.loc 1 609 3 view .LVU977
 4104              	.LBE183:
 4105              	.LBE217:
 4106              	.LBE223:
 4107              		.loc 1 738 3 is_stmt 1 view .LVU978
 4108              	@ mini3d/scene.c:738: 		if ( style & kRenderWireframe )
 4109              		.loc 1 738 6 is_stmt 0 view .LVU979
 4110 01f8 BC07     		lsls	r4, r7, #30	@, style,
 4111 01fa 7FF51EAF 		bpl	.L177		@,
 4112              	.LVL246:
 4113              	.L357:
 739:mini3d/scene.c **** 			drawWireframe(scene, shape, bitmap, rowstride);
 4114              		.loc 1 739 4 is_stmt 1 view .LVU980
 4115              	.LBB224:
 4116              	.LBI224:
 627:mini3d/scene.c **** {
 4117              		.loc 1 627 1 view .LVU981
 4118              	.LBB225:
 629:mini3d/scene.c **** 	RenderStyle style = shape->renderStyle;
 4119              		.loc 1 629 2 view .LVU982
 630:mini3d/scene.c **** 	uint8_t* color = patterns[32];
 4120              		.loc 1 630 2 view .LVU983
 4121              	@ mini3d/scene.c:633: 	for ( f = 0; f < shape->nFaces; ++f )
 633:mini3d/scene.c **** 	{
 4122              		.loc 1 633 2 is_stmt 0 view .LVU984
 4123 01fe D5F844C0 		ldr	ip, [r5, #68]	@ shape_20->nFaces, shape_20->nFaces
 4124              	@ mini3d/scene.c:630: 	RenderStyle style = shape->renderStyle;
 630:mini3d/scene.c **** 	uint8_t* color = patterns[32];
 4125              		.loc 1 630 14 view .LVU985
 4126 0202 95F85C30 		ldrb	r3, [r5, #92]	@ zero_extendqisi2	@ style, shape_20->renderStyle
 4127              	.LVL247:
 631:mini3d/scene.c **** 
 4128              		.loc 1 631 2 is_stmt 1 view .LVU986
 633:mini3d/scene.c **** 	{
 4129              		.loc 1 633 2 view .LVU987
 633:mini3d/scene.c **** 	{
 4130              		.loc 1 633 15 view .LVU988
 4131              	@ mini3d/scene.c:633: 	for ( f = 0; f < shape->nFaces; ++f )
 633:mini3d/scene.c **** 	{
ARM GAS  /var/folders/cs/83z6p2tj4w57s6p2rt8nwfp00000gn/T//cc3yBana.s 			page 104


 4132              		.loc 1 633 2 is_stmt 0 view .LVU989
 4133 0206 BCF1000F 		cmp	ip, #0	@ shape_20->nFaces,
 4134 020a 7FF716AF 		ble	.L177		@,
 4135              	.LBB226:
 4136              	@ mini3d/scene.c:657: 		if ( (style & kRenderWireframeBack) == 0 )
 657:mini3d/scene.c **** 		{
 4137              		.loc 1 657 6 view .LVU990
 4138 020e 03F00403 		and	r3, r3, #4	@ tmp696, style,
 4139              	.LVL248:
 4140              	@ mini3d/scene.c:692: 			drawLine(bitmap, rowstride, face->p1, face->p2, 1, color);
 692:mini3d/scene.c **** 			drawLine(bitmap, rowstride, face->p2, face->p3, 1, color);
 4141              		.loc 1 692 4 view .LVU991
 4142 0212 CDF81C90 		str	r9, [sp, #28]	@ scene, %sfp
 4143              	.LBE226:
 4144              	@ mini3d/scene.c:633: 	for ( f = 0; f < shape->nFaces; ++f )
 633:mini3d/scene.c **** 	{
 4145              		.loc 1 633 10 view .LVU992
 4146 0216 0026     		movs	r6, #0	@ f,
 4147              	.LBB229:
 4148              	@ mini3d/scene.c:648: 		float x4 = (face->p4 != NULL) ? face->p4->x : 0;
 648:mini3d/scene.c **** 		float y4 = (face->p4 != NULL) ? face->p4->y : 0;
 4149              		.loc 1 648 47 view .LVU993
 4150 0218 DFED089A 		vldr.32	s19, .L374+16	@ _229,
 4151              	@ mini3d/scene.c:654: 			 (y1 < 0 && y2 < 0 && y3 < 0 && x4 < 0) || (y1 >= HEIGHT && y2 >= HEIGHT &
 654:mini3d/scene.c **** 			continue;
 4152              		.loc 1 654 44 view .LVU994
 4153 021c DFED058A 		vldr.32	s17, .L374+8	@ tmp695,
 4154              	@ mini3d/scene.c:692: 			drawLine(bitmap, rowstride, face->p1, face->p2, 1, color);
 692:mini3d/scene.c **** 			drawLine(bitmap, rowstride, face->p2, face->p3, 1, color);
 4155              		.loc 1 692 4 view .LVU995
 4156 0220 A846     		mov	r8, r5	@ shape, shape
 4157 0222 1AEE109A 		vmov	r9, s20	@ int	@ rowstride, rowstride
 4158 0226 6146     		mov	r1, ip	@ shape_20->nFaces, shape_20->nFaces
 4159              	@ mini3d/scene.c:657: 		if ( (style & kRenderWireframeBack) == 0 )
 657:mini3d/scene.c **** 		{
 4160              		.loc 1 657 6 view .LVU996
 4161 0228 0693     		str	r3, [sp, #24]	@ tmp696, %sfp
 4162 022a 41E0     		b	.L268		@
 4163              	.L375:
 4164              		.align	2
 4165              	.L374:
 4166 022c 0000C843 		.word	1137180672
 4167 0230 C3F50342 		.word	1107555779
 4168 0234 00007043 		.word	1131413504
 4169 0238 00010000 		.word	.LANCHOR0+256
 4170 023c 00000000 		.word	0
 4171 0240 00000000 		.word	.LANCHOR0
 4172              	.LVL249:
 4173              	.L366:
 657:mini3d/scene.c **** 		{
 4174              		.loc 1 657 6 view .LVU997
 4175 0244 98F85D00 		ldrb	r0, [r8, #93]	@ zero_extendqisi2	@ _253, *shape_20
 4176              	.LVL250:
 4177              	.L262:
 676:mini3d/scene.c **** 		{
 4178              		.loc 1 676 3 is_stmt 1 view .LVU998
 4179              	@ mini3d/scene.c:678: 			drawLine_zbuf(bitmap, rowstride, face->p1, face->p2, 1, color);
ARM GAS  /var/folders/cs/83z6p2tj4w57s6p2rt8nwfp00000gn/T//cc3yBana.s 			page 105


 678:mini3d/scene.c **** 			drawLine_zbuf(bitmap, rowstride, face->p2, face->p3, 1, color);
 4180              		.loc 1 678 4 is_stmt 0 view .LVU999
 4181 0248 DB49     		ldr	r1, .L376	@ tmp765,
 4182 024a 4FF0010A 		mov	r10, #1	@ tmp648,
 4183              	@ mini3d/scene.c:676: 		if ( shape->useZBuffer )
 676:mini3d/scene.c **** 		{
 4184              		.loc 1 676 6 view .LVU1000
 4185 024e 10F0020F 		tst	r0, #2	@ _253,
 4186              	@ mini3d/scene.c:678: 			drawLine_zbuf(bitmap, rowstride, face->p1, face->p2, 1, color);
 678:mini3d/scene.c **** 			drawLine_zbuf(bitmap, rowstride, face->p2, face->p3, 1, color);
 4187              		.loc 1 678 4 view .LVU1001
 4188 0252 5846     		mov	r0, fp	@, bitmap
 4189 0254 CDE900A1 		strd	r10, r1, [sp]	@ tmp648, tmp765,
 4190 0258 4946     		mov	r1, r9	@, rowstride
 4191              	@ mini3d/scene.c:676: 		if ( shape->useZBuffer )
 676:mini3d/scene.c **** 		{
 4192              		.loc 1 676 6 view .LVU1002
 4193 025a 00F07381 		beq	.L265		@,
 4194              	.LVL251:
 678:mini3d/scene.c **** 			drawLine_zbuf(bitmap, rowstride, face->p2, face->p3, 1, color);
 4195              		.loc 1 678 4 is_stmt 1 view .LVU1003
 4196 025e FFF7FEFF 		bl	drawLine_zbuf		@
 4197              	.LVL252:
 679:mini3d/scene.c **** 
 4198              		.loc 1 679 4 view .LVU1004
 4199 0262 D548     		ldr	r0, .L376	@ tmp766,
 4200 0264 4946     		mov	r1, r9	@, rowstride
 4201 0266 D4E90123 		ldrd	r2, r3, [r4, #4]	@ face_221->p2, face_221->p3, face,
 4202 026a 0190     		str	r0, [sp, #4]	@ tmp766,
 4203 026c 5846     		mov	r0, fp	@, bitmap
 4204 026e CDF800A0 		str	r10, [sp]	@ tmp648,
 4205 0272 FFF7FEFF 		bl	drawLine_zbuf		@
 4206              	.LVL253:
 681:mini3d/scene.c **** 			{
 4207              		.loc 1 681 4 view .LVU1005
 4208              	@ mini3d/scene.c:681: 			if ( face->p4 != NULL )
 681:mini3d/scene.c **** 			{
 4209              		.loc 1 681 13 is_stmt 0 view .LVU1006
 4210 0276 E368     		ldr	r3, [r4, #12]	@ _259, face_221->p4
 4211              	@ mini3d/scene.c:681: 			if ( face->p4 != NULL )
 681:mini3d/scene.c **** 			{
 4212              		.loc 1 681 7 view .LVU1007
 4213 0278 002B     		cmp	r3, #0	@ _259
 4214 027a 00F0A382 		beq	.L266	@
 683:mini3d/scene.c **** 				drawLine_zbuf(bitmap, rowstride, face->p4, face->p1, 1, color);
 4215              		.loc 1 683 5 is_stmt 1 view .LVU1008
 4216 027e CE48     		ldr	r0, .L376	@ tmp767,
 4217 0280 4946     		mov	r1, r9	@, rowstride
 4218 0282 A268     		ldr	r2, [r4, #8]	@ face_221->p3, face_221->p3
 4219 0284 0190     		str	r0, [sp, #4]	@ tmp767,
 4220 0286 5846     		mov	r0, fp	@, bitmap
 4221 0288 CDF800A0 		str	r10, [sp]	@ tmp648,
 4222 028c FFF7FEFF 		bl	drawLine_zbuf		@
 4223              	.LVL254:
 684:mini3d/scene.c **** 			}
 4224              		.loc 1 684 5 view .LVU1009
 4225 0290 C948     		ldr	r0, .L376	@ tmp768,
ARM GAS  /var/folders/cs/83z6p2tj4w57s6p2rt8nwfp00000gn/T//cc3yBana.s 			page 106


 4226 0292 55F82730 		ldr	r3, [r5, r7, lsl #2]	@ face_221->p1, face_221->p1
 4227 0296 4946     		mov	r1, r9	@, rowstride
 4228 0298 E268     		ldr	r2, [r4, #12]	@ face_221->p4, face_221->p4
 4229 029a CDE900A0 		strd	r10, r0, [sp]	@ tmp648, tmp768,
 4230 029e 5846     		mov	r0, fp	@, bitmap
 4231 02a0 FFF7FEFF 		bl	drawLine_zbuf		@
 4232              	.LVL255:
 4233 02a4 D8F84410 		ldr	r1, [r8, #68]	@ shape_20->nFaces, shape_20->nFaces
 4234              	.LVL256:
 4235              	.L242:
 684:mini3d/scene.c **** 			}
 4236              		.loc 1 684 5 is_stmt 0 view .LVU1010
 4237              	.LBE229:
 633:mini3d/scene.c **** 	{
 4238              		.loc 1 633 34 is_stmt 1 view .LVU1011
 4239 02a8 0136     		adds	r6, r6, #1	@ f, f,
 4240              	.LVL257:
 633:mini3d/scene.c **** 	{
 4241              		.loc 1 633 15 view .LVU1012
 4242              	@ mini3d/scene.c:633: 	for ( f = 0; f < shape->nFaces; ++f )
 633:mini3d/scene.c **** 	{
 4243              		.loc 1 633 2 is_stmt 0 view .LVU1013
 4244 02aa 8E42     		cmp	r6, r1	@ f, shape_20->nFaces
 4245 02ac 80F22F81 		bge	.L363		@,
 4246              	.LVL258:
 4247              	.L268:
 4248              	.LBB230:
 635:mini3d/scene.c **** 
 4249              		.loc 1 635 3 is_stmt 1 view .LVU1014
 4250              	@ mini3d/scene.c:635: 		FaceInstance* face = &shape->faces[f];
 635:mini3d/scene.c **** 
 4251              		.loc 1 635 17 is_stmt 0 view .LVU1015
 4252 02b0 06EBC607 		add	r7, r6, r6, lsl #3	@ tmp597, f, f,
 4253 02b4 D8F84850 		ldr	r5, [r8, #72]	@ shape_20->faces, shape_20->faces
 4254              	@ mini3d/scene.c:639: 		if ( face->p1->z <= 0 || face->p2->z <= 0 || face->p3->z <= 0 || (face->p4 
 639:mini3d/scene.c **** 			continue;
 4255              		.loc 1 639 12 view .LVU1016
 4256 02b8 55F82720 		ldr	r2, [r5, r7, lsl #2]	@ _222, face_221->p1
 4257              	@ mini3d/scene.c:635: 		FaceInstance* face = &shape->faces[f];
 635:mini3d/scene.c **** 
 4258              		.loc 1 635 17 view .LVU1017
 4259 02bc 05EB8704 		add	r4, r5, r7, lsl #2	@ face, shape_20->faces, tmp597,
 4260              	.LVL259:
 639:mini3d/scene.c **** 			continue;
 4261              		.loc 1 639 3 is_stmt 1 view .LVU1018
 4262              	@ mini3d/scene.c:639: 		if ( face->p1->z <= 0 || face->p2->z <= 0 || face->p3->z <= 0 || (face->p4 
 639:mini3d/scene.c **** 			continue;
 4263              		.loc 1 639 6 is_stmt 0 view .LVU1019
 4264 02c0 D2ED027A 		vldr.32	s15, [r2, #8]	@ _222->z, _222->z
 4265 02c4 F5EEC07A 		vcmpe.f32	s15, #0	@ _222->z
 4266 02c8 F1EE10FA 		vmrs	APSR_nzcv, FPSCR
 4267 02cc ECD9     		bls	.L242		@,
 4268              	@ mini3d/scene.c:639: 		if ( face->p1->z <= 0 || face->p2->z <= 0 || face->p3->z <= 0 || (face->p4 
 639:mini3d/scene.c **** 			continue;
 4269              		.loc 1 639 32 view .LVU1020
 4270 02ce 6368     		ldr	r3, [r4, #4]	@ _224, face_221->p2
 4271              	@ mini3d/scene.c:639: 		if ( face->p1->z <= 0 || face->p2->z <= 0 || face->p3->z <= 0 || (face->p4 
ARM GAS  /var/folders/cs/83z6p2tj4w57s6p2rt8nwfp00000gn/T//cc3yBana.s 			page 107


 639:mini3d/scene.c **** 			continue;
 4272              		.loc 1 639 25 view .LVU1021
 4273 02d0 D3ED027A 		vldr.32	s15, [r3, #8]	@ _224->z, _224->z
 4274 02d4 F5EEC07A 		vcmpe.f32	s15, #0	@ _224->z
 4275 02d8 F1EE10FA 		vmrs	APSR_nzcv, FPSCR
 4276 02dc E4D9     		bls	.L242		@,
 4277              	@ mini3d/scene.c:639: 		if ( face->p1->z <= 0 || face->p2->z <= 0 || face->p3->z <= 0 || (face->p4 
 639:mini3d/scene.c **** 			continue;
 4278              		.loc 1 639 52 view .LVU1022
 4279 02de A068     		ldr	r0, [r4, #8]	@ _226, face_221->p3
 4280              	@ mini3d/scene.c:639: 		if ( face->p1->z <= 0 || face->p2->z <= 0 || face->p3->z <= 0 || (face->p4 
 639:mini3d/scene.c **** 			continue;
 4281              		.loc 1 639 45 view .LVU1023
 4282 02e0 D0ED027A 		vldr.32	s15, [r0, #8]	@ _226->z, _226->z
 4283 02e4 F5EEC07A 		vcmpe.f32	s15, #0	@ _226->z
 4284 02e8 F1EE10FA 		vmrs	APSR_nzcv, FPSCR
 4285 02ec DCD9     		bls	.L242		@,
 4286              	@ mini3d/scene.c:639: 		if ( face->p1->z <= 0 || face->p2->z <= 0 || face->p3->z <= 0 || (face->p4 
 639:mini3d/scene.c **** 			continue;
 4287              		.loc 1 639 73 view .LVU1024
 4288 02ee D4F80CE0 		ldr	lr, [r4, #12]	@ _228, face_221->p4
 4289              	@ mini3d/scene.c:639: 		if ( face->p1->z <= 0 || face->p2->z <= 0 || face->p3->z <= 0 || (face->p4 
 639:mini3d/scene.c **** 			continue;
 4290              		.loc 1 639 65 view .LVU1025
 4291 02f2 BEF1000F 		cmp	lr, #0	@ _228
 4292 02f6 00F04B81 		beq	.L243	@
 4293              	@ mini3d/scene.c:639: 		if ( face->p1->z <= 0 || face->p2->z <= 0 || face->p3->z <= 0 || (face->p4 
 639:mini3d/scene.c **** 			continue;
 4294              		.loc 1 639 97 view .LVU1026
 4295 02fa 9EED005A 		vldr.32	s10, [lr]	@ _229, _228->x
 4296              	@ mini3d/scene.c:639: 		if ( face->p1->z <= 0 || face->p2->z <= 0 || face->p3->z <= 0 || (face->p4 
 639:mini3d/scene.c **** 			continue;
 4297              		.loc 1 639 86 view .LVU1027
 4298 02fe B5EEC05A 		vcmpe.f32	s10, #0	@ _229
 4299 0302 F1EE10FA 		vmrs	APSR_nzcv, FPSCR
 4300 0306 CFD9     		bls	.L242		@,
 642:mini3d/scene.c **** 		float y1 = face->p1->y;
 4301              		.loc 1 642 3 is_stmt 1 view .LVU1028
 4302              	@ mini3d/scene.c:642: 		float x1 = face->p1->x;
 642:mini3d/scene.c **** 		float y1 = face->p1->y;
 4303              		.loc 1 642 9 is_stmt 0 view .LVU1029
 4304 0308 D2ED007A 		vldr.32	s15, [r2]	@ x1, _222->x
 4305              	.LVL260:
 643:mini3d/scene.c **** 		float x2 = face->p2->x;
 4306              		.loc 1 643 3 is_stmt 1 view .LVU1030
 4307              	@ mini3d/scene.c:643: 		float y1 = face->p1->y;
 643:mini3d/scene.c **** 		float x2 = face->p2->x;
 4308              		.loc 1 643 9 is_stmt 0 view .LVU1031
 4309 030c D2ED016A 		vldr.32	s13, [r2, #4]	@ y1, _222->y
 4310              	.LVL261:
 644:mini3d/scene.c **** 		float y2 = face->p2->y;
 4311              		.loc 1 644 3 is_stmt 1 view .LVU1032
 4312              	@ mini3d/scene.c:644: 		float x2 = face->p2->x;
 644:mini3d/scene.c **** 		float y2 = face->p2->y;
 4313              		.loc 1 644 9 is_stmt 0 view .LVU1033
 4314 0310 93ED006A 		vldr.32	s12, [r3]	@ x2, _224->x
 4315              	.LVL262:
ARM GAS  /var/folders/cs/83z6p2tj4w57s6p2rt8nwfp00000gn/T//cc3yBana.s 			page 108


 645:mini3d/scene.c **** 		float x3 = face->p3->x;
 4316              		.loc 1 645 3 is_stmt 1 view .LVU1034
 4317              	@ mini3d/scene.c:645: 		float y2 = face->p2->y;
 645:mini3d/scene.c **** 		float x3 = face->p3->x;
 4318              		.loc 1 645 9 is_stmt 0 view .LVU1035
 4319 0314 D3ED015A 		vldr.32	s11, [r3, #4]	@ y2, _224->y
 4320              	.LVL263:
 646:mini3d/scene.c **** 		float y3 = face->p3->y;
 4321              		.loc 1 646 3 is_stmt 1 view .LVU1036
 4322              	@ mini3d/scene.c:646: 		float x3 = face->p3->x;
 646:mini3d/scene.c **** 		float y3 = face->p3->y;
 4323              		.loc 1 646 9 is_stmt 0 view .LVU1037
 4324 0318 90ED007A 		vldr.32	s14, [r0]	@ x3, _226->x
 4325              	.LVL264:
 647:mini3d/scene.c **** 		float x4 = (face->p4 != NULL) ? face->p4->x : 0;
 4326              		.loc 1 647 3 is_stmt 1 view .LVU1038
 4327              	@ mini3d/scene.c:647: 		float y3 = face->p3->y;
 647:mini3d/scene.c **** 		float x4 = (face->p4 != NULL) ? face->p4->x : 0;
 4328              		.loc 1 647 9 is_stmt 0 view .LVU1039
 4329 031c D0ED014A 		vldr.32	s9, [r0, #4]	@ y3, _226->y
 4330              	.LVL265:
 648:mini3d/scene.c **** 		float y4 = (face->p4 != NULL) ? face->p4->y : 0;
 4331              		.loc 1 648 3 is_stmt 1 view .LVU1040
 649:mini3d/scene.c **** 
 4332              		.loc 1 649 3 view .LVU1041
 4333              	@ mini3d/scene.c:649: 		float y4 = (face->p4 != NULL) ? face->p4->y : 0;
 649:mini3d/scene.c **** 
 4334              		.loc 1 649 47 is_stmt 0 view .LVU1042
 4335 0320 9EED014A 		vldr.32	s8, [lr, #4]	@ iftmp.42_237, _228->y
 4336              	.LVL266:
 4337              	.L271:
 653:mini3d/scene.c **** 			 (y1 < 0 && y2 < 0 && y3 < 0 && x4 < 0) || (y1 >= HEIGHT && y2 >= HEIGHT && y3 >= HEIGHT && y4 >
 4338              		.loc 1 653 3 is_stmt 1 view .LVU1043
 4339              	@ mini3d/scene.c:653: 		if ( (x1 < 0 && x2 < 0 && x3 < 0 && x4 < 0) || (x1 >= WIDTH && x2 >= WIDTH 
 653:mini3d/scene.c **** 			 (y1 < 0 && y2 < 0 && y3 < 0 && x4 < 0) || (y1 >= HEIGHT && y2 >= HEIGHT && y3 >= HEIGHT && y4 >
 4340              		.loc 1 653 6 is_stmt 0 view .LVU1044
 4341 0324 F5EEC07A 		vcmpe.f32	s15, #0	@ x1
 4342 0328 F1EE10FA 		vmrs	APSR_nzcv, FPSCR
 4343 032c 00F1D980 		bmi	.L364		@,
 4344              	.L245:
 4345              	@ mini3d/scene.c:653: 		if ( (x1 < 0 && x2 < 0 && x3 < 0 && x4 < 0) || (x1 >= WIDTH && x2 >= WIDTH 
 653:mini3d/scene.c **** 			 (y1 < 0 && y2 < 0 && y3 < 0 && x4 < 0) || (y1 >= HEIGHT && y2 >= HEIGHT && y3 >= HEIGHT && y4 >
 4346              		.loc 1 653 47 view .LVU1045
 4347 0330 F4EEC87A 		vcmpe.f32	s15, s16	@ x1, tmp710
 4348 0334 F1EE10FA 		vmrs	APSR_nzcv, FPSCR
 4349 0338 0EDB     		blt	.L249		@,
 4350              	@ mini3d/scene.c:653: 		if ( (x1 < 0 && x2 < 0 && x3 < 0 && x4 < 0) || (x1 >= WIDTH && x2 >= WIDTH 
 653:mini3d/scene.c **** 			 (y1 < 0 && y2 < 0 && y3 < 0 && x4 < 0) || (y1 >= HEIGHT && y2 >= HEIGHT && y3 >= HEIGHT && y4 >
 4351              		.loc 1 653 63 view .LVU1046
 4352 033a B4EEC86A 		vcmpe.f32	s12, s16	@ x2, tmp710
 4353 033e F1EE10FA 		vmrs	APSR_nzcv, FPSCR
 4354 0342 09DB     		blt	.L249		@,
 4355              	@ mini3d/scene.c:653: 		if ( (x1 < 0 && x2 < 0 && x3 < 0 && x4 < 0) || (x1 >= WIDTH && x2 >= WIDTH 
 653:mini3d/scene.c **** 			 (y1 < 0 && y2 < 0 && y3 < 0 && x4 < 0) || (y1 >= HEIGHT && y2 >= HEIGHT && y3 >= HEIGHT && y4 >
 4356              		.loc 1 653 78 view .LVU1047
 4357 0344 B4EEC87A 		vcmpe.f32	s14, s16	@ x3, tmp710
 4358 0348 F1EE10FA 		vmrs	APSR_nzcv, FPSCR
ARM GAS  /var/folders/cs/83z6p2tj4w57s6p2rt8nwfp00000gn/T//cc3yBana.s 			page 109


 4359 034c 04DB     		blt	.L249		@,
 4360              	@ mini3d/scene.c:653: 		if ( (x1 < 0 && x2 < 0 && x3 < 0 && x4 < 0) || (x1 >= WIDTH && x2 >= WIDTH 
 653:mini3d/scene.c **** 			 (y1 < 0 && y2 < 0 && y3 < 0 && x4 < 0) || (y1 >= HEIGHT && y2 >= HEIGHT && y3 >= HEIGHT && y4 >
 4361              		.loc 1 653 93 view .LVU1048
 4362 034e B4EEC85A 		vcmpe.f32	s10, s16	@ _229, tmp710
 4363 0352 F1EE10FA 		vmrs	APSR_nzcv, FPSCR
 4364 0356 A7DA     		bge	.L242		@,
 4365              	.L249:
 4366              	@ mini3d/scene.c:653: 		if ( (x1 < 0 && x2 < 0 && x3 < 0 && x4 < 0) || (x1 >= WIDTH && x2 >= WIDTH 
 653:mini3d/scene.c **** 			 (y1 < 0 && y2 < 0 && y3 < 0 && x4 < 0) || (y1 >= HEIGHT && y2 >= HEIGHT && y3 >= HEIGHT && y4 >
 4367              		.loc 1 653 109 view .LVU1049
 4368 0358 F5EEC06A 		vcmpe.f32	s13, #0	@ y1
 4369 035c F1EE10FA 		vmrs	APSR_nzcv, FPSCR
 4370 0360 00F1D880 		bmi	.L365		@,
 4371              	.L253:
 4372              	@ mini3d/scene.c:654: 			 (y1 < 0 && y2 < 0 && y3 < 0 && x4 < 0) || (y1 >= HEIGHT && y2 >= HEIGHT &
 654:mini3d/scene.c **** 			continue;
 4373              		.loc 1 654 44 view .LVU1050
 4374 0364 F4EEE86A 		vcmpe.f32	s13, s17	@ y1, tmp695
 4375 0368 F1EE10FA 		vmrs	APSR_nzcv, FPSCR
 4376 036c 0EDB     		blt	.L257		@,
 4377              	@ mini3d/scene.c:654: 			 (y1 < 0 && y2 < 0 && y3 < 0 && x4 < 0) || (y1 >= HEIGHT && y2 >= HEIGHT &
 654:mini3d/scene.c **** 			continue;
 4378              		.loc 1 654 61 view .LVU1051
 4379 036e F4EEE85A 		vcmpe.f32	s11, s17	@ y2, tmp695
 4380 0372 F1EE10FA 		vmrs	APSR_nzcv, FPSCR
 4381 0376 09DB     		blt	.L257		@,
 4382              	@ mini3d/scene.c:654: 			 (y1 < 0 && y2 < 0 && y3 < 0 && x4 < 0) || (y1 >= HEIGHT && y2 >= HEIGHT &
 654:mini3d/scene.c **** 			continue;
 4383              		.loc 1 654 77 view .LVU1052
 4384 0378 F4EEE84A 		vcmpe.f32	s9, s17	@ y3, tmp695
 4385 037c F1EE10FA 		vmrs	APSR_nzcv, FPSCR
 4386 0380 04DB     		blt	.L257		@,
 4387              	@ mini3d/scene.c:654: 			 (y1 < 0 && y2 < 0 && y3 < 0 && x4 < 0) || (y1 >= HEIGHT && y2 >= HEIGHT &
 654:mini3d/scene.c **** 			continue;
 4388              		.loc 1 654 93 view .LVU1053
 4389 0382 B4EEE84A 		vcmpe.f32	s8, s17	@ iftmp.42_237, tmp695
 4390 0386 F1EE10FA 		vmrs	APSR_nzcv, FPSCR
 4391 038a 8DDA     		bge	.L242		@,
 4392              	.L257:
 657:mini3d/scene.c **** 		{
 4393              		.loc 1 657 3 is_stmt 1 view .LVU1054
 4394              	@ mini3d/scene.c:657: 		if ( (style & kRenderWireframeBack) == 0 )
 657:mini3d/scene.c **** 		{
 4395              		.loc 1 657 6 is_stmt 0 view .LVU1055
 4396 038c 0698     		ldr	r0, [sp, #24]	@ tmp696, %sfp
 4397 038e 0028     		cmp	r0, #0	@ tmp696
 4398 0390 7FF458AF 		bne	.L366	@
 4399              	.LBB227:
 661:mini3d/scene.c **** 
 4400              		.loc 1 661 4 is_stmt 1 view .LVU1056
 663:mini3d/scene.c **** 				d = (x2 - x1) * (y3 - y1) - (y2 - y1) * (x3 - x1);
 4401              		.loc 1 663 4 view .LVU1057
 4402              	@ mini3d/scene.c:663: 			if ( scene->hasPerspective ) // use winding order
 663:mini3d/scene.c **** 				d = (x2 - x1) * (y3 - y1) - (y2 - y1) * (x3 - x1);
 4403              		.loc 1 663 9 is_stmt 0 view .LVU1058
 4404 0394 0798     		ldr	r0, [sp, #28]	@ scene, %sfp
ARM GAS  /var/folders/cs/83z6p2tj4w57s6p2rt8nwfp00000gn/T//cc3yBana.s 			page 110


 4405 0396 0078     		ldrb	r0, [r0]	@ zero_extendqisi2	@ *scene_14(D), *scene_14(D)
 4406              	@ mini3d/scene.c:663: 			if ( scene->hasPerspective ) // use winding order
 663:mini3d/scene.c **** 				d = (x2 - x1) * (y3 - y1) - (y2 - y1) * (x3 - x1);
 4407              		.loc 1 663 7 view .LVU1059
 4408 0398 C007     		lsls	r0, r0, #31	@, *scene_14(D),
 4409 039a 40F10A81 		bpl	.L263		@,
 664:mini3d/scene.c **** 			else // use direction of normal
 4410              		.loc 1 664 5 is_stmt 1 view .LVU1060
 4411              	@ mini3d/scene.c:664: 				d = (x2 - x1) * (y3 - y1) - (y2 - y1) * (x3 - x1);
 664:mini3d/scene.c **** 			else // use direction of normal
 4412              		.loc 1 664 37 is_stmt 0 view .LVU1061
 4413 039e 75EEE65A 		vsub.f32	s11, s11, s13	@ tmp633, y2, y1
 4414              	.LVL267:
 4415              	@ mini3d/scene.c:664: 				d = (x2 - x1) * (y3 - y1) - (y2 - y1) * (x3 - x1);
 664:mini3d/scene.c **** 			else // use direction of normal
 4416              		.loc 1 664 49 view .LVU1062
 4417 03a2 37EE677A 		vsub.f32	s14, s14, s15	@ tmp634, x3, x1
 4418              	.LVL268:
 4419              	@ mini3d/scene.c:664: 				d = (x2 - x1) * (y3 - y1) - (y2 - y1) * (x3 - x1);
 664:mini3d/scene.c **** 			else // use direction of normal
 4420              		.loc 1 664 25 view .LVU1063
 4421 03a6 74EEE66A 		vsub.f32	s13, s9, s13	@ tmp632, y3, y1
 4422              	.LVL269:
 4423              	@ mini3d/scene.c:664: 				d = (x2 - x1) * (y3 - y1) - (y2 - y1) * (x3 - x1);
 664:mini3d/scene.c **** 			else // use direction of normal
 4424              		.loc 1 664 13 view .LVU1064
 4425 03aa 76EE677A 		vsub.f32	s15, s12, s15	@ tmp631, x2, x1
 4426              	.LVL270:
 4427              	@ mini3d/scene.c:664: 				d = (x2 - x1) * (y3 - y1) - (y2 - y1) * (x3 - x1);
 664:mini3d/scene.c **** 			else // use direction of normal
 4428              		.loc 1 664 7 view .LVU1065
 4429 03ae 27EE657A 		vnmul.f32	s14, s14, s11	@ tmp636, tmp634, tmp633
 4430 03b2 A7EEA67A 		vfma.f32	s14, s15, s13	@ d, tmp631, tmp632
 4431              	.LVL271:
 4432              	.L264:
 668:mini3d/scene.c **** 				continue;
 4433              		.loc 1 668 4 is_stmt 1 view .LVU1066
 4434              	@ mini3d/scene.c:668: 			if ( (d > 0) ^ (shape->inverted ? 1 : 0) )
 668:mini3d/scene.c **** 				continue;
 4435              		.loc 1 668 9 is_stmt 0 view .LVU1067
 4436 03b6 B5EEC07A 		vcmpe.f32	s14, #0	@ d
 4437              	@ mini3d/scene.c:668: 			if ( (d > 0) ^ (shape->inverted ? 1 : 0) )
 668:mini3d/scene.c **** 				continue;
 4438              		.loc 1 668 36 view .LVU1068
 4439 03ba 98F85D00 		ldrb	r0, [r8, #93]	@ zero_extendqisi2	@ _253, *shape_20
 4440              	@ mini3d/scene.c:668: 			if ( (d > 0) ^ (shape->inverted ? 1 : 0) )
 668:mini3d/scene.c **** 				continue;
 4441              		.loc 1 668 7 view .LVU1069
 4442 03be 00F0010E 		and	lr, r0, #1	@ tmp642, _253,
 4443              	@ mini3d/scene.c:668: 			if ( (d > 0) ^ (shape->inverted ? 1 : 0) )
 668:mini3d/scene.c **** 				continue;
 4444              		.loc 1 668 9 view .LVU1070
 4445 03c2 F1EE10FA 		vmrs	APSR_nzcv, FPSCR
 4446              	@ mini3d/scene.c:668: 			if ( (d > 0) ^ (shape->inverted ? 1 : 0) )
 668:mini3d/scene.c **** 				continue;
 4447              		.loc 1 668 7 view .LVU1071
 4448 03c6 CCBF     		ite	gt
ARM GAS  /var/folders/cs/83z6p2tj4w57s6p2rt8nwfp00000gn/T//cc3yBana.s 			page 111


 4449 03c8 4FF0010A 		movgt	r10, #1	@ tmp641,
 4450 03cc 4FF0000A 		movle	r10, #0	@ tmp641,
 4451 03d0 F245     		cmp	r10, lr	@ tmp641, tmp642
 4452 03d2 3FF439AF 		beq	.L262		@,
 668:mini3d/scene.c **** 				continue;
 4453              		.loc 1 668 7 view .LVU1072
 4454 03d6 67E7     		b	.L242		@
 4455              	.LVL272:
 4456              	.L169:
 668:mini3d/scene.c **** 				continue;
 4457              		.loc 1 668 7 view .LVU1073
 4458              	.LBE227:
 4459              	.LBE230:
 4460              	.LBE225:
 4461              	.LBE224:
 4462              	.LBE247:
 4463              	@ mini3d/scene.c:741: }
 740:mini3d/scene.c **** 	}
 741:mini3d/scene.c **** }
 4464              		.loc 1 741 1 view .LVU1074
 4465 03d8 09B0     		add	sp, sp, #36	@,,
 4466              	.LCFI48:
 4467              		.cfi_remember_state
 4468              		.cfi_def_cfa_offset 60
 4469              		@ sp needed	@
 4470 03da BDEC068B 		vldm	sp!, {d8-d10}	@,
 4471              	.LCFI49:
 4472              		.cfi_restore 84
 4473              		.cfi_restore 85
 4474              		.cfi_restore 82
 4475              		.cfi_restore 83
 4476              		.cfi_restore 80
 4477              		.cfi_restore 81
 4478              		.cfi_def_cfa_offset 36
 4479 03de BDE8F08F 		pop	{r4, r5, r6, r7, r8, r9, r10, fp, pc}	@
 4480              	.LVL273:
 4481              	.L273:
 4482              	.LCFI50:
 4483              		.cfi_restore_state
 4484              	.LBB248:
 4485              	.LBB238:
 4486              	.LBB218:
 4487              	.LBB184:
 4488              	.LBB180:
 4489              	.LBB176:
 4490              	.LBB170:
 4491              	@ mini3d/scene.c:584: 	if ( face->p4 != NULL )
 584:mini3d/scene.c **** 	{
 4492              		.loc 1 584 11 view .LVU1075
 4493 03e2 D4F80CC0 		ldr	ip, [r4, #12]	@ _126, face_365->p4
 4494 03e6 4046     		mov	r0, r8	@ _425, _425
 575:mini3d/scene.c **** 
 4495              		.loc 1 575 2 is_stmt 1 view .LVU1076
 577:mini3d/scene.c **** 		vi = 32;
 4496              		.loc 1 577 2 view .LVU1077
 582:mini3d/scene.c **** 
 4497              		.loc 1 582 2 view .LVU1078
ARM GAS  /var/folders/cs/83z6p2tj4w57s6p2rt8nwfp00000gn/T//cc3yBana.s 			page 112


 584:mini3d/scene.c **** 	{
 4498              		.loc 1 584 2 view .LVU1079
 4499              	@ mini3d/scene.c:584: 	if ( face->p4 != NULL )
 584:mini3d/scene.c **** 	{
 4500              		.loc 1 584 5 is_stmt 0 view .LVU1080
 4501 03e8 BCF1000F 		cmp	ip, #0	@ _126
 4502 03ec 7FF465AE 		bne	.L367	@
 4503              	.LVL274:
 4504              	.L208:
 596:mini3d/scene.c **** 			fillTriangle_zbuf(bitmap, rowstride, face->p1, face->p2, face->p3, pattern);
 4505              		.loc 1 596 3 is_stmt 1 view .LVU1081
 4506              	@ mini3d/scene.c:596: 		if ( shape->useZBuffer )
 596:mini3d/scene.c **** 			fillTriangle_zbuf(bitmap, rowstride, face->p1, face->p2, face->p3, pattern);
 4507              		.loc 1 596 6 is_stmt 0 view .LVU1082
 4508 03f0 BF07     		lsls	r7, r7, #30	@, _81,
 4509              	@ mini3d/scene.c:597: 			fillTriangle_zbuf(bitmap, rowstride, face->p1, face->p2, face->p3, pattern
 597:mini3d/scene.c **** 		else
 4510              		.loc 1 597 4 view .LVU1083
 4511 03f2 CDE90010 		strd	r1, r0, [sp]	@ _50, _425,
 4512              	.LVL275:
 597:mini3d/scene.c **** 		else
 4513              		.loc 1 597 4 view .LVU1084
 4514 03f6 5146     		mov	r1, r10	@, rowstride
 4515 03f8 5846     		mov	r0, fp	@, bitmap
 4516              	@ mini3d/scene.c:596: 		if ( shape->useZBuffer )
 596:mini3d/scene.c **** 			fillTriangle_zbuf(bitmap, rowstride, face->p1, face->p2, face->p3, pattern);
 4517              		.loc 1 596 6 view .LVU1085
 4518 03fa 6FD5     		bpl	.L210		@,
 4519              	.LVL276:
 597:mini3d/scene.c **** 		else
 4520              		.loc 1 597 4 is_stmt 1 view .LVU1086
 4521 03fc FFF7FEFF 		bl	fillTriangle_zbuf		@
 4522              	.LVL277:
 597:mini3d/scene.c **** 		else
 4523              		.loc 1 597 4 is_stmt 0 view .LVU1087
 4524 0400 65E6     		b	.L181		@
 4525              	.LVL278:
 4526              	.L360:
 4527              	@ mini3d/scene.c:529: 	if ( (x1 < 0 && x2 < 0 && x3 < 0 && (face->p4 == NULL || face->p4->x < 0)) |
 529:mini3d/scene.c **** 		 (x1 >= WIDTH && x2 >= WIDTH && x3 >= WIDTH && (face->p4 == NULL || face->p4->x >= WIDTH)) ||
 4528              		.loc 1 529 15 view .LVU1088
 4529 0402 B5EEC07A 		vcmpe.f32	s14, #0	@ x2
 4530 0406 F1EE10FA 		vmrs	APSR_nzcv, FPSCR
 4531 040a 7FF58EAE 		bpl	.L182		@,
 4532              	@ mini3d/scene.c:529: 	if ( (x1 < 0 && x2 < 0 && x3 < 0 && (face->p4 == NULL || face->p4->x < 0)) |
 529:mini3d/scene.c **** 		 (x1 >= WIDTH && x2 >= WIDTH && x3 >= WIDTH && (face->p4 == NULL || face->p4->x >= WIDTH)) ||
 4533              		.loc 1 529 25 view .LVU1089
 4534 040e F5EEC07A 		vcmpe.f32	s15, #0	@ x3
 4535 0412 F1EE10FA 		vmrs	APSR_nzcv, FPSCR
 4536 0416 7FF588AE 		bpl	.L182		@,
 4537              	@ mini3d/scene.c:529: 	if ( (x1 < 0 && x2 < 0 && x3 < 0 && (face->p4 == NULL || face->p4->x < 0)) |
 529:mini3d/scene.c **** 		 (x1 >= WIDTH && x2 >= WIDTH && x3 >= WIDTH && (face->p4 == NULL || face->p4->x >= WIDTH)) ||
 4538              		.loc 1 529 43 view .LVU1090
 4539 041a E068     		ldr	r0, [r4, #12]	@ _58, face_365->p4
 4540              	@ mini3d/scene.c:529: 	if ( (x1 < 0 && x2 < 0 && x3 < 0 && (face->p4 == NULL || face->p4->x < 0)) |
 529:mini3d/scene.c **** 		 (x1 >= WIDTH && x2 >= WIDTH && x3 >= WIDTH && (face->p4 == NULL || face->p4->x >= WIDTH)) ||
 4541              		.loc 1 529 35 view .LVU1091
ARM GAS  /var/folders/cs/83z6p2tj4w57s6p2rt8nwfp00000gn/T//cc3yBana.s 			page 113


 4542 041c 0028     		cmp	r0, #0	@ _58
 4543 041e 3FF456AE 		beq	.L181	@
 4544              	@ mini3d/scene.c:529: 	if ( (x1 < 0 && x2 < 0 && x3 < 0 && (face->p4 == NULL || face->p4->x < 0)) |
 529:mini3d/scene.c **** 		 (x1 >= WIDTH && x2 >= WIDTH && x3 >= WIDTH && (face->p4 == NULL || face->p4->x >= WIDTH)) ||
 4545              		.loc 1 529 56 view .LVU1092
 4546 0422 D0ED004A 		vldr.32	s9, [r0]	@ _58->x, _58->x
 4547 0426 F5EEC04A 		vcmpe.f32	s9, #0	@ _58->x
 4548 042a F1EE10FA 		vmrs	APSR_nzcv, FPSCR
 4549 042e 7FF57CAE 		bpl	.L182		@,
 4550 0432 4CE6     		b	.L181		@
 4551              	.L361:
 4552              	@ mini3d/scene.c:531: 		 (y1 < 0 && y2 < 0 && y3 < 0 && (face->p4 == NULL || face->p4->y < 0)) ||
 531:mini3d/scene.c **** 		 (y1 >= HEIGHT && y2 >= HEIGHT && y3 >= HEIGHT && (face->p4 == NULL || face->p4->y >= HEIGHT)) )
 4553              		.loc 1 531 12 view .LVU1093
 4554 0434 F5EEC06A 		vcmpe.f32	s13, #0	@ y2
 4555 0438 F1EE10FA 		vmrs	APSR_nzcv, FPSCR
 4556 043c 7FF594AE 		bpl	.L190		@,
 4557              	@ mini3d/scene.c:531: 		 (y1 < 0 && y2 < 0 && y3 < 0 && (face->p4 == NULL || face->p4->y < 0)) ||
 531:mini3d/scene.c **** 		 (y1 >= HEIGHT && y2 >= HEIGHT && y3 >= HEIGHT && (face->p4 == NULL || face->p4->y >= HEIGHT)) )
 4558              		.loc 1 531 22 view .LVU1094
 4559 0440 B5EEC06A 		vcmpe.f32	s12, #0	@ y3
 4560 0444 F1EE10FA 		vmrs	APSR_nzcv, FPSCR
 4561 0448 7FF58EAE 		bpl	.L190		@,
 4562              	@ mini3d/scene.c:531: 		 (y1 < 0 && y2 < 0 && y3 < 0 && (face->p4 == NULL || face->p4->y < 0)) ||
 531:mini3d/scene.c **** 		 (y1 >= HEIGHT && y2 >= HEIGHT && y3 >= HEIGHT && (face->p4 == NULL || face->p4->y >= HEIGHT)) )
 4563              		.loc 1 531 40 view .LVU1095
 4564 044c E068     		ldr	r0, [r4, #12]	@ _62, face_365->p4
 4565              	@ mini3d/scene.c:531: 		 (y1 < 0 && y2 < 0 && y3 < 0 && (face->p4 == NULL || face->p4->y < 0)) ||
 531:mini3d/scene.c **** 		 (y1 >= HEIGHT && y2 >= HEIGHT && y3 >= HEIGHT && (face->p4 == NULL || face->p4->y >= HEIGHT)) )
 4566              		.loc 1 531 32 view .LVU1096
 4567 044e 0028     		cmp	r0, #0	@ _62
 4568 0450 3FF43DAE 		beq	.L181	@
 4569              	@ mini3d/scene.c:531: 		 (y1 < 0 && y2 < 0 && y3 < 0 && (face->p4 == NULL || face->p4->y < 0)) ||
 531:mini3d/scene.c **** 		 (y1 >= HEIGHT && y2 >= HEIGHT && y3 >= HEIGHT && (face->p4 == NULL || face->p4->y >= HEIGHT)) )
 4570              		.loc 1 531 53 view .LVU1097
 4571 0454 D0ED014A 		vldr.32	s9, [r0, #4]	@ _62->y, _62->y
 4572 0458 F5EEC04A 		vcmpe.f32	s9, #0	@ _62->y
 4573 045c F1EE10FA 		vmrs	APSR_nzcv, FPSCR
 4574 0460 7FF582AE 		bpl	.L190		@,
 4575 0464 33E6     		b	.L181		@
 4576              	.LVL279:
 4577              	.L209:
 591:mini3d/scene.c **** 	}
 4578              		.loc 1 591 4 is_stmt 1 view .LVU1098
 4579 0466 FFF7FEFF 		bl	fillQuad		@
 4580              	.LVL280:
 591:mini3d/scene.c **** 	}
 4581              		.loc 1 591 4 is_stmt 0 view .LVU1099
 4582 046a 30E6     		b	.L181		@
 4583              	.LVL281:
 4584              	.L200:
 4585              	.LBB156:
 544:mini3d/scene.c **** 
 4586              		.loc 1 544 4 is_stmt 1 view .LVU1100
 4587              	@ mini3d/scene.c:544: 			d = face->normal.dz;
 544:mini3d/scene.c **** 
 4588              		.loc 1 544 6 is_stmt 0 view .LVU1101
ARM GAS  /var/folders/cs/83z6p2tj4w57s6p2rt8nwfp00000gn/T//cc3yBana.s 			page 114


 4589 046c D4ED067A 		vldr.32	s15, [r4, #24]	@ d, face_365->normal.dz
 4590              	.LVL282:
 544:mini3d/scene.c **** 
 4591              		.loc 1 544 6 view .LVU1102
 4592 0470 AAE6     		b	.L201		@
 4593              	.LVL283:
 4594              	.L359:
 544:mini3d/scene.c **** 
 4595              		.loc 1 544 6 view .LVU1103
 4596              	.LBE156:
 561:mini3d/scene.c **** 			v = (1.0f + Vector3DDot(face->normal, scene->light)) / 2;
 4597              		.loc 1 561 3 is_stmt 1 view .LVU1104
 4598              	.LBB157:
 4599              	.LBB158:
 4600              	@ mini3d/3dmath.h:62: 	return a.dx * b.dx + a.dy * b.dy + a.dz * b.dz;
  62:mini3d/3dmath.h **** }
 4601              		.loc 2 62 28 is_stmt 0 view .LVU1105
 4602 0472 D9ED0F5A 		vldr.32	s11, [r9, #60]	@ MEM[(struct Scene3D *)scene_14(D) + 60B], MEM[(struct Scene3D *)scene_14(
 4603              	.LVL284:
  62:mini3d/3dmath.h **** }
 4604              		.loc 2 62 28 view .LVU1106
 4605              	.LBE158:
 4606              	.LBE157:
 4607              	@ mini3d/scene.c:566: 		if ( c > 0 )
 566:mini3d/scene.c **** 			v = c + (1-c) * v; // map [0,1] to [c,1]
 4608              		.loc 1 566 6 view .LVU1107
 4609 0476 F5EEC07A 		vcmpe.f32	s15, #0	@ c
 4610              	.LBB162:
 4611              	.LBB159:
 4612              	@ mini3d/3dmath.h:62: 	return a.dx * b.dx + a.dy * b.dy + a.dz * b.dz;
  62:mini3d/3dmath.h **** }
 4613              		.loc 2 62 28 view .LVU1108
 4614 047a D4ED056A 		vldr.32	s13, [r4, #20]	@ MEM[(struct FaceInstance *)face_365 + 20B], MEM[(struct FaceInstance *)fa
 4615              	.LBE159:
 4616              	.LBE162:
 4617              	@ mini3d/scene.c:561: 		if ( shape->inverted )
 561:mini3d/scene.c **** 			v = (1.0f + Vector3DDot(face->normal, scene->light)) / 2;
 4618              		.loc 1 561 6 view .LVU1109
 4619 047e F807     		lsls	r0, r7, #31	@, _81,
 562:mini3d/scene.c **** 		else
 4620              		.loc 1 562 4 is_stmt 1 view .LVU1110
 4621              	.LVL285:
 4622              	.LBB163:
 4623              	.LBI157:
  60:mini3d/3dmath.h **** {
 4624              		.loc 2 60 21 view .LVU1111
 4625              	.LBB160:
  62:mini3d/3dmath.h **** }
 4626              		.loc 2 62 2 view .LVU1112
 4627              	@ mini3d/3dmath.h:62: 	return a.dx * b.dx + a.dy * b.dy + a.dz * b.dz;
  62:mini3d/3dmath.h **** }
 4628              		.loc 2 62 21 is_stmt 0 view .LVU1113
 4629 0480 94ED044A 		vldr.32	s8, [r4, #16]	@ MEM[(struct FaceInstance *)face_365 + 16B], MEM[(struct FaceInstance *)fac
 4630              	.LBE160:
 4631              	.LBE163:
 4632              	@ mini3d/scene.c:562: 			v = (1.0f + Vector3DDot(face->normal, scene->light)) / 2;
 562:mini3d/scene.c **** 		else
ARM GAS  /var/folders/cs/83z6p2tj4w57s6p2rt8nwfp00000gn/T//cc3yBana.s 			page 115


 4633              		.loc 1 562 6 view .LVU1114
 4634 0484 B6EE006A 		vmov.f32	s12, #5.0e-1	@ tmp445,
 4635              	.LBB164:
 4636              	.LBB161:
 4637              	@ mini3d/3dmath.h:62: 	return a.dx * b.dx + a.dy * b.dy + a.dz * b.dz;
  62:mini3d/3dmath.h **** }
 4638              		.loc 2 62 28 view .LVU1115
 4639 0488 66EEA56A 		vmul.f32	s13, s13, s11	@ tmp436, MEM[(struct FaceInstance *)face_365 + 20B], MEM[(struct Scene3D *
 4640              	@ mini3d/3dmath.h:62: 	return a.dx * b.dx + a.dy * b.dy + a.dz * b.dz;
  62:mini3d/3dmath.h **** }
 4641              		.loc 2 62 21 view .LVU1116
 4642 048c D9ED0E4A 		vldr.32	s9, [r9, #56]	@ MEM[(struct Scene3D *)scene_14(D) + 56B], MEM[(struct Scene3D *)scene_14(D
 4643              	@ mini3d/3dmath.h:62: 	return a.dx * b.dx + a.dy * b.dy + a.dz * b.dz;
  62:mini3d/3dmath.h **** }
 4644              		.loc 2 62 35 view .LVU1117
 4645 0490 94ED065A 		vldr.32	s10, [r4, #24]	@ MEM[(struct FaceInstance *)face_365 + 24B], MEM[(struct FaceInstance *)fa
 4646              	.LVL286:
  62:mini3d/3dmath.h **** }
 4647              		.loc 2 62 35 view .LVU1118
 4648 0494 D9ED105A 		vldr.32	s11, [r9, #64]	@ MEM[(struct Scene3D *)scene_14(D) + 64B], MEM[(struct Scene3D *)scene_14(
 4649              	@ mini3d/3dmath.h:62: 	return a.dx * b.dx + a.dy * b.dy + a.dz * b.dz;
  62:mini3d/3dmath.h **** }
 4650              		.loc 2 62 21 view .LVU1119
 4651 0498 E4EE246A 		vfma.f32	s13, s8, s9	@ _96, MEM[(struct FaceInstance *)face_365 + 16B], MEM[(struct Scene3D *)scen
 4652              	@ mini3d/3dmath.h:62: 	return a.dx * b.dx + a.dy * b.dy + a.dz * b.dz;
  62:mini3d/3dmath.h **** }
 4653              		.loc 2 62 35 view .LVU1120
 4654 049c E5EE256A 		vfma.f32	s13, s10, s11	@ _98, MEM[(struct FaceInstance *)face_365 + 24B], MEM[(struct Scene3D *)sc
 4655              	.LBE161:
 4656              	.LBE164:
 4657              	@ mini3d/scene.c:562: 			v = (1.0f + Vector3DDot(face->normal, scene->light)) / 2;
 562:mini3d/scene.c **** 		else
 4658              		.loc 1 562 14 view .LVU1121
 4659 04a0 4CBF     		ite	mi
 4660 04a2 36EE877A 		vaddmi.f32	s14, s13, s14	@ tmp443, _98, tmp432
 564:mini3d/scene.c **** 
 4661              		.loc 1 564 4 is_stmt 1 view .LVU1122
 4662              	.LVL287:
 4663              	.LBB165:
 4664              	.LBI165:
  60:mini3d/3dmath.h **** {
 4665              		.loc 2 60 21 view .LVU1123
 4666              	.LBB166:
  62:mini3d/3dmath.h **** }
 4667              		.loc 2 62 2 view .LVU1124
  62:mini3d/3dmath.h **** }
 4668              		.loc 2 62 2 is_stmt 0 view .LVU1125
 4669              	.LBE166:
 4670              	.LBE165:
 4671              	@ mini3d/scene.c:564: 			v = (1.0f - Vector3DDot(face->normal, scene->light)) / 2;
 564:mini3d/scene.c **** 
 4672              		.loc 1 564 14 view .LVU1126
 4673 04a6 37EE667A 		vsubpl.f32	s14, s14, s13	@ tmp453, tmp432, _111
 4674              	@ mini3d/scene.c:566: 		if ( c > 0 )
 566:mini3d/scene.c **** 			v = c + (1-c) * v; // map [0,1] to [c,1]
 4675              		.loc 1 566 6 view .LVU1127
 4676 04aa F1EE10FA 		vmrs	APSR_nzcv, FPSCR
ARM GAS  /var/folders/cs/83z6p2tj4w57s6p2rt8nwfp00000gn/T//cc3yBana.s 			page 116


 4677              	@ mini3d/scene.c:564: 			v = (1.0f - Vector3DDot(face->normal, scene->light)) / 2;
 564:mini3d/scene.c **** 
 4678              		.loc 1 564 6 view .LVU1128
 4679 04ae 27EE067A 		vmul.f32	s14, s14, s12	@ v, tmp453, tmp455
 4680              	.LVL288:
 566:mini3d/scene.c **** 			v = c + (1-c) * v; // map [0,1] to [c,1]
 4681              		.loc 1 566 3 is_stmt 1 view .LVU1129
 4682              	@ mini3d/scene.c:566: 		if ( c > 0 )
 566:mini3d/scene.c **** 			v = c + (1-c) * v; // map [0,1] to [c,1]
 4683              		.loc 1 566 6 is_stmt 0 view .LVU1130
 4684 04b2 42DD     		ble	.L345		@,
 567:mini3d/scene.c **** 		else if ( c < 0 )
 4685              		.loc 1 567 4 is_stmt 1 view .LVU1131
 4686              	@ mini3d/scene.c:567: 			v = c + (1-c) * v; // map [0,1] to [c,1]
 567:mini3d/scene.c **** 		else if ( c < 0 )
 4687              		.loc 1 567 14 is_stmt 0 view .LVU1132
 4688 04b4 F7EE006A 		vmov.f32	s13, #1.0e+0	@ tmp458,
 4689 04b8 76EEE76A 		vsub.f32	s13, s13, s15	@ tmp457, tmp458, c
 4690              	@ mini3d/scene.c:567: 			v = c + (1-c) * v; // map [0,1] to [c,1]
 567:mini3d/scene.c **** 		else if ( c < 0 )
 4691              		.loc 1 567 6 view .LVU1133
 4692 04bc E6EE877A 		vfma.f32	s15, s13, s14	@ v, tmp457, v
 4693              	.LVL289:
 4694              	.L350:
 567:mini3d/scene.c **** 		else if ( c < 0 )
 4695              		.loc 1 567 6 view .LVU1134
 4696 04c0 67EE897A 		vmul.f32	s15, s15, s18	@ tmp475, v, tmp711
 4697              	.LVL290:
 4698              	.L351:
 567:mini3d/scene.c **** 		else if ( c < 0 )
 4699              		.loc 1 567 6 view .LVU1135
 4700 04c4 FDEEE77A 		vcvt.s32.f32	s15, s15	@ tmp471, tmp475
 4701 04c8 17EE900A 		vmov	r0, s15	@ int	@ tmp471, tmp471
 4702 04cc 20EAE070 		bic	r0, r0, r0, asr #31	@ tmp471, tmp471
 4703 04d0 2028     		cmp	r0, #32	@ tmp471,
 4704 04d2 A8BF     		it	ge
 4705 04d4 2020     		movge	r0, #32	@ tmp471,
 4706 04d6 08EBC000 		add	r0, r8, r0, lsl #3	@ _425, _425, tmp471,
 4707 04da E8E5     		b	.L202		@
 4708              	.LVL291:
 4709              	.L210:
 600:mini3d/scene.c **** 	}
 4710              		.loc 1 600 4 is_stmt 1 view .LVU1136
 4711 04dc FFF7FEFF 		bl	fillTriangle		@
 4712              	.LVL292:
 600:mini3d/scene.c **** 	}
 4713              		.loc 1 600 4 is_stmt 0 view .LVU1137
 4714 04e0 F5E5     		b	.L181		@
 4715              	.LVL293:
 4716              	.L364:
 600:mini3d/scene.c **** 	}
 4717              		.loc 1 600 4 view .LVU1138
 4718              	.LBE170:
 4719              	.LBE176:
 4720              	.LBE180:
 4721              	.LBE184:
 4722              	.LBE218:
ARM GAS  /var/folders/cs/83z6p2tj4w57s6p2rt8nwfp00000gn/T//cc3yBana.s 			page 117


 4723              	.LBE238:
 4724              	.LBB239:
 4725              	.LBB235:
 4726              	.LBB231:
 4727              	@ mini3d/scene.c:653: 		if ( (x1 < 0 && x2 < 0 && x3 < 0 && x4 < 0) || (x1 >= WIDTH && x2 >= WIDTH 
 653:mini3d/scene.c **** 			 (y1 < 0 && y2 < 0 && y3 < 0 && x4 < 0) || (y1 >= HEIGHT && y2 >= HEIGHT && y3 >= HEIGHT && y4 >
 4728              		.loc 1 653 16 view .LVU1139
 4729 04e2 B5EEC06A 		vcmpe.f32	s12, #0	@ x2
 4730 04e6 F1EE10FA 		vmrs	APSR_nzcv, FPSCR
 4731 04ea 7FF521AF 		bpl	.L245		@,
 4732              	@ mini3d/scene.c:653: 		if ( (x1 < 0 && x2 < 0 && x3 < 0 && x4 < 0) || (x1 >= WIDTH && x2 >= WIDTH 
 653:mini3d/scene.c **** 			 (y1 < 0 && y2 < 0 && y3 < 0 && x4 < 0) || (y1 >= HEIGHT && y2 >= HEIGHT && y3 >= HEIGHT && y4 >
 4733              		.loc 1 653 26 view .LVU1140
 4734 04ee B5EEC07A 		vcmpe.f32	s14, #0	@ x3
 4735 04f2 F1EE10FA 		vmrs	APSR_nzcv, FPSCR
 4736 04f6 7FF51BAF 		bpl	.L245		@,
 4737              	@ mini3d/scene.c:653: 		if ( (x1 < 0 && x2 < 0 && x3 < 0 && x4 < 0) || (x1 >= WIDTH && x2 >= WIDTH 
 653:mini3d/scene.c **** 			 (y1 < 0 && y2 < 0 && y3 < 0 && x4 < 0) || (y1 >= HEIGHT && y2 >= HEIGHT && y3 >= HEIGHT && y4 >
 4738              		.loc 1 653 36 view .LVU1141
 4739 04fa B5EEC05A 		vcmpe.f32	s10, #0	@ _229
 4740 04fe F1EE10FA 		vmrs	APSR_nzcv, FPSCR
 4741 0502 7FF515AF 		bpl	.L245		@,
 4742              	.LBE231:
 633:mini3d/scene.c **** 	{
 4743              		.loc 1 633 34 is_stmt 1 view .LVU1142
 4744 0506 0136     		adds	r6, r6, #1	@ f, f,
 4745              	.LVL294:
 633:mini3d/scene.c **** 	{
 4746              		.loc 1 633 15 view .LVU1143
 4747              	@ mini3d/scene.c:633: 	for ( f = 0; f < shape->nFaces; ++f )
 633:mini3d/scene.c **** 	{
 4748              		.loc 1 633 2 is_stmt 0 view .LVU1144
 4749 0508 8E42     		cmp	r6, r1	@ f, shape_20->nFaces
 4750 050a FFF6D1AE 		blt	.L268		@,
 4751              	.LVL295:
 4752              	.L363:
 633:mini3d/scene.c **** 	{
 4753              		.loc 1 633 2 view .LVU1145
 4754 050e DDF81C90 		ldr	r9, [sp, #28]	@ scene, %sfp
 4755              	.LVL296:
 633:mini3d/scene.c **** 	{
 4756              		.loc 1 633 2 view .LVU1146
 4757 0512 92E5     		b	.L177		@
 4758              	.LVL297:
 4759              	.L365:
 4760              	.LBB232:
 4761              	@ mini3d/scene.c:654: 			 (y1 < 0 && y2 < 0 && y3 < 0 && x4 < 0) || (y1 >= HEIGHT && y2 >= HEIGHT &
 654:mini3d/scene.c **** 			continue;
 4762              		.loc 1 654 13 view .LVU1147
 4763 0514 F5EEC05A 		vcmpe.f32	s11, #0	@ y2
 4764 0518 F1EE10FA 		vmrs	APSR_nzcv, FPSCR
 4765 051c 7FF522AF 		bpl	.L253		@,
 4766              	@ mini3d/scene.c:654: 			 (y1 < 0 && y2 < 0 && y3 < 0 && x4 < 0) || (y1 >= HEIGHT && y2 >= HEIGHT &
 654:mini3d/scene.c **** 			continue;
 4767              		.loc 1 654 23 view .LVU1148
 4768 0520 F5EEC04A 		vcmpe.f32	s9, #0	@ y3
 4769 0524 F1EE10FA 		vmrs	APSR_nzcv, FPSCR
ARM GAS  /var/folders/cs/83z6p2tj4w57s6p2rt8nwfp00000gn/T//cc3yBana.s 			page 118


 4770 0528 7FF51CAF 		bpl	.L253		@,
 4771              	@ mini3d/scene.c:654: 			 (y1 < 0 && y2 < 0 && y3 < 0 && x4 < 0) || (y1 >= HEIGHT && y2 >= HEIGHT &
 654:mini3d/scene.c **** 			continue;
 4772              		.loc 1 654 33 view .LVU1149
 4773 052c B5EEC05A 		vcmpe.f32	s10, #0	@ _229
 4774 0530 F1EE10FA 		vmrs	APSR_nzcv, FPSCR
 4775 0534 7FF516AF 		bpl	.L253		@,
 4776 0538 B6E6     		b	.L242		@
 4777              	.LVL298:
 4778              	.L345:
 654:mini3d/scene.c **** 			continue;
 4779              		.loc 1 654 33 view .LVU1150
 4780              	.LBE232:
 4781              	.LBE235:
 4782              	.LBE239:
 4783              	.LBB240:
 4784              	.LBB219:
 4785              	.LBB185:
 4786              	.LBB181:
 4787              	.LBB177:
 4788              	.LBB171:
 568:mini3d/scene.c **** 			v *= 1 + c; // map [0,1] to [0, 1+c]
 4789              		.loc 1 568 8 is_stmt 1 view .LVU1151
 4790              	@ mini3d/scene.c:568: 		else if ( c < 0 )
 568:mini3d/scene.c **** 			v *= 1 + c; // map [0,1] to [0, 1+c]
 4791              		.loc 1 568 11 is_stmt 0 view .LVU1152
 4792 053a 00F12281 		bmi	.L207		@,
 4793 053e 67EE097A 		vmul.f32	s15, s14, s18	@ tmp467, v, tmp711
 4794              	.LVL299:
 568:mini3d/scene.c **** 			v *= 1 + c; // map [0,1] to [0, 1+c]
 4795              		.loc 1 568 11 view .LVU1153
 4796 0542 BFE7     		b	.L351		@
 4797              	.LVL300:
 4798              	.L265:
 568:mini3d/scene.c **** 			v *= 1 + c; // map [0,1] to [0, 1+c]
 4799              		.loc 1 568 11 view .LVU1154
 4800              	.LBE171:
 4801              	.LBE177:
 4802              	.LBE181:
 4803              	.LBE185:
 4804              	.LBE219:
 4805              	.LBE240:
 4806              	.LBB241:
 4807              	.LBB236:
 4808              	.LBB233:
 692:mini3d/scene.c **** 			drawLine(bitmap, rowstride, face->p2, face->p3, 1, color);
 4809              		.loc 1 692 4 is_stmt 1 view .LVU1155
 4810 0544 FFF7FEFF 		bl	drawLine		@
 4811              	.LVL301:
 693:mini3d/scene.c **** 
 4812              		.loc 1 693 4 view .LVU1156
 4813 0548 1B48     		ldr	r0, .L376	@ tmp771,
 4814 054a 4946     		mov	r1, r9	@, rowstride
 4815 054c D4E90123 		ldrd	r2, r3, [r4, #4]	@ face_221->p2, face_221->p3, face,
 4816 0550 0190     		str	r0, [sp, #4]	@ tmp771,
 4817 0552 5846     		mov	r0, fp	@, bitmap
 4818 0554 CDF800A0 		str	r10, [sp]	@ tmp670,
ARM GAS  /var/folders/cs/83z6p2tj4w57s6p2rt8nwfp00000gn/T//cc3yBana.s 			page 119


 4819 0558 FFF7FEFF 		bl	drawLine		@
 4820              	.LVL302:
 695:mini3d/scene.c **** 			{
 4821              		.loc 1 695 4 view .LVU1157
 4822              	@ mini3d/scene.c:695: 			if ( face->p4 != NULL )
 695:mini3d/scene.c **** 			{
 4823              		.loc 1 695 13 is_stmt 0 view .LVU1158
 4824 055c E368     		ldr	r3, [r4, #12]	@ _267, face_221->p4
 4825              	@ mini3d/scene.c:695: 			if ( face->p4 != NULL )
 695:mini3d/scene.c **** 			{
 4826              		.loc 1 695 7 view .LVU1159
 4827 055e 002B     		cmp	r3, #0	@ _267
 4828 0560 00F03D81 		beq	.L267	@
 697:mini3d/scene.c **** 				drawLine(bitmap, rowstride, face->p4, face->p1, 1, color);
 4829              		.loc 1 697 5 is_stmt 1 view .LVU1160
 4830 0564 1448     		ldr	r0, .L376	@ tmp772,
 4831 0566 4946     		mov	r1, r9	@, rowstride
 4832 0568 A268     		ldr	r2, [r4, #8]	@ face_221->p3, face_221->p3
 4833 056a 0190     		str	r0, [sp, #4]	@ tmp772,
 4834 056c 5846     		mov	r0, fp	@, bitmap
 4835 056e CDF800A0 		str	r10, [sp]	@ tmp670,
 4836 0572 FFF7FEFF 		bl	drawLine		@
 4837              	.LVL303:
 698:mini3d/scene.c **** 			}
 4838              		.loc 1 698 5 view .LVU1161
 4839 0576 1048     		ldr	r0, .L376	@ tmp773,
 4840 0578 55F82730 		ldr	r3, [r5, r7, lsl #2]	@ face_221->p1, face_221->p1
 4841 057c 4946     		mov	r1, r9	@, rowstride
 4842 057e E268     		ldr	r2, [r4, #12]	@ face_221->p4, face_221->p4
 4843 0580 CDE900A0 		strd	r10, r0, [sp]	@ tmp670, tmp773,
 4844 0584 5846     		mov	r0, fp	@, bitmap
 4845 0586 FFF7FEFF 		bl	drawLine		@
 4846              	.LVL304:
 4847 058a D8F84410 		ldr	r1, [r8, #68]	@ shape_20->nFaces, shape_20->nFaces
 4848 058e 8BE6     		b	.L242		@
 4849              	.L243:
 642:mini3d/scene.c **** 		float y1 = face->p1->y;
 4850              		.loc 1 642 3 view .LVU1162
 4851              	@ mini3d/scene.c:648: 		float x4 = (face->p4 != NULL) ? face->p4->x : 0;
 648:mini3d/scene.c **** 		float y4 = (face->p4 != NULL) ? face->p4->y : 0;
 4852              		.loc 1 648 47 is_stmt 0 view .LVU1163
 4853 0590 B0EE695A 		vmov.f32	s10, s19	@ _229, _229
 4854              	@ mini3d/scene.c:642: 		float x1 = face->p1->x;
 642:mini3d/scene.c **** 		float y1 = face->p1->y;
 4855              		.loc 1 642 9 view .LVU1164
 4856 0594 D2ED007A 		vldr.32	s15, [r2]	@ x1, _222->x
 4857              	.LVL305:
 643:mini3d/scene.c **** 		float x2 = face->p2->x;
 4858              		.loc 1 643 3 is_stmt 1 view .LVU1165
 4859              	@ mini3d/scene.c:649: 		float y4 = (face->p4 != NULL) ? face->p4->y : 0;
 649:mini3d/scene.c **** 
 4860              		.loc 1 649 47 is_stmt 0 view .LVU1166
 4861 0598 B0EE694A 		vmov.f32	s8, s19	@ iftmp.42_237, _229
 4862              	@ mini3d/scene.c:643: 		float y1 = face->p1->y;
 643:mini3d/scene.c **** 		float x2 = face->p2->x;
 4863              		.loc 1 643 9 view .LVU1167
 4864 059c D2ED016A 		vldr.32	s13, [r2, #4]	@ y1, _222->y
ARM GAS  /var/folders/cs/83z6p2tj4w57s6p2rt8nwfp00000gn/T//cc3yBana.s 			page 120


 4865              	.LVL306:
 644:mini3d/scene.c **** 		float y2 = face->p2->y;
 4866              		.loc 1 644 3 is_stmt 1 view .LVU1168
 4867              	@ mini3d/scene.c:644: 		float x2 = face->p2->x;
 644:mini3d/scene.c **** 		float y2 = face->p2->y;
 4868              		.loc 1 644 9 is_stmt 0 view .LVU1169
 4869 05a0 93ED006A 		vldr.32	s12, [r3]	@ x2, _224->x
 4870              	.LVL307:
 645:mini3d/scene.c **** 		float x3 = face->p3->x;
 4871              		.loc 1 645 3 is_stmt 1 view .LVU1170
 4872              	@ mini3d/scene.c:645: 		float y2 = face->p2->y;
 645:mini3d/scene.c **** 		float x3 = face->p3->x;
 4873              		.loc 1 645 9 is_stmt 0 view .LVU1171
 4874 05a4 D3ED015A 		vldr.32	s11, [r3, #4]	@ y2, _224->y
 4875              	.LVL308:
 646:mini3d/scene.c **** 		float y3 = face->p3->y;
 4876              		.loc 1 646 3 is_stmt 1 view .LVU1172
 4877              	@ mini3d/scene.c:646: 		float x3 = face->p3->x;
 646:mini3d/scene.c **** 		float y3 = face->p3->y;
 4878              		.loc 1 646 9 is_stmt 0 view .LVU1173
 4879 05a8 90ED007A 		vldr.32	s14, [r0]	@ x3, _226->x
 4880              	.LVL309:
 647:mini3d/scene.c **** 		float x4 = (face->p4 != NULL) ? face->p4->x : 0;
 4881              		.loc 1 647 3 is_stmt 1 view .LVU1174
 4882              	@ mini3d/scene.c:647: 		float y3 = face->p3->y;
 647:mini3d/scene.c **** 		float x4 = (face->p4 != NULL) ? face->p4->x : 0;
 4883              		.loc 1 647 9 is_stmt 0 view .LVU1175
 4884 05ac D0ED014A 		vldr.32	s9, [r0, #4]	@ y3, _226->y
 4885              	.LVL310:
 648:mini3d/scene.c **** 		float y4 = (face->p4 != NULL) ? face->p4->y : 0;
 4886              		.loc 1 648 3 is_stmt 1 view .LVU1176
 649:mini3d/scene.c **** 
 4887              		.loc 1 649 3 view .LVU1177
 4888 05b0 B8E6     		b	.L271		@
 4889              	.LVL311:
 4890              	.L263:
 4891              	.LBB228:
 666:mini3d/scene.c **** 
 4892              		.loc 1 666 5 view .LVU1178
 4893              	@ mini3d/scene.c:666: 				d = face->normal.dz;
 666:mini3d/scene.c **** 
 4894              		.loc 1 666 7 is_stmt 0 view .LVU1179
 4895 05b2 94ED067A 		vldr.32	s14, [r4, #24]	@ d, face_221->normal.dz
 4896              	.LVL312:
 666:mini3d/scene.c **** 
 4897              		.loc 1 666 7 view .LVU1180
 4898 05b6 FEE6     		b	.L264		@
 4899              	.L377:
 4900              		.align	2
 4901              	.L376:
 4902 05b8 00010000 		.word	.LANCHOR0+256
 4903 05bc 00007043 		.word	1131413504
 4904              	.LVL313:
 4905              	.L358:
 666:mini3d/scene.c **** 
 4906              		.loc 1 666 7 view .LVU1181
 4907              	.LBE228:
ARM GAS  /var/folders/cs/83z6p2tj4w57s6p2rt8nwfp00000gn/T//cc3yBana.s 			page 121


 4908              	.LBE233:
 4909              	.LBE236:
 4910              	.LBE241:
 4911              	.LBB242:
 4912              	.LBB220:
 4913              	.LBB186:
 622:mini3d/scene.c **** 		drawShapeFace(scene, shape, bitmap, rowstride, &shape->faces[f]);
 4914              		.loc 1 622 19 is_stmt 1 view .LVU1182
 4915              	@ mini3d/scene.c:622: 	for ( int f = 0; f < shape->nFaces; ++f )
 622:mini3d/scene.c **** 		drawShapeFace(scene, shape, bitmap, rowstride, &shape->faces[f]);
 4916              		.loc 1 622 2 is_stmt 0 view .LVU1183
 4917 05c0 D5F844C0 		ldr	ip, [r5, #68]	@ shape_20->nFaces, shape_20->nFaces
 4918 05c4 BCF1000F 		cmp	ip, #0	@ shape_20->nFaces,
 4919 05c8 7FF737AD 		ble	.L177		@,
 4920              	@ mini3d/scene.c:622: 	for ( int f = 0; f < shape->nFaces; ++f )
 622:mini3d/scene.c **** 		drawShapeFace(scene, shape, bitmap, rowstride, &shape->faces[f]);
 4921              		.loc 1 622 12 view .LVU1184
 4922 05cc 0024     		movs	r4, #0	@ f,
 4923              	.LBB187:
 4924              	.LBB188:
 4925              	@ mini3d/scene.c:531: 		 (y1 < 0 && y2 < 0 && y3 < 0 && (face->p4 == NULL || face->p4->y < 0)) ||
 531:mini3d/scene.c **** 		 (y1 >= HEIGHT && y2 >= HEIGHT && y3 >= HEIGHT && (face->p4 == NULL || face->p4->y >= HEIGHT)) )
 4926              		.loc 1 531 74 view .LVU1185
 4927 05ce 5FED058A 		vldr.32	s17, .L376+4	@ tmp708,
 4928 05d2 1AEE101A 		vmov	r1, s20	@ int	@ rowstride, rowstride
 4929              	.LVL314:
 4930              	.L176:
 531:mini3d/scene.c **** 		 (y1 >= HEIGHT && y2 >= HEIGHT && y3 >= HEIGHT && (face->p4 == NULL || face->p4->y >= HEIGHT)) )
 4931              		.loc 1 531 74 view .LVU1186
 4932              	.LBE188:
 4933              	.LBE187:
 623:mini3d/scene.c **** }
 4934              		.loc 1 623 3 is_stmt 1 view .LVU1187
 4935 05d6 04EBC400 		add	r0, r4, r4, lsl #3	@ tmp486, f, f,
 4936 05da AB6C     		ldr	r3, [r5, #72]	@ shape_20->faces, shape_20->faces
 4937              	.LBB207:
 4938              	.LBB201:
 4939              	@ mini3d/scene.c:517: 	if ( face->p1->z <= 0 || face->p2->z <= 0 || face->p3->z <= 0 )
 517:mini3d/scene.c **** 		return;
 4940              		.loc 1 517 11 is_stmt 0 view .LVU1188
 4941 05dc 53F82020 		ldr	r2, [r3, r0, lsl #2]	@ _131, _43->p1
 4942              	.LBE201:
 4943              	.LBE207:
 4944              	@ mini3d/scene.c:623: 		drawShapeFace(scene, shape, bitmap, rowstride, &shape->faces[f]);
 623:mini3d/scene.c **** }
 4945              		.loc 1 623 3 view .LVU1189
 4946 05e0 03EB8000 		add	r0, r3, r0, lsl #2	@ _43, shape_20->faces, tmp486,
 4947              	.LVL315:
 4948              	.LBB208:
 4949              	.LBI187:
 513:mini3d/scene.c **** {
 4950              		.loc 1 513 1 is_stmt 1 view .LVU1190
 4951              	.LBB202:
 517:mini3d/scene.c **** 		return;
 4952              		.loc 1 517 2 view .LVU1191
 4953              	@ mini3d/scene.c:517: 	if ( face->p1->z <= 0 || face->p2->z <= 0 || face->p3->z <= 0 )
 517:mini3d/scene.c **** 		return;
ARM GAS  /var/folders/cs/83z6p2tj4w57s6p2rt8nwfp00000gn/T//cc3yBana.s 			page 122


 4954              		.loc 1 517 5 is_stmt 0 view .LVU1192
 4955 05e4 D2ED027A 		vldr.32	s15, [r2, #8]	@ _131->z, _131->z
 4956 05e8 F5EEC07A 		vcmpe.f32	s15, #0	@ _131->z
 4957 05ec F1EE10FA 		vmrs	APSR_nzcv, FPSCR
 4958 05f0 74D9     		bls	.L212		@,
 4959              	@ mini3d/scene.c:517: 	if ( face->p1->z <= 0 || face->p2->z <= 0 || face->p3->z <= 0 )
 517:mini3d/scene.c **** 		return;
 4960              		.loc 1 517 31 view .LVU1193
 4961 05f2 4368     		ldr	r3, [r0, #4]	@ _133, _43->p2
 4962              	@ mini3d/scene.c:517: 	if ( face->p1->z <= 0 || face->p2->z <= 0 || face->p3->z <= 0 )
 517:mini3d/scene.c **** 		return;
 4963              		.loc 1 517 24 view .LVU1194
 4964 05f4 D3ED027A 		vldr.32	s15, [r3, #8]	@ _133->z, _133->z
 4965 05f8 F5EEC07A 		vcmpe.f32	s15, #0	@ _133->z
 4966 05fc F1EE10FA 		vmrs	APSR_nzcv, FPSCR
 4967 0600 6CD9     		bls	.L212		@,
 4968              	@ mini3d/scene.c:517: 	if ( face->p1->z <= 0 || face->p2->z <= 0 || face->p3->z <= 0 )
 517:mini3d/scene.c **** 		return;
 4969              		.loc 1 517 51 view .LVU1195
 4970 0602 D0F808E0 		ldr	lr, [r0, #8]	@ _135, _43->p3
 4971              	@ mini3d/scene.c:517: 	if ( face->p1->z <= 0 || face->p2->z <= 0 || face->p3->z <= 0 )
 517:mini3d/scene.c **** 		return;
 4972              		.loc 1 517 44 view .LVU1196
 4973 0606 DEED027A 		vldr.32	s15, [lr, #8]	@ _135->z, _135->z
 4974 060a F5EEC07A 		vcmpe.f32	s15, #0	@ _135->z
 4975 060e F1EE10FA 		vmrs	APSR_nzcv, FPSCR
 4976 0612 63D9     		bls	.L212		@,
 520:mini3d/scene.c **** 	float y1 = face->p1->y;
 4977              		.loc 1 520 2 is_stmt 1 view .LVU1197
 4978              	@ mini3d/scene.c:520: 	float x1 = face->p1->x;
 520:mini3d/scene.c **** 	float y1 = face->p1->y;
 4979              		.loc 1 520 8 is_stmt 0 view .LVU1198
 4980 0614 D2ED007A 		vldr.32	s15, [r2]	@ x1, _131->x
 4981              	.LVL316:
 521:mini3d/scene.c **** 	float x2 = face->p2->x;
 4982              		.loc 1 521 2 is_stmt 1 view .LVU1199
 4983              	@ mini3d/scene.c:521: 	float y1 = face->p1->y;
 521:mini3d/scene.c **** 	float x2 = face->p2->x;
 4984              		.loc 1 521 8 is_stmt 0 view .LVU1200
 4985 0618 D2ED016A 		vldr.32	s13, [r2, #4]	@ y1, _131->y
 4986              	.LVL317:
 522:mini3d/scene.c **** 	float y2 = face->p2->y;
 4987              		.loc 1 522 2 is_stmt 1 view .LVU1201
 4988              	@ mini3d/scene.c:529: 	if ( (x1 < 0 && x2 < 0 && x3 < 0 && (face->p4 == NULL || face->p4->x < 0)) |
 529:mini3d/scene.c **** 		 (x1 >= WIDTH && x2 >= WIDTH && x3 >= WIDTH && (face->p4 == NULL || face->p4->x >= WIDTH)) ||
 4989              		.loc 1 529 5 is_stmt 0 view .LVU1202
 4990 061c F5EEC07A 		vcmpe.f32	s15, #0	@ x1
 4991              	@ mini3d/scene.c:522: 	float x2 = face->p2->x;
 522:mini3d/scene.c **** 	float y2 = face->p2->y;
 4992              		.loc 1 522 8 view .LVU1203
 4993 0620 93ED006A 		vldr.32	s12, [r3]	@ x2, _133->x
 4994              	.LVL318:
 523:mini3d/scene.c **** 	float x3 = face->p3->x;
 4995              		.loc 1 523 2 is_stmt 1 view .LVU1204
 4996              	@ mini3d/scene.c:523: 	float y2 = face->p2->y;
 523:mini3d/scene.c **** 	float x3 = face->p3->x;
 4997              		.loc 1 523 8 is_stmt 0 view .LVU1205
ARM GAS  /var/folders/cs/83z6p2tj4w57s6p2rt8nwfp00000gn/T//cc3yBana.s 			page 123


 4998 0624 D3ED015A 		vldr.32	s11, [r3, #4]	@ y2, _133->y
 4999              	.LVL319:
 524:mini3d/scene.c **** 	float y3 = face->p3->y;
 5000              		.loc 1 524 2 is_stmt 1 view .LVU1206
 5001              	@ mini3d/scene.c:524: 	float x3 = face->p3->x;
 524:mini3d/scene.c **** 	float y3 = face->p3->y;
 5002              		.loc 1 524 8 is_stmt 0 view .LVU1207
 5003 0628 9EED007A 		vldr.32	s14, [lr]	@ x3, _135->x
 5004              	.LVL320:
 525:mini3d/scene.c **** 
 5005              		.loc 1 525 2 is_stmt 1 view .LVU1208
 5006              	@ mini3d/scene.c:529: 	if ( (x1 < 0 && x2 < 0 && x3 < 0 && (face->p4 == NULL || face->p4->x < 0)) |
 529:mini3d/scene.c **** 		 (x1 >= WIDTH && x2 >= WIDTH && x3 >= WIDTH && (face->p4 == NULL || face->p4->x >= WIDTH)) ||
 5007              		.loc 1 529 5 is_stmt 0 view .LVU1209
 5008 062c F1EE10FA 		vmrs	APSR_nzcv, FPSCR
 5009              	@ mini3d/scene.c:525: 	float y3 = face->p3->y;
 525:mini3d/scene.c **** 
 5010              		.loc 1 525 8 view .LVU1210
 5011 0630 9EED015A 		vldr.32	s10, [lr, #4]	@ y3, _135->y
 5012              	.LVL321:
 529:mini3d/scene.c **** 		 (x1 >= WIDTH && x2 >= WIDTH && x3 >= WIDTH && (face->p4 == NULL || face->p4->x >= WIDTH)) ||
 5013              		.loc 1 529 2 is_stmt 1 view .LVU1211
 5014              	@ mini3d/scene.c:529: 	if ( (x1 < 0 && x2 < 0 && x3 < 0 && (face->p4 == NULL || face->p4->x < 0)) |
 529:mini3d/scene.c **** 		 (x1 >= WIDTH && x2 >= WIDTH && x3 >= WIDTH && (face->p4 == NULL || face->p4->x >= WIDTH)) ||
 5015              		.loc 1 529 5 is_stmt 0 view .LVU1212
 5016 0634 77D4     		bmi	.L368		@,
 5017              	.L213:
 5018              	@ mini3d/scene.c:529: 	if ( (x1 < 0 && x2 < 0 && x3 < 0 && (face->p4 == NULL || face->p4->x < 0)) |
 529:mini3d/scene.c **** 		 (x1 >= WIDTH && x2 >= WIDTH && x3 >= WIDTH && (face->p4 == NULL || face->p4->x >= WIDTH)) ||
 5019              		.loc 1 529 77 view .LVU1213
 5020 0636 F4EEC87A 		vcmpe.f32	s15, s16	@ x1, tmp710
 5021 063a F1EE10FA 		vmrs	APSR_nzcv, FPSCR
 5022 063e 0ADB     		blt	.L217		@,
 5023              	@ mini3d/scene.c:530: 		 (x1 >= WIDTH && x2 >= WIDTH && x3 >= WIDTH && (face->p4 == NULL || face->p
 530:mini3d/scene.c **** 		 (y1 < 0 && y2 < 0 && y3 < 0 && (face->p4 == NULL || face->p4->y < 0)) ||
 5024              		.loc 1 530 17 view .LVU1214
 5025 0640 B4EEC86A 		vcmpe.f32	s12, s16	@ x2, tmp710
 5026 0644 F1EE10FA 		vmrs	APSR_nzcv, FPSCR
 5027 0648 05DB     		blt	.L217		@,
 5028              	@ mini3d/scene.c:530: 		 (x1 >= WIDTH && x2 >= WIDTH && x3 >= WIDTH && (face->p4 == NULL || face->p
 530:mini3d/scene.c **** 		 (y1 < 0 && y2 < 0 && y3 < 0 && (face->p4 == NULL || face->p4->y < 0)) ||
 5029              		.loc 1 530 32 view .LVU1215
 5030 064a B4EEC87A 		vcmpe.f32	s14, s16	@ x3, tmp710
 5031 064e F1EE10FA 		vmrs	APSR_nzcv, FPSCR
 5032 0652 80F20B81 		bge	.L369		@,
 5033              	.L217:
 5034              	@ mini3d/scene.c:530: 		 (x1 >= WIDTH && x2 >= WIDTH && x3 >= WIDTH && (face->p4 == NULL || face->p
 530:mini3d/scene.c **** 		 (y1 < 0 && y2 < 0 && y3 < 0 && (face->p4 == NULL || face->p4->y < 0)) ||
 5035              		.loc 1 530 94 view .LVU1216
 5036 0656 F5EEC06A 		vcmpe.f32	s13, #0	@ y1
 5037 065a F1EE10FA 		vmrs	APSR_nzcv, FPSCR
 5038 065e 79D4     		bmi	.L370		@,
 5039              	.L221:
 5040              	@ mini3d/scene.c:531: 		 (y1 < 0 && y2 < 0 && y3 < 0 && (face->p4 == NULL || face->p4->y < 0)) ||
 531:mini3d/scene.c **** 		 (y1 >= HEIGHT && y2 >= HEIGHT && y3 >= HEIGHT && (face->p4 == NULL || face->p4->y >= HEIGHT)) )
 5041              		.loc 1 531 74 view .LVU1217
 5042 0660 F4EEE86A 		vcmpe.f32	s13, s17	@ y1, tmp708
ARM GAS  /var/folders/cs/83z6p2tj4w57s6p2rt8nwfp00000gn/T//cc3yBana.s 			page 124


 5043 0664 F1EE10FA 		vmrs	APSR_nzcv, FPSCR
 5044 0668 0ADB     		blt	.L225		@,
 5045              	@ mini3d/scene.c:532: 		 (y1 >= HEIGHT && y2 >= HEIGHT && y3 >= HEIGHT && (face->p4 == NULL || face
 532:mini3d/scene.c **** 		return;
 5046              		.loc 1 532 18 view .LVU1218
 5047 066a F4EEE85A 		vcmpe.f32	s11, s17	@ y2, tmp708
 5048 066e F1EE10FA 		vmrs	APSR_nzcv, FPSCR
 5049 0672 05DB     		blt	.L225		@,
 5050              	@ mini3d/scene.c:532: 		 (y1 >= HEIGHT && y2 >= HEIGHT && y3 >= HEIGHT && (face->p4 == NULL || face
 532:mini3d/scene.c **** 		return;
 5051              		.loc 1 532 34 view .LVU1219
 5052 0674 B4EEE85A 		vcmpe.f32	s10, s17	@ y3, tmp708
 5053 0678 F1EE10FA 		vmrs	APSR_nzcv, FPSCR
 5054 067c 80F20381 		bge	.L371		@,
 5055              	.L225:
 535:mini3d/scene.c **** 	{
 5056              		.loc 1 535 2 is_stmt 1 view .LVU1220
 5057              	@ mini3d/scene.c:535: 	if ( shape->prototype->isClosed )
 535:mini3d/scene.c **** 	{
 5058              		.loc 1 535 7 is_stmt 0 view .LVU1221
 5059 0680 2E68     		ldr	r6, [r5]	@ shape_20->prototype, shape_20->prototype
 5060 0682 96F82460 		ldrb	r6, [r6, #36]	@ zero_extendqisi2	@ *_151, *_151
 5061              	@ mini3d/scene.c:535: 	if ( shape->prototype->isClosed )
 535:mini3d/scene.c **** 	{
 5062              		.loc 1 535 5 view .LVU1222
 5063 0686 F607     		lsls	r6, r6, #31	@, *_151,
 5064 0688 2DD4     		bmi	.L229		@,
 5065 068a 95F85D60 		ldrb	r6, [r5, #93]	@ zero_extendqisi2	@ _166, *shape_20
 5066              	.LVL322:
 5067              	.L230:
 552:mini3d/scene.c **** 	float v;
 5068              		.loc 1 552 2 is_stmt 1 view .LVU1223
 5069              	@ mini3d/scene.c:552: 	float c = face->colorBias + shape->colorBias;
 552:mini3d/scene.c **** 	float v;
 5070              		.loc 1 552 8 is_stmt 0 view .LVU1224
 5071 068e D0ED077A 		vldr.32	s15, [r0, #28]	@ _43->colorBias, _43->colorBias
 5072              	@ mini3d/scene.c:555: 	if ( c <= -1 )
 555:mini3d/scene.c **** 		v = 0;
 5073              		.loc 1 555 5 view .LVU1225
 5074 0692 BFEE007A 		vmov.f32	s14, #-1.0e+0	@ tmp540,
 5075              	@ mini3d/scene.c:552: 	float c = face->colorBias + shape->colorBias;
 552:mini3d/scene.c **** 	float v;
 5076              		.loc 1 552 8 view .LVU1226
 5077 0696 D5ED166A 		vldr.32	s13, [r5, #88]	@ shape_20->colorBias, shape_20->colorBias
 5078 069a 77EEA67A 		vadd.f32	s15, s15, s13	@ c, _43->colorBias, shape_20->colorBias
 5079              	.LVL323:
 553:mini3d/scene.c **** 
 5080              		.loc 1 553 2 is_stmt 1 view .LVU1227
 555:mini3d/scene.c **** 		v = 0;
 5081              		.loc 1 555 2 view .LVU1228
 5082              	@ mini3d/scene.c:555: 	if ( c <= -1 )
 555:mini3d/scene.c **** 		v = 0;
 5083              		.loc 1 555 5 is_stmt 0 view .LVU1229
 5084 069e F4EEC77A 		vcmpe.f32	s15, s14	@ c, tmp540
 5085 06a2 F1EE10FA 		vmrs	APSR_nzcv, FPSCR
 5086 06a6 73D9     		bls	.L275		@,
 557:mini3d/scene.c **** 		v = 1;
ARM GAS  /var/folders/cs/83z6p2tj4w57s6p2rt8nwfp00000gn/T//cc3yBana.s 			page 125


 5087              		.loc 1 557 7 is_stmt 1 view .LVU1230
 5088              	@ mini3d/scene.c:557: 	else if ( c >= 1 )
 557:mini3d/scene.c **** 		v = 1;
 5089              		.loc 1 557 10 is_stmt 0 view .LVU1231
 5090 06a8 B7EE007A 		vmov.f32	s14, #1.0e+0	@ tmp541,
 5091 06ac F4EEC77A 		vcmpe.f32	s15, s14	@ c, tmp541
 5092 06b0 F1EE10FA 		vmrs	APSR_nzcv, FPSCR
 5093 06b4 C0F2A080 		blt	.L372		@,
 5094 06b8 DFF820C2 		ldr	ip, .L378	@ _456,
 5095              	.LVL324:
 5096              	.L233:
 575:mini3d/scene.c **** 
 5097              		.loc 1 575 2 is_stmt 1 view .LVU1232
 577:mini3d/scene.c **** 		vi = 32;
 5098              		.loc 1 577 2 view .LVU1233
 582:mini3d/scene.c **** 
 5099              		.loc 1 582 2 view .LVU1234
 584:mini3d/scene.c **** 	{
 5100              		.loc 1 584 2 view .LVU1235
 5101              	@ mini3d/scene.c:584: 	if ( face->p4 != NULL )
 584:mini3d/scene.c **** 	{
 5102              		.loc 1 584 11 is_stmt 0 view .LVU1236
 5103 06bc C068     		ldr	r0, [r0, #12]	@ _211, _43->p4
 5104              	.LVL325:
 5105              	@ mini3d/scene.c:584: 	if ( face->p4 != NULL )
 584:mini3d/scene.c **** 	{
 5106              		.loc 1 584 5 view .LVU1237
 5107 06be 0028     		cmp	r0, #0	@ _211
 5108 06c0 6BD0     		beq	.L239	@
 5109              	.L373:
 587:mini3d/scene.c **** 			fillQuad_zbuf(bitmap, rowstride, face->p1, face->p2, face->p3, face->p4, pattern);
 5110              		.loc 1 587 3 is_stmt 1 view .LVU1238
 5111              	@ mini3d/scene.c:587: 		if ( shape->useZBuffer )
 587:mini3d/scene.c **** 			fillQuad_zbuf(bitmap, rowstride, face->p1, face->p2, face->p3, face->p4, pattern);
 5112              		.loc 1 587 6 is_stmt 0 view .LVU1239
 5113 06c2 B607     		lsls	r6, r6, #30	@, _166,
 5114              	@ mini3d/scene.c:588: 			fillQuad_zbuf(bitmap, rowstride, face->p1, face->p2, face->p3, face->p4, p
 588:mini3d/scene.c **** 		else
 5115              		.loc 1 588 4 view .LVU1240
 5116 06c4 CDF800E0 		str	lr, [sp]	@ _135,
 5117              	.LVL326:
 588:mini3d/scene.c **** 		else
 5118              		.loc 1 588 4 view .LVU1241
 5119 06c8 0691     		str	r1, [sp, #24]	@ rowstride, %sfp
 5120 06ca CDE9010C 		strd	r0, ip, [sp, #4]	@ _211, _456,,
 5121 06ce 5846     		mov	r0, fp	@, bitmap
 5122              	@ mini3d/scene.c:587: 		if ( shape->useZBuffer )
 587:mini3d/scene.c **** 			fillQuad_zbuf(bitmap, rowstride, face->p1, face->p2, face->p3, face->p4, pattern);
 5123              		.loc 1 587 6 view .LVU1242
 5124 06d0 6FD5     		bpl	.L240		@,
 5125              	.LVL327:
 588:mini3d/scene.c **** 		else
 5126              		.loc 1 588 4 is_stmt 1 view .LVU1243
 5127 06d2 FFF7FEFF 		bl	fillQuad_zbuf		@
 5128              	.LVL328:
 588:mini3d/scene.c **** 		else
 5129              		.loc 1 588 4 is_stmt 0 view .LVU1244
ARM GAS  /var/folders/cs/83z6p2tj4w57s6p2rt8nwfp00000gn/T//cc3yBana.s 			page 126


 5130 06d6 D5F844C0 		ldr	ip, [r5, #68]	@ shape_20->nFaces, shape_20->nFaces
 5131 06da 0699     		ldr	r1, [sp, #24]	@ rowstride, %sfp
 5132              	.L212:
 5133              	.LVL329:
 588:mini3d/scene.c **** 		else
 5134              		.loc 1 588 4 view .LVU1245
 5135              	.LBE202:
 5136              	.LBE208:
 622:mini3d/scene.c **** 		drawShapeFace(scene, shape, bitmap, rowstride, &shape->faces[f]);
 5137              		.loc 1 622 38 is_stmt 1 view .LVU1246
 5138 06dc 0134     		adds	r4, r4, #1	@ f, f,
 5139              	.LVL330:
 622:mini3d/scene.c **** 		drawShapeFace(scene, shape, bitmap, rowstride, &shape->faces[f]);
 5140              		.loc 1 622 19 view .LVU1247
 5141              	@ mini3d/scene.c:622: 	for ( int f = 0; f < shape->nFaces; ++f )
 622:mini3d/scene.c **** 		drawShapeFace(scene, shape, bitmap, rowstride, &shape->faces[f]);
 5142              		.loc 1 622 2 is_stmt 0 view .LVU1248
 5143 06de 6445     		cmp	r4, ip	@ f, shape_20->nFaces
 5144 06e0 FFF679AF 		blt	.L176		@,
 5145 06e4 A6E4     		b	.L180		@
 5146              	.LVL331:
 5147              	.L229:
 5148              	.LBB209:
 5149              	.LBB203:
 5150              	.LBB189:
 539:mini3d/scene.c **** 
 5151              		.loc 1 539 3 is_stmt 1 view .LVU1249
 541:mini3d/scene.c **** 			d = (x2 - x1) * (y3 - y1) - (y2 - y1) * (x3 - x1);
 5152              		.loc 1 541 3 view .LVU1250
 5153              	@ mini3d/scene.c:541: 		if ( scene->hasPerspective ) // use winding order
 541:mini3d/scene.c **** 			d = (x2 - x1) * (y3 - y1) - (y2 - y1) * (x3 - x1);
 5154              		.loc 1 541 8 is_stmt 0 view .LVU1251
 5155 06e6 99F80060 		ldrb	r6, [r9]	@ zero_extendqisi2	@ *scene_14(D), *scene_14(D)
 5156              	@ mini3d/scene.c:541: 		if ( scene->hasPerspective ) // use winding order
 541:mini3d/scene.c **** 			d = (x2 - x1) * (y3 - y1) - (y2 - y1) * (x3 - x1);
 5157              		.loc 1 541 6 view .LVU1252
 5158 06ea F607     		lsls	r6, r6, #31	@, *scene_14(D),
 5159 06ec 67D5     		bpl	.L231		@,
 542:mini3d/scene.c **** 		else // use direction of normal
 5160              		.loc 1 542 4 is_stmt 1 view .LVU1253
 5161              	@ mini3d/scene.c:542: 			d = (x2 - x1) * (y3 - y1) - (y2 - y1) * (x3 - x1);
 542:mini3d/scene.c **** 		else // use direction of normal
 5162              		.loc 1 542 36 is_stmt 0 view .LVU1254
 5163 06ee 75EEE65A 		vsub.f32	s11, s11, s13	@ tmp528, y2, y1
 5164              	.LVL332:
 5165              	@ mini3d/scene.c:542: 			d = (x2 - x1) * (y3 - y1) - (y2 - y1) * (x3 - x1);
 542:mini3d/scene.c **** 		else // use direction of normal
 5166              		.loc 1 542 48 view .LVU1255
 5167 06f2 37EE677A 		vsub.f32	s14, s14, s15	@ tmp529, x3, x1
 5168              	.LVL333:
 5169              	@ mini3d/scene.c:542: 			d = (x2 - x1) * (y3 - y1) - (y2 - y1) * (x3 - x1);
 542:mini3d/scene.c **** 		else // use direction of normal
 5170              		.loc 1 542 24 view .LVU1256
 5171 06f6 75EE666A 		vsub.f32	s13, s10, s13	@ tmp527, y3, y1
 5172              	.LVL334:
 5173              	@ mini3d/scene.c:542: 			d = (x2 - x1) * (y3 - y1) - (y2 - y1) * (x3 - x1);
 542:mini3d/scene.c **** 		else // use direction of normal
ARM GAS  /var/folders/cs/83z6p2tj4w57s6p2rt8nwfp00000gn/T//cc3yBana.s 			page 127


 5174              		.loc 1 542 12 view .LVU1257
 5175 06fa 76EE677A 		vsub.f32	s15, s12, s15	@ tmp526, x2, x1
 5176              	.LVL335:
 5177              	@ mini3d/scene.c:542: 			d = (x2 - x1) * (y3 - y1) - (y2 - y1) * (x3 - x1);
 542:mini3d/scene.c **** 		else // use direction of normal
 5178              		.loc 1 542 6 view .LVU1258
 5179 06fe 27EE657A 		vnmul.f32	s14, s14, s11	@ tmp531, tmp529, tmp528
 5180 0702 A7EEA67A 		vfma.f32	s14, s15, s13	@ d, tmp526, tmp527
 5181              	.LVL336:
 5182              	.L232:
 546:mini3d/scene.c **** 			return;
 5183              		.loc 1 546 3 is_stmt 1 view .LVU1259
 5184              	@ mini3d/scene.c:546: 		if ( (d >= 0) ^ (shape->inverted ? 1 : 0) )
 546:mini3d/scene.c **** 			return;
 5185              		.loc 1 546 8 is_stmt 0 view .LVU1260
 5186 0706 B5EEC07A 		vcmpe.f32	s14, #0	@ d
 5187              	@ mini3d/scene.c:546: 		if ( (d >= 0) ^ (shape->inverted ? 1 : 0) )
 546:mini3d/scene.c **** 			return;
 5188              		.loc 1 546 36 view .LVU1261
 5189 070a 95F85D60 		ldrb	r6, [r5, #93]	@ zero_extendqisi2	@ _166, *shape_20
 5190              	@ mini3d/scene.c:546: 		if ( (d >= 0) ^ (shape->inverted ? 1 : 0) )
 546:mini3d/scene.c **** 			return;
 5191              		.loc 1 546 6 view .LVU1262
 5192 070e 06F00108 		and	r8, r6, #1	@ tmp537, _166,
 5193              	@ mini3d/scene.c:546: 		if ( (d >= 0) ^ (shape->inverted ? 1 : 0) )
 546:mini3d/scene.c **** 			return;
 5194              		.loc 1 546 8 view .LVU1263
 5195 0712 F1EE10FA 		vmrs	APSR_nzcv, FPSCR
 5196              	@ mini3d/scene.c:546: 		if ( (d >= 0) ^ (shape->inverted ? 1 : 0) )
 546:mini3d/scene.c **** 			return;
 5197              		.loc 1 546 6 view .LVU1264
 5198 0716 ACBF     		ite	ge
 5199 0718 4FF0010A 		movge	r10, #1	@ tmp536,
 5200 071c 4FF0000A 		movlt	r10, #0	@ tmp536,
 5201 0720 C245     		cmp	r10, r8	@ tmp536, tmp537
 5202 0722 DBD1     		bne	.L212		@,
 546:mini3d/scene.c **** 			return;
 5203              		.loc 1 546 6 view .LVU1265
 5204 0724 B3E7     		b	.L230		@
 5205              	.LVL337:
 5206              	.L368:
 546:mini3d/scene.c **** 			return;
 5207              		.loc 1 546 6 view .LVU1266
 5208              	.LBE189:
 5209              	@ mini3d/scene.c:529: 	if ( (x1 < 0 && x2 < 0 && x3 < 0 && (face->p4 == NULL || face->p4->x < 0)) |
 529:mini3d/scene.c **** 		 (x1 >= WIDTH && x2 >= WIDTH && x3 >= WIDTH && (face->p4 == NULL || face->p4->x >= WIDTH)) ||
 5210              		.loc 1 529 15 view .LVU1267
 5211 0726 B5EEC06A 		vcmpe.f32	s12, #0	@ x2
 5212 072a F1EE10FA 		vmrs	APSR_nzcv, FPSCR
 5213 072e 82D5     		bpl	.L213		@,
 5214              	@ mini3d/scene.c:529: 	if ( (x1 < 0 && x2 < 0 && x3 < 0 && (face->p4 == NULL || face->p4->x < 0)) |
 529:mini3d/scene.c **** 		 (x1 >= WIDTH && x2 >= WIDTH && x3 >= WIDTH && (face->p4 == NULL || face->p4->x >= WIDTH)) ||
 5215              		.loc 1 529 25 view .LVU1268
 5216 0730 B5EEC07A 		vcmpe.f32	s14, #0	@ x3
 5217 0734 F1EE10FA 		vmrs	APSR_nzcv, FPSCR
 5218 0738 7FF57DAF 		bpl	.L213		@,
 5219              	@ mini3d/scene.c:529: 	if ( (x1 < 0 && x2 < 0 && x3 < 0 && (face->p4 == NULL || face->p4->x < 0)) |
ARM GAS  /var/folders/cs/83z6p2tj4w57s6p2rt8nwfp00000gn/T//cc3yBana.s 			page 128


 529:mini3d/scene.c **** 		 (x1 >= WIDTH && x2 >= WIDTH && x3 >= WIDTH && (face->p4 == NULL || face->p4->x >= WIDTH)) ||
 5220              		.loc 1 529 43 view .LVU1269
 5221 073c C668     		ldr	r6, [r0, #12]	@ _143, _43->p4
 5222              	@ mini3d/scene.c:529: 	if ( (x1 < 0 && x2 < 0 && x3 < 0 && (face->p4 == NULL || face->p4->x < 0)) |
 529:mini3d/scene.c **** 		 (x1 >= WIDTH && x2 >= WIDTH && x3 >= WIDTH && (face->p4 == NULL || face->p4->x >= WIDTH)) ||
 5223              		.loc 1 529 35 view .LVU1270
 5224 073e 002E     		cmp	r6, #0	@ _143
 5225 0740 CCD0     		beq	.L212	@
 5226              	@ mini3d/scene.c:529: 	if ( (x1 < 0 && x2 < 0 && x3 < 0 && (face->p4 == NULL || face->p4->x < 0)) |
 529:mini3d/scene.c **** 		 (x1 >= WIDTH && x2 >= WIDTH && x3 >= WIDTH && (face->p4 == NULL || face->p4->x >= WIDTH)) ||
 5227              		.loc 1 529 56 view .LVU1271
 5228 0742 D6ED004A 		vldr.32	s9, [r6]	@ _143->x, _143->x
 5229 0746 F5EEC04A 		vcmpe.f32	s9, #0	@ _143->x
 5230 074a F1EE10FA 		vmrs	APSR_nzcv, FPSCR
 5231 074e 7FF572AF 		bpl	.L213		@,
 5232 0752 C3E7     		b	.L212		@
 5233              	.L370:
 5234              	@ mini3d/scene.c:531: 		 (y1 < 0 && y2 < 0 && y3 < 0 && (face->p4 == NULL || face->p4->y < 0)) ||
 531:mini3d/scene.c **** 		 (y1 >= HEIGHT && y2 >= HEIGHT && y3 >= HEIGHT && (face->p4 == NULL || face->p4->y >= HEIGHT)) )
 5235              		.loc 1 531 12 view .LVU1272
 5236 0754 F5EEC05A 		vcmpe.f32	s11, #0	@ y2
 5237 0758 F1EE10FA 		vmrs	APSR_nzcv, FPSCR
 5238 075c 80D5     		bpl	.L221		@,
 5239              	@ mini3d/scene.c:531: 		 (y1 < 0 && y2 < 0 && y3 < 0 && (face->p4 == NULL || face->p4->y < 0)) ||
 531:mini3d/scene.c **** 		 (y1 >= HEIGHT && y2 >= HEIGHT && y3 >= HEIGHT && (face->p4 == NULL || face->p4->y >= HEIGHT)) )
 5240              		.loc 1 531 22 view .LVU1273
 5241 075e B5EEC05A 		vcmpe.f32	s10, #0	@ y3
 5242 0762 F1EE10FA 		vmrs	APSR_nzcv, FPSCR
 5243 0766 7FF57BAF 		bpl	.L221		@,
 5244              	@ mini3d/scene.c:531: 		 (y1 < 0 && y2 < 0 && y3 < 0 && (face->p4 == NULL || face->p4->y < 0)) ||
 531:mini3d/scene.c **** 		 (y1 >= HEIGHT && y2 >= HEIGHT && y3 >= HEIGHT && (face->p4 == NULL || face->p4->y >= HEIGHT)) )
 5245              		.loc 1 531 40 view .LVU1274
 5246 076a C668     		ldr	r6, [r0, #12]	@ _147, _43->p4
 5247              	@ mini3d/scene.c:531: 		 (y1 < 0 && y2 < 0 && y3 < 0 && (face->p4 == NULL || face->p4->y < 0)) ||
 531:mini3d/scene.c **** 		 (y1 >= HEIGHT && y2 >= HEIGHT && y3 >= HEIGHT && (face->p4 == NULL || face->p4->y >= HEIGHT)) )
 5248              		.loc 1 531 32 view .LVU1275
 5249 076c 002E     		cmp	r6, #0	@ _147
 5250 076e B5D0     		beq	.L212	@
 5251              	@ mini3d/scene.c:531: 		 (y1 < 0 && y2 < 0 && y3 < 0 && (face->p4 == NULL || face->p4->y < 0)) ||
 531:mini3d/scene.c **** 		 (y1 >= HEIGHT && y2 >= HEIGHT && y3 >= HEIGHT && (face->p4 == NULL || face->p4->y >= HEIGHT)) )
 5252              		.loc 1 531 53 view .LVU1276
 5253 0770 D6ED014A 		vldr.32	s9, [r6, #4]	@ _147->y, _147->y
 5254 0774 F5EEC04A 		vcmpe.f32	s9, #0	@ _147->y
 5255 0778 F1EE10FA 		vmrs	APSR_nzcv, FPSCR
 5256 077c 7FF570AF 		bpl	.L221		@,
 5257 0780 ACE7     		b	.L212		@
 5258              	.LVL338:
 5259              	.L207:
 531:mini3d/scene.c **** 		 (y1 >= HEIGHT && y2 >= HEIGHT && y3 >= HEIGHT && (face->p4 == NULL || face->p4->y >= HEIGHT)) )
 5260              		.loc 1 531 53 view .LVU1277
 5261              	.LBE203:
 5262              	.LBE209:
 5263              	.LBE186:
 5264              	.LBB213:
 5265              	.LBB182:
 5266              	.LBB178:
 5267              	.LBB172:
ARM GAS  /var/folders/cs/83z6p2tj4w57s6p2rt8nwfp00000gn/T//cc3yBana.s 			page 129


 569:mini3d/scene.c **** 	}
 5268              		.loc 1 569 4 is_stmt 1 view .LVU1278
 5269              	@ mini3d/scene.c:569: 			v *= 1 + c; // map [0,1] to [0, 1+c]
 569:mini3d/scene.c **** 	}
 5270              		.loc 1 569 11 is_stmt 0 view .LVU1279
 5271 0782 F7EE006A 		vmov.f32	s13, #1.0e+0	@ tmp473,
 5272 0786 77EEA67A 		vadd.f32	s15, s15, s13	@ tmp472, c, tmp473
 5273              	.LVL339:
 5274              	@ mini3d/scene.c:569: 			v *= 1 + c; // map [0,1] to [0, 1+c]
 569:mini3d/scene.c **** 	}
 5275              		.loc 1 569 6 view .LVU1280
 5276 078a 67EE877A 		vmul.f32	s15, s15, s14	@ v, tmp472, v
 5277              	.LVL340:
 569:mini3d/scene.c **** 	}
 5278              		.loc 1 569 6 view .LVU1281
 5279 078e 97E6     		b	.L350		@
 5280              	.LVL341:
 5281              	.L275:
 569:mini3d/scene.c **** 	}
 5282              		.loc 1 569 6 view .LVU1282
 5283              	.LBE172:
 5284              	.LBE178:
 5285              	.LBE182:
 5286              	.LBE213:
 5287              	.LBB214:
 5288              	.LBB210:
 5289              	.LBB204:
 5290              	@ mini3d/scene.c:584: 	if ( face->p4 != NULL )
 584:mini3d/scene.c **** 	{
 5291              		.loc 1 584 11 view .LVU1283
 5292 0790 C068     		ldr	r0, [r0, #12]	@ _211, _43->p4
 5293              	.LVL342:
 584:mini3d/scene.c **** 	{
 5294              		.loc 1 584 11 view .LVU1284
 5295 0792 DFF850C1 		ldr	ip, .L378+8	@ _456,
 575:mini3d/scene.c **** 
 5296              		.loc 1 575 2 is_stmt 1 view .LVU1285
 577:mini3d/scene.c **** 		vi = 32;
 5297              		.loc 1 577 2 view .LVU1286
 582:mini3d/scene.c **** 
 5298              		.loc 1 582 2 view .LVU1287
 584:mini3d/scene.c **** 	{
 5299              		.loc 1 584 2 view .LVU1288
 5300              	@ mini3d/scene.c:584: 	if ( face->p4 != NULL )
 584:mini3d/scene.c **** 	{
 5301              		.loc 1 584 5 is_stmt 0 view .LVU1289
 5302 0796 0028     		cmp	r0, #0	@ _211
 5303 0798 93D1     		bne	.L373	@
 5304              	.LVL343:
 5305              	.L239:
 596:mini3d/scene.c **** 			fillTriangle_zbuf(bitmap, rowstride, face->p1, face->p2, face->p3, pattern);
 5306              		.loc 1 596 3 is_stmt 1 view .LVU1290
 5307              	@ mini3d/scene.c:596: 		if ( shape->useZBuffer )
 596:mini3d/scene.c **** 			fillTriangle_zbuf(bitmap, rowstride, face->p1, face->p2, face->p3, pattern);
 5308              		.loc 1 596 6 is_stmt 0 view .LVU1291
 5309 079a B607     		lsls	r6, r6, #30	@, _166,
 5310              	@ mini3d/scene.c:597: 			fillTriangle_zbuf(bitmap, rowstride, face->p1, face->p2, face->p3, pattern
ARM GAS  /var/folders/cs/83z6p2tj4w57s6p2rt8nwfp00000gn/T//cc3yBana.s 			page 130


 597:mini3d/scene.c **** 		else
 5311              		.loc 1 597 4 view .LVU1292
 5312 079c 5846     		mov	r0, fp	@, bitmap
 5313 079e 0691     		str	r1, [sp, #24]	@ rowstride, %sfp
 5314 07a0 CDE900EC 		strd	lr, ip, [sp]	@ _135, _456,
 5315              	.LVL344:
 5316              	@ mini3d/scene.c:596: 		if ( shape->useZBuffer )
 596:mini3d/scene.c **** 			fillTriangle_zbuf(bitmap, rowstride, face->p1, face->p2, face->p3, pattern);
 5317              		.loc 1 596 6 view .LVU1293
 5318 07a4 7CD5     		bpl	.L241		@,
 5319              	.LVL345:
 597:mini3d/scene.c **** 		else
 5320              		.loc 1 597 4 is_stmt 1 view .LVU1294
 5321 07a6 FFF7FEFF 		bl	fillTriangle_zbuf		@
 5322              	.LVL346:
 597:mini3d/scene.c **** 		else
 5323              		.loc 1 597 4 is_stmt 0 view .LVU1295
 5324 07aa D5F844C0 		ldr	ip, [r5, #68]	@ shape_20->nFaces, shape_20->nFaces
 5325 07ae 0699     		ldr	r1, [sp, #24]	@ rowstride, %sfp
 5326 07b0 94E7     		b	.L212		@
 5327              	.LVL347:
 5328              	.L240:
 591:mini3d/scene.c **** 	}
 5329              		.loc 1 591 4 is_stmt 1 view .LVU1296
 5330 07b2 FFF7FEFF 		bl	fillQuad		@
 5331              	.LVL348:
 591:mini3d/scene.c **** 	}
 5332              		.loc 1 591 4 is_stmt 0 view .LVU1297
 5333 07b6 D5F844C0 		ldr	ip, [r5, #68]	@ shape_20->nFaces, shape_20->nFaces
 5334 07ba 0699     		ldr	r1, [sp, #24]	@ rowstride, %sfp
 5335 07bc 8EE7     		b	.L212		@
 5336              	.LVL349:
 5337              	.L231:
 5338              	.LBB190:
 544:mini3d/scene.c **** 
 5339              		.loc 1 544 4 is_stmt 1 view .LVU1298
 5340              	@ mini3d/scene.c:544: 			d = face->normal.dz;
 544:mini3d/scene.c **** 
 5341              		.loc 1 544 6 is_stmt 0 view .LVU1299
 5342 07be 90ED067A 		vldr.32	s14, [r0, #24]	@ d, _43->normal.dz
 5343              	.LVL350:
 544:mini3d/scene.c **** 
 5344              		.loc 1 544 6 view .LVU1300
 5345 07c2 A0E7     		b	.L232		@
 5346              	.LVL351:
 5347              	.L266:
 544:mini3d/scene.c **** 
 5348              		.loc 1 544 6 view .LVU1301
 5349              	.LBE190:
 5350              	.LBE204:
 5351              	.LBE210:
 5352              	.LBE214:
 5353              	.LBE220:
 5354              	.LBE242:
 5355              	.LBB243:
 5356              	.LBB237:
 5357              	.LBB234:
ARM GAS  /var/folders/cs/83z6p2tj4w57s6p2rt8nwfp00000gn/T//cc3yBana.s 			page 131


 687:mini3d/scene.c **** 		}
 5358              		.loc 1 687 5 is_stmt 1 view .LVU1302
 5359 07c4 A268     		ldr	r2, [r4, #8]	@ face_221->p3, face_221->p3
 5360 07c6 4946     		mov	r1, r9	@, rowstride
 5361 07c8 444C     		ldr	r4, .L378	@ tmp769,
 5362              	.LVL352:
 687:mini3d/scene.c **** 		}
 5363              		.loc 1 687 5 is_stmt 0 view .LVU1303
 5364 07ca 5846     		mov	r0, fp	@, bitmap
 5365 07cc 55F82730 		ldr	r3, [r5, r7, lsl #2]	@ face_221->p1, face_221->p1
 5366 07d0 CDE900A4 		strd	r10, r4, [sp]	@ tmp648, tmp769,
 5367 07d4 FFF7FEFF 		bl	drawLine_zbuf		@
 5368              	.LVL353:
 5369 07d8 D8F84410 		ldr	r1, [r8, #68]	@ shape_20->nFaces, shape_20->nFaces
 5370 07dc 64E5     		b	.L242		@
 5371              	.LVL354:
 5372              	.L267:
 701:mini3d/scene.c **** #if ENABLE_Z_BUFFER
 5373              		.loc 1 701 5 is_stmt 1 view .LVU1304
 5374 07de A268     		ldr	r2, [r4, #8]	@ face_221->p3, face_221->p3
 5375 07e0 4946     		mov	r1, r9	@, rowstride
 5376 07e2 3E4C     		ldr	r4, .L378	@ tmp774,
 5377              	.LVL355:
 701:mini3d/scene.c **** #if ENABLE_Z_BUFFER
 5378              		.loc 1 701 5 is_stmt 0 view .LVU1305
 5379 07e4 5846     		mov	r0, fp	@, bitmap
 5380 07e6 55F82730 		ldr	r3, [r5, r7, lsl #2]	@ face_221->p1, face_221->p1
 5381 07ea CDE900A4 		strd	r10, r4, [sp]	@ tmp670, tmp774,
 5382 07ee FFF7FEFF 		bl	drawLine		@
 5383              	.LVL356:
 5384 07f2 D8F84410 		ldr	r1, [r8, #68]	@ shape_20->nFaces, shape_20->nFaces
 5385 07f6 57E5     		b	.L242		@
 5386              	.LVL357:
 5387              	.L372:
 701:mini3d/scene.c **** #if ENABLE_Z_BUFFER
 5388              		.loc 1 701 5 view .LVU1306
 5389              	.LBE234:
 5390              	.LBE237:
 5391              	.LBE243:
 5392              	.LBB244:
 5393              	.LBB221:
 5394              	.LBB215:
 5395              	.LBB211:
 5396              	.LBB205:
 561:mini3d/scene.c **** 			v = (1.0f + Vector3DDot(face->normal, scene->light)) / 2;
 5397              		.loc 1 561 3 is_stmt 1 view .LVU1307
 5398              	.LBB191:
 5399              	.LBB192:
 5400              	@ mini3d/3dmath.h:62: 	return a.dx * b.dx + a.dy * b.dy + a.dz * b.dz;
  62:mini3d/3dmath.h **** }
 5401              		.loc 2 62 28 is_stmt 0 view .LVU1308
 5402 07f8 D9ED0F5A 		vldr.32	s11, [r9, #60]	@ MEM[(struct Scene3D *)scene_14(D) + 60B], MEM[(struct Scene3D *)scene_14(
 5403              	.LBE192:
 5404              	.LBE191:
 5405              	@ mini3d/scene.c:566: 		if ( c > 0 )
 566:mini3d/scene.c **** 			v = c + (1-c) * v; // map [0,1] to [c,1]
 5406              		.loc 1 566 6 view .LVU1309
ARM GAS  /var/folders/cs/83z6p2tj4w57s6p2rt8nwfp00000gn/T//cc3yBana.s 			page 132


 5407 07fc F5EEC07A 		vcmpe.f32	s15, #0	@ c
 5408              	.LBB196:
 5409              	.LBB193:
 5410              	@ mini3d/3dmath.h:62: 	return a.dx * b.dx + a.dy * b.dy + a.dz * b.dz;
  62:mini3d/3dmath.h **** }
 5411              		.loc 2 62 28 view .LVU1310
 5412 0800 D0ED056A 		vldr.32	s13, [r0, #20]	@ MEM[(struct FaceInstance *)_43 + 20B], MEM[(struct FaceInstance *)_43 + 2
 5413              	.LBE193:
 5414              	.LBE196:
 5415              	@ mini3d/scene.c:561: 		if ( shape->inverted )
 561:mini3d/scene.c **** 			v = (1.0f + Vector3DDot(face->normal, scene->light)) / 2;
 5416              		.loc 1 561 6 view .LVU1311
 5417 0804 16F0010F 		tst	r6, #1	@ _166,
 562:mini3d/scene.c **** 		else
 5418              		.loc 1 562 4 is_stmt 1 view .LVU1312
 5419              	.LVL358:
 5420              	.LBB197:
 5421              	.LBI191:
  60:mini3d/3dmath.h **** {
 5422              		.loc 2 60 21 view .LVU1313
 5423              	.LBB194:
  62:mini3d/3dmath.h **** }
 5424              		.loc 2 62 2 view .LVU1314
 5425              	@ mini3d/3dmath.h:62: 	return a.dx * b.dx + a.dy * b.dy + a.dz * b.dz;
  62:mini3d/3dmath.h **** }
 5426              		.loc 2 62 21 is_stmt 0 view .LVU1315
 5427 0808 90ED044A 		vldr.32	s8, [r0, #16]	@ MEM[(struct FaceInstance *)_43 + 16B], MEM[(struct FaceInstance *)_43 + 16
 5428              	.LBE194:
 5429              	.LBE197:
 5430              	@ mini3d/scene.c:562: 			v = (1.0f + Vector3DDot(face->normal, scene->light)) / 2;
 562:mini3d/scene.c **** 		else
 5431              		.loc 1 562 6 view .LVU1316
 5432 080c B6EE006A 		vmov.f32	s12, #5.0e-1	@ tmp554,
 5433              	.LVL359:
 5434              	.LBB198:
 5435              	.LBB195:
 5436              	@ mini3d/3dmath.h:62: 	return a.dx * b.dx + a.dy * b.dy + a.dz * b.dz;
  62:mini3d/3dmath.h **** }
 5437              		.loc 2 62 28 view .LVU1317
 5438 0810 66EEA56A 		vmul.f32	s13, s13, s11	@ tmp545, MEM[(struct FaceInstance *)_43 + 20B], MEM[(struct Scene3D *)scen
 5439              	@ mini3d/3dmath.h:62: 	return a.dx * b.dx + a.dy * b.dy + a.dz * b.dz;
  62:mini3d/3dmath.h **** }
 5440              		.loc 2 62 21 view .LVU1318
 5441 0814 D9ED0E4A 		vldr.32	s9, [r9, #56]	@ MEM[(struct Scene3D *)scene_14(D) + 56B], MEM[(struct Scene3D *)scene_14(D
 5442              	@ mini3d/3dmath.h:62: 	return a.dx * b.dx + a.dy * b.dy + a.dz * b.dz;
  62:mini3d/3dmath.h **** }
 5443              		.loc 2 62 35 view .LVU1319
 5444 0818 90ED065A 		vldr.32	s10, [r0, #24]	@ MEM[(struct FaceInstance *)_43 + 24B], MEM[(struct FaceInstance *)_43 + 2
 5445              	.LVL360:
  62:mini3d/3dmath.h **** }
 5446              		.loc 2 62 35 view .LVU1320
 5447 081c D9ED105A 		vldr.32	s11, [r9, #64]	@ MEM[(struct Scene3D *)scene_14(D) + 64B], MEM[(struct Scene3D *)scene_14(
 5448              	@ mini3d/3dmath.h:62: 	return a.dx * b.dx + a.dy * b.dy + a.dz * b.dz;
  62:mini3d/3dmath.h **** }
 5449              		.loc 2 62 21 view .LVU1321
 5450 0820 E4EE246A 		vfma.f32	s13, s8, s9	@ _181, MEM[(struct FaceInstance *)_43 + 16B], MEM[(struct Scene3D *)scene_14
 5451              	@ mini3d/3dmath.h:62: 	return a.dx * b.dx + a.dy * b.dy + a.dz * b.dz;
ARM GAS  /var/folders/cs/83z6p2tj4w57s6p2rt8nwfp00000gn/T//cc3yBana.s 			page 133


  62:mini3d/3dmath.h **** }
 5452              		.loc 2 62 35 view .LVU1322
 5453 0824 E5EE256A 		vfma.f32	s13, s10, s11	@ _183, MEM[(struct FaceInstance *)_43 + 24B], MEM[(struct Scene3D *)scene_
 5454              	.LBE195:
 5455              	.LBE198:
 5456              	@ mini3d/scene.c:562: 			v = (1.0f + Vector3DDot(face->normal, scene->light)) / 2;
 562:mini3d/scene.c **** 		else
 5457              		.loc 1 562 14 view .LVU1323
 5458 0828 14BF     		ite	ne
 5459 082a 36EE877A 		vaddne.f32	s14, s13, s14	@ tmp552, _183, tmp541
 564:mini3d/scene.c **** 
 5460              		.loc 1 564 4 is_stmt 1 view .LVU1324
 5461              	.LVL361:
 5462              	.LBB199:
 5463              	.LBI199:
  60:mini3d/3dmath.h **** {
 5464              		.loc 2 60 21 view .LVU1325
 5465              	.LBB200:
  62:mini3d/3dmath.h **** }
 5466              		.loc 2 62 2 view .LVU1326
  62:mini3d/3dmath.h **** }
 5467              		.loc 2 62 2 is_stmt 0 view .LVU1327
 5468              	.LBE200:
 5469              	.LBE199:
 5470              	@ mini3d/scene.c:564: 			v = (1.0f - Vector3DDot(face->normal, scene->light)) / 2;
 564:mini3d/scene.c **** 
 5471              		.loc 1 564 14 view .LVU1328
 5472 082e 37EE667A 		vsubeq.f32	s14, s14, s13	@ tmp562, tmp541, _196
 5473              	@ mini3d/scene.c:566: 		if ( c > 0 )
 566:mini3d/scene.c **** 			v = c + (1-c) * v; // map [0,1] to [c,1]
 5474              		.loc 1 566 6 view .LVU1329
 5475 0832 F1EE10FA 		vmrs	APSR_nzcv, FPSCR
 5476              	@ mini3d/scene.c:564: 			v = (1.0f - Vector3DDot(face->normal, scene->light)) / 2;
 564:mini3d/scene.c **** 
 5477              		.loc 1 564 6 view .LVU1330
 5478 0836 27EE067A 		vmul.f32	s14, s14, s12	@ v, tmp562, tmp564
 5479              	.LVL362:
 566:mini3d/scene.c **** 			v = c + (1-c) * v; // map [0,1] to [c,1]
 5480              		.loc 1 566 3 is_stmt 1 view .LVU1331
 5481              	@ mini3d/scene.c:566: 		if ( c > 0 )
 566:mini3d/scene.c **** 			v = c + (1-c) * v; // map [0,1] to [c,1]
 5482              		.loc 1 566 6 is_stmt 0 view .LVU1332
 5483 083a 37DD     		ble	.L346		@,
 567:mini3d/scene.c **** 		else if ( c < 0 )
 5484              		.loc 1 567 4 is_stmt 1 view .LVU1333
 5485              	@ mini3d/scene.c:567: 			v = c + (1-c) * v; // map [0,1] to [c,1]
 567:mini3d/scene.c **** 		else if ( c < 0 )
 5486              		.loc 1 567 14 is_stmt 0 view .LVU1334
 5487 083c F7EE006A 		vmov.f32	s13, #1.0e+0	@ tmp567,
 5488 0840 DFF8A0C0 		ldr	ip, .L378+8	@ tmp568,
 5489 0844 76EEE76A 		vsub.f32	s13, s13, s15	@ tmp566, tmp567, c
 5490              	@ mini3d/scene.c:567: 			v = c + (1-c) * v; // map [0,1] to [c,1]
 567:mini3d/scene.c **** 		else if ( c < 0 )
 5491              		.loc 1 567 6 view .LVU1335
 5492 0848 E6EE877A 		vfma.f32	s15, s13, s14	@ v, tmp566, v
 5493              	.LVL363:
 5494              	.L352:
ARM GAS  /var/folders/cs/83z6p2tj4w57s6p2rt8nwfp00000gn/T//cc3yBana.s 			page 134


 567:mini3d/scene.c **** 		else if ( c < 0 )
 5495              		.loc 1 567 6 view .LVU1336
 5496 084c 67EE897A 		vmul.f32	s15, s15, s18	@ tmp584, v, tmp711
 5497              	.LVL364:
 5498              	.L353:
 567:mini3d/scene.c **** 		else if ( c < 0 )
 5499              		.loc 1 567 6 view .LVU1337
 5500 0850 FDEEE77A 		vcvt.s32.f32	s15, s15	@ tmp580, tmp584
 5501 0854 17EE908A 		vmov	r8, s15	@ int	@ tmp580, tmp580
 5502 0858 28EAE878 		bic	r8, r8, r8, asr #31	@ tmp580, tmp580
 5503 085c B8F1200F 		cmp	r8, #32	@ tmp580,
 5504 0860 A8BF     		it	ge
 5505 0862 4FF02008 		movge	r8, #32	@ tmp580,
 5506 0866 0CEBC80C 		add	ip, ip, r8, lsl #3	@ _456, tmp579, tmp580,
 5507 086a 27E7     		b	.L233		@
 5508              	.LVL365:
 5509              	.L369:
 5510              	@ mini3d/scene.c:530: 		 (x1 >= WIDTH && x2 >= WIDTH && x3 >= WIDTH && (face->p4 == NULL || face->p
 530:mini3d/scene.c **** 		 (y1 < 0 && y2 < 0 && y3 < 0 && (face->p4 == NULL || face->p4->y < 0)) ||
 5511              		.loc 1 530 55 view .LVU1338
 5512 086c C668     		ldr	r6, [r0, #12]	@ _145, _43->p4
 5513              	@ mini3d/scene.c:530: 		 (x1 >= WIDTH && x2 >= WIDTH && x3 >= WIDTH && (face->p4 == NULL || face->p
 530:mini3d/scene.c **** 		 (y1 < 0 && y2 < 0 && y3 < 0 && (face->p4 == NULL || face->p4->y < 0)) ||
 5514              		.loc 1 530 47 view .LVU1339
 5515 086e 002E     		cmp	r6, #0	@ _145
 5516 0870 3FF434AF 		beq	.L212	@
 5517              	@ mini3d/scene.c:530: 		 (x1 >= WIDTH && x2 >= WIDTH && x3 >= WIDTH && (face->p4 == NULL || face->p
 530:mini3d/scene.c **** 		 (y1 < 0 && y2 < 0 && y3 < 0 && (face->p4 == NULL || face->p4->y < 0)) ||
 5518              		.loc 1 530 68 view .LVU1340
 5519 0874 D6ED004A 		vldr.32	s9, [r6]	@ _145->x, _145->x
 5520 0878 F4EEC84A 		vcmpe.f32	s9, s16	@ _145->x, tmp710
 5521 087c F1EE10FA 		vmrs	APSR_nzcv, FPSCR
 5522 0880 FFF6E9AE 		blt	.L217		@,
 5523 0884 2AE7     		b	.L212		@
 5524              	.L371:
 5525              	@ mini3d/scene.c:532: 		 (y1 >= HEIGHT && y2 >= HEIGHT && y3 >= HEIGHT && (face->p4 == NULL || face
 532:mini3d/scene.c **** 		return;
 5526              		.loc 1 532 58 view .LVU1341
 5527 0886 C668     		ldr	r6, [r0, #12]	@ _149, _43->p4
 5528              	@ mini3d/scene.c:532: 		 (y1 >= HEIGHT && y2 >= HEIGHT && y3 >= HEIGHT && (face->p4 == NULL || face
 532:mini3d/scene.c **** 		return;
 5529              		.loc 1 532 50 view .LVU1342
 5530 0888 002E     		cmp	r6, #0	@ _149
 5531 088a 3FF427AF 		beq	.L212	@
 5532              	@ mini3d/scene.c:532: 		 (y1 >= HEIGHT && y2 >= HEIGHT && y3 >= HEIGHT && (face->p4 == NULL || face
 532:mini3d/scene.c **** 		return;
 5533              		.loc 1 532 71 view .LVU1343
 5534 088e D6ED014A 		vldr.32	s9, [r6, #4]	@ _149->y, _149->y
 5535 0892 F4EEE84A 		vcmpe.f32	s9, s17	@ _149->y, tmp708
 5536 0896 F1EE10FA 		vmrs	APSR_nzcv, FPSCR
 5537 089a FFF6F1AE 		blt	.L225		@,
 5538 089e 1DE7     		b	.L212		@
 5539              	.LVL366:
 5540              	.L241:
 600:mini3d/scene.c **** 	}
 5541              		.loc 1 600 4 is_stmt 1 view .LVU1344
 5542 08a0 FFF7FEFF 		bl	fillTriangle		@
ARM GAS  /var/folders/cs/83z6p2tj4w57s6p2rt8nwfp00000gn/T//cc3yBana.s 			page 135


 5543              	.LVL367:
 600:mini3d/scene.c **** 	}
 5544              		.loc 1 600 4 is_stmt 0 view .LVU1345
 5545 08a4 D5F844C0 		ldr	ip, [r5, #68]	@ shape_20->nFaces, shape_20->nFaces
 5546 08a8 0699     		ldr	r1, [sp, #24]	@ rowstride, %sfp
 5547 08aa 17E7     		b	.L212		@
 5548              	.LVL368:
 5549              	.L346:
 568:mini3d/scene.c **** 			v *= 1 + c; // map [0,1] to [0, 1+c]
 5550              		.loc 1 568 8 is_stmt 1 view .LVU1346
 5551              	@ mini3d/scene.c:568: 		else if ( c < 0 )
 568:mini3d/scene.c **** 			v *= 1 + c; // map [0,1] to [0, 1+c]
 5552              		.loc 1 568 11 is_stmt 0 view .LVU1347
 5553 08ac 0DD4     		bmi	.L238		@,
 5554 08ae 67EE097A 		vmul.f32	s15, s14, s18	@ tmp576, v, tmp711
 5555              	.LVL369:
 568:mini3d/scene.c **** 			v *= 1 + c; // map [0,1] to [0, 1+c]
 5556              		.loc 1 568 11 view .LVU1348
 5557 08b2 DFF830C0 		ldr	ip, .L378+8	@ tmp574,
 5558 08b6 CBE7     		b	.L353		@
 5559              	.LVL370:
 5560              	.L356:
 568:mini3d/scene.c **** 			v *= 1 + c; // map [0,1] to [0, 1+c]
 5561              		.loc 1 568 11 view .LVU1349
 5562              	.LBE205:
 5563              	.LBE211:
 5564              	.LBE215:
 5565              	.LBE221:
 5566              	.LBE244:
 5567              	.LBE248:
 726:mini3d/scene.c **** 
 5568              		.loc 1 726 3 is_stmt 1 view .LVU1350
 5569 08b8 0146     		mov	r1, r0	@ count, tmp719
 5570 08ba 094B     		ldr	r3, .L378+4	@,
 5571 08bc 0422     		movs	r2, #4	@,
 5572 08be D9F8A400 		ldr	r0, [r9, #164]	@, scene_14(D)->shapelist
 5573              	.LVL371:
 726:mini3d/scene.c **** 
 5574              		.loc 1 726 3 is_stmt 0 view .LVU1351
 5575 08c2 FFF7FEFF 		bl	qsort		@
 5576              	.LVL372:
 730:mini3d/scene.c **** 	{
 5577              		.loc 1 730 15 is_stmt 1 view .LVU1352
 5578 08c6 FFF7ACBB 		b	.L171		@
 5579              	.LVL373:
 5580              	.L238:
 5581              	.LBB249:
 5582              	.LBB245:
 5583              	.LBB222:
 5584              	.LBB216:
 5585              	.LBB212:
 5586              	.LBB206:
 569:mini3d/scene.c **** 	}
 5587              		.loc 1 569 4 view .LVU1353
 5588              	@ mini3d/scene.c:569: 			v *= 1 + c; // map [0,1] to [0, 1+c]
 569:mini3d/scene.c **** 	}
 5589              		.loc 1 569 11 is_stmt 0 view .LVU1354
ARM GAS  /var/folders/cs/83z6p2tj4w57s6p2rt8nwfp00000gn/T//cc3yBana.s 			page 136


 5590 08ca F7EE006A 		vmov.f32	s13, #1.0e+0	@ tmp582,
 5591 08ce DFF814C0 		ldr	ip, .L378+8	@ tmp579,
 5592 08d2 77EEA67A 		vadd.f32	s15, s15, s13	@ tmp581, c, tmp582
 5593              	.LVL374:
 5594              	@ mini3d/scene.c:569: 			v *= 1 + c; // map [0,1] to [0, 1+c]
 569:mini3d/scene.c **** 	}
 5595              		.loc 1 569 6 view .LVU1355
 5596 08d6 67EE877A 		vmul.f32	s15, s15, s14	@ v, tmp581, v
 5597              	.LVL375:
 569:mini3d/scene.c **** 	}
 5598              		.loc 1 569 6 view .LVU1356
 5599 08da B7E7     		b	.L352		@
 5600              	.L379:
 5601              		.align	2
 5602              	.L378:
 5603 08dc 00010000 		.word	.LANCHOR0+256
 5604 08e0 00000000 		.word	compareZ
 5605 08e4 00000000 		.word	.LANCHOR0
 5606              	.LBE206:
 5607              	.LBE212:
 5608              	.LBE216:
 5609              	.LBE222:
 5610              	.LBE245:
 5611              	.LBE249:
 5612              		.cfi_endproc
 5613              	.LFE38:
 5614              		.size	Scene3D_drawNode, .-Scene3D_drawNode
 5615              		.section	.text.Scene3D_draw,"ax",%progbits
 5616              		.align	1
 5617              		.p2align 4,,15
 5618              		.global	Scene3D_draw
 5619              		.syntax unified
 5620              		.thumb
 5621              		.thumb_func
 5622              		.fpu fpv5-sp-d16
 5623              		.type	Scene3D_draw, %function
 5624              	Scene3D_draw:
 5625              	.LVL376:
 5626              	.LFB39:
 742:mini3d/scene.c **** 
 743:mini3d/scene.c **** void
 744:mini3d/scene.c **** Scene3D_draw(Scene3D* scene, uint8_t* bitmap, int rowstride)
 745:mini3d/scene.c **** {
 5627              		.loc 1 745 1 is_stmt 1 view -0
 5628              		.cfi_startproc
 5629              		@ args = 0, pretend = 0, frame = 0
 5630              		@ frame_needed = 0, uses_anonymous_args = 0
 746:mini3d/scene.c **** #if ENABLE_Z_BUFFER
 747:mini3d/scene.c **** 	scene->zmin = 1e23f;
 5631              		.loc 1 747 2 view .LVU1358
 5632              	@ mini3d/scene.c:745: {
 745:mini3d/scene.c **** #if ENABLE_Z_BUFFER
 5633              		.loc 1 745 1 is_stmt 0 view .LVU1359
 5634 0000 2DE9F043 		push	{r4, r5, r6, r7, r8, r9, lr}	@
 5635              	.LCFI51:
 5636              		.cfi_def_cfa_offset 28
 5637              		.cfi_offset 4, -28
ARM GAS  /var/folders/cs/83z6p2tj4w57s6p2rt8nwfp00000gn/T//cc3yBana.s 			page 137


 5638              		.cfi_offset 5, -24
 5639              		.cfi_offset 6, -20
 5640              		.cfi_offset 7, -16
 5641              		.cfi_offset 8, -12
 5642              		.cfi_offset 9, -8
 5643              		.cfi_offset 14, -4
 5644              	@ mini3d/scene.c:750: 	Scene3D_updateNode(scene, &scene->root, scene->camera, 0, kRenderFilled, 0);
 748:mini3d/scene.c **** #endif
 749:mini3d/scene.c **** 
 750:mini3d/scene.c **** 	Scene3D_updateNode(scene, &scene->root, scene->camera, 0, kRenderFilled, 0);
 5645              		.loc 1 750 2 view .LVU1360
 5646 0004 0123     		movs	r3, #1	@ tmp118,
 5647              	@ mini3d/scene.c:745: {
 745:mini3d/scene.c **** #if ENABLE_Z_BUFFER
 5648              		.loc 1 745 1 view .LVU1361
 5649 0006 8FB0     		sub	sp, sp, #60	@,,
 5650              	.LCFI52:
 5651              		.cfi_def_cfa_offset 88
 5652              	@ mini3d/scene.c:750: 	Scene3D_updateNode(scene, &scene->root, scene->camera, 0, kRenderFilled, 0);
 5653              		.loc 1 750 2 view .LVU1362
 5654 0008 0024     		movs	r4, #0	@ tmp117,
 5655 000a 00F10C05 		add	r5, r0, #12	@ tmp120, scene,
 5656 000e 0B93     		str	r3, [sp, #44]	@ tmp118,
 5657              	@ mini3d/scene.c:745: {
 745:mini3d/scene.c **** #if ENABLE_Z_BUFFER
 5658              		.loc 1 745 1 view .LVU1363
 5659 0010 0646     		mov	r6, r0	@ scene, tmp123
 5660              	@ mini3d/scene.c:747: 	scene->zmin = 1e23f;
 747:mini3d/scene.c **** #endif
 5661              		.loc 1 747 14 view .LVU1364
 5662 0012 134B     		ldr	r3, .L382	@ tmp115,
 5663              	@ mini3d/scene.c:750: 	Scene3D_updateNode(scene, &scene->root, scene->camera, 0, kRenderFilled, 0);
 5664              		.loc 1 750 2 view .LVU1365
 5665 0014 00F15009 		add	r9, r0, #80	@ _1, scene,
 5666 0018 0C94     		str	r4, [sp, #48]	@ tmp117,
 5667              	@ mini3d/scene.c:745: {
 745:mini3d/scene.c **** #if ENABLE_Z_BUFFER
 5668              		.loc 1 745 1 view .LVU1366
 5669 001a 0F46     		mov	r7, r1	@ bitmap, tmp124
 5670              	@ mini3d/scene.c:747: 	scene->zmin = 1e23f;
 747:mini3d/scene.c **** #endif
 5671              		.loc 1 747 14 view .LVU1367
 5672 001c C0F8AC30 		str	r3, [r0, #172]	@ float	@ tmp115, scene_4(D)->zmin
 5673              		.loc 1 750 2 is_stmt 1 view .LVU1368
 5674              	@ mini3d/scene.c:745: {
 745:mini3d/scene.c **** #if ENABLE_Z_BUFFER
 5675              		.loc 1 745 1 is_stmt 0 view .LVU1369
 5676 0020 9046     		mov	r8, r2	@ rowstride, tmp125
 5677              	@ mini3d/scene.c:750: 	Scene3D_updateNode(scene, &scene->root, scene->camera, 0, kRenderFilled, 0);
 5678              		.loc 1 750 2 view .LVU1370
 5679 0022 6C46     		mov	r4, sp	@ tmp119,
 5680 0024 9FED0F0A 		vldr.32	s0, .L382+4	@,
 5681 0028 0FCD     		ldmia	r5!, {r0, r1, r2, r3}	@ tmp120,,,,
 5682              	.LVL377:
 5683              		.loc 1 750 2 view .LVU1371
 5684 002a 0FC4     		stmia	r4!, {r0, r1, r2, r3}	@ tmp119,,,,
 5685 002c 0FCD     		ldmia	r5!, {r0, r1, r2, r3}	@ tmp120,,,,
ARM GAS  /var/folders/cs/83z6p2tj4w57s6p2rt8nwfp00000gn/T//cc3yBana.s 			page 138


 5686 002e 0FC4     		stmia	r4!, {r0, r1, r2, r3}	@ tmp119,,,,
 5687 0030 95E80700 		ldm	r5, {r0, r1, r2}	@ tmp120,,,
 5688 0034 B368     		ldr	r3, [r6, #8]	@, scene_4(D)->camera
 5689 0036 84E80700 		stm	r4, {r0, r1, r2}	@ tmp119,,,
 5690 003a 4946     		mov	r1, r9	@, _1
 5691 003c 7268     		ldr	r2, [r6, #4]	@, scene_4(D)->camera
 5692 003e 3046     		mov	r0, r6	@, scene
 5693 0040 FFF7FEFF 		bl	Scene3D_updateNode		@
 5694              	.LVL378:
 751:mini3d/scene.c **** 
 752:mini3d/scene.c **** #if ENABLE_Z_BUFFER
 753:mini3d/scene.c **** 	resetZBuffer(scene->zmin);
 5695              		.loc 1 753 2 is_stmt 1 view .LVU1372
 5696 0044 96ED2B0A 		vldr.32	s0, [r6, #172]	@, scene_4(D)->zmin
 5697 0048 FFF7FEFF 		bl	resetZBuffer		@
 5698              	.LVL379:
 754:mini3d/scene.c **** #endif
 755:mini3d/scene.c **** 
 756:mini3d/scene.c **** 	Scene3D_drawNode(scene, &scene->root, bitmap, rowstride);
 5699              		.loc 1 756 2 view .LVU1373
 5700 004c 4346     		mov	r3, r8	@, rowstride
 5701 004e 3A46     		mov	r2, r7	@, bitmap
 5702 0050 4946     		mov	r1, r9	@, _1
 5703 0052 3046     		mov	r0, r6	@, scene
 5704              	@ mini3d/scene.c:757: }
 757:mini3d/scene.c **** }
 5705              		.loc 1 757 1 is_stmt 0 view .LVU1374
 5706 0054 0FB0     		add	sp, sp, #60	@,,
 5707              	.LCFI53:
 5708              		.cfi_def_cfa_offset 28
 5709              		@ sp needed	@
 5710 0056 BDE8F043 		pop	{r4, r5, r6, r7, r8, r9, lr}	@
 5711              	.LCFI54:
 5712              		.cfi_restore 14
 5713              		.cfi_restore 9
 5714              		.cfi_restore 8
 5715              		.cfi_restore 7
 5716              		.cfi_restore 6
 5717              		.cfi_restore 5
 5718              		.cfi_restore 4
 5719              		.cfi_def_cfa_offset 0
 5720              	.LVL380:
 5721              	@ mini3d/scene.c:756: 	Scene3D_drawNode(scene, &scene->root, bitmap, rowstride);
 756:mini3d/scene.c **** }
 5722              		.loc 1 756 2 view .LVU1375
 5723 005a FFF7FEBF 		b	Scene3D_drawNode		@
 5724              	.LVL381:
 5725              	.L383:
 756:mini3d/scene.c **** }
 5726              		.loc 1 756 2 view .LVU1376
 5727 005e 00BF     		.align	2
 5728              	.L382:
 5729 0060 1668A965 		.word	1705601046
 5730 0064 00000000 		.word	0
 5731              		.cfi_endproc
 5732              	.LFE39:
 5733              		.size	Scene3D_draw, .-Scene3D_draw
ARM GAS  /var/folders/cs/83z6p2tj4w57s6p2rt8nwfp00000gn/T//cc3yBana.s 			page 139


 5734              		.section	.data.patterns,"aw"
 5735              		.align	2
 5736              		.set	.LANCHOR0,. + 0
 5737              		.type	patterns, %object
 5738              		.size	patterns, 264
 5739              	patterns:
 5740 0000 00000000 		.ascii	"\000\000\000\000\000\000\000\000"
 5740      00000000 
 5741 0008 80000000 		.ascii	"\200\000\000\000\010\000\000\000"
 5741      08000000 
 5742 0010 88000000 		.ascii	"\210\000\000\000\210\000\000\000"
 5742      88000000 
 5743 0018 88002000 		.ascii	"\210\000 \000\210\000\002\000"
 5743      88000200 
 5744 0020 88002200 		.ascii	"\210\000\"\000\210\000\"\000"
 5744      88002200 
 5745 0028 A8002200 		.ascii	"\250\000\"\000\212\000\"\000"
 5745      8A002200 
 5746 0030 AA002200 		.ascii	"\252\000\"\000\252\000\"\000"
 5746      AA002200 
 5747 0038 AA00A200 		.ascii	"\252\000\242\000\252\000*\000"
 5747      AA002A00 
 5748 0040 AA00AA00 		.ascii	"\252\000\252\000\252\000\252\000"
 5748      AA00AA00 
 5749 0048 AA40AA00 		.ascii	"\252@\252\000\252\004\252\000"
 5749      AA04AA00 
 5750 0050 AA44AA00 		.ascii	"\252D\252\000\252D\252\000"
 5750      AA44AA00 
 5751 0058 AA44AA10 		.ascii	"\252D\252\020\252D\252\001"
 5751      AA44AA01 
 5752 0060 AA44AA11 		.ascii	"\252D\252\021\252D\252\021"
 5752      AA44AA11 
 5753 0068 AA54AA11 		.ascii	"\252T\252\021\252E\252\021"
 5753      AA45AA11 
 5754 0070 AA55AA11 		.ascii	"\252U\252\021\252U\252\021"
 5754      AA55AA11 
 5755 0078 AA55AA51 		.ascii	"\252U\252Q\252U\252\025"
 5755      AA55AA15 
 5756 0080 AA55AA55 		.ascii	"\252U\252U\252U\252U"
 5756      AA55AA55 
 5757 0088 BA55AA55 		.ascii	"\272U\252U\253U\252U"
 5757      AB55AA55 
 5758 0090 BB55AA55 		.ascii	"\273U\252U\273U\252U"
 5758      BB55AA55 
 5759 0098 BB55EA55 		.ascii	"\273U\352U\273U\256U"
 5759      BB55AE55 
 5760 00a0 BB55EE55 		.ascii	"\273U\356U\273U\356U"
 5760      BB55EE55 
 5761 00a8 FB55EE55 		.ascii	"\373U\356U\277U\356U"
 5761      BF55EE55 
 5762 00b0 FF55EE55 		.ascii	"\377U\356U\377U\356U"
 5762      FF55EE55 
 5763 00b8 FF55FE55 		.ascii	"\377U\376U\377U\357U"
 5763      FF55EF55 
 5764 00c0 FF55FF55 		.ascii	"\377U\377U\377U\377U"
 5764      FF55FF55 
 5765 00c8 FF55FFD5 		.ascii	"\377U\377\325\377U\377]"
ARM GAS  /var/folders/cs/83z6p2tj4w57s6p2rt8nwfp00000gn/T//cc3yBana.s 			page 140


 5765      FF55FF5D 
 5766 00d0 FF55FFDD 		.ascii	"\377U\377\335\377U\377\335"
 5766      FF55FFDD 
 5767 00d8 FF75FFDD 		.ascii	"\377u\377\335\377W\377\335"
 5767      FF57FFDD 
 5768 00e0 FF77FFDD 		.ascii	"\377w\377\335\377w\377\335"
 5768      FF77FFDD 
 5769 00e8 FF77FFFD 		.ascii	"\377w\377\375\377w\377\337"
 5769      FF77FFDF 
 5770 00f0 FF77FFFF 		.ascii	"\377w\377\377\377w\377\377"
 5770      FF77FFFF 
 5771 00f8 FFF7FFFF 		.ascii	"\377\367\377\377\377\177\377\377"
 5771      FF7FFFFF 
 5772 0100 FFFFFFFF 		.ascii	"\377\377\377\377\377\377\377\377"
 5772      FFFFFFFF 
 5773              		.text
 5774              	.Letext0:
 5775              		.file 3 "/usr/local/playdate/gcc-arm-none-eabi-9-2019-q4-major/lib/gcc/arm-none-eabi/9.2.1/include
 5776              		.file 4 "/usr/local/playdate/gcc-arm-none-eabi-9-2019-q4-major/arm-none-eabi/include/machine/_defa
 5777              		.file 5 "/usr/local/playdate/gcc-arm-none-eabi-9-2019-q4-major/arm-none-eabi/include/sys/lock.h"
 5778              		.file 6 "/usr/local/playdate/gcc-arm-none-eabi-9-2019-q4-major/arm-none-eabi/include/sys/_types.h"
 5779              		.file 7 "/usr/local/playdate/gcc-arm-none-eabi-9-2019-q4-major/arm-none-eabi/include/sys/reent.h"
 5780              		.file 8 "/usr/local/playdate/gcc-arm-none-eabi-9-2019-q4-major/arm-none-eabi/include/stdlib.h"
 5781              		.file 9 "/usr/local/playdate/gcc-arm-none-eabi-9-2019-q4-major/arm-none-eabi/include/sys/_stdint.h
 5782              		.file 10 "/usr/local/playdate/gcc-arm-none-eabi-9-2019-q4-major/arm-none-eabi/include/math.h"
 5783              		.file 11 "mini3d/mini3d.h"
 5784              		.file 12 "mini3d/shape.h"
 5785              		.file 13 "mini3d/scene.h"
 5786              		.file 14 "mini3d/render.h"
 5787              		.file 15 "<built-in>"
 5788              		.section	.debug_info,"",%progbits
 5789              	.Ldebug_info0:
 5790 0000 3B2B0000 		.4byte	0x2b3b
 5791 0004 0200     		.2byte	0x2
 5792 0006 00000000 		.4byte	.Ldebug_abbrev0
 5793 000a 04       		.byte	0x4
 5794 000b 01       		.uleb128 0x1
 5795 000c 8C0A0000 		.4byte	.LASF190
 5796 0010 0C       		.byte	0xc
 5797 0011 0C010000 		.4byte	.LASF191
 5798 0015 B4090000 		.4byte	.LASF192
 5799 0019 D0040000 		.4byte	.Ldebug_ranges0+0x4d0
 5800 001d 00000000 		.4byte	0
 5801 0021 00000000 		.4byte	0
 5802 0025 00000000 		.4byte	.Ldebug_line0
 5803 0029 02       		.uleb128 0x2
 5804 002a 04       		.byte	0x4
 5805 002b 04       		.byte	0x4
 5806 002c DC010000 		.4byte	.LASF0
 5807 0030 03       		.uleb128 0x3
 5808 0031 04       		.byte	0x4
 5809 0032 05       		.byte	0x5
 5810 0033 696E7400 		.ascii	"int\000"
 5811 0037 04       		.uleb128 0x4
 5812 0038 DE020000 		.4byte	.LASF5
 5813 003c 03       		.byte	0x3
 5814 003d D1       		.byte	0xd1
ARM GAS  /var/folders/cs/83z6p2tj4w57s6p2rt8nwfp00000gn/T//cc3yBana.s 			page 141


 5815 003e 17       		.byte	0x17
 5816 003f 43000000 		.4byte	0x43
 5817 0043 02       		.uleb128 0x2
 5818 0044 04       		.byte	0x4
 5819 0045 07       		.byte	0x7
 5820 0046 B9000000 		.4byte	.LASF1
 5821 004a 02       		.uleb128 0x2
 5822 004b 08       		.byte	0x8
 5823 004c 05       		.byte	0x5
 5824 004d F2040000 		.4byte	.LASF2
 5825 0051 02       		.uleb128 0x2
 5826 0052 08       		.byte	0x8
 5827 0053 04       		.byte	0x4
 5828 0054 54060000 		.4byte	.LASF3
 5829 0058 02       		.uleb128 0x2
 5830 0059 01       		.byte	0x1
 5831 005a 06       		.byte	0x6
 5832 005b 5B0A0000 		.4byte	.LASF4
 5833 005f 04       		.uleb128 0x4
 5834 0060 27080000 		.4byte	.LASF6
 5835 0064 04       		.byte	0x4
 5836 0065 2B       		.byte	0x2b
 5837 0066 18       		.byte	0x18
 5838 0067 6B000000 		.4byte	0x6b
 5839 006b 02       		.uleb128 0x2
 5840 006c 01       		.byte	0x1
 5841 006d 08       		.byte	0x8
 5842 006e 13090000 		.4byte	.LASF7
 5843 0072 02       		.uleb128 0x2
 5844 0073 02       		.byte	0x2
 5845 0074 05       		.byte	0x5
 5846 0075 27070000 		.4byte	.LASF8
 5847 0079 04       		.uleb128 0x4
 5848 007a 76020000 		.4byte	.LASF9
 5849 007e 04       		.byte	0x4
 5850 007f 39       		.byte	0x39
 5851 0080 19       		.byte	0x19
 5852 0081 85000000 		.4byte	0x85
 5853 0085 02       		.uleb128 0x2
 5854 0086 02       		.byte	0x2
 5855 0087 07       		.byte	0x7
 5856 0088 7F0B0000 		.4byte	.LASF10
 5857 008c 02       		.uleb128 0x2
 5858 008d 04       		.byte	0x4
 5859 008e 05       		.byte	0x5
 5860 008f 44070000 		.4byte	.LASF11
 5861 0093 02       		.uleb128 0x2
 5862 0094 04       		.byte	0x4
 5863 0095 07       		.byte	0x7
 5864 0096 C3080000 		.4byte	.LASF12
 5865 009a 02       		.uleb128 0x2
 5866 009b 08       		.byte	0x8
 5867 009c 07       		.byte	0x7
 5868 009d 3F020000 		.4byte	.LASF13
 5869 00a1 04       		.uleb128 0x4
 5870 00a2 79060000 		.4byte	.LASF14
 5871 00a6 05       		.byte	0x5
ARM GAS  /var/folders/cs/83z6p2tj4w57s6p2rt8nwfp00000gn/T//cc3yBana.s 			page 142


 5872 00a7 22       		.byte	0x22
 5873 00a8 19       		.byte	0x19
 5874 00a9 AD000000 		.4byte	0xad
 5875 00ad 05       		.uleb128 0x5
 5876 00ae 04       		.byte	0x4
 5877 00af B3000000 		.4byte	0xb3
 5878 00b3 06       		.uleb128 0x6
 5879 00b4 EF080000 		.4byte	.LASF121
 5880 00b8 01       		.byte	0x1
 5881 00b9 04       		.uleb128 0x4
 5882 00ba EE0B0000 		.4byte	.LASF15
 5883 00be 06       		.byte	0x6
 5884 00bf 2C       		.byte	0x2c
 5885 00c0 0E       		.byte	0xe
 5886 00c1 8C000000 		.4byte	0x8c
 5887 00c5 04       		.uleb128 0x4
 5888 00c6 6F010000 		.4byte	.LASF16
 5889 00ca 06       		.byte	0x6
 5890 00cb 72       		.byte	0x72
 5891 00cc 0E       		.byte	0xe
 5892 00cd 8C000000 		.4byte	0x8c
 5893 00d1 07       		.uleb128 0x7
 5894 00d2 DC080000 		.4byte	.LASF17
 5895 00d6 03       		.byte	0x3
 5896 00d7 5E01     		.2byte	0x15e
 5897 00d9 17       		.byte	0x17
 5898 00da 43000000 		.4byte	0x43
 5899 00de 08       		.uleb128 0x8
 5900 00df 04       		.byte	0x4
 5901 00e0 06       		.byte	0x6
 5902 00e1 A6       		.byte	0xa6
 5903 00e2 03       		.byte	0x3
 5904 00e3 00010000 		.4byte	0x100
 5905 00e7 09       		.uleb128 0x9
 5906 00e8 5F040000 		.4byte	.LASF18
 5907 00ec 06       		.byte	0x6
 5908 00ed A8       		.byte	0xa8
 5909 00ee 0C       		.byte	0xc
 5910 00ef D1000000 		.4byte	0xd1
 5911 00f3 09       		.uleb128 0x9
 5912 00f4 A7070000 		.4byte	.LASF19
 5913 00f8 06       		.byte	0x6
 5914 00f9 A9       		.byte	0xa9
 5915 00fa 13       		.byte	0x13
 5916 00fb 00010000 		.4byte	0x100
 5917 00ff 00       		.byte	0
 5918 0100 0A       		.uleb128 0xa
 5919 0101 6B000000 		.4byte	0x6b
 5920 0105 10010000 		.4byte	0x110
 5921 0109 0B       		.uleb128 0xb
 5922 010a 43000000 		.4byte	0x43
 5923 010e 03       		.byte	0x3
 5924 010f 00       		.byte	0
 5925 0110 0C       		.uleb128 0xc
 5926 0111 08       		.byte	0x8
 5927 0112 06       		.byte	0x6
 5928 0113 A3       		.byte	0xa3
ARM GAS  /var/folders/cs/83z6p2tj4w57s6p2rt8nwfp00000gn/T//cc3yBana.s 			page 143


 5929 0114 09       		.byte	0x9
 5930 0115 38010000 		.4byte	0x138
 5931 0119 0D       		.uleb128 0xd
 5932 011a D4010000 		.4byte	.LASF20
 5933 011e 06       		.byte	0x6
 5934 011f A5       		.byte	0xa5
 5935 0120 07       		.byte	0x7
 5936 0121 30000000 		.4byte	0x30
 5937 0125 02       		.byte	0x2
 5938 0126 23       		.byte	0x23
 5939 0127 00       		.uleb128 0
 5940 0128 0D       		.uleb128 0xd
 5941 0129 72030000 		.4byte	.LASF21
 5942 012d 06       		.byte	0x6
 5943 012e AA       		.byte	0xaa
 5944 012f 05       		.byte	0x5
 5945 0130 DE000000 		.4byte	0xde
 5946 0134 02       		.byte	0x2
 5947 0135 23       		.byte	0x23
 5948 0136 04       		.uleb128 0x4
 5949 0137 00       		.byte	0
 5950 0138 04       		.uleb128 0x4
 5951 0139 B8050000 		.4byte	.LASF22
 5952 013d 06       		.byte	0x6
 5953 013e AB       		.byte	0xab
 5954 013f 03       		.byte	0x3
 5955 0140 10010000 		.4byte	0x110
 5956 0144 04       		.uleb128 0x4
 5957 0145 4F040000 		.4byte	.LASF23
 5958 0149 06       		.byte	0x6
 5959 014a AF       		.byte	0xaf
 5960 014b 1B       		.byte	0x1b
 5961 014c A1000000 		.4byte	0xa1
 5962 0150 0E       		.uleb128 0xe
 5963 0151 04       		.byte	0x4
 5964 0152 05       		.uleb128 0x5
 5965 0153 04       		.byte	0x4
 5966 0154 58010000 		.4byte	0x158
 5967 0158 02       		.uleb128 0x2
 5968 0159 01       		.byte	0x1
 5969 015a 08       		.byte	0x8
 5970 015b C5030000 		.4byte	.LASF24
 5971 015f 0F       		.uleb128 0xf
 5972 0160 58010000 		.4byte	0x158
 5973 0164 04       		.uleb128 0x4
 5974 0165 2D050000 		.4byte	.LASF25
 5975 0169 07       		.byte	0x7
 5976 016a 16       		.byte	0x16
 5977 016b 19       		.byte	0x19
 5978 016c 93000000 		.4byte	0x93
 5979 0170 10       		.uleb128 0x10
 5980 0171 8E010000 		.4byte	.LASF30
 5981 0175 18       		.byte	0x18
 5982 0176 07       		.byte	0x7
 5983 0177 2F       		.byte	0x2f
 5984 0178 08       		.byte	0x8
 5985 0179 D6010000 		.4byte	0x1d6
ARM GAS  /var/folders/cs/83z6p2tj4w57s6p2rt8nwfp00000gn/T//cc3yBana.s 			page 144


 5986 017d 0D       		.uleb128 0xd
 5987 017e 27030000 		.4byte	.LASF26
 5988 0182 07       		.byte	0x7
 5989 0183 31       		.byte	0x31
 5990 0184 13       		.byte	0x13
 5991 0185 D6010000 		.4byte	0x1d6
 5992 0189 02       		.byte	0x2
 5993 018a 23       		.byte	0x23
 5994 018b 00       		.uleb128 0
 5995 018c 11       		.uleb128 0x11
 5996 018d 5F6B00   		.ascii	"_k\000"
 5997 0190 07       		.byte	0x7
 5998 0191 32       		.byte	0x32
 5999 0192 07       		.byte	0x7
 6000 0193 30000000 		.4byte	0x30
 6001 0197 02       		.byte	0x2
 6002 0198 23       		.byte	0x23
 6003 0199 04       		.uleb128 0x4
 6004 019a 0D       		.uleb128 0xd
 6005 019b 4F080000 		.4byte	.LASF27
 6006 019f 07       		.byte	0x7
 6007 01a0 32       		.byte	0x32
 6008 01a1 0B       		.byte	0xb
 6009 01a2 30000000 		.4byte	0x30
 6010 01a6 02       		.byte	0x2
 6011 01a7 23       		.byte	0x23
 6012 01a8 08       		.uleb128 0x8
 6013 01a9 0D       		.uleb128 0xd
 6014 01aa 8B070000 		.4byte	.LASF28
 6015 01ae 07       		.byte	0x7
 6016 01af 32       		.byte	0x32
 6017 01b0 14       		.byte	0x14
 6018 01b1 30000000 		.4byte	0x30
 6019 01b5 02       		.byte	0x2
 6020 01b6 23       		.byte	0x23
 6021 01b7 0C       		.uleb128 0xc
 6022 01b8 0D       		.uleb128 0xd
 6023 01b9 6B020000 		.4byte	.LASF29
 6024 01bd 07       		.byte	0x7
 6025 01be 32       		.byte	0x32
 6026 01bf 1B       		.byte	0x1b
 6027 01c0 30000000 		.4byte	0x30
 6028 01c4 02       		.byte	0x2
 6029 01c5 23       		.byte	0x23
 6030 01c6 10       		.uleb128 0x10
 6031 01c7 11       		.uleb128 0x11
 6032 01c8 5F7800   		.ascii	"_x\000"
 6033 01cb 07       		.byte	0x7
 6034 01cc 33       		.byte	0x33
 6035 01cd 0B       		.byte	0xb
 6036 01ce DC010000 		.4byte	0x1dc
 6037 01d2 02       		.byte	0x2
 6038 01d3 23       		.byte	0x23
 6039 01d4 14       		.uleb128 0x14
 6040 01d5 00       		.byte	0
 6041 01d6 05       		.uleb128 0x5
 6042 01d7 04       		.byte	0x4
ARM GAS  /var/folders/cs/83z6p2tj4w57s6p2rt8nwfp00000gn/T//cc3yBana.s 			page 145


 6043 01d8 70010000 		.4byte	0x170
 6044 01dc 0A       		.uleb128 0xa
 6045 01dd 64010000 		.4byte	0x164
 6046 01e1 EC010000 		.4byte	0x1ec
 6047 01e5 0B       		.uleb128 0xb
 6048 01e6 43000000 		.4byte	0x43
 6049 01ea 00       		.byte	0
 6050 01eb 00       		.byte	0
 6051 01ec 10       		.uleb128 0x10
 6052 01ed B8080000 		.4byte	.LASF31
 6053 01f1 24       		.byte	0x24
 6054 01f2 07       		.byte	0x7
 6055 01f3 37       		.byte	0x37
 6056 01f4 08       		.byte	0x8
 6057 01f5 81020000 		.4byte	0x281
 6058 01f9 0D       		.uleb128 0xd
 6059 01fa F1020000 		.4byte	.LASF32
 6060 01fe 07       		.byte	0x7
 6061 01ff 39       		.byte	0x39
 6062 0200 09       		.byte	0x9
 6063 0201 30000000 		.4byte	0x30
 6064 0205 02       		.byte	0x2
 6065 0206 23       		.byte	0x23
 6066 0207 00       		.uleb128 0
 6067 0208 0D       		.uleb128 0xd
 6068 0209 E2010000 		.4byte	.LASF33
 6069 020d 07       		.byte	0x7
 6070 020e 3A       		.byte	0x3a
 6071 020f 09       		.byte	0x9
 6072 0210 30000000 		.4byte	0x30
 6073 0214 02       		.byte	0x2
 6074 0215 23       		.byte	0x23
 6075 0216 04       		.uleb128 0x4
 6076 0217 0D       		.uleb128 0xd
 6077 0218 BC010000 		.4byte	.LASF34
 6078 021c 07       		.byte	0x7
 6079 021d 3B       		.byte	0x3b
 6080 021e 09       		.byte	0x9
 6081 021f 30000000 		.4byte	0x30
 6082 0223 02       		.byte	0x2
 6083 0224 23       		.byte	0x23
 6084 0225 08       		.uleb128 0x8
 6085 0226 0D       		.uleb128 0xd
 6086 0227 CA030000 		.4byte	.LASF35
 6087 022b 07       		.byte	0x7
 6088 022c 3C       		.byte	0x3c
 6089 022d 09       		.byte	0x9
 6090 022e 30000000 		.4byte	0x30
 6091 0232 02       		.byte	0x2
 6092 0233 23       		.byte	0x23
 6093 0234 0C       		.uleb128 0xc
 6094 0235 0D       		.uleb128 0xd
 6095 0236 4B060000 		.4byte	.LASF36
 6096 023a 07       		.byte	0x7
 6097 023b 3D       		.byte	0x3d
 6098 023c 09       		.byte	0x9
 6099 023d 30000000 		.4byte	0x30
ARM GAS  /var/folders/cs/83z6p2tj4w57s6p2rt8nwfp00000gn/T//cc3yBana.s 			page 146


 6100 0241 02       		.byte	0x2
 6101 0242 23       		.byte	0x23
 6102 0243 10       		.uleb128 0x10
 6103 0244 0D       		.uleb128 0xd
 6104 0245 C1070000 		.4byte	.LASF37
 6105 0249 07       		.byte	0x7
 6106 024a 3E       		.byte	0x3e
 6107 024b 09       		.byte	0x9
 6108 024c 30000000 		.4byte	0x30
 6109 0250 02       		.byte	0x2
 6110 0251 23       		.byte	0x23
 6111 0252 14       		.uleb128 0x14
 6112 0253 0D       		.uleb128 0xd
 6113 0254 96010000 		.4byte	.LASF38
 6114 0258 07       		.byte	0x7
 6115 0259 3F       		.byte	0x3f
 6116 025a 09       		.byte	0x9
 6117 025b 30000000 		.4byte	0x30
 6118 025f 02       		.byte	0x2
 6119 0260 23       		.byte	0x23
 6120 0261 18       		.uleb128 0x18
 6121 0262 0D       		.uleb128 0xd
 6122 0263 04030000 		.4byte	.LASF39
 6123 0267 07       		.byte	0x7
 6124 0268 40       		.byte	0x40
 6125 0269 09       		.byte	0x9
 6126 026a 30000000 		.4byte	0x30
 6127 026e 02       		.byte	0x2
 6128 026f 23       		.byte	0x23
 6129 0270 1C       		.uleb128 0x1c
 6130 0271 0D       		.uleb128 0xd
 6131 0272 ED050000 		.4byte	.LASF40
 6132 0276 07       		.byte	0x7
 6133 0277 41       		.byte	0x41
 6134 0278 09       		.byte	0x9
 6135 0279 30000000 		.4byte	0x30
 6136 027d 02       		.byte	0x2
 6137 027e 23       		.byte	0x23
 6138 027f 20       		.uleb128 0x20
 6139 0280 00       		.byte	0
 6140 0281 12       		.uleb128 0x12
 6141 0282 4C000000 		.4byte	.LASF41
 6142 0286 0801     		.2byte	0x108
 6143 0288 07       		.byte	0x7
 6144 0289 4A       		.byte	0x4a
 6145 028a 08       		.byte	0x8
 6146 028b CF020000 		.4byte	0x2cf
 6147 028f 0D       		.uleb128 0xd
 6148 0290 530A0000 		.4byte	.LASF42
 6149 0294 07       		.byte	0x7
 6150 0295 4B       		.byte	0x4b
 6151 0296 0A       		.byte	0xa
 6152 0297 CF020000 		.4byte	0x2cf
 6153 029b 02       		.byte	0x2
 6154 029c 23       		.byte	0x23
 6155 029d 00       		.uleb128 0
 6156 029e 0D       		.uleb128 0xd
ARM GAS  /var/folders/cs/83z6p2tj4w57s6p2rt8nwfp00000gn/T//cc3yBana.s 			page 147


 6157 029f E3080000 		.4byte	.LASF43
 6158 02a3 07       		.byte	0x7
 6159 02a4 4C       		.byte	0x4c
 6160 02a5 09       		.byte	0x9
 6161 02a6 CF020000 		.4byte	0x2cf
 6162 02aa 03       		.byte	0x3
 6163 02ab 23       		.byte	0x23
 6164 02ac 8001     		.uleb128 0x80
 6165 02ae 0D       		.uleb128 0xd
 6166 02af D10B0000 		.4byte	.LASF44
 6167 02b3 07       		.byte	0x7
 6168 02b4 4E       		.byte	0x4e
 6169 02b5 0A       		.byte	0xa
 6170 02b6 64010000 		.4byte	0x164
 6171 02ba 03       		.byte	0x3
 6172 02bb 23       		.byte	0x23
 6173 02bc 8002     		.uleb128 0x100
 6174 02be 0D       		.uleb128 0xd
 6175 02bf 350C0000 		.4byte	.LASF45
 6176 02c3 07       		.byte	0x7
 6177 02c4 51       		.byte	0x51
 6178 02c5 0A       		.byte	0xa
 6179 02c6 64010000 		.4byte	0x164
 6180 02ca 03       		.byte	0x3
 6181 02cb 23       		.byte	0x23
 6182 02cc 8402     		.uleb128 0x104
 6183 02ce 00       		.byte	0
 6184 02cf 0A       		.uleb128 0xa
 6185 02d0 50010000 		.4byte	0x150
 6186 02d4 DF020000 		.4byte	0x2df
 6187 02d8 0B       		.uleb128 0xb
 6188 02d9 43000000 		.4byte	0x43
 6189 02dd 1F       		.byte	0x1f
 6190 02de 00       		.byte	0
 6191 02df 12       		.uleb128 0x12
 6192 02e0 CE060000 		.4byte	.LASF46
 6193 02e4 9001     		.2byte	0x190
 6194 02e6 07       		.byte	0x7
 6195 02e7 5D       		.byte	0x5d
 6196 02e8 08       		.byte	0x8
 6197 02e9 2B030000 		.4byte	0x32b
 6198 02ed 0D       		.uleb128 0xd
 6199 02ee 27030000 		.4byte	.LASF26
 6200 02f2 07       		.byte	0x7
 6201 02f3 5E       		.byte	0x5e
 6202 02f4 12       		.byte	0x12
 6203 02f5 2B030000 		.4byte	0x32b
 6204 02f9 02       		.byte	0x2
 6205 02fa 23       		.byte	0x23
 6206 02fb 00       		.uleb128 0
 6207 02fc 0D       		.uleb128 0xd
 6208 02fd 13030000 		.4byte	.LASF47
 6209 0301 07       		.byte	0x7
 6210 0302 5F       		.byte	0x5f
 6211 0303 06       		.byte	0x6
 6212 0304 30000000 		.4byte	0x30
 6213 0308 02       		.byte	0x2
ARM GAS  /var/folders/cs/83z6p2tj4w57s6p2rt8nwfp00000gn/T//cc3yBana.s 			page 148


 6214 0309 23       		.byte	0x23
 6215 030a 04       		.uleb128 0x4
 6216 030b 0D       		.uleb128 0xd
 6217 030c 81010000 		.4byte	.LASF48
 6218 0310 07       		.byte	0x7
 6219 0311 61       		.byte	0x61
 6220 0312 09       		.byte	0x9
 6221 0313 31030000 		.4byte	0x331
 6222 0317 02       		.byte	0x2
 6223 0318 23       		.byte	0x23
 6224 0319 08       		.uleb128 0x8
 6225 031a 0D       		.uleb128 0xd
 6226 031b 4C000000 		.4byte	.LASF41
 6227 031f 07       		.byte	0x7
 6228 0320 62       		.byte	0x62
 6229 0321 1E       		.byte	0x1e
 6230 0322 81020000 		.4byte	0x281
 6231 0326 03       		.byte	0x3
 6232 0327 23       		.byte	0x23
 6233 0328 8801     		.uleb128 0x88
 6234 032a 00       		.byte	0
 6235 032b 05       		.uleb128 0x5
 6236 032c 04       		.byte	0x4
 6237 032d DF020000 		.4byte	0x2df
 6238 0331 0A       		.uleb128 0xa
 6239 0332 41030000 		.4byte	0x341
 6240 0336 41030000 		.4byte	0x341
 6241 033a 0B       		.uleb128 0xb
 6242 033b 43000000 		.4byte	0x43
 6243 033f 1F       		.byte	0x1f
 6244 0340 00       		.byte	0
 6245 0341 05       		.uleb128 0x5
 6246 0342 04       		.byte	0x4
 6247 0343 47030000 		.4byte	0x347
 6248 0347 13       		.uleb128 0x13
 6249 0348 01       		.byte	0x1
 6250 0349 10       		.uleb128 0x10
 6251 034a 6F090000 		.4byte	.LASF49
 6252 034e 08       		.byte	0x8
 6253 034f 07       		.byte	0x7
 6254 0350 75       		.byte	0x75
 6255 0351 08       		.byte	0x8
 6256 0352 75030000 		.4byte	0x375
 6257 0356 0D       		.uleb128 0xd
 6258 0357 0A050000 		.4byte	.LASF50
 6259 035b 07       		.byte	0x7
 6260 035c 76       		.byte	0x76
 6261 035d 11       		.byte	0x11
 6262 035e 75030000 		.4byte	0x375
 6263 0362 02       		.byte	0x2
 6264 0363 23       		.byte	0x23
 6265 0364 00       		.uleb128 0
 6266 0365 0D       		.uleb128 0xd
 6267 0366 E10B0000 		.4byte	.LASF51
 6268 036a 07       		.byte	0x7
 6269 036b 77       		.byte	0x77
 6270 036c 06       		.byte	0x6
ARM GAS  /var/folders/cs/83z6p2tj4w57s6p2rt8nwfp00000gn/T//cc3yBana.s 			page 149


 6271 036d 30000000 		.4byte	0x30
 6272 0371 02       		.byte	0x2
 6273 0372 23       		.byte	0x23
 6274 0373 04       		.uleb128 0x4
 6275 0374 00       		.byte	0
 6276 0375 05       		.uleb128 0x5
 6277 0376 04       		.byte	0x4
 6278 0377 6B000000 		.4byte	0x6b
 6279 037b 10       		.uleb128 0x10
 6280 037c 63020000 		.4byte	.LASF52
 6281 0380 68       		.byte	0x68
 6282 0381 07       		.byte	0x7
 6283 0382 B5       		.byte	0xb5
 6284 0383 08       		.byte	0x8
 6285 0384 EE040000 		.4byte	0x4ee
 6286 0388 11       		.uleb128 0x11
 6287 0389 5F7000   		.ascii	"_p\000"
 6288 038c 07       		.byte	0x7
 6289 038d B6       		.byte	0xb6
 6290 038e 12       		.byte	0x12
 6291 038f 75030000 		.4byte	0x375
 6292 0393 02       		.byte	0x2
 6293 0394 23       		.byte	0x23
 6294 0395 00       		.uleb128 0
 6295 0396 11       		.uleb128 0x11
 6296 0397 5F7200   		.ascii	"_r\000"
 6297 039a 07       		.byte	0x7
 6298 039b B7       		.byte	0xb7
 6299 039c 07       		.byte	0x7
 6300 039d 30000000 		.4byte	0x30
 6301 03a1 02       		.byte	0x2
 6302 03a2 23       		.byte	0x23
 6303 03a3 04       		.uleb128 0x4
 6304 03a4 11       		.uleb128 0x11
 6305 03a5 5F7700   		.ascii	"_w\000"
 6306 03a8 07       		.byte	0x7
 6307 03a9 B8       		.byte	0xb8
 6308 03aa 07       		.byte	0x7
 6309 03ab 30000000 		.4byte	0x30
 6310 03af 02       		.byte	0x2
 6311 03b0 23       		.byte	0x23
 6312 03b1 08       		.uleb128 0x8
 6313 03b2 0D       		.uleb128 0xd
 6314 03b3 E3000000 		.4byte	.LASF53
 6315 03b7 07       		.byte	0x7
 6316 03b8 B9       		.byte	0xb9
 6317 03b9 09       		.byte	0x9
 6318 03ba 72000000 		.4byte	0x72
 6319 03be 02       		.byte	0x2
 6320 03bf 23       		.byte	0x23
 6321 03c0 0C       		.uleb128 0xc
 6322 03c1 0D       		.uleb128 0xd
 6323 03c2 5D050000 		.4byte	.LASF54
 6324 03c6 07       		.byte	0x7
 6325 03c7 BA       		.byte	0xba
 6326 03c8 09       		.byte	0x9
 6327 03c9 72000000 		.4byte	0x72
ARM GAS  /var/folders/cs/83z6p2tj4w57s6p2rt8nwfp00000gn/T//cc3yBana.s 			page 150


 6328 03cd 02       		.byte	0x2
 6329 03ce 23       		.byte	0x23
 6330 03cf 0E       		.uleb128 0xe
 6331 03d0 11       		.uleb128 0x11
 6332 03d1 5F626600 		.ascii	"_bf\000"
 6333 03d5 07       		.byte	0x7
 6334 03d6 BB       		.byte	0xbb
 6335 03d7 11       		.byte	0x11
 6336 03d8 49030000 		.4byte	0x349
 6337 03dc 02       		.byte	0x2
 6338 03dd 23       		.byte	0x23
 6339 03de 10       		.uleb128 0x10
 6340 03df 0D       		.uleb128 0xd
 6341 03e0 DA000000 		.4byte	.LASF55
 6342 03e4 07       		.byte	0x7
 6343 03e5 BC       		.byte	0xbc
 6344 03e6 07       		.byte	0x7
 6345 03e7 30000000 		.4byte	0x30
 6346 03eb 02       		.byte	0x2
 6347 03ec 23       		.byte	0x23
 6348 03ed 18       		.uleb128 0x18
 6349 03ee 0D       		.uleb128 0xd
 6350 03ef 86010000 		.4byte	.LASF56
 6351 03f3 07       		.byte	0x7
 6352 03f4 C3       		.byte	0xc3
 6353 03f5 0A       		.byte	0xa
 6354 03f6 50010000 		.4byte	0x150
 6355 03fa 02       		.byte	0x2
 6356 03fb 23       		.byte	0x23
 6357 03fc 1C       		.uleb128 0x1c
 6358 03fd 0D       		.uleb128 0xd
 6359 03fe 40010000 		.4byte	.LASF57
 6360 0402 07       		.byte	0x7
 6361 0403 C5       		.byte	0xc5
 6362 0404 1D       		.byte	0x1d
 6363 0405 8D060000 		.4byte	0x68d
 6364 0409 02       		.byte	0x2
 6365 040a 23       		.byte	0x23
 6366 040b 20       		.uleb128 0x20
 6367 040c 0D       		.uleb128 0xd
 6368 040d 8A060000 		.4byte	.LASF58
 6369 0411 07       		.byte	0x7
 6370 0412 C7       		.byte	0xc7
 6371 0413 1D       		.byte	0x1d
 6372 0414 B8060000 		.4byte	0x6b8
 6373 0418 02       		.byte	0x2
 6374 0419 23       		.byte	0x23
 6375 041a 24       		.uleb128 0x24
 6376 041b 0D       		.uleb128 0xd
 6377 041c 590C0000 		.4byte	.LASF59
 6378 0420 07       		.byte	0x7
 6379 0421 CA       		.byte	0xca
 6380 0422 0D       		.byte	0xd
 6381 0423 DD060000 		.4byte	0x6dd
 6382 0427 02       		.byte	0x2
 6383 0428 23       		.byte	0x23
 6384 0429 28       		.uleb128 0x28
ARM GAS  /var/folders/cs/83z6p2tj4w57s6p2rt8nwfp00000gn/T//cc3yBana.s 			page 151


 6385 042a 0D       		.uleb128 0xd
 6386 042b A5040000 		.4byte	.LASF60
 6387 042f 07       		.byte	0x7
 6388 0430 CB       		.byte	0xcb
 6389 0431 09       		.byte	0x9
 6390 0432 F8060000 		.4byte	0x6f8
 6391 0436 02       		.byte	0x2
 6392 0437 23       		.byte	0x23
 6393 0438 2C       		.uleb128 0x2c
 6394 0439 11       		.uleb128 0x11
 6395 043a 5F756200 		.ascii	"_ub\000"
 6396 043e 07       		.byte	0x7
 6397 043f CE       		.byte	0xce
 6398 0440 11       		.byte	0x11
 6399 0441 49030000 		.4byte	0x349
 6400 0445 02       		.byte	0x2
 6401 0446 23       		.byte	0x23
 6402 0447 30       		.uleb128 0x30
 6403 0448 11       		.uleb128 0x11
 6404 0449 5F757000 		.ascii	"_up\000"
 6405 044d 07       		.byte	0x7
 6406 044e CF       		.byte	0xcf
 6407 044f 12       		.byte	0x12
 6408 0450 75030000 		.4byte	0x375
 6409 0454 02       		.byte	0x2
 6410 0455 23       		.byte	0x23
 6411 0456 38       		.uleb128 0x38
 6412 0457 11       		.uleb128 0x11
 6413 0458 5F757200 		.ascii	"_ur\000"
 6414 045c 07       		.byte	0x7
 6415 045d D0       		.byte	0xd0
 6416 045e 07       		.byte	0x7
 6417 045f 30000000 		.4byte	0x30
 6418 0463 02       		.byte	0x2
 6419 0464 23       		.byte	0x23
 6420 0465 3C       		.uleb128 0x3c
 6421 0466 0D       		.uleb128 0xd
 6422 0467 7F0C0000 		.4byte	.LASF61
 6423 046b 07       		.byte	0x7
 6424 046c D3       		.byte	0xd3
 6425 046d 11       		.byte	0x11
 6426 046e FE060000 		.4byte	0x6fe
 6427 0472 02       		.byte	0x2
 6428 0473 23       		.byte	0x23
 6429 0474 40       		.uleb128 0x40
 6430 0475 0D       		.uleb128 0xd
 6431 0476 F50B0000 		.4byte	.LASF62
 6432 047a 07       		.byte	0x7
 6433 047b D4       		.byte	0xd4
 6434 047c 11       		.byte	0x11
 6435 047d 0E070000 		.4byte	0x70e
 6436 0481 02       		.byte	0x2
 6437 0482 23       		.byte	0x23
 6438 0483 43       		.uleb128 0x43
 6439 0484 11       		.uleb128 0x11
 6440 0485 5F6C6200 		.ascii	"_lb\000"
 6441 0489 07       		.byte	0x7
ARM GAS  /var/folders/cs/83z6p2tj4w57s6p2rt8nwfp00000gn/T//cc3yBana.s 			page 152


 6442 048a D7       		.byte	0xd7
 6443 048b 11       		.byte	0x11
 6444 048c 49030000 		.4byte	0x349
 6445 0490 02       		.byte	0x2
 6446 0491 23       		.byte	0x23
 6447 0492 44       		.uleb128 0x44
 6448 0493 0D       		.uleb128 0xd
 6449 0494 AF080000 		.4byte	.LASF63
 6450 0498 07       		.byte	0x7
 6451 0499 DA       		.byte	0xda
 6452 049a 07       		.byte	0x7
 6453 049b 30000000 		.4byte	0x30
 6454 049f 02       		.byte	0x2
 6455 04a0 23       		.byte	0x23
 6456 04a1 4C       		.uleb128 0x4c
 6457 04a2 0D       		.uleb128 0xd
 6458 04a3 A8020000 		.4byte	.LASF64
 6459 04a7 07       		.byte	0x7
 6460 04a8 DB       		.byte	0xdb
 6461 04a9 0A       		.byte	0xa
 6462 04aa B9000000 		.4byte	0xb9
 6463 04ae 02       		.byte	0x2
 6464 04af 23       		.byte	0x23
 6465 04b0 50       		.uleb128 0x50
 6466 04b1 0D       		.uleb128 0xd
 6467 04b2 A1070000 		.4byte	.LASF65
 6468 04b6 07       		.byte	0x7
 6469 04b7 DE       		.byte	0xde
 6470 04b8 12       		.byte	0x12
 6471 04b9 0D050000 		.4byte	0x50d
 6472 04bd 02       		.byte	0x2
 6473 04be 23       		.byte	0x23
 6474 04bf 54       		.uleb128 0x54
 6475 04c0 0D       		.uleb128 0xd
 6476 04c1 BD080000 		.4byte	.LASF66
 6477 04c5 07       		.byte	0x7
 6478 04c6 E2       		.byte	0xe2
 6479 04c7 0C       		.byte	0xc
 6480 04c8 44010000 		.4byte	0x144
 6481 04cc 02       		.byte	0x2
 6482 04cd 23       		.byte	0x23
 6483 04ce 58       		.uleb128 0x58
 6484 04cf 0D       		.uleb128 0xd
 6485 04d0 37010000 		.4byte	.LASF67
 6486 04d4 07       		.byte	0x7
 6487 04d5 E4       		.byte	0xe4
 6488 04d6 0E       		.byte	0xe
 6489 04d7 38010000 		.4byte	0x138
 6490 04db 02       		.byte	0x2
 6491 04dc 23       		.byte	0x23
 6492 04dd 5C       		.uleb128 0x5c
 6493 04de 0D       		.uleb128 0xd
 6494 04df 2D0C0000 		.4byte	.LASF68
 6495 04e3 07       		.byte	0x7
 6496 04e4 E5       		.byte	0xe5
 6497 04e5 09       		.byte	0x9
 6498 04e6 30000000 		.4byte	0x30
ARM GAS  /var/folders/cs/83z6p2tj4w57s6p2rt8nwfp00000gn/T//cc3yBana.s 			page 153


 6499 04ea 02       		.byte	0x2
 6500 04eb 23       		.byte	0x23
 6501 04ec 64       		.uleb128 0x64
 6502 04ed 00       		.byte	0
 6503 04ee 14       		.uleb128 0x14
 6504 04ef 01       		.byte	0x1
 6505 04f0 30000000 		.4byte	0x30
 6506 04f4 0D050000 		.4byte	0x50d
 6507 04f8 15       		.uleb128 0x15
 6508 04f9 0D050000 		.4byte	0x50d
 6509 04fd 15       		.uleb128 0x15
 6510 04fe 50010000 		.4byte	0x150
 6511 0502 15       		.uleb128 0x15
 6512 0503 52010000 		.4byte	0x152
 6513 0507 15       		.uleb128 0x15
 6514 0508 30000000 		.4byte	0x30
 6515 050c 00       		.byte	0
 6516 050d 05       		.uleb128 0x5
 6517 050e 04       		.byte	0x4
 6518 050f 18050000 		.4byte	0x518
 6519 0513 0F       		.uleb128 0xf
 6520 0514 0D050000 		.4byte	0x50d
 6521 0518 16       		.uleb128 0x16
 6522 0519 850A0000 		.4byte	.LASF69
 6523 051d 2804     		.2byte	0x428
 6524 051f 07       		.byte	0x7
 6525 0520 6002     		.2byte	0x260
 6526 0522 08       		.byte	0x8
 6527 0523 8D060000 		.4byte	0x68d
 6528 0527 17       		.uleb128 0x17
 6529 0528 EA000000 		.4byte	.LASF70
 6530 052c 07       		.byte	0x7
 6531 052d 6202     		.2byte	0x262
 6532 052f 07       		.byte	0x7
 6533 0530 30000000 		.4byte	0x30
 6534 0534 02       		.byte	0x2
 6535 0535 23       		.byte	0x23
 6536 0536 00       		.uleb128 0
 6537 0537 17       		.uleb128 0x17
 6538 0538 DC040000 		.4byte	.LASF71
 6539 053c 07       		.byte	0x7
 6540 053d 6702     		.2byte	0x267
 6541 053f 0B       		.byte	0xb
 6542 0540 70070000 		.4byte	0x770
 6543 0544 02       		.byte	0x2
 6544 0545 23       		.byte	0x23
 6545 0546 04       		.uleb128 0x4
 6546 0547 17       		.uleb128 0x17
 6547 0548 5B010000 		.4byte	.LASF72
 6548 054c 07       		.byte	0x7
 6549 054d 6702     		.2byte	0x267
 6550 054f 14       		.byte	0x14
 6551 0550 70070000 		.4byte	0x770
 6552 0554 02       		.byte	0x2
 6553 0555 23       		.byte	0x23
 6554 0556 08       		.uleb128 0x8
 6555 0557 17       		.uleb128 0x17
ARM GAS  /var/folders/cs/83z6p2tj4w57s6p2rt8nwfp00000gn/T//cc3yBana.s 			page 154


 6556 0558 6E0C0000 		.4byte	.LASF73
 6557 055c 07       		.byte	0x7
 6558 055d 6702     		.2byte	0x267
 6559 055f 1E       		.byte	0x1e
 6560 0560 70070000 		.4byte	0x770
 6561 0564 02       		.byte	0x2
 6562 0565 23       		.byte	0x23
 6563 0566 0C       		.uleb128 0xc
 6564 0567 17       		.uleb128 0x17
 6565 0568 0E030000 		.4byte	.LASF74
 6566 056c 07       		.byte	0x7
 6567 056d 6902     		.2byte	0x269
 6568 056f 08       		.byte	0x8
 6569 0570 30000000 		.4byte	0x30
 6570 0574 02       		.byte	0x2
 6571 0575 23       		.byte	0x23
 6572 0576 10       		.uleb128 0x10
 6573 0577 17       		.uleb128 0x17
 6574 0578 B6020000 		.4byte	.LASF75
 6575 057c 07       		.byte	0x7
 6576 057d 6A02     		.2byte	0x26a
 6577 057f 08       		.byte	0x8
 6578 0580 A9090000 		.4byte	0x9a9
 6579 0584 02       		.byte	0x2
 6580 0585 23       		.byte	0x23
 6581 0586 14       		.uleb128 0x14
 6582 0587 17       		.uleb128 0x17
 6583 0588 080C0000 		.4byte	.LASF76
 6584 058c 07       		.byte	0x7
 6585 058d 6D02     		.2byte	0x26d
 6586 058f 07       		.byte	0x7
 6587 0590 30000000 		.4byte	0x30
 6588 0594 02       		.byte	0x2
 6589 0595 23       		.byte	0x23
 6590 0596 30       		.uleb128 0x30
 6591 0597 17       		.uleb128 0x17
 6592 0598 210A0000 		.4byte	.LASF77
 6593 059c 07       		.byte	0x7
 6594 059d 6E02     		.2byte	0x26e
 6595 059f 16       		.byte	0x16
 6596 05a0 BF090000 		.4byte	0x9bf
 6597 05a4 02       		.byte	0x2
 6598 05a5 23       		.byte	0x23
 6599 05a6 34       		.uleb128 0x34
 6600 05a7 17       		.uleb128 0x17
 6601 05a8 AC040000 		.4byte	.LASF78
 6602 05ac 07       		.byte	0x7
 6603 05ad 7002     		.2byte	0x270
 6604 05af 07       		.byte	0x7
 6605 05b0 30000000 		.4byte	0x30
 6606 05b4 02       		.byte	0x2
 6607 05b5 23       		.byte	0x23
 6608 05b6 38       		.uleb128 0x38
 6609 05b7 17       		.uleb128 0x17
 6610 05b8 89050000 		.4byte	.LASF79
 6611 05bc 07       		.byte	0x7
 6612 05bd 7202     		.2byte	0x272
ARM GAS  /var/folders/cs/83z6p2tj4w57s6p2rt8nwfp00000gn/T//cc3yBana.s 			page 155


 6613 05bf 0A       		.byte	0xa
 6614 05c0 D1090000 		.4byte	0x9d1
 6615 05c4 02       		.byte	0x2
 6616 05c5 23       		.byte	0x23
 6617 05c6 3C       		.uleb128 0x3c
 6618 05c7 17       		.uleb128 0x17
 6619 05c8 AB010000 		.4byte	.LASF80
 6620 05cc 07       		.byte	0x7
 6621 05cd 7502     		.2byte	0x275
 6622 05cf 13       		.byte	0x13
 6623 05d0 D6010000 		.4byte	0x1d6
 6624 05d4 02       		.byte	0x2
 6625 05d5 23       		.byte	0x23
 6626 05d6 40       		.uleb128 0x40
 6627 05d7 17       		.uleb128 0x17
 6628 05d8 35020000 		.4byte	.LASF81
 6629 05dc 07       		.byte	0x7
 6630 05dd 7602     		.2byte	0x276
 6631 05df 07       		.byte	0x7
 6632 05e0 30000000 		.4byte	0x30
 6633 05e4 02       		.byte	0x2
 6634 05e5 23       		.byte	0x23
 6635 05e6 44       		.uleb128 0x44
 6636 05e7 17       		.uleb128 0x17
 6637 05e8 7A030000 		.4byte	.LASF82
 6638 05ec 07       		.byte	0x7
 6639 05ed 7702     		.2byte	0x277
 6640 05ef 13       		.byte	0x13
 6641 05f0 D6010000 		.4byte	0x1d6
 6642 05f4 02       		.byte	0x2
 6643 05f5 23       		.byte	0x23
 6644 05f6 48       		.uleb128 0x48
 6645 05f7 17       		.uleb128 0x17
 6646 05f8 10050000 		.4byte	.LASF83
 6647 05fc 07       		.byte	0x7
 6648 05fd 7802     		.2byte	0x278
 6649 05ff 14       		.byte	0x14
 6650 0600 D7090000 		.4byte	0x9d7
 6651 0604 02       		.byte	0x2
 6652 0605 23       		.byte	0x23
 6653 0606 4C       		.uleb128 0x4c
 6654 0607 17       		.uleb128 0x17
 6655 0608 47080000 		.4byte	.LASF84
 6656 060c 07       		.byte	0x7
 6657 060d 7B02     		.2byte	0x27b
 6658 060f 07       		.byte	0x7
 6659 0610 30000000 		.4byte	0x30
 6660 0614 02       		.byte	0x2
 6661 0615 23       		.byte	0x23
 6662 0616 50       		.uleb128 0x50
 6663 0617 17       		.uleb128 0x17
 6664 0618 0B090000 		.4byte	.LASF85
 6665 061c 07       		.byte	0x7
 6666 061d 7C02     		.2byte	0x27c
 6667 061f 09       		.byte	0x9
 6668 0620 52010000 		.4byte	0x152
 6669 0624 02       		.byte	0x2
ARM GAS  /var/folders/cs/83z6p2tj4w57s6p2rt8nwfp00000gn/T//cc3yBana.s 			page 156


 6670 0625 23       		.byte	0x23
 6671 0626 54       		.uleb128 0x54
 6672 0627 17       		.uleb128 0x17
 6673 0628 42080000 		.4byte	.LASF86
 6674 062c 07       		.byte	0x7
 6675 062d 9F02     		.2byte	0x29f
 6676 062f 07       		.byte	0x7
 6677 0630 84090000 		.4byte	0x984
 6678 0634 02       		.byte	0x2
 6679 0635 23       		.byte	0x23
 6680 0636 58       		.uleb128 0x58
 6681 0637 17       		.uleb128 0x17
 6682 0638 CE060000 		.4byte	.LASF46
 6683 063c 07       		.byte	0x7
 6684 063d A302     		.2byte	0x2a3
 6685 063f 13       		.byte	0x13
 6686 0640 2B030000 		.4byte	0x32b
 6687 0644 03       		.byte	0x3
 6688 0645 23       		.byte	0x23
 6689 0646 C802     		.uleb128 0x148
 6690 0648 17       		.uleb128 0x17
 6691 0649 ED030000 		.4byte	.LASF87
 6692 064d 07       		.byte	0x7
 6693 064e A402     		.2byte	0x2a4
 6694 0650 12       		.byte	0x12
 6695 0651 DF020000 		.4byte	0x2df
 6696 0655 03       		.byte	0x3
 6697 0656 23       		.byte	0x23
 6698 0657 CC02     		.uleb128 0x14c
 6699 0659 17       		.uleb128 0x17
 6700 065a D4030000 		.4byte	.LASF88
 6701 065e 07       		.byte	0x7
 6702 065f A802     		.2byte	0x2a8
 6703 0661 0C       		.byte	0xc
 6704 0662 E9090000 		.4byte	0x9e9
 6705 0666 03       		.byte	0x3
 6706 0667 23       		.byte	0x23
 6707 0668 DC05     		.uleb128 0x2dc
 6708 066a 17       		.uleb128 0x17
 6709 066b FE090000 		.4byte	.LASF89
 6710 066f 07       		.byte	0x7
 6711 0670 AD02     		.2byte	0x2ad
 6712 0672 10       		.byte	0x10
 6713 0673 2B070000 		.4byte	0x72b
 6714 0677 03       		.byte	0x3
 6715 0678 23       		.byte	0x23
 6716 0679 E005     		.uleb128 0x2e0
 6717 067b 17       		.uleb128 0x17
 6718 067c 86070000 		.4byte	.LASF90
 6719 0680 07       		.byte	0x7
 6720 0681 AF02     		.2byte	0x2af
 6721 0683 0A       		.byte	0xa
 6722 0684 F5090000 		.4byte	0x9f5
 6723 0688 03       		.byte	0x3
 6724 0689 23       		.byte	0x23
 6725 068a EC05     		.uleb128 0x2ec
 6726 068c 00       		.byte	0
ARM GAS  /var/folders/cs/83z6p2tj4w57s6p2rt8nwfp00000gn/T//cc3yBana.s 			page 157


 6727 068d 05       		.uleb128 0x5
 6728 068e 04       		.byte	0x4
 6729 068f EE040000 		.4byte	0x4ee
 6730 0693 14       		.uleb128 0x14
 6731 0694 01       		.byte	0x1
 6732 0695 30000000 		.4byte	0x30
 6733 0699 B2060000 		.4byte	0x6b2
 6734 069d 15       		.uleb128 0x15
 6735 069e 0D050000 		.4byte	0x50d
 6736 06a2 15       		.uleb128 0x15
 6737 06a3 50010000 		.4byte	0x150
 6738 06a7 15       		.uleb128 0x15
 6739 06a8 B2060000 		.4byte	0x6b2
 6740 06ac 15       		.uleb128 0x15
 6741 06ad 30000000 		.4byte	0x30
 6742 06b1 00       		.byte	0
 6743 06b2 05       		.uleb128 0x5
 6744 06b3 04       		.byte	0x4
 6745 06b4 5F010000 		.4byte	0x15f
 6746 06b8 05       		.uleb128 0x5
 6747 06b9 04       		.byte	0x4
 6748 06ba 93060000 		.4byte	0x693
 6749 06be 14       		.uleb128 0x14
 6750 06bf 01       		.byte	0x1
 6751 06c0 C5000000 		.4byte	0xc5
 6752 06c4 DD060000 		.4byte	0x6dd
 6753 06c8 15       		.uleb128 0x15
 6754 06c9 0D050000 		.4byte	0x50d
 6755 06cd 15       		.uleb128 0x15
 6756 06ce 50010000 		.4byte	0x150
 6757 06d2 15       		.uleb128 0x15
 6758 06d3 C5000000 		.4byte	0xc5
 6759 06d7 15       		.uleb128 0x15
 6760 06d8 30000000 		.4byte	0x30
 6761 06dc 00       		.byte	0
 6762 06dd 05       		.uleb128 0x5
 6763 06de 04       		.byte	0x4
 6764 06df BE060000 		.4byte	0x6be
 6765 06e3 14       		.uleb128 0x14
 6766 06e4 01       		.byte	0x1
 6767 06e5 30000000 		.4byte	0x30
 6768 06e9 F8060000 		.4byte	0x6f8
 6769 06ed 15       		.uleb128 0x15
 6770 06ee 0D050000 		.4byte	0x50d
 6771 06f2 15       		.uleb128 0x15
 6772 06f3 50010000 		.4byte	0x150
 6773 06f7 00       		.byte	0
 6774 06f8 05       		.uleb128 0x5
 6775 06f9 04       		.byte	0x4
 6776 06fa E3060000 		.4byte	0x6e3
 6777 06fe 0A       		.uleb128 0xa
 6778 06ff 6B000000 		.4byte	0x6b
 6779 0703 0E070000 		.4byte	0x70e
 6780 0707 0B       		.uleb128 0xb
 6781 0708 43000000 		.4byte	0x43
 6782 070c 02       		.byte	0x2
 6783 070d 00       		.byte	0
ARM GAS  /var/folders/cs/83z6p2tj4w57s6p2rt8nwfp00000gn/T//cc3yBana.s 			page 158


 6784 070e 0A       		.uleb128 0xa
 6785 070f 6B000000 		.4byte	0x6b
 6786 0713 1E070000 		.4byte	0x71e
 6787 0717 0B       		.uleb128 0xb
 6788 0718 43000000 		.4byte	0x43
 6789 071c 00       		.byte	0
 6790 071d 00       		.byte	0
 6791 071e 07       		.uleb128 0x7
 6792 071f 81020000 		.4byte	.LASF91
 6793 0723 07       		.byte	0x7
 6794 0724 1F01     		.2byte	0x11f
 6795 0726 1A       		.byte	0x1a
 6796 0727 7B030000 		.4byte	0x37b
 6797 072b 18       		.uleb128 0x18
 6798 072c 9D090000 		.4byte	.LASF92
 6799 0730 0C       		.byte	0xc
 6800 0731 07       		.byte	0x7
 6801 0732 2301     		.2byte	0x123
 6802 0734 08       		.byte	0x8
 6803 0735 6A070000 		.4byte	0x76a
 6804 0739 17       		.uleb128 0x17
 6805 073a 27030000 		.4byte	.LASF26
 6806 073e 07       		.byte	0x7
 6807 073f 2501     		.2byte	0x125
 6808 0741 11       		.byte	0x11
 6809 0742 6A070000 		.4byte	0x76a
 6810 0746 02       		.byte	0x2
 6811 0747 23       		.byte	0x23
 6812 0748 00       		.uleb128 0
 6813 0749 17       		.uleb128 0x17
 6814 074a D5080000 		.4byte	.LASF93
 6815 074e 07       		.byte	0x7
 6816 074f 2601     		.2byte	0x126
 6817 0751 07       		.byte	0x7
 6818 0752 30000000 		.4byte	0x30
 6819 0756 02       		.byte	0x2
 6820 0757 23       		.byte	0x23
 6821 0758 04       		.uleb128 0x4
 6822 0759 17       		.uleb128 0x17
 6823 075a 65040000 		.4byte	.LASF94
 6824 075e 07       		.byte	0x7
 6825 075f 2701     		.2byte	0x127
 6826 0761 0B       		.byte	0xb
 6827 0762 70070000 		.4byte	0x770
 6828 0766 02       		.byte	0x2
 6829 0767 23       		.byte	0x23
 6830 0768 08       		.uleb128 0x8
 6831 0769 00       		.byte	0
 6832 076a 05       		.uleb128 0x5
 6833 076b 04       		.byte	0x4
 6834 076c 2B070000 		.4byte	0x72b
 6835 0770 05       		.uleb128 0x5
 6836 0771 04       		.byte	0x4
 6837 0772 1E070000 		.4byte	0x71e
 6838 0776 18       		.uleb128 0x18
 6839 0777 26020000 		.4byte	.LASF95
 6840 077b 0E       		.byte	0xe
ARM GAS  /var/folders/cs/83z6p2tj4w57s6p2rt8nwfp00000gn/T//cc3yBana.s 			page 159


 6841 077c 07       		.byte	0x7
 6842 077d 3F01     		.2byte	0x13f
 6843 077f 08       		.byte	0x8
 6844 0780 B5070000 		.4byte	0x7b5
 6845 0784 17       		.uleb128 0x17
 6846 0785 3D0C0000 		.4byte	.LASF96
 6847 0789 07       		.byte	0x7
 6848 078a 4001     		.2byte	0x140
 6849 078c 12       		.byte	0x12
 6850 078d B5070000 		.4byte	0x7b5
 6851 0791 02       		.byte	0x2
 6852 0792 23       		.byte	0x23
 6853 0793 00       		.uleb128 0
 6854 0794 17       		.uleb128 0x17
 6855 0795 27050000 		.4byte	.LASF97
 6856 0799 07       		.byte	0x7
 6857 079a 4101     		.2byte	0x141
 6858 079c 12       		.byte	0x12
 6859 079d B5070000 		.4byte	0x7b5
 6860 07a1 02       		.byte	0x2
 6861 07a2 23       		.byte	0x23
 6862 07a3 06       		.uleb128 0x6
 6863 07a4 17       		.uleb128 0x17
 6864 07a5 64090000 		.4byte	.LASF98
 6865 07a9 07       		.byte	0x7
 6866 07aa 4201     		.2byte	0x142
 6867 07ac 12       		.byte	0x12
 6868 07ad 85000000 		.4byte	0x85
 6869 07b1 02       		.byte	0x2
 6870 07b2 23       		.byte	0x23
 6871 07b3 0C       		.uleb128 0xc
 6872 07b4 00       		.byte	0
 6873 07b5 0A       		.uleb128 0xa
 6874 07b6 85000000 		.4byte	0x85
 6875 07ba C5070000 		.4byte	0x7c5
 6876 07be 0B       		.uleb128 0xb
 6877 07bf 43000000 		.4byte	0x43
 6878 07c3 02       		.byte	0x2
 6879 07c4 00       		.byte	0
 6880 07c5 19       		.uleb128 0x19
 6881 07c6 D0       		.byte	0xd0
 6882 07c7 07       		.byte	0x7
 6883 07c8 8002     		.2byte	0x280
 6884 07ca 07       		.byte	0x7
 6885 07cb 09090000 		.4byte	0x909
 6886 07cf 17       		.uleb128 0x17
 6887 07d0 FB0B0000 		.4byte	.LASF99
 6888 07d4 07       		.byte	0x7
 6889 07d5 8202     		.2byte	0x282
 6890 07d7 18       		.byte	0x18
 6891 07d8 43000000 		.4byte	0x43
 6892 07dc 02       		.byte	0x2
 6893 07dd 23       		.byte	0x23
 6894 07de 00       		.uleb128 0
 6895 07df 17       		.uleb128 0x17
 6896 07e0 060A0000 		.4byte	.LASF100
 6897 07e4 07       		.byte	0x7
ARM GAS  /var/folders/cs/83z6p2tj4w57s6p2rt8nwfp00000gn/T//cc3yBana.s 			page 160


 6898 07e5 8302     		.2byte	0x283
 6899 07e7 12       		.byte	0x12
 6900 07e8 52010000 		.4byte	0x152
 6901 07ec 02       		.byte	0x2
 6902 07ed 23       		.byte	0x23
 6903 07ee 04       		.uleb128 0x4
 6904 07ef 17       		.uleb128 0x17
 6905 07f0 56020000 		.4byte	.LASF101
 6906 07f4 07       		.byte	0x7
 6907 07f5 8402     		.2byte	0x284
 6908 07f7 10       		.byte	0x10
 6909 07f8 09090000 		.4byte	0x909
 6910 07fc 02       		.byte	0x2
 6911 07fd 23       		.byte	0x23
 6912 07fe 08       		.uleb128 0x8
 6913 07ff 17       		.uleb128 0x17
 6914 0800 02080000 		.4byte	.LASF102
 6915 0804 07       		.byte	0x7
 6916 0805 8502     		.2byte	0x285
 6917 0807 17       		.byte	0x17
 6918 0808 EC010000 		.4byte	0x1ec
 6919 080c 02       		.byte	0x2
 6920 080d 23       		.byte	0x23
 6921 080e 24       		.uleb128 0x24
 6922 080f 17       		.uleb128 0x17
 6923 0810 E3040000 		.4byte	.LASF103
 6924 0814 07       		.byte	0x7
 6925 0815 8602     		.2byte	0x286
 6926 0817 0F       		.byte	0xf
 6927 0818 30000000 		.4byte	0x30
 6928 081c 02       		.byte	0x2
 6929 081d 23       		.byte	0x23
 6930 081e 48       		.uleb128 0x48
 6931 081f 17       		.uleb128 0x17
 6932 0820 430C0000 		.4byte	.LASF104
 6933 0824 07       		.byte	0x7
 6934 0825 8702     		.2byte	0x287
 6935 0827 2C       		.byte	0x2c
 6936 0828 9A000000 		.4byte	0x9a
 6937 082c 02       		.byte	0x2
 6938 082d 23       		.byte	0x23
 6939 082e 50       		.uleb128 0x50
 6940 082f 17       		.uleb128 0x17
 6941 0830 A3000000 		.4byte	.LASF105
 6942 0834 07       		.byte	0x7
 6943 0835 8802     		.2byte	0x288
 6944 0837 1A       		.byte	0x1a
 6945 0838 76070000 		.4byte	0x776
 6946 083c 02       		.byte	0x2
 6947 083d 23       		.byte	0x23
 6948 083e 58       		.uleb128 0x58
 6949 083f 17       		.uleb128 0x17
 6950 0840 B8030000 		.4byte	.LASF106
 6951 0844 07       		.byte	0x7
 6952 0845 8902     		.2byte	0x289
 6953 0847 16       		.byte	0x16
 6954 0848 38010000 		.4byte	0x138
ARM GAS  /var/folders/cs/83z6p2tj4w57s6p2rt8nwfp00000gn/T//cc3yBana.s 			page 161


 6955 084c 02       		.byte	0x2
 6956 084d 23       		.byte	0x23
 6957 084e 68       		.uleb128 0x68
 6958 084f 17       		.uleb128 0x17
 6959 0850 130A0000 		.4byte	.LASF107
 6960 0854 07       		.byte	0x7
 6961 0855 8A02     		.2byte	0x28a
 6962 0857 16       		.byte	0x16
 6963 0858 38010000 		.4byte	0x138
 6964 085c 02       		.byte	0x2
 6965 085d 23       		.byte	0x23
 6966 085e 70       		.uleb128 0x70
 6967 085f 17       		.uleb128 0x17
 6968 0860 79000000 		.4byte	.LASF108
 6969 0864 07       		.byte	0x7
 6970 0865 8B02     		.2byte	0x28b
 6971 0867 16       		.byte	0x16
 6972 0868 38010000 		.4byte	0x138
 6973 086c 02       		.byte	0x2
 6974 086d 23       		.byte	0x23
 6975 086e 78       		.uleb128 0x78
 6976 086f 17       		.uleb128 0x17
 6977 0870 57080000 		.4byte	.LASF109
 6978 0874 07       		.byte	0x7
 6979 0875 8C02     		.2byte	0x28c
 6980 0877 10       		.byte	0x10
 6981 0878 19090000 		.4byte	0x919
 6982 087c 03       		.byte	0x3
 6983 087d 23       		.byte	0x23
 6984 087e 8001     		.uleb128 0x80
 6985 0880 17       		.uleb128 0x17
 6986 0881 AD000000 		.4byte	.LASF110
 6987 0885 07       		.byte	0x7
 6988 0886 8D02     		.2byte	0x28d
 6989 0888 10       		.byte	0x10
 6990 0889 29090000 		.4byte	0x929
 6991 088d 03       		.byte	0x3
 6992 088e 23       		.byte	0x23
 6993 088f 8801     		.uleb128 0x88
 6994 0891 17       		.uleb128 0x17
 6995 0892 4E090000 		.4byte	.LASF111
 6996 0896 07       		.byte	0x7
 6997 0897 8E02     		.2byte	0x28e
 6998 0899 0F       		.byte	0xf
 6999 089a 30000000 		.4byte	0x30
 7000 089e 03       		.byte	0x3
 7001 089f 23       		.byte	0x23
 7002 08a0 A001     		.uleb128 0xa0
 7003 08a2 17       		.uleb128 0x17
 7004 08a3 46010000 		.4byte	.LASF112
 7005 08a7 07       		.byte	0x7
 7006 08a8 8F02     		.2byte	0x28f
 7007 08aa 16       		.byte	0x16
 7008 08ab 38010000 		.4byte	0x138
 7009 08af 03       		.byte	0x3
 7010 08b0 23       		.byte	0x23
 7011 08b1 A401     		.uleb128 0xa4
ARM GAS  /var/folders/cs/83z6p2tj4w57s6p2rt8nwfp00000gn/T//cc3yBana.s 			page 162


 7012 08b3 17       		.uleb128 0x17
 7013 08b4 DE030000 		.4byte	.LASF113
 7014 08b8 07       		.byte	0x7
 7015 08b9 9002     		.2byte	0x290
 7016 08bb 16       		.byte	0x16
 7017 08bc 38010000 		.4byte	0x138
 7018 08c0 03       		.byte	0x3
 7019 08c1 23       		.byte	0x23
 7020 08c2 AC01     		.uleb128 0xac
 7021 08c4 17       		.uleb128 0x17
 7022 08c5 2D030000 		.4byte	.LASF114
 7023 08c9 07       		.byte	0x7
 7024 08ca 9102     		.2byte	0x291
 7025 08cc 16       		.byte	0x16
 7026 08cd 38010000 		.4byte	0x138
 7027 08d1 03       		.byte	0x3
 7028 08d2 23       		.byte	0x23
 7029 08d3 B401     		.uleb128 0xb4
 7030 08d5 17       		.uleb128 0x17
 7031 08d6 4E050000 		.4byte	.LASF115
 7032 08da 07       		.byte	0x7
 7033 08db 9202     		.2byte	0x292
 7034 08dd 16       		.byte	0x16
 7035 08de 38010000 		.4byte	0x138
 7036 08e2 03       		.byte	0x3
 7037 08e3 23       		.byte	0x23
 7038 08e4 BC01     		.uleb128 0xbc
 7039 08e6 17       		.uleb128 0x17
 7040 08e7 A7030000 		.4byte	.LASF116
 7041 08eb 07       		.byte	0x7
 7042 08ec 9302     		.2byte	0x293
 7043 08ee 16       		.byte	0x16
 7044 08ef 38010000 		.4byte	0x138
 7045 08f3 03       		.byte	0x3
 7046 08f4 23       		.byte	0x23
 7047 08f5 C401     		.uleb128 0xc4
 7048 08f7 17       		.uleb128 0x17
 7049 08f8 11060000 		.4byte	.LASF117
 7050 08fc 07       		.byte	0x7
 7051 08fd 9402     		.2byte	0x294
 7052 08ff 08       		.byte	0x8
 7053 0900 30000000 		.4byte	0x30
 7054 0904 03       		.byte	0x3
 7055 0905 23       		.byte	0x23
 7056 0906 CC01     		.uleb128 0xcc
 7057 0908 00       		.byte	0
 7058 0909 0A       		.uleb128 0xa
 7059 090a 58010000 		.4byte	0x158
 7060 090e 19090000 		.4byte	0x919
 7061 0912 0B       		.uleb128 0xb
 7062 0913 43000000 		.4byte	0x43
 7063 0917 19       		.byte	0x19
 7064 0918 00       		.byte	0
 7065 0919 0A       		.uleb128 0xa
 7066 091a 58010000 		.4byte	0x158
 7067 091e 29090000 		.4byte	0x929
 7068 0922 0B       		.uleb128 0xb
ARM GAS  /var/folders/cs/83z6p2tj4w57s6p2rt8nwfp00000gn/T//cc3yBana.s 			page 163


 7069 0923 43000000 		.4byte	0x43
 7070 0927 07       		.byte	0x7
 7071 0928 00       		.byte	0
 7072 0929 0A       		.uleb128 0xa
 7073 092a 58010000 		.4byte	0x158
 7074 092e 39090000 		.4byte	0x939
 7075 0932 0B       		.uleb128 0xb
 7076 0933 43000000 		.4byte	0x43
 7077 0937 17       		.byte	0x17
 7078 0938 00       		.byte	0
 7079 0939 19       		.uleb128 0x19
 7080 093a F0       		.byte	0xf0
 7081 093b 07       		.byte	0x7
 7082 093c 9902     		.2byte	0x299
 7083 093e 07       		.byte	0x7
 7084 093f 64090000 		.4byte	0x964
 7085 0943 17       		.uleb128 0x17
 7086 0944 03020000 		.4byte	.LASF118
 7087 0948 07       		.byte	0x7
 7088 0949 9C02     		.2byte	0x29c
 7089 094b 1B       		.byte	0x1b
 7090 094c 64090000 		.4byte	0x964
 7091 0950 02       		.byte	0x2
 7092 0951 23       		.byte	0x23
 7093 0952 00       		.uleb128 0
 7094 0953 17       		.uleb128 0x17
 7095 0954 760C0000 		.4byte	.LASF119
 7096 0958 07       		.byte	0x7
 7097 0959 9D02     		.2byte	0x29d
 7098 095b 18       		.byte	0x18
 7099 095c 74090000 		.4byte	0x974
 7100 0960 02       		.byte	0x2
 7101 0961 23       		.byte	0x23
 7102 0962 78       		.uleb128 0x78
 7103 0963 00       		.byte	0
 7104 0964 0A       		.uleb128 0xa
 7105 0965 75030000 		.4byte	0x375
 7106 0969 74090000 		.4byte	0x974
 7107 096d 0B       		.uleb128 0xb
 7108 096e 43000000 		.4byte	0x43
 7109 0972 1D       		.byte	0x1d
 7110 0973 00       		.byte	0
 7111 0974 0A       		.uleb128 0xa
 7112 0975 43000000 		.4byte	0x43
 7113 0979 84090000 		.4byte	0x984
 7114 097d 0B       		.uleb128 0xb
 7115 097e 43000000 		.4byte	0x43
 7116 0982 1D       		.byte	0x1d
 7117 0983 00       		.byte	0
 7118 0984 1A       		.uleb128 0x1a
 7119 0985 F0       		.byte	0xf0
 7120 0986 07       		.byte	0x7
 7121 0987 7E02     		.2byte	0x27e
 7122 0989 03       		.byte	0x3
 7123 098a A9090000 		.4byte	0x9a9
 7124 098e 1B       		.uleb128 0x1b
 7125 098f 850A0000 		.4byte	.LASF69
ARM GAS  /var/folders/cs/83z6p2tj4w57s6p2rt8nwfp00000gn/T//cc3yBana.s 			page 164


 7126 0993 07       		.byte	0x7
 7127 0994 9502     		.2byte	0x295
 7128 0996 0B       		.byte	0xb
 7129 0997 C5070000 		.4byte	0x7c5
 7130 099b 1B       		.uleb128 0x1b
 7131 099c 1F080000 		.4byte	.LASF120
 7132 09a0 07       		.byte	0x7
 7133 09a1 9E02     		.2byte	0x29e
 7134 09a3 0B       		.byte	0xb
 7135 09a4 39090000 		.4byte	0x939
 7136 09a8 00       		.byte	0
 7137 09a9 0A       		.uleb128 0xa
 7138 09aa 58010000 		.4byte	0x158
 7139 09ae B9090000 		.4byte	0x9b9
 7140 09b2 0B       		.uleb128 0xb
 7141 09b3 43000000 		.4byte	0x43
 7142 09b7 18       		.byte	0x18
 7143 09b8 00       		.byte	0
 7144 09b9 06       		.uleb128 0x6
 7145 09ba 4E0C0000 		.4byte	.LASF122
 7146 09be 01       		.byte	0x1
 7147 09bf 05       		.uleb128 0x5
 7148 09c0 04       		.byte	0x4
 7149 09c1 B9090000 		.4byte	0x9b9
 7150 09c5 1C       		.uleb128 0x1c
 7151 09c6 01       		.byte	0x1
 7152 09c7 D1090000 		.4byte	0x9d1
 7153 09cb 15       		.uleb128 0x15
 7154 09cc 0D050000 		.4byte	0x50d
 7155 09d0 00       		.byte	0
 7156 09d1 05       		.uleb128 0x5
 7157 09d2 04       		.byte	0x4
 7158 09d3 C5090000 		.4byte	0x9c5
 7159 09d7 05       		.uleb128 0x5
 7160 09d8 04       		.byte	0x4
 7161 09d9 D6010000 		.4byte	0x1d6
 7162 09dd 1C       		.uleb128 0x1c
 7163 09de 01       		.byte	0x1
 7164 09df E9090000 		.4byte	0x9e9
 7165 09e3 15       		.uleb128 0x15
 7166 09e4 30000000 		.4byte	0x30
 7167 09e8 00       		.byte	0
 7168 09e9 05       		.uleb128 0x5
 7169 09ea 04       		.byte	0x4
 7170 09eb EF090000 		.4byte	0x9ef
 7171 09ef 05       		.uleb128 0x5
 7172 09f0 04       		.byte	0x4
 7173 09f1 DD090000 		.4byte	0x9dd
 7174 09f5 0A       		.uleb128 0xa
 7175 09f6 1E070000 		.4byte	0x71e
 7176 09fa 050A0000 		.4byte	0xa05
 7177 09fe 0B       		.uleb128 0xb
 7178 09ff 43000000 		.4byte	0x43
 7179 0a03 02       		.byte	0x2
 7180 0a04 00       		.byte	0
 7181 0a05 1D       		.uleb128 0x1d
 7182 0a06 EB010000 		.4byte	.LASF123
ARM GAS  /var/folders/cs/83z6p2tj4w57s6p2rt8nwfp00000gn/T//cc3yBana.s 			page 165


 7183 0a0a 07       		.byte	0x7
 7184 0a0b 2E03     		.2byte	0x32e
 7185 0a0d 17       		.byte	0x17
 7186 0a0e 0D050000 		.4byte	0x50d
 7187 0a12 01       		.byte	0x1
 7188 0a13 01       		.byte	0x1
 7189 0a14 1D       		.uleb128 0x1d
 7190 0a15 AE070000 		.4byte	.LASF124
 7191 0a19 07       		.byte	0x7
 7192 0a1a 2F03     		.2byte	0x32f
 7193 0a1c 1D       		.byte	0x1d
 7194 0a1d 13050000 		.4byte	0x513
 7195 0a21 01       		.byte	0x1
 7196 0a22 01       		.byte	0x1
 7197 0a23 05       		.uleb128 0x5
 7198 0a24 04       		.byte	0x4
 7199 0a25 290A0000 		.4byte	0xa29
 7200 0a29 1E       		.uleb128 0x1e
 7201 0a2a 1F       		.uleb128 0x1f
 7202 0a2b FA020000 		.4byte	.LASF125
 7203 0a2f 08       		.byte	0x8
 7204 0a30 64       		.byte	0x64
 7205 0a31 0E       		.byte	0xe
 7206 0a32 52010000 		.4byte	0x152
 7207 0a36 01       		.byte	0x1
 7208 0a37 01       		.byte	0x1
 7209 0a38 04       		.uleb128 0x4
 7210 0a39 6B040000 		.4byte	.LASF126
 7211 0a3d 09       		.byte	0x9
 7212 0a3e 18       		.byte	0x18
 7213 0a3f 13       		.byte	0x13
 7214 0a40 5F000000 		.4byte	0x5f
 7215 0a44 04       		.uleb128 0x4
 7216 0a45 81060000 		.4byte	.LASF127
 7217 0a49 09       		.byte	0x9
 7218 0a4a 24       		.byte	0x24
 7219 0a4b 14       		.byte	0x14
 7220 0a4c 79000000 		.4byte	0x79
 7221 0a50 02       		.uleb128 0x2
 7222 0a51 08       		.byte	0x8
 7223 0a52 04       		.byte	0x4
 7224 0a53 E70B0000 		.4byte	.LASF128
 7225 0a57 20       		.uleb128 0x20
 7226 0a58 A3090000 		.4byte	.LASF266
 7227 0a5c 05       		.byte	0x5
 7228 0a5d 01       		.byte	0x1
 7229 0a5e 58000000 		.4byte	0x58
 7230 0a62 0A       		.byte	0xa
 7231 0a63 8202     		.2byte	0x282
 7232 0a65 06       		.byte	0x6
 7233 0a66 830A0000 		.4byte	0xa83
 7234 0a6a 21       		.uleb128 0x21
 7235 0a6b F4070000 		.4byte	.LASF129
 7236 0a6f 7F       		.sleb128 -1
 7237 0a70 22       		.uleb128 0x22
 7238 0a71 35050000 		.4byte	.LASF130
 7239 0a75 00       		.byte	0
ARM GAS  /var/folders/cs/83z6p2tj4w57s6p2rt8nwfp00000gn/T//cc3yBana.s 			page 166


 7240 0a76 22       		.uleb128 0x22
 7241 0a77 12000000 		.4byte	.LASF131
 7242 0a7b 01       		.byte	0x1
 7243 0a7c 22       		.uleb128 0x22
 7244 0a7d 88020000 		.4byte	.LASF132
 7245 0a81 02       		.byte	0x2
 7246 0a82 00       		.byte	0
 7247 0a83 1D       		.uleb128 0x1d
 7248 0a84 93050000 		.4byte	.LASF133
 7249 0a88 0A       		.byte	0xa
 7250 0a89 8D02     		.2byte	0x28d
 7251 0a8b 23       		.byte	0x23
 7252 0a8c 570A0000 		.4byte	0xa57
 7253 0a90 01       		.byte	0x1
 7254 0a91 01       		.byte	0x1
 7255 0a92 0C       		.uleb128 0xc
 7256 0a93 0C       		.byte	0xc
 7257 0a94 02       		.byte	0x2
 7258 0a95 1A       		.byte	0x1a
 7259 0a96 09       		.byte	0x9
 7260 0a97 C30A0000 		.4byte	0xac3
 7261 0a9b 11       		.uleb128 0x11
 7262 0a9c 7800     		.ascii	"x\000"
 7263 0a9e 02       		.byte	0x2
 7264 0a9f 1C       		.byte	0x1c
 7265 0aa0 08       		.byte	0x8
 7266 0aa1 29000000 		.4byte	0x29
 7267 0aa5 02       		.byte	0x2
 7268 0aa6 23       		.byte	0x23
 7269 0aa7 00       		.uleb128 0
 7270 0aa8 11       		.uleb128 0x11
 7271 0aa9 7900     		.ascii	"y\000"
 7272 0aab 02       		.byte	0x2
 7273 0aac 1D       		.byte	0x1d
 7274 0aad 08       		.byte	0x8
 7275 0aae 29000000 		.4byte	0x29
 7276 0ab2 02       		.byte	0x2
 7277 0ab3 23       		.byte	0x23
 7278 0ab4 04       		.uleb128 0x4
 7279 0ab5 11       		.uleb128 0x11
 7280 0ab6 7A00     		.ascii	"z\000"
 7281 0ab8 02       		.byte	0x2
 7282 0ab9 1E       		.byte	0x1e
 7283 0aba 08       		.byte	0x8
 7284 0abb 29000000 		.4byte	0x29
 7285 0abf 02       		.byte	0x2
 7286 0ac0 23       		.byte	0x23
 7287 0ac1 08       		.uleb128 0x8
 7288 0ac2 00       		.byte	0
 7289 0ac3 04       		.uleb128 0x4
 7290 0ac4 CA050000 		.4byte	.LASF134
 7291 0ac8 02       		.byte	0x2
 7292 0ac9 1F       		.byte	0x1f
 7293 0aca 03       		.byte	0x3
 7294 0acb 920A0000 		.4byte	0xa92
 7295 0acf 0C       		.uleb128 0xc
 7296 0ad0 0C       		.byte	0xc
ARM GAS  /var/folders/cs/83z6p2tj4w57s6p2rt8nwfp00000gn/T//cc3yBana.s 			page 167


 7297 0ad1 02       		.byte	0x2
 7298 0ad2 2B       		.byte	0x2b
 7299 0ad3 09       		.byte	0x9
 7300 0ad4 030B0000 		.4byte	0xb03
 7301 0ad8 11       		.uleb128 0x11
 7302 0ad9 647800   		.ascii	"dx\000"
 7303 0adc 02       		.byte	0x2
 7304 0add 2D       		.byte	0x2d
 7305 0ade 08       		.byte	0x8
 7306 0adf 29000000 		.4byte	0x29
 7307 0ae3 02       		.byte	0x2
 7308 0ae4 23       		.byte	0x23
 7309 0ae5 00       		.uleb128 0
 7310 0ae6 11       		.uleb128 0x11
 7311 0ae7 647900   		.ascii	"dy\000"
 7312 0aea 02       		.byte	0x2
 7313 0aeb 2E       		.byte	0x2e
 7314 0aec 08       		.byte	0x8
 7315 0aed 29000000 		.4byte	0x29
 7316 0af1 02       		.byte	0x2
 7317 0af2 23       		.byte	0x23
 7318 0af3 04       		.uleb128 0x4
 7319 0af4 11       		.uleb128 0x11
 7320 0af5 647A00   		.ascii	"dz\000"
 7321 0af8 02       		.byte	0x2
 7322 0af9 2F       		.byte	0x2f
 7323 0afa 08       		.byte	0x8
 7324 0afb 29000000 		.4byte	0x29
 7325 0aff 02       		.byte	0x2
 7326 0b00 23       		.byte	0x23
 7327 0b01 08       		.uleb128 0x8
 7328 0b02 00       		.byte	0
 7329 0b03 04       		.uleb128 0x4
 7330 0b04 7F030000 		.4byte	.LASF135
 7331 0b08 02       		.byte	0x2
 7332 0b09 30       		.byte	0x30
 7333 0b0a 03       		.byte	0x3
 7334 0b0b CF0A0000 		.4byte	0xacf
 7335 0b0f 0C       		.uleb128 0xc
 7336 0b10 34       		.byte	0x34
 7337 0b11 02       		.byte	0x2
 7338 0b12 54       		.byte	0x54
 7339 0b13 09       		.byte	0x9
 7340 0b14 740B0000 		.4byte	0xb74
 7341 0b18 23       		.uleb128 0x23
 7342 0b19 43050000 		.4byte	.LASF136
 7343 0b1d 02       		.byte	0x2
 7344 0b1e 56       		.byte	0x56
 7345 0b1f 06       		.byte	0x6
 7346 0b20 30000000 		.4byte	0x30
 7347 0b24 04       		.byte	0x4
 7348 0b25 01       		.byte	0x1
 7349 0b26 1F       		.byte	0x1f
 7350 0b27 02       		.byte	0x2
 7351 0b28 23       		.byte	0x23
 7352 0b29 00       		.uleb128 0
 7353 0b2a 23       		.uleb128 0x23
ARM GAS  /var/folders/cs/83z6p2tj4w57s6p2rt8nwfp00000gn/T//cc3yBana.s 			page 168


 7354 0b2b 77010000 		.4byte	.LASF137
 7355 0b2f 02       		.byte	0x2
 7356 0b30 57       		.byte	0x57
 7357 0b31 06       		.byte	0x6
 7358 0b32 30000000 		.4byte	0x30
 7359 0b36 04       		.byte	0x4
 7360 0b37 01       		.byte	0x1
 7361 0b38 1E       		.byte	0x1e
 7362 0b39 02       		.byte	0x2
 7363 0b3a 23       		.byte	0x23
 7364 0b3b 00       		.uleb128 0
 7365 0b3c 11       		.uleb128 0x11
 7366 0b3d 6D00     		.ascii	"m\000"
 7367 0b3f 02       		.byte	0x2
 7368 0b40 58       		.byte	0x58
 7369 0b41 08       		.byte	0x8
 7370 0b42 740B0000 		.4byte	0xb74
 7371 0b46 02       		.byte	0x2
 7372 0b47 23       		.byte	0x23
 7373 0b48 04       		.uleb128 0x4
 7374 0b49 11       		.uleb128 0x11
 7375 0b4a 647800   		.ascii	"dx\000"
 7376 0b4d 02       		.byte	0x2
 7377 0b4e 59       		.byte	0x59
 7378 0b4f 08       		.byte	0x8
 7379 0b50 29000000 		.4byte	0x29
 7380 0b54 02       		.byte	0x2
 7381 0b55 23       		.byte	0x23
 7382 0b56 28       		.uleb128 0x28
 7383 0b57 11       		.uleb128 0x11
 7384 0b58 647900   		.ascii	"dy\000"
 7385 0b5b 02       		.byte	0x2
 7386 0b5c 5A       		.byte	0x5a
 7387 0b5d 08       		.byte	0x8
 7388 0b5e 29000000 		.4byte	0x29
 7389 0b62 02       		.byte	0x2
 7390 0b63 23       		.byte	0x23
 7391 0b64 2C       		.uleb128 0x2c
 7392 0b65 11       		.uleb128 0x11
 7393 0b66 647A00   		.ascii	"dz\000"
 7394 0b69 02       		.byte	0x2
 7395 0b6a 5B       		.byte	0x5b
 7396 0b6b 08       		.byte	0x8
 7397 0b6c 29000000 		.4byte	0x29
 7398 0b70 02       		.byte	0x2
 7399 0b71 23       		.byte	0x23
 7400 0b72 30       		.uleb128 0x30
 7401 0b73 00       		.byte	0
 7402 0b74 0A       		.uleb128 0xa
 7403 0b75 29000000 		.4byte	0x29
 7404 0b79 8A0B0000 		.4byte	0xb8a
 7405 0b7d 0B       		.uleb128 0xb
 7406 0b7e 43000000 		.4byte	0x43
 7407 0b82 02       		.byte	0x2
 7408 0b83 0B       		.uleb128 0xb
 7409 0b84 43000000 		.4byte	0x43
 7410 0b88 02       		.byte	0x2
ARM GAS  /var/folders/cs/83z6p2tj4w57s6p2rt8nwfp00000gn/T//cc3yBana.s 			page 169


 7411 0b89 00       		.byte	0
 7412 0b8a 04       		.uleb128 0x4
 7413 0b8b 42060000 		.4byte	.LASF138
 7414 0b8f 02       		.byte	0x2
 7415 0b90 5C       		.byte	0x5c
 7416 0b91 03       		.byte	0x3
 7417 0b92 0F0B0000 		.4byte	0xb0f
 7418 0b96 1F       		.uleb128 0x1f
 7419 0b97 C8040000 		.4byte	.LASF139
 7420 0b9b 02       		.byte	0x2
 7421 0b9c 5E       		.byte	0x5e
 7422 0b9d 11       		.byte	0x11
 7423 0b9e 8A0B0000 		.4byte	0xb8a
 7424 0ba2 01       		.byte	0x1
 7425 0ba3 01       		.byte	0x1
 7426 0ba4 14       		.uleb128 0x14
 7427 0ba5 01       		.byte	0x1
 7428 0ba6 50010000 		.4byte	0x150
 7429 0baa B90B0000 		.4byte	0xbb9
 7430 0bae 15       		.uleb128 0x15
 7431 0baf 50010000 		.4byte	0x150
 7432 0bb3 15       		.uleb128 0x15
 7433 0bb4 37000000 		.4byte	0x37
 7434 0bb8 00       		.byte	0
 7435 0bb9 1F       		.uleb128 0x1f
 7436 0bba 1B070000 		.4byte	.LASF140
 7437 0bbe 0B       		.byte	0xb
 7438 0bbf 17       		.byte	0x17
 7439 0bc0 10       		.byte	0x10
 7440 0bc1 C70B0000 		.4byte	0xbc7
 7441 0bc5 01       		.byte	0x1
 7442 0bc6 01       		.byte	0x1
 7443 0bc7 05       		.uleb128 0x5
 7444 0bc8 04       		.byte	0x4
 7445 0bc9 A40B0000 		.4byte	0xba4
 7446 0bcd 0C       		.uleb128 0xc
 7447 0bce 0C       		.byte	0xc
 7448 0bcf 0C       		.byte	0xc
 7449 0bd0 0F       		.byte	0xf
 7450 0bd1 09       		.byte	0x9
 7451 0bd2 1E0C0000 		.4byte	0xc1e
 7452 0bd6 11       		.uleb128 0x11
 7453 0bd7 703100   		.ascii	"p1\000"
 7454 0bda 0C       		.byte	0xc
 7455 0bdb 11       		.byte	0x11
 7456 0bdc 0B       		.byte	0xb
 7457 0bdd 440A0000 		.4byte	0xa44
 7458 0be1 02       		.byte	0x2
 7459 0be2 23       		.byte	0x23
 7460 0be3 00       		.uleb128 0
 7461 0be4 11       		.uleb128 0x11
 7462 0be5 703200   		.ascii	"p2\000"
 7463 0be8 0C       		.byte	0xc
 7464 0be9 12       		.byte	0x12
 7465 0bea 0B       		.byte	0xb
 7466 0beb 440A0000 		.4byte	0xa44
 7467 0bef 02       		.byte	0x2
ARM GAS  /var/folders/cs/83z6p2tj4w57s6p2rt8nwfp00000gn/T//cc3yBana.s 			page 170


 7468 0bf0 23       		.byte	0x23
 7469 0bf1 02       		.uleb128 0x2
 7470 0bf2 11       		.uleb128 0x11
 7471 0bf3 703300   		.ascii	"p3\000"
 7472 0bf6 0C       		.byte	0xc
 7473 0bf7 13       		.byte	0x13
 7474 0bf8 0B       		.byte	0xb
 7475 0bf9 440A0000 		.4byte	0xa44
 7476 0bfd 02       		.byte	0x2
 7477 0bfe 23       		.byte	0x23
 7478 0bff 04       		.uleb128 0x4
 7479 0c00 11       		.uleb128 0x11
 7480 0c01 703400   		.ascii	"p4\000"
 7481 0c04 0C       		.byte	0xc
 7482 0c05 14       		.byte	0x14
 7483 0c06 0B       		.byte	0xb
 7484 0c07 440A0000 		.4byte	0xa44
 7485 0c0b 02       		.byte	0x2
 7486 0c0c 23       		.byte	0x23
 7487 0c0d 06       		.uleb128 0x6
 7488 0c0e 0D       		.uleb128 0xd
 7489 0c0f EF060000 		.4byte	.LASF141
 7490 0c13 0C       		.byte	0xc
 7491 0c14 15       		.byte	0x15
 7492 0c15 08       		.byte	0x8
 7493 0c16 29000000 		.4byte	0x29
 7494 0c1a 02       		.byte	0x2
 7495 0c1b 23       		.byte	0x23
 7496 0c1c 08       		.uleb128 0x8
 7497 0c1d 00       		.byte	0
 7498 0c1e 04       		.uleb128 0x4
 7499 0c1f C7060000 		.4byte	.LASF142
 7500 0c23 0C       		.byte	0xc
 7501 0c24 16       		.byte	0x16
 7502 0c25 03       		.byte	0x3
 7503 0c26 CD0B0000 		.4byte	0xbcd
 7504 0c2a 0C       		.uleb128 0xc
 7505 0c2b 2C       		.byte	0x2c
 7506 0c2c 0C       		.byte	0xc
 7507 0c2d 18       		.byte	0x18
 7508 0c2e 09       		.byte	0x9
 7509 0c2f BE0C0000 		.4byte	0xcbe
 7510 0c33 0D       		.uleb128 0xd
 7511 0c34 63010000 		.4byte	.LASF143
 7512 0c38 0C       		.byte	0xc
 7513 0c39 1A       		.byte	0x1a
 7514 0c3a 06       		.byte	0x6
 7515 0c3b 30000000 		.4byte	0x30
 7516 0c3f 02       		.byte	0x2
 7517 0c40 23       		.byte	0x23
 7518 0c41 00       		.uleb128 0
 7519 0c42 0D       		.uleb128 0xd
 7520 0c43 44000000 		.4byte	.LASF144
 7521 0c47 0C       		.byte	0xc
 7522 0c48 1B       		.byte	0x1b
 7523 0c49 06       		.byte	0x6
 7524 0c4a 30000000 		.4byte	0x30
ARM GAS  /var/folders/cs/83z6p2tj4w57s6p2rt8nwfp00000gn/T//cc3yBana.s 			page 171


 7525 0c4e 02       		.byte	0x2
 7526 0c4f 23       		.byte	0x23
 7527 0c50 04       		.uleb128 0x4
 7528 0c51 0D       		.uleb128 0xd
 7529 0c52 C3050000 		.4byte	.LASF145
 7530 0c56 0C       		.byte	0xc
 7531 0c57 1C       		.byte	0x1c
 7532 0c58 0B       		.byte	0xb
 7533 0c59 BE0C0000 		.4byte	0xcbe
 7534 0c5d 02       		.byte	0x2
 7535 0c5e 23       		.byte	0x23
 7536 0c5f 08       		.uleb128 0x8
 7537 0c60 0D       		.uleb128 0xd
 7538 0c61 DA0B0000 		.4byte	.LASF146
 7539 0c65 0C       		.byte	0xc
 7540 0c66 1D       		.byte	0x1d
 7541 0c67 06       		.byte	0x6
 7542 0c68 30000000 		.4byte	0x30
 7543 0c6c 02       		.byte	0x2
 7544 0c6d 23       		.byte	0x23
 7545 0c6e 0C       		.uleb128 0xc
 7546 0c6f 0D       		.uleb128 0xd
 7547 0c70 4D030000 		.4byte	.LASF147
 7548 0c74 0C       		.byte	0xc
 7549 0c75 1E       		.byte	0x1e
 7550 0c76 0A       		.byte	0xa
 7551 0c77 C40C0000 		.4byte	0xcc4
 7552 0c7b 02       		.byte	0x2
 7553 0c7c 23       		.byte	0x23
 7554 0c7d 10       		.uleb128 0x10
 7555 0c7e 0D       		.uleb128 0xd
 7556 0c7f 58040000 		.4byte	.LASF148
 7557 0c83 0C       		.byte	0xc
 7558 0c84 1F       		.byte	0x1f
 7559 0c85 0A       		.byte	0xa
 7560 0c86 C30A0000 		.4byte	0xac3
 7561 0c8a 02       		.byte	0x2
 7562 0c8b 23       		.byte	0x23
 7563 0c8c 14       		.uleb128 0x14
 7564 0c8d 0D       		.uleb128 0xd
 7565 0c8e EF060000 		.4byte	.LASF141
 7566 0c92 0C       		.byte	0xc
 7567 0c93 20       		.byte	0x20
 7568 0c94 08       		.byte	0x8
 7569 0c95 29000000 		.4byte	0x29
 7570 0c99 02       		.byte	0x2
 7571 0c9a 23       		.byte	0x23
 7572 0c9b 20       		.uleb128 0x20
 7573 0c9c 23       		.uleb128 0x23
 7574 0c9d 34000000 		.4byte	.LASF149
 7575 0ca1 0C       		.byte	0xc
 7576 0ca2 21       		.byte	0x21
 7577 0ca3 06       		.byte	0x6
 7578 0ca4 30000000 		.4byte	0x30
 7579 0ca8 04       		.byte	0x4
 7580 0ca9 01       		.byte	0x1
 7581 0caa 1F       		.byte	0x1f
ARM GAS  /var/folders/cs/83z6p2tj4w57s6p2rt8nwfp00000gn/T//cc3yBana.s 			page 172


 7582 0cab 02       		.byte	0x2
 7583 0cac 23       		.byte	0x23
 7584 0cad 24       		.uleb128 0x24
 7585 0cae 0D       		.uleb128 0xd
 7586 0caf CB000000 		.4byte	.LASF150
 7587 0cb3 0C       		.byte	0xc
 7588 0cb4 23       		.byte	0x23
 7589 0cb5 06       		.byte	0x6
 7590 0cb6 30000000 		.4byte	0x30
 7591 0cba 02       		.byte	0x2
 7592 0cbb 23       		.byte	0x23
 7593 0cbc 28       		.uleb128 0x28
 7594 0cbd 00       		.byte	0
 7595 0cbe 05       		.uleb128 0x5
 7596 0cbf 04       		.byte	0x4
 7597 0cc0 C30A0000 		.4byte	0xac3
 7598 0cc4 05       		.uleb128 0x5
 7599 0cc5 04       		.byte	0x4
 7600 0cc6 1E0C0000 		.4byte	0xc1e
 7601 0cca 04       		.uleb128 0x4
 7602 0ccb 660C0000 		.4byte	.LASF151
 7603 0ccf 0C       		.byte	0xc
 7604 0cd0 25       		.byte	0x25
 7605 0cd1 03       		.byte	0x3
 7606 0cd2 2A0C0000 		.4byte	0xc2a
 7607 0cd6 10       		.uleb128 0x10
 7608 0cd7 F9060000 		.4byte	.LASF152
 7609 0cdb 24       		.byte	0x24
 7610 0cdc 0D       		.byte	0xd
 7611 0cdd 10       		.byte	0x10
 7612 0cde 08       		.byte	0x8
 7613 0cdf 490D0000 		.4byte	0xd49
 7614 0ce3 11       		.uleb128 0x11
 7615 0ce4 703100   		.ascii	"p1\000"
 7616 0ce7 0D       		.byte	0xd
 7617 0ce8 12       		.byte	0x12
 7618 0ce9 0B       		.byte	0xb
 7619 0cea BE0C0000 		.4byte	0xcbe
 7620 0cee 02       		.byte	0x2
 7621 0cef 23       		.byte	0x23
 7622 0cf0 00       		.uleb128 0
 7623 0cf1 11       		.uleb128 0x11
 7624 0cf2 703200   		.ascii	"p2\000"
 7625 0cf5 0D       		.byte	0xd
 7626 0cf6 13       		.byte	0x13
 7627 0cf7 0B       		.byte	0xb
 7628 0cf8 BE0C0000 		.4byte	0xcbe
 7629 0cfc 02       		.byte	0x2
 7630 0cfd 23       		.byte	0x23
 7631 0cfe 04       		.uleb128 0x4
 7632 0cff 11       		.uleb128 0x11
 7633 0d00 703300   		.ascii	"p3\000"
 7634 0d03 0D       		.byte	0xd
 7635 0d04 14       		.byte	0x14
 7636 0d05 0B       		.byte	0xb
 7637 0d06 BE0C0000 		.4byte	0xcbe
 7638 0d0a 02       		.byte	0x2
ARM GAS  /var/folders/cs/83z6p2tj4w57s6p2rt8nwfp00000gn/T//cc3yBana.s 			page 173


 7639 0d0b 23       		.byte	0x23
 7640 0d0c 08       		.uleb128 0x8
 7641 0d0d 11       		.uleb128 0x11
 7642 0d0e 703400   		.ascii	"p4\000"
 7643 0d11 0D       		.byte	0xd
 7644 0d12 15       		.byte	0x15
 7645 0d13 0B       		.byte	0xb
 7646 0d14 BE0C0000 		.4byte	0xcbe
 7647 0d18 02       		.byte	0x2
 7648 0d19 23       		.byte	0x23
 7649 0d1a 0C       		.uleb128 0xc
 7650 0d1b 0D       		.uleb128 0xd
 7651 0d1c 04090000 		.4byte	.LASF153
 7652 0d20 0D       		.byte	0xd
 7653 0d21 16       		.byte	0x16
 7654 0d22 0B       		.byte	0xb
 7655 0d23 030B0000 		.4byte	0xb03
 7656 0d27 02       		.byte	0x2
 7657 0d28 23       		.byte	0x23
 7658 0d29 10       		.uleb128 0x10
 7659 0d2a 0D       		.uleb128 0xd
 7660 0d2b EF060000 		.4byte	.LASF141
 7661 0d2f 0D       		.byte	0xd
 7662 0d30 17       		.byte	0x17
 7663 0d31 08       		.byte	0x8
 7664 0d32 29000000 		.4byte	0x29
 7665 0d36 02       		.byte	0x2
 7666 0d37 23       		.byte	0x23
 7667 0d38 1C       		.uleb128 0x1c
 7668 0d39 0D       		.uleb128 0xd
 7669 0d3a C6000000 		.4byte	.LASF154
 7670 0d3e 0D       		.byte	0xd
 7671 0d3f 19       		.byte	0x19
 7672 0d40 17       		.byte	0x17
 7673 0d41 490D0000 		.4byte	0xd49
 7674 0d45 02       		.byte	0x2
 7675 0d46 23       		.byte	0x23
 7676 0d47 20       		.uleb128 0x20
 7677 0d48 00       		.byte	0
 7678 0d49 05       		.uleb128 0x5
 7679 0d4a 04       		.byte	0x4
 7680 0d4b D60C0000 		.4byte	0xcd6
 7681 0d4f 04       		.uleb128 0x4
 7682 0d50 F9060000 		.4byte	.LASF152
 7683 0d54 0D       		.byte	0xd
 7684 0d55 1C       		.byte	0x1c
 7685 0d56 1D       		.byte	0x1d
 7686 0d57 D60C0000 		.4byte	0xcd6
 7687 0d5b 24       		.uleb128 0x24
 7688 0d5c 07       		.byte	0x7
 7689 0d5d 01       		.byte	0x1
 7690 0d5e 6B000000 		.4byte	0x6b
 7691 0d62 0D       		.byte	0xd
 7692 0d63 1F       		.byte	0x1f
 7693 0d64 01       		.byte	0x1
 7694 0d65 880D0000 		.4byte	0xd88
 7695 0d69 22       		.uleb128 0x22
ARM GAS  /var/folders/cs/83z6p2tj4w57s6p2rt8nwfp00000gn/T//cc3yBana.s 			page 174


 7696 0d6a 7B040000 		.4byte	.LASF155
 7697 0d6e 00       		.byte	0
 7698 0d6f 22       		.uleb128 0x22
 7699 0d70 C6010000 		.4byte	.LASF156
 7700 0d74 01       		.byte	0x1
 7701 0d75 22       		.uleb128 0x22
 7702 0d76 420A0000 		.4byte	.LASF157
 7703 0d7a 02       		.byte	0x2
 7704 0d7b 22       		.uleb128 0x22
 7705 0d7c A3050000 		.4byte	.LASF158
 7706 0d80 04       		.byte	0x4
 7707 0d81 22       		.uleb128 0x22
 7708 0d82 8F040000 		.4byte	.LASF159
 7709 0d86 08       		.byte	0x8
 7710 0d87 00       		.byte	0
 7711 0d88 04       		.uleb128 0x4
 7712 0d89 210C0000 		.4byte	.LASF160
 7713 0d8d 0D       		.byte	0xd
 7714 0d8e 25       		.byte	0x25
 7715 0d8f 03       		.byte	0x3
 7716 0d90 5B0D0000 		.4byte	0xd5b
 7717 0d94 10       		.uleb128 0x10
 7718 0d95 A60B0000 		.4byte	.LASF161
 7719 0d99 68       		.byte	0x68
 7720 0d9a 0D       		.byte	0xd
 7721 0d9b 27       		.byte	0x27
 7722 0d9c 08       		.byte	0x8
 7723 0d9d 7A0E0000 		.4byte	0xe7a
 7724 0da1 0D       		.uleb128 0xd
 7725 0da2 9D030000 		.4byte	.LASF162
 7726 0da6 0D       		.byte	0xd
 7727 0da7 29       		.byte	0x29
 7728 0da8 0B       		.byte	0xb
 7729 0da9 7A0E0000 		.4byte	0xe7a
 7730 0dad 02       		.byte	0x2
 7731 0dae 23       		.byte	0x23
 7732 0daf 00       		.uleb128 0
 7733 0db0 0D       		.uleb128 0xd
 7734 0db1 D8070000 		.4byte	.LASF163
 7735 0db5 0D       		.byte	0xd
 7736 0db6 2A       		.byte	0x2a
 7737 0db7 0B       		.byte	0xb
 7738 0db8 8A0B0000 		.4byte	0xb8a
 7739 0dbc 02       		.byte	0x2
 7740 0dbd 23       		.byte	0x23
 7741 0dbe 04       		.uleb128 0x4
 7742 0dbf 0D       		.uleb128 0xd
 7743 0dc0 C6000000 		.4byte	.LASF154
 7744 0dc4 0D       		.byte	0xd
 7745 0dc5 2B       		.byte	0x2b
 7746 0dc6 18       		.byte	0x18
 7747 0dc7 800E0000 		.4byte	0xe80
 7748 0dcb 02       		.byte	0x2
 7749 0dcc 23       		.byte	0x23
 7750 0dcd 38       		.uleb128 0x38
 7751 0dce 0D       		.uleb128 0xd
 7752 0dcf 44000000 		.4byte	.LASF144
ARM GAS  /var/folders/cs/83z6p2tj4w57s6p2rt8nwfp00000gn/T//cc3yBana.s 			page 175


 7753 0dd3 0D       		.byte	0xd
 7754 0dd4 2E       		.byte	0x2e
 7755 0dd5 06       		.byte	0x6
 7756 0dd6 30000000 		.4byte	0x30
 7757 0dda 02       		.byte	0x2
 7758 0ddb 23       		.byte	0x23
 7759 0ddc 3C       		.uleb128 0x3c
 7760 0ddd 0D       		.uleb128 0xd
 7761 0dde C3050000 		.4byte	.LASF145
 7762 0de2 0D       		.byte	0xd
 7763 0de3 2F       		.byte	0x2f
 7764 0de4 0B       		.byte	0xb
 7765 0de5 BE0C0000 		.4byte	0xcbe
 7766 0de9 02       		.byte	0x2
 7767 0dea 23       		.byte	0x23
 7768 0deb 40       		.uleb128 0x40
 7769 0dec 0D       		.uleb128 0xd
 7770 0ded DA0B0000 		.4byte	.LASF146
 7771 0df1 0D       		.byte	0xd
 7772 0df2 30       		.byte	0x30
 7773 0df3 06       		.byte	0x6
 7774 0df4 30000000 		.4byte	0x30
 7775 0df8 02       		.byte	0x2
 7776 0df9 23       		.byte	0x23
 7777 0dfa 44       		.uleb128 0x44
 7778 0dfb 0D       		.uleb128 0xd
 7779 0dfc 4D030000 		.4byte	.LASF147
 7780 0e00 0D       		.byte	0xd
 7781 0e01 31       		.byte	0x31
 7782 0e02 10       		.byte	0x10
 7783 0e03 860E0000 		.4byte	0xe86
 7784 0e07 02       		.byte	0x2
 7785 0e08 23       		.byte	0x23
 7786 0e09 48       		.uleb128 0x48
 7787 0e0a 0D       		.uleb128 0xd
 7788 0e0b 58040000 		.4byte	.LASF148
 7789 0e0f 0D       		.byte	0xd
 7790 0e10 32       		.byte	0x32
 7791 0e11 0A       		.byte	0xa
 7792 0e12 C30A0000 		.4byte	0xac3
 7793 0e16 02       		.byte	0x2
 7794 0e17 23       		.byte	0x23
 7795 0e18 4C       		.uleb128 0x4c
 7796 0e19 0D       		.uleb128 0xd
 7797 0e1a EF060000 		.4byte	.LASF141
 7798 0e1e 0D       		.byte	0xd
 7799 0e1f 33       		.byte	0x33
 7800 0e20 08       		.byte	0x8
 7801 0e21 29000000 		.4byte	0x29
 7802 0e25 02       		.byte	0x2
 7803 0e26 23       		.byte	0x23
 7804 0e27 58       		.uleb128 0x58
 7805 0e28 0D       		.uleb128 0xd
 7806 0e29 91030000 		.4byte	.LASF164
 7807 0e2d 0D       		.byte	0xd
 7808 0e2e 34       		.byte	0x34
 7809 0e2f 0E       		.byte	0xe
ARM GAS  /var/folders/cs/83z6p2tj4w57s6p2rt8nwfp00000gn/T//cc3yBana.s 			page 176


 7810 0e30 880D0000 		.4byte	0xd88
 7811 0e34 02       		.byte	0x2
 7812 0e35 23       		.byte	0x23
 7813 0e36 5C       		.uleb128 0x5c
 7814 0e37 23       		.uleb128 0x23
 7815 0e38 BE060000 		.4byte	.LASF165
 7816 0e3c 0D       		.byte	0xd
 7817 0e3d 35       		.byte	0x35
 7818 0e3e 06       		.byte	0x6
 7819 0e3f 30000000 		.4byte	0x30
 7820 0e43 04       		.byte	0x4
 7821 0e44 01       		.byte	0x1
 7822 0e45 17       		.byte	0x17
 7823 0e46 02       		.byte	0x2
 7824 0e47 23       		.byte	0x23
 7825 0e48 5C       		.uleb128 0x5c
 7826 0e49 23       		.uleb128 0x23
 7827 0e4a 07000000 		.4byte	.LASF166
 7828 0e4e 0D       		.byte	0xd
 7829 0e4f 37       		.byte	0x37
 7830 0e50 06       		.byte	0x6
 7831 0e51 30000000 		.4byte	0x30
 7832 0e55 04       		.byte	0x4
 7833 0e56 01       		.byte	0x1
 7834 0e57 16       		.byte	0x16
 7835 0e58 02       		.byte	0x2
 7836 0e59 23       		.byte	0x23
 7837 0e5a 5C       		.uleb128 0x5c
 7838 0e5b 0D       		.uleb128 0xd
 7839 0e5c CB000000 		.4byte	.LASF150
 7840 0e60 0D       		.byte	0xd
 7841 0e61 3A       		.byte	0x3a
 7842 0e62 06       		.byte	0x6
 7843 0e63 30000000 		.4byte	0x30
 7844 0e67 02       		.byte	0x2
 7845 0e68 23       		.byte	0x23
 7846 0e69 60       		.uleb128 0x60
 7847 0e6a 0D       		.uleb128 0xd
 7848 0e6b 5A000000 		.4byte	.LASF167
 7849 0e6f 0D       		.byte	0xd
 7850 0e70 3B       		.byte	0x3b
 7851 0e71 11       		.byte	0x11
 7852 0e72 8C0E0000 		.4byte	0xe8c
 7853 0e76 02       		.byte	0x2
 7854 0e77 23       		.byte	0x23
 7855 0e78 64       		.uleb128 0x64
 7856 0e79 00       		.byte	0
 7857 0e7a 05       		.uleb128 0x5
 7858 0e7b 04       		.byte	0x4
 7859 0e7c CA0C0000 		.4byte	0xcca
 7860 0e80 05       		.uleb128 0x5
 7861 0e81 04       		.byte	0x4
 7862 0e82 940D0000 		.4byte	0xd94
 7863 0e86 05       		.uleb128 0x5
 7864 0e87 04       		.byte	0x4
 7865 0e88 4F0D0000 		.4byte	0xd4f
 7866 0e8c 05       		.uleb128 0x5
ARM GAS  /var/folders/cs/83z6p2tj4w57s6p2rt8nwfp00000gn/T//cc3yBana.s 			page 177


 7867 0e8d 04       		.byte	0x4
 7868 0e8e 860E0000 		.4byte	0xe86
 7869 0e92 04       		.uleb128 0x4
 7870 0e93 A60B0000 		.4byte	.LASF161
 7871 0e97 0D       		.byte	0xd
 7872 0e98 3F       		.byte	0x3f
 7873 0e99 1E       		.byte	0x1e
 7874 0e9a 940D0000 		.4byte	0xd94
 7875 0e9e 04       		.uleb128 0x4
 7876 0e9f 87000000 		.4byte	.LASF168
 7877 0ea3 0D       		.byte	0xd
 7878 0ea4 40       		.byte	0x40
 7879 0ea5 1C       		.byte	0x1c
 7880 0ea6 AA0E0000 		.4byte	0xeaa
 7881 0eaa 10       		.uleb128 0x10
 7882 0eab 87000000 		.4byte	.LASF168
 7883 0eaf 54       		.byte	0x54
 7884 0eb0 0D       		.byte	0xd
 7885 0eb1 42       		.byte	0x42
 7886 0eb2 08       		.byte	0x8
 7887 0eb3 750F0000 		.4byte	0xf75
 7888 0eb7 0D       		.uleb128 0xd
 7889 0eb8 D8070000 		.4byte	.LASF163
 7890 0ebc 0D       		.byte	0xd
 7891 0ebd 44       		.byte	0x44
 7892 0ebe 0B       		.byte	0xb
 7893 0ebf 8A0B0000 		.4byte	0xb8a
 7894 0ec3 02       		.byte	0x2
 7895 0ec4 23       		.byte	0x23
 7896 0ec5 00       		.uleb128 0
 7897 0ec6 0D       		.uleb128 0xd
 7898 0ec7 A0010000 		.4byte	.LASF169
 7899 0ecb 0D       		.byte	0xd
 7900 0ecc 45       		.byte	0x45
 7901 0ecd 0F       		.byte	0xf
 7902 0ece 750F0000 		.4byte	0xf75
 7903 0ed2 02       		.byte	0x2
 7904 0ed3 23       		.byte	0x23
 7905 0ed4 34       		.uleb128 0x34
 7906 0ed5 0D       		.uleb128 0xd
 7907 0ed6 00050000 		.4byte	.LASF170
 7908 0eda 0D       		.byte	0xd
 7909 0edb 46       		.byte	0x46
 7910 0edc 06       		.byte	0x6
 7911 0edd 30000000 		.4byte	0x30
 7912 0ee1 02       		.byte	0x2
 7913 0ee2 23       		.byte	0x23
 7914 0ee3 38       		.uleb128 0x38
 7915 0ee4 0D       		.uleb128 0xd
 7916 0ee5 37080000 		.4byte	.LASF171
 7917 0ee9 0D       		.byte	0xd
 7918 0eea 47       		.byte	0x47
 7919 0eeb 10       		.byte	0x10
 7920 0eec 7B0F0000 		.4byte	0xf7b
 7921 0ef0 02       		.byte	0x2
 7922 0ef1 23       		.byte	0x23
 7923 0ef2 3C       		.uleb128 0x3c
ARM GAS  /var/folders/cs/83z6p2tj4w57s6p2rt8nwfp00000gn/T//cc3yBana.s 			page 178


 7924 0ef3 0D       		.uleb128 0xd
 7925 0ef4 E4060000 		.4byte	.LASF172
 7926 0ef8 0D       		.byte	0xd
 7927 0ef9 48       		.byte	0x48
 7928 0efa 06       		.byte	0x6
 7929 0efb 30000000 		.4byte	0x30
 7930 0eff 02       		.byte	0x2
 7931 0f00 23       		.byte	0x23
 7932 0f01 40       		.uleb128 0x40
 7933 0f02 0D       		.uleb128 0xd
 7934 0f03 00000000 		.4byte	.LASF173
 7935 0f07 0D       		.byte	0xd
 7936 0f08 49       		.byte	0x49
 7937 0f09 11       		.byte	0x11
 7938 0f0a 810F0000 		.4byte	0xf81
 7939 0f0e 02       		.byte	0x2
 7940 0f0f 23       		.byte	0x23
 7941 0f10 44       		.uleb128 0x44
 7942 0f11 0D       		.uleb128 0xd
 7943 0f12 EF060000 		.4byte	.LASF141
 7944 0f16 0D       		.byte	0xd
 7945 0f17 4A       		.byte	0x4a
 7946 0f18 08       		.byte	0x8
 7947 0f19 29000000 		.4byte	0x29
 7948 0f1d 02       		.byte	0x2
 7949 0f1e 23       		.byte	0x23
 7950 0f1f 48       		.uleb128 0x48
 7951 0f20 0D       		.uleb128 0xd
 7952 0f21 91030000 		.4byte	.LASF164
 7953 0f25 0D       		.byte	0xd
 7954 0f26 4B       		.byte	0x4b
 7955 0f27 0E       		.byte	0xe
 7956 0f28 880D0000 		.4byte	0xd88
 7957 0f2c 02       		.byte	0x2
 7958 0f2d 23       		.byte	0x23
 7959 0f2e 4C       		.uleb128 0x4c
 7960 0f2f 23       		.uleb128 0x23
 7961 0f30 C70B0000 		.4byte	.LASF174
 7962 0f34 0D       		.byte	0xd
 7963 0f35 4C       		.byte	0x4c
 7964 0f36 06       		.byte	0x6
 7965 0f37 30000000 		.4byte	0x30
 7966 0f3b 04       		.byte	0x4
 7967 0f3c 01       		.byte	0x1
 7968 0f3d 17       		.byte	0x17
 7969 0f3e 02       		.byte	0x2
 7970 0f3f 23       		.byte	0x23
 7971 0f40 4C       		.uleb128 0x4c
 7972 0f41 23       		.uleb128 0x23
 7973 0f42 BC040000 		.4byte	.LASF175
 7974 0f46 0D       		.byte	0xd
 7975 0f47 4D       		.byte	0x4d
 7976 0f48 06       		.byte	0x6
 7977 0f49 30000000 		.4byte	0x30
 7978 0f4d 04       		.byte	0x4
 7979 0f4e 01       		.byte	0x1
 7980 0f4f 16       		.byte	0x16
ARM GAS  /var/folders/cs/83z6p2tj4w57s6p2rt8nwfp00000gn/T//cc3yBana.s 			page 179


 7981 0f50 02       		.byte	0x2
 7982 0f51 23       		.byte	0x23
 7983 0f52 4C       		.uleb128 0x4c
 7984 0f53 23       		.uleb128 0x23
 7985 0f54 07000000 		.4byte	.LASF166
 7986 0f58 0D       		.byte	0xd
 7987 0f59 4F       		.byte	0x4f
 7988 0f5a 06       		.byte	0x6
 7989 0f5b 30000000 		.4byte	0x30
 7990 0f5f 04       		.byte	0x4
 7991 0f60 01       		.byte	0x1
 7992 0f61 15       		.byte	0x15
 7993 0f62 02       		.byte	0x2
 7994 0f63 23       		.byte	0x23
 7995 0f64 4C       		.uleb128 0x4c
 7996 0f65 0D       		.uleb128 0xd
 7997 0f66 E5020000 		.4byte	.LASF176
 7998 0f6a 0D       		.byte	0xd
 7999 0f6b 50       		.byte	0x50
 8000 0f6c 08       		.byte	0x8
 8001 0f6d 29000000 		.4byte	0x29
 8002 0f71 02       		.byte	0x2
 8003 0f72 23       		.byte	0x23
 8004 0f73 50       		.uleb128 0x50
 8005 0f74 00       		.byte	0
 8006 0f75 05       		.uleb128 0x5
 8007 0f76 04       		.byte	0x4
 8008 0f77 9E0E0000 		.4byte	0xe9e
 8009 0f7b 05       		.uleb128 0x5
 8010 0f7c 04       		.byte	0x4
 8011 0f7d 750F0000 		.4byte	0xf75
 8012 0f81 05       		.uleb128 0x5
 8013 0f82 04       		.byte	0x4
 8014 0f83 920E0000 		.4byte	0xe92
 8015 0f87 0C       		.uleb128 0xc
 8016 0f88 B0       		.byte	0xb0
 8017 0f89 0D       		.byte	0xd
 8018 0f8a 63       		.byte	0x63
 8019 0f8b 09       		.byte	0x9
 8020 0f8c 2D100000 		.4byte	0x102d
 8021 0f90 23       		.uleb128 0x23
 8022 0f91 670A0000 		.4byte	.LASF177
 8023 0f95 0D       		.byte	0xd
 8024 0f96 65       		.byte	0x65
 8025 0f97 06       		.byte	0x6
 8026 0f98 30000000 		.4byte	0x30
 8027 0f9c 04       		.byte	0x4
 8028 0f9d 01       		.byte	0x1
 8029 0f9e 1F       		.byte	0x1f
 8030 0f9f 02       		.byte	0x2
 8031 0fa0 23       		.byte	0x23
 8032 0fa1 00       		.uleb128 0
 8033 0fa2 0D       		.uleb128 0xd
 8034 0fa3 54010000 		.4byte	.LASF178
 8035 0fa7 0D       		.byte	0xd
 8036 0fa8 67       		.byte	0x67
 8037 0fa9 0B       		.byte	0xb
ARM GAS  /var/folders/cs/83z6p2tj4w57s6p2rt8nwfp00000gn/T//cc3yBana.s 			page 180


 8038 0faa 8A0B0000 		.4byte	0xb8a
 8039 0fae 02       		.byte	0x2
 8040 0faf 23       		.byte	0x23
 8041 0fb0 04       		.uleb128 0x4
 8042 0fb1 0D       		.uleb128 0xd
 8043 0fb2 3E070000 		.4byte	.LASF179
 8044 0fb6 0D       		.byte	0xd
 8045 0fb7 68       		.byte	0x68
 8046 0fb8 0B       		.byte	0xb
 8047 0fb9 030B0000 		.4byte	0xb03
 8048 0fbd 02       		.byte	0x2
 8049 0fbe 23       		.byte	0x23
 8050 0fbf 38       		.uleb128 0x38
 8051 0fc0 0D       		.uleb128 0xd
 8052 0fc1 93000000 		.4byte	.LASF180
 8053 0fc5 0D       		.byte	0xd
 8054 0fc6 6B       		.byte	0x6b
 8055 0fc7 08       		.byte	0x8
 8056 0fc8 29000000 		.4byte	0x29
 8057 0fcc 02       		.byte	0x2
 8058 0fcd 23       		.byte	0x23
 8059 0fce 44       		.uleb128 0x44
 8060 0fcf 0D       		.uleb128 0xd
 8061 0fd0 9B000000 		.4byte	.LASF181
 8062 0fd4 0D       		.byte	0xd
 8063 0fd5 6C       		.byte	0x6c
 8064 0fd6 08       		.byte	0x8
 8065 0fd7 29000000 		.4byte	0x29
 8066 0fdb 02       		.byte	0x2
 8067 0fdc 23       		.byte	0x23
 8068 0fdd 48       		.uleb128 0x48
 8069 0fde 0D       		.uleb128 0xd
 8070 0fdf 72050000 		.4byte	.LASF182
 8071 0fe3 0D       		.byte	0xd
 8072 0fe4 6F       		.byte	0x6f
 8073 0fe5 08       		.byte	0x8
 8074 0fe6 29000000 		.4byte	0x29
 8075 0fea 02       		.byte	0x2
 8076 0feb 23       		.byte	0x23
 8077 0fec 4C       		.uleb128 0x4c
 8078 0fed 0D       		.uleb128 0xd
 8079 0fee D6060000 		.4byte	.LASF183
 8080 0ff2 0D       		.byte	0xd
 8081 0ff3 71       		.byte	0x71
 8082 0ff4 0E       		.byte	0xe
 8083 0ff5 9E0E0000 		.4byte	0xe9e
 8084 0ff9 02       		.byte	0x2
 8085 0ffa 23       		.byte	0x23
 8086 0ffb 50       		.uleb128 0x50
 8087 0ffc 0D       		.uleb128 0xd
 8088 0ffd 20010000 		.4byte	.LASF184
 8089 1001 0D       		.byte	0xd
 8090 1002 74       		.byte	0x74
 8091 1003 12       		.byte	0x12
 8092 1004 2D100000 		.4byte	0x102d
 8093 1008 03       		.byte	0x3
 8094 1009 23       		.byte	0x23
ARM GAS  /var/folders/cs/83z6p2tj4w57s6p2rt8nwfp00000gn/T//cc3yBana.s 			page 181


 8095 100a A401     		.uleb128 0xa4
 8096 100c 0D       		.uleb128 0xd
 8097 100d 11080000 		.4byte	.LASF185
 8098 1011 0D       		.byte	0xd
 8099 1012 75       		.byte	0x75
 8100 1013 06       		.byte	0x6
 8101 1014 30000000 		.4byte	0x30
 8102 1018 03       		.byte	0x3
 8103 1019 23       		.byte	0x23
 8104 101a A801     		.uleb128 0xa8
 8105 101c 0D       		.uleb128 0xd
 8106 101d E5020000 		.4byte	.LASF176
 8107 1021 0D       		.byte	0xd
 8108 1022 78       		.byte	0x78
 8109 1023 08       		.byte	0x8
 8110 1024 29000000 		.4byte	0x29
 8111 1028 03       		.byte	0x3
 8112 1029 23       		.byte	0x23
 8113 102a AC01     		.uleb128 0xac
 8114 102c 00       		.byte	0
 8115 102d 05       		.uleb128 0x5
 8116 102e 04       		.byte	0x4
 8117 102f 810F0000 		.4byte	0xf81
 8118 1033 04       		.uleb128 0x4
 8119 1034 73040000 		.4byte	.LASF186
 8120 1038 0D       		.byte	0xd
 8121 1039 7B       		.byte	0x7b
 8122 103a 03       		.byte	0x3
 8123 103b 870F0000 		.4byte	0xf87
 8124 103f 0A       		.uleb128 0xa
 8125 1040 380A0000 		.4byte	0xa38
 8126 1044 55100000 		.4byte	0x1055
 8127 1048 0B       		.uleb128 0xb
 8128 1049 43000000 		.4byte	0x43
 8129 104d 20       		.byte	0x20
 8130 104e 0B       		.uleb128 0xb
 8131 104f 43000000 		.4byte	0x43
 8132 1053 07       		.byte	0x7
 8133 1054 00       		.byte	0
 8134 1055 25       		.uleb128 0x25
 8135 1056 5B090000 		.4byte	.LASF210
 8136 105a 01       		.byte	0x1
 8137 105b DB01     		.2byte	0x1db
 8138 105d 10       		.byte	0x10
 8139 105e 3F100000 		.4byte	0x103f
 8140 1062 05       		.byte	0x5
 8141 1063 03       		.byte	0x3
 8142 1064 00000000 		.4byte	patterns
 8143 1068 26       		.uleb128 0x26
 8144 1069 01       		.byte	0x1
 8145 106a 2A010000 		.4byte	.LASF193
 8146 106e 01       		.byte	0x1
 8147 106f E802     		.2byte	0x2e8
 8148 1071 01       		.byte	0x1
 8149 1072 01       		.byte	0x1
 8150 1073 00000000 		.4byte	.LFB39
 8151 1077 68000000 		.4byte	.LFE39
ARM GAS  /var/folders/cs/83z6p2tj4w57s6p2rt8nwfp00000gn/T//cc3yBana.s 			page 182


 8152 107b 00000000 		.4byte	.LLST149
 8153 107f 01       		.byte	0x1
 8154 1080 1C110000 		.4byte	0x111c
 8155 1084 27       		.uleb128 0x27
 8156 1085 70020000 		.4byte	.LASF187
 8157 1089 01       		.byte	0x1
 8158 108a E802     		.2byte	0x2e8
 8159 108c 17       		.byte	0x17
 8160 108d 1C110000 		.4byte	0x111c
 8161 1091 4D000000 		.4byte	.LLST150
 8162 1095 45000000 		.4byte	.LVUS150
 8163 1099 27       		.uleb128 0x27
 8164 109a 21090000 		.4byte	.LASF188
 8165 109e 01       		.byte	0x1
 8166 109f E802     		.2byte	0x2e8
 8167 10a1 27       		.byte	0x27
 8168 10a2 22110000 		.4byte	0x1122
 8169 10a6 8C000000 		.4byte	.LLST151
 8170 10aa 84000000 		.4byte	.LVUS151
 8171 10ae 27       		.uleb128 0x27
 8172 10af 60070000 		.4byte	.LASF189
 8173 10b3 01       		.byte	0x1
 8174 10b4 E802     		.2byte	0x2e8
 8175 10b6 33       		.byte	0x33
 8176 10b7 30000000 		.4byte	0x30
 8177 10bb CB000000 		.4byte	.LLST152
 8178 10bf C3000000 		.4byte	.LVUS152
 8179 10c3 28       		.uleb128 0x28
 8180 10c4 44000000 		.4byte	.LVL378
 8181 10c8 6B200000 		.4byte	0x206b
 8182 10cc E9100000 		.4byte	0x10e9
 8183 10d0 29       		.uleb128 0x29
 8184 10d1 01       		.byte	0x1
 8185 10d2 50       		.byte	0x50
 8186 10d3 02       		.byte	0x2
 8187 10d4 76       		.byte	0x76
 8188 10d5 00       		.sleb128 0
 8189 10d6 29       		.uleb128 0x29
 8190 10d7 01       		.byte	0x1
 8191 10d8 51       		.byte	0x51
 8192 10d9 02       		.byte	0x2
 8193 10da 79       		.byte	0x79
 8194 10db 00       		.sleb128 0
 8195 10dc 29       		.uleb128 0x29
 8196 10dd 02       		.byte	0x2
 8197 10de 90       		.byte	0x90
 8198 10df 40       		.uleb128 0x40
 8199 10e0 07       		.byte	0x7
 8200 10e1 F4       		.byte	0xf4
 8201 10e2 29       		.uleb128 0x29
 8202 10e3 04       		.byte	0x4
 8203 10e4 00000000 		.4byte	0
 8204 10e8 00       		.byte	0
 8205 10e9 2A       		.uleb128 0x2a
 8206 10ea 4C000000 		.4byte	.LVL379
 8207 10ee 5F2A0000 		.4byte	0x2a5f
 8208 10f2 2B       		.uleb128 0x2b
ARM GAS  /var/folders/cs/83z6p2tj4w57s6p2rt8nwfp00000gn/T//cc3yBana.s 			page 183


 8209 10f3 5E000000 		.4byte	.LVL381
 8210 10f7 01       		.byte	0x1
 8211 10f8 28110000 		.4byte	0x1128
 8212 10fc 29       		.uleb128 0x29
 8213 10fd 01       		.byte	0x1
 8214 10fe 50       		.byte	0x50
 8215 10ff 03       		.byte	0x3
 8216 1100 F3       		.byte	0xf3
 8217 1101 01       		.uleb128 0x1
 8218 1102 50       		.byte	0x50
 8219 1103 29       		.uleb128 0x29
 8220 1104 01       		.byte	0x1
 8221 1105 51       		.byte	0x51
 8222 1106 05       		.byte	0x5
 8223 1107 F3       		.byte	0xf3
 8224 1108 01       		.uleb128 0x1
 8225 1109 50       		.byte	0x50
 8226 110a 23       		.byte	0x23
 8227 110b 50       		.uleb128 0x50
 8228 110c 29       		.uleb128 0x29
 8229 110d 01       		.byte	0x1
 8230 110e 52       		.byte	0x52
 8231 110f 03       		.byte	0x3
 8232 1110 F3       		.byte	0xf3
 8233 1111 01       		.uleb128 0x1
 8234 1112 51       		.byte	0x51
 8235 1113 29       		.uleb128 0x29
 8236 1114 01       		.byte	0x1
 8237 1115 53       		.byte	0x53
 8238 1116 03       		.byte	0x3
 8239 1117 F3       		.byte	0xf3
 8240 1118 01       		.uleb128 0x1
 8241 1119 52       		.byte	0x52
 8242 111a 00       		.byte	0
 8243 111b 00       		.byte	0
 8244 111c 05       		.uleb128 0x5
 8245 111d 04       		.byte	0x4
 8246 111e 33100000 		.4byte	0x1033
 8247 1122 05       		.uleb128 0x5
 8248 1123 04       		.byte	0x4
 8249 1124 380A0000 		.4byte	0xa38
 8250 1128 26       		.uleb128 0x26
 8251 1129 01       		.byte	0x1
 8252 112a 97020000 		.4byte	.LASF194
 8253 112e 01       		.byte	0x1
 8254 112f CD02     		.2byte	0x2cd
 8255 1131 01       		.byte	0x1
 8256 1132 01       		.byte	0x1
 8257 1133 00000000 		.4byte	.LFB38
 8258 1137 E8080000 		.4byte	.LFE38
 8259 113b 02010000 		.4byte	.LLST93
 8260 113f 01       		.byte	0x1
 8261 1140 23180000 		.4byte	0x1823
 8262 1144 27       		.uleb128 0x27
 8263 1145 70020000 		.4byte	.LASF187
 8264 1149 01       		.byte	0x1
 8265 114a CD02     		.2byte	0x2cd
ARM GAS  /var/folders/cs/83z6p2tj4w57s6p2rt8nwfp00000gn/T//cc3yBana.s 			page 184


 8266 114c 1B       		.byte	0x1b
 8267 114d 1C110000 		.4byte	0x111c
 8268 1151 6A010000 		.4byte	.LLST94
 8269 1155 60010000 		.4byte	.LVUS94
 8270 1159 27       		.uleb128 0x27
 8271 115a A8000000 		.4byte	.LASF195
 8272 115e 01       		.byte	0x1
 8273 115f CD02     		.2byte	0x2cd
 8274 1161 2F       		.byte	0x2f
 8275 1162 750F0000 		.4byte	0xf75
 8276 1166 B3010000 		.4byte	.LLST95
 8277 116a AF010000 		.4byte	.LVUS95
 8278 116e 27       		.uleb128 0x27
 8279 116f 21090000 		.4byte	.LASF188
 8280 1173 01       		.byte	0x1
 8281 1174 CD02     		.2byte	0x2cd
 8282 1176 3E       		.byte	0x3e
 8283 1177 22110000 		.4byte	0x1122
 8284 117b 00020000 		.4byte	.LLST96
 8285 117f D4010000 		.4byte	.LVUS96
 8286 1183 27       		.uleb128 0x27
 8287 1184 60070000 		.4byte	.LASF189
 8288 1188 01       		.byte	0x1
 8289 1189 CD02     		.2byte	0x2cd
 8290 118b 4A       		.byte	0x4a
 8291 118c 30000000 		.4byte	0x30
 8292 1190 38030000 		.4byte	.LLST97
 8293 1194 FA020000 		.4byte	.LVUS97
 8294 1198 2C       		.uleb128 0x2c
 8295 1199 D2050000 		.4byte	.LASF196
 8296 119d 01       		.byte	0x1
 8297 119e D102     		.2byte	0x2d1
 8298 11a0 06       		.byte	0x6
 8299 11a1 30000000 		.4byte	0x30
 8300 11a5 A7040000 		.4byte	.LLST98
 8301 11a9 9F040000 		.4byte	.LVUS98
 8302 11ad 2D       		.uleb128 0x2d
 8303 11ae 6900     		.ascii	"i\000"
 8304 11b0 01       		.byte	0x1
 8305 11b1 D802     		.2byte	0x2d8
 8306 11b3 06       		.byte	0x6
 8307 11b4 30000000 		.4byte	0x30
 8308 11b8 F1040000 		.4byte	.LLST99
 8309 11bc DF040000 		.4byte	.LVUS99
 8310 11c0 2E       		.uleb128 0x2e
 8311 11c1 58020000 		.4byte	.Ldebug_ranges0+0x258
 8312 11c5 E2170000 		.4byte	0x17e2
 8313 11c9 2C       		.uleb128 0x2c
 8314 11ca 4D070000 		.4byte	.LASF197
 8315 11ce 01       		.byte	0x1
 8316 11cf DC02     		.2byte	0x2dc
 8317 11d1 12       		.byte	0x12
 8318 11d2 810F0000 		.4byte	0xf81
 8319 11d6 7E050000 		.4byte	.LLST100
 8320 11da 68050000 		.4byte	.LVUS100
 8321 11de 2C       		.uleb128 0x2c
 8322 11df 69090000 		.4byte	.LASF198
ARM GAS  /var/folders/cs/83z6p2tj4w57s6p2rt8nwfp00000gn/T//cc3yBana.s 			page 185


 8323 11e3 01       		.byte	0x1
 8324 11e4 DD02     		.2byte	0x2dd
 8325 11e6 0F       		.byte	0xf
 8326 11e7 880D0000 		.4byte	0xd88
 8327 11eb 13060000 		.4byte	.LLST101
 8328 11ef FF050000 		.4byte	.LVUS101
 8329 11f3 2F       		.uleb128 0x2f
 8330 11f4 71190000 		.4byte	0x1971
 8331 11f8 5A000000 		.4byte	.LBI149
 8332 11fc 0100     		.2byte	.LVU872
 8333 11fe 88020000 		.4byte	.Ldebug_ranges0+0x288
 8334 1202 01       		.byte	0x1
 8335 1203 E002     		.2byte	0x2e0
 8336 1205 04       		.byte	0x4
 8337 1206 68150000 		.4byte	0x1568
 8338 120a 30       		.uleb128 0x30
 8339 120b A7190000 		.4byte	0x19a7
 8340 120f 30       		.uleb128 0x30
 8341 1210 9A190000 		.4byte	0x199a
 8342 1214 31       		.uleb128 0x31
 8343 1215 8D190000 		.4byte	0x198d
 8344 1219 9D060000 		.4byte	.LLST102
 8345 121d 91060000 		.4byte	.LVUS102
 8346 1221 30       		.uleb128 0x30
 8347 1222 80190000 		.4byte	0x1980
 8348 1226 32       		.uleb128 0x32
 8349 1227 B4190000 		.4byte	0x19b4
 8350 122b C8020000 		.4byte	.Ldebug_ranges0+0x2c8
 8351 122f CE130000 		.4byte	0x13ce
 8352 1233 33       		.uleb128 0x33
 8353 1234 B9190000 		.4byte	0x19b9
 8354 1238 F1060000 		.4byte	.LLST103
 8355 123c E7060000 		.4byte	.LVUS103
 8356 1240 34       		.uleb128 0x34
 8357 1241 C4190000 		.4byte	0x19c4
 8358 1245 F8020000 		.4byte	.Ldebug_ranges0+0x2f8
 8359 1249 33       		.uleb128 0x33
 8360 124a C5190000 		.4byte	0x19c5
 8361 124e 3A070000 		.4byte	.LLST104
 8362 1252 32070000 		.4byte	.LVUS104
 8363 1256 35       		.uleb128 0x35
 8364 1257 E2190000 		.4byte	0x19e2
 8365 125b D6000000 		.4byte	.LBI153
 8366 125f 0100     		.2byte	.LVU913
 8367 1261 28030000 		.4byte	.Ldebug_ranges0+0x328
 8368 1265 01       		.byte	0x1
 8369 1266 6702     		.2byte	0x267
 8370 1268 05       		.byte	0x5
 8371 1269 31       		.uleb128 0x31
 8372 126a 251A0000 		.4byte	0x1a25
 8373 126e 78070000 		.4byte	.LLST105
 8374 1272 6E070000 		.4byte	.LVUS105
 8375 1276 30       		.uleb128 0x30
 8376 1277 181A0000 		.4byte	0x1a18
 8377 127b 30       		.uleb128 0x30
 8378 127c 0B1A0000 		.4byte	0x1a0b
 8379 1280 30       		.uleb128 0x30
ARM GAS  /var/folders/cs/83z6p2tj4w57s6p2rt8nwfp00000gn/T//cc3yBana.s 			page 186


 8380 1281 FE190000 		.4byte	0x19fe
 8381 1285 30       		.uleb128 0x30
 8382 1286 F1190000 		.4byte	0x19f1
 8383 128a 36       		.uleb128 0x36
 8384 128b 28030000 		.4byte	.Ldebug_ranges0+0x328
 8385 128f 33       		.uleb128 0x33
 8386 1290 321A0000 		.4byte	0x1a32
 8387 1294 CB070000 		.4byte	.LLST106
 8388 1298 B7070000 		.4byte	.LVUS106
 8389 129c 33       		.uleb128 0x33
 8390 129d 3E1A0000 		.4byte	0x1a3e
 8391 12a1 5F080000 		.4byte	.LLST107
 8392 12a5 4B080000 		.4byte	.LVUS107
 8393 12a9 33       		.uleb128 0x33
 8394 12aa 4A1A0000 		.4byte	0x1a4a
 8395 12ae F3080000 		.4byte	.LLST108
 8396 12b2 DF080000 		.4byte	.LVUS108
 8397 12b6 33       		.uleb128 0x33
 8398 12b7 561A0000 		.4byte	0x1a56
 8399 12bb 87090000 		.4byte	.LLST109
 8400 12bf 73090000 		.4byte	.LVUS109
 8401 12c3 33       		.uleb128 0x33
 8402 12c4 621A0000 		.4byte	0x1a62
 8403 12c8 1B0A0000 		.4byte	.LLST110
 8404 12cc 070A0000 		.4byte	.LVUS110
 8405 12d0 33       		.uleb128 0x33
 8406 12d1 6E1A0000 		.4byte	0x1a6e
 8407 12d5 AF0A0000 		.4byte	.LLST111
 8408 12d9 9B0A0000 		.4byte	.LVUS111
 8409 12dd 33       		.uleb128 0x33
 8410 12de 7A1A0000 		.4byte	0x1a7a
 8411 12e2 430B0000 		.4byte	.LLST112
 8412 12e6 2F0B0000 		.4byte	.LVUS112
 8413 12ea 33       		.uleb128 0x33
 8414 12eb 851A0000 		.4byte	0x1a85
 8415 12ef 080C0000 		.4byte	.LLST113
 8416 12f3 FA0B0000 		.4byte	.LVUS113
 8417 12f7 37       		.uleb128 0x37
 8418 12f8 901A0000 		.4byte	0x1a90
 8419 12fc 37       		.uleb128 0x37
 8420 12fd 9C1A0000 		.4byte	0x1a9c
 8421 1301 32       		.uleb128 0x32
 8422 1302 A91A0000 		.4byte	0x1aa9
 8423 1306 68030000 		.4byte	.Ldebug_ranges0+0x368
 8424 130a 1C130000 		.4byte	0x131c
 8425 130e 33       		.uleb128 0x33
 8426 130f AA1A0000 		.4byte	0x1aaa
 8427 1313 8D0C0000 		.4byte	.LLST114
 8428 1317 890C0000 		.4byte	.LVUS114
 8429 131b 00       		.byte	0
 8430 131c 2F       		.uleb128 0x2f
 8431 131d 2D290000 		.4byte	0x292d
 8432 1321 80040000 		.4byte	.LBI157
 8433 1325 0100     		.2byte	.LVU1111
 8434 1327 80030000 		.4byte	.Ldebug_ranges0+0x380
 8435 132b 01       		.byte	0x1
 8436 132c 3202     		.2byte	0x232
ARM GAS  /var/folders/cs/83z6p2tj4w57s6p2rt8nwfp00000gn/T//cc3yBana.s 			page 187


 8437 132e 10       		.byte	0x10
 8438 132f 4E130000 		.4byte	0x134e
 8439 1333 31       		.uleb128 0x31
 8440 1334 49290000 		.4byte	0x2949
 8441 1338 AF0C0000 		.4byte	.LLST115
 8442 133c AD0C0000 		.4byte	.LVUS115
 8443 1340 31       		.uleb128 0x31
 8444 1341 3F290000 		.4byte	0x293f
 8445 1345 D00C0000 		.4byte	.LLST116
 8446 1349 CE0C0000 		.4byte	.LVUS116
 8447 134d 00       		.byte	0
 8448 134e 38       		.uleb128 0x38
 8449 134f 2D290000 		.4byte	0x292d
 8450 1353 A6040000 		.4byte	.LBI165
 8451 1357 0100     		.2byte	.LVU1123
 8452 1359 A6040000 		.4byte	.LBB165
 8453 135d A6040000 		.4byte	.LBE165
 8454 1361 01       		.byte	0x1
 8455 1362 3402     		.2byte	0x234
 8456 1364 10       		.byte	0x10
 8457 1365 84130000 		.4byte	0x1384
 8458 1369 31       		.uleb128 0x31
 8459 136a 49290000 		.4byte	0x2949
 8460 136e F00C0000 		.4byte	.LLST117
 8461 1372 EE0C0000 		.4byte	.LVUS117
 8462 1376 31       		.uleb128 0x31
 8463 1377 3F290000 		.4byte	0x293f
 8464 137b 110D0000 		.4byte	.LLST118
 8465 137f 0F0D0000 		.4byte	.LVUS118
 8466 1383 00       		.byte	0
 8467 1384 28       		.uleb128 0x28
 8468 1385 CE000000 		.4byte	.LVL228
 8469 1389 6D2A0000 		.4byte	0x2a6d
 8470 138d 9E130000 		.4byte	0x139e
 8471 1391 29       		.uleb128 0x29
 8472 1392 01       		.byte	0x1
 8473 1393 50       		.byte	0x50
 8474 1394 02       		.byte	0x2
 8475 1395 7B       		.byte	0x7b
 8476 1396 00       		.sleb128 0
 8477 1397 29       		.uleb128 0x29
 8478 1398 01       		.byte	0x1
 8479 1399 51       		.byte	0x51
 8480 139a 02       		.byte	0x2
 8481 139b 7A       		.byte	0x7a
 8482 139c 00       		.sleb128 0
 8483 139d 00       		.byte	0
 8484 139e 28       		.uleb128 0x28
 8485 139f 00040000 		.4byte	.LVL277
 8486 13a3 7B2A0000 		.4byte	0x2a7b
 8487 13a7 B8130000 		.4byte	0x13b8
 8488 13ab 29       		.uleb128 0x29
 8489 13ac 01       		.byte	0x1
 8490 13ad 50       		.byte	0x50
 8491 13ae 02       		.byte	0x2
 8492 13af 7B       		.byte	0x7b
 8493 13b0 00       		.sleb128 0
ARM GAS  /var/folders/cs/83z6p2tj4w57s6p2rt8nwfp00000gn/T//cc3yBana.s 			page 188


 8494 13b1 29       		.uleb128 0x29
 8495 13b2 01       		.byte	0x1
 8496 13b3 51       		.byte	0x51
 8497 13b4 02       		.byte	0x2
 8498 13b5 7A       		.byte	0x7a
 8499 13b6 00       		.sleb128 0
 8500 13b7 00       		.byte	0
 8501 13b8 2A       		.uleb128 0x2a
 8502 13b9 6A040000 		.4byte	.LVL280
 8503 13bd 892A0000 		.4byte	0x2a89
 8504 13c1 2A       		.uleb128 0x2a
 8505 13c2 E0040000 		.4byte	.LVL292
 8506 13c6 972A0000 		.4byte	0x2a97
 8507 13ca 00       		.byte	0
 8508 13cb 00       		.byte	0
 8509 13cc 00       		.byte	0
 8510 13cd 00       		.byte	0
 8511 13ce 34       		.uleb128 0x34
 8512 13cf D4190000 		.4byte	0x19d4
 8513 13d3 A8030000 		.4byte	.Ldebug_ranges0+0x3a8
 8514 13d7 33       		.uleb128 0x33
 8515 13d8 D5190000 		.4byte	0x19d5
 8516 13dc 390D0000 		.4byte	.LLST119
 8517 13e0 2F0D0000 		.4byte	.LVUS119
 8518 13e4 35       		.uleb128 0x35
 8519 13e5 E2190000 		.4byte	0x19e2
 8520 13e9 E4050000 		.4byte	.LBI187
 8521 13ed 0000     		.2byte	.LVU1190
 8522 13ef D0030000 		.4byte	.Ldebug_ranges0+0x3d0
 8523 13f3 01       		.byte	0x1
 8524 13f4 6F02     		.2byte	0x26f
 8525 13f6 03       		.byte	0x3
 8526 13f7 31       		.uleb128 0x31
 8527 13f8 251A0000 		.4byte	0x1a25
 8528 13fc 8B0D0000 		.4byte	.LLST120
 8529 1400 790D0000 		.4byte	.LVUS120
 8530 1404 30       		.uleb128 0x30
 8531 1405 181A0000 		.4byte	0x1a18
 8532 1409 30       		.uleb128 0x30
 8533 140a 0B1A0000 		.4byte	0x1a0b
 8534 140e 31       		.uleb128 0x31
 8535 140f FE190000 		.4byte	0x19fe
 8536 1413 1C0E0000 		.4byte	.LLST121
 8537 1417 120E0000 		.4byte	.LVUS121
 8538 141b 30       		.uleb128 0x30
 8539 141c F1190000 		.4byte	0x19f1
 8540 1420 36       		.uleb128 0x36
 8541 1421 D0030000 		.4byte	.Ldebug_ranges0+0x3d0
 8542 1425 33       		.uleb128 0x33
 8543 1426 321A0000 		.4byte	0x1a32
 8544 142a 710E0000 		.4byte	.LLST122
 8545 142e 5B0E0000 		.4byte	.LVUS122
 8546 1432 33       		.uleb128 0x33
 8547 1433 3E1A0000 		.4byte	0x1a3e
 8548 1437 130F0000 		.4byte	.LLST123
 8549 143b FD0E0000 		.4byte	.LVUS123
 8550 143f 33       		.uleb128 0x33
ARM GAS  /var/folders/cs/83z6p2tj4w57s6p2rt8nwfp00000gn/T//cc3yBana.s 			page 189


 8551 1440 4A1A0000 		.4byte	0x1a4a
 8552 1444 B50F0000 		.4byte	.LLST124
 8553 1448 9F0F0000 		.4byte	.LVUS124
 8554 144c 33       		.uleb128 0x33
 8555 144d 561A0000 		.4byte	0x1a56
 8556 1451 57100000 		.4byte	.LLST125
 8557 1455 41100000 		.4byte	.LVUS125
 8558 1459 33       		.uleb128 0x33
 8559 145a 621A0000 		.4byte	0x1a62
 8560 145e FB100000 		.4byte	.LLST126
 8561 1462 E3100000 		.4byte	.LVUS126
 8562 1466 33       		.uleb128 0x33
 8563 1467 6E1A0000 		.4byte	0x1a6e
 8564 146b A9110000 		.4byte	.LLST127
 8565 146f 93110000 		.4byte	.LVUS127
 8566 1473 33       		.uleb128 0x33
 8567 1474 7A1A0000 		.4byte	0x1a7a
 8568 1478 4B120000 		.4byte	.LLST128
 8569 147c 35120000 		.4byte	.LVUS128
 8570 1480 33       		.uleb128 0x33
 8571 1481 851A0000 		.4byte	0x1a85
 8572 1485 43130000 		.4byte	.LLST129
 8573 1489 35130000 		.4byte	.LVUS129
 8574 148d 37       		.uleb128 0x37
 8575 148e 901A0000 		.4byte	0x1a90
 8576 1492 37       		.uleb128 0x37
 8577 1493 9C1A0000 		.4byte	0x1a9c
 8578 1497 32       		.uleb128 0x32
 8579 1498 A91A0000 		.4byte	0x1aa9
 8580 149c 10040000 		.4byte	.Ldebug_ranges0+0x410
 8581 14a0 B2140000 		.4byte	0x14b2
 8582 14a4 33       		.uleb128 0x33
 8583 14a5 AA1A0000 		.4byte	0x1aaa
 8584 14a9 C8130000 		.4byte	.LLST130
 8585 14ad C4130000 		.4byte	.LVUS130
 8586 14b1 00       		.byte	0
 8587 14b2 2F       		.uleb128 0x2f
 8588 14b3 2D290000 		.4byte	0x292d
 8589 14b7 08080000 		.4byte	.LBI191
 8590 14bb 0100     		.2byte	.LVU1313
 8591 14bd 28040000 		.4byte	.Ldebug_ranges0+0x428
 8592 14c1 01       		.byte	0x1
 8593 14c2 3202     		.2byte	0x232
 8594 14c4 10       		.byte	0x10
 8595 14c5 E4140000 		.4byte	0x14e4
 8596 14c9 31       		.uleb128 0x31
 8597 14ca 49290000 		.4byte	0x2949
 8598 14ce EA130000 		.4byte	.LLST131
 8599 14d2 E8130000 		.4byte	.LVUS131
 8600 14d6 31       		.uleb128 0x31
 8601 14d7 3F290000 		.4byte	0x293f
 8602 14db 0B140000 		.4byte	.LLST132
 8603 14df 09140000 		.4byte	.LVUS132
 8604 14e3 00       		.byte	0
 8605 14e4 38       		.uleb128 0x38
 8606 14e5 2D290000 		.4byte	0x292d
 8607 14e9 2E080000 		.4byte	.LBI199
ARM GAS  /var/folders/cs/83z6p2tj4w57s6p2rt8nwfp00000gn/T//cc3yBana.s 			page 190


 8608 14ed 0100     		.2byte	.LVU1325
 8609 14ef 2E080000 		.4byte	.LBB199
 8610 14f3 2E080000 		.4byte	.LBE199
 8611 14f7 01       		.byte	0x1
 8612 14f8 3402     		.2byte	0x234
 8613 14fa 10       		.byte	0x10
 8614 14fb 1A150000 		.4byte	0x151a
 8615 14ff 31       		.uleb128 0x31
 8616 1500 49290000 		.4byte	0x2949
 8617 1504 2B140000 		.4byte	.LLST133
 8618 1508 29140000 		.4byte	.LVUS133
 8619 150c 31       		.uleb128 0x31
 8620 150d 3F290000 		.4byte	0x293f
 8621 1511 4C140000 		.4byte	.LLST134
 8622 1515 4A140000 		.4byte	.LVUS134
 8623 1519 00       		.byte	0
 8624 151a 28       		.uleb128 0x28
 8625 151b D6060000 		.4byte	.LVL328
 8626 151f 6D2A0000 		.4byte	0x2a6d
 8627 1523 36150000 		.4byte	0x1536
 8628 1527 29       		.uleb128 0x29
 8629 1528 01       		.byte	0x1
 8630 1529 50       		.byte	0x50
 8631 152a 02       		.byte	0x2
 8632 152b 7B       		.byte	0x7b
 8633 152c 00       		.sleb128 0
 8634 152d 29       		.uleb128 0x29
 8635 152e 01       		.byte	0x1
 8636 152f 51       		.byte	0x51
 8637 1530 04       		.byte	0x4
 8638 1531 91       		.byte	0x91
 8639 1532 B87F     		.sleb128 -72
 8640 1534 06       		.byte	0x6
 8641 1535 00       		.byte	0
 8642 1536 28       		.uleb128 0x28
 8643 1537 AA070000 		.4byte	.LVL346
 8644 153b 7B2A0000 		.4byte	0x2a7b
 8645 153f 52150000 		.4byte	0x1552
 8646 1543 29       		.uleb128 0x29
 8647 1544 01       		.byte	0x1
 8648 1545 50       		.byte	0x50
 8649 1546 02       		.byte	0x2
 8650 1547 7B       		.byte	0x7b
 8651 1548 00       		.sleb128 0
 8652 1549 29       		.uleb128 0x29
 8653 154a 01       		.byte	0x1
 8654 154b 51       		.byte	0x51
 8655 154c 04       		.byte	0x4
 8656 154d 91       		.byte	0x91
 8657 154e B87F     		.sleb128 -72
 8658 1550 06       		.byte	0x6
 8659 1551 00       		.byte	0
 8660 1552 2A       		.uleb128 0x2a
 8661 1553 B6070000 		.4byte	.LVL348
 8662 1557 892A0000 		.4byte	0x2a89
 8663 155b 2A       		.uleb128 0x2a
 8664 155c A4080000 		.4byte	.LVL367
ARM GAS  /var/folders/cs/83z6p2tj4w57s6p2rt8nwfp00000gn/T//cc3yBana.s 			page 191


 8665 1560 972A0000 		.4byte	0x2a97
 8666 1564 00       		.byte	0
 8667 1565 00       		.byte	0
 8668 1566 00       		.byte	0
 8669 1567 00       		.byte	0
 8670 1568 35       		.uleb128 0x35
 8671 1569 8C180000 		.4byte	0x188c
 8672 156d FE010000 		.4byte	.LBI224
 8673 1571 0100     		.2byte	.LVU981
 8674 1573 50040000 		.4byte	.Ldebug_ranges0+0x450
 8675 1577 01       		.byte	0x1
 8676 1578 E302     		.2byte	0x2e3
 8677 157a 04       		.byte	0x4
 8678 157b 30       		.uleb128 0x30
 8679 157c C2180000 		.4byte	0x18c2
 8680 1580 30       		.uleb128 0x30
 8681 1581 B5180000 		.4byte	0x18b5
 8682 1585 31       		.uleb128 0x31
 8683 1586 A8180000 		.4byte	0x18a8
 8684 158a 74140000 		.4byte	.LLST135
 8685 158e 6A140000 		.4byte	.LVUS135
 8686 1592 30       		.uleb128 0x30
 8687 1593 9B180000 		.4byte	0x189b
 8688 1597 36       		.uleb128 0x36
 8689 1598 50040000 		.4byte	.Ldebug_ranges0+0x450
 8690 159c 33       		.uleb128 0x33
 8691 159d CF180000 		.4byte	0x18cf
 8692 15a1 BD140000 		.4byte	.LLST136
 8693 15a5 B3140000 		.4byte	.LVUS136
 8694 15a9 33       		.uleb128 0x33
 8695 15aa DA180000 		.4byte	0x18da
 8696 15ae 01150000 		.4byte	.LLST137
 8697 15b2 FD140000 		.4byte	.LVUS137
 8698 15b6 33       		.uleb128 0x33
 8699 15b7 E7180000 		.4byte	0x18e7
 8700 15bb 29150000 		.4byte	.LLST138
 8701 15bf 21150000 		.4byte	.LVUS138
 8702 15c3 34       		.uleb128 0x34
 8703 15c4 F4180000 		.4byte	0x18f4
 8704 15c8 78040000 		.4byte	.Ldebug_ranges0+0x478
 8705 15cc 33       		.uleb128 0x33
 8706 15cd F5180000 		.4byte	0x18f5
 8707 15d1 87150000 		.4byte	.LLST139
 8708 15d5 71150000 		.4byte	.LVUS139
 8709 15d9 33       		.uleb128 0x33
 8710 15da 02190000 		.4byte	0x1902
 8711 15de 2E160000 		.4byte	.LLST140
 8712 15e2 24160000 		.4byte	.LVUS140
 8713 15e6 33       		.uleb128 0x33
 8714 15e7 0E190000 		.4byte	0x190e
 8715 15eb 7C160000 		.4byte	.LLST141
 8716 15ef 72160000 		.4byte	.LVUS141
 8717 15f3 33       		.uleb128 0x33
 8718 15f4 1A190000 		.4byte	0x191a
 8719 15f8 CC160000 		.4byte	.LLST142
 8720 15fc C0160000 		.4byte	.LVUS142
 8721 1600 33       		.uleb128 0x33
ARM GAS  /var/folders/cs/83z6p2tj4w57s6p2rt8nwfp00000gn/T//cc3yBana.s 			page 192


 8722 1601 26190000 		.4byte	0x1926
 8723 1605 26170000 		.4byte	.LLST143
 8724 1609 1C170000 		.4byte	.LVUS143
 8725 160d 33       		.uleb128 0x33
 8726 160e 32190000 		.4byte	0x1932
 8727 1612 74170000 		.4byte	.LLST144
 8728 1616 6A170000 		.4byte	.LVUS144
 8729 161a 33       		.uleb128 0x33
 8730 161b 3E190000 		.4byte	0x193e
 8731 161f C4170000 		.4byte	.LLST145
 8732 1623 B8170000 		.4byte	.LVUS145
 8733 1627 33       		.uleb128 0x33
 8734 1628 4A190000 		.4byte	0x194a
 8735 162c 18180000 		.4byte	.LLST146
 8736 1630 14180000 		.4byte	.LVUS146
 8737 1634 33       		.uleb128 0x33
 8738 1635 56190000 		.4byte	0x1956
 8739 1639 48180000 		.4byte	.LLST147
 8740 163d 3C180000 		.4byte	.LVUS147
 8741 1641 32       		.uleb128 0x32
 8742 1642 62190000 		.4byte	0x1962
 8743 1646 B8040000 		.4byte	.Ldebug_ranges0+0x4b8
 8744 164a 5C160000 		.4byte	0x165c
 8745 164e 33       		.uleb128 0x33
 8746 164f 63190000 		.4byte	0x1963
 8747 1653 9C180000 		.4byte	.LLST148
 8748 1657 98180000 		.4byte	.LVUS148
 8749 165b 00       		.byte	0
 8750 165c 28       		.uleb128 0x28
 8751 165d 62020000 		.4byte	.LVL252
 8752 1661 A52A0000 		.4byte	0x2aa5
 8753 1665 87160000 		.4byte	0x1687
 8754 1669 29       		.uleb128 0x29
 8755 166a 01       		.byte	0x1
 8756 166b 50       		.byte	0x50
 8757 166c 02       		.byte	0x2
 8758 166d 7B       		.byte	0x7b
 8759 166e 00       		.sleb128 0
 8760 166f 29       		.uleb128 0x29
 8761 1670 01       		.byte	0x1
 8762 1671 51       		.byte	0x51
 8763 1672 02       		.byte	0x2
 8764 1673 79       		.byte	0x79
 8765 1674 00       		.sleb128 0
 8766 1675 29       		.uleb128 0x29
 8767 1676 02       		.byte	0x2
 8768 1677 7D       		.byte	0x7d
 8769 1678 00       		.sleb128 0
 8770 1679 02       		.byte	0x2
 8771 167a 7A       		.byte	0x7a
 8772 167b 00       		.sleb128 0
 8773 167c 29       		.uleb128 0x29
 8774 167d 02       		.byte	0x2
 8775 167e 7D       		.byte	0x7d
 8776 167f 04       		.sleb128 4
 8777 1680 05       		.byte	0x5
 8778 1681 03       		.byte	0x3
ARM GAS  /var/folders/cs/83z6p2tj4w57s6p2rt8nwfp00000gn/T//cc3yBana.s 			page 193


 8779 1682 00010000 		.4byte	.LANCHOR0+256
 8780 1686 00       		.byte	0
 8781 1687 28       		.uleb128 0x28
 8782 1688 76020000 		.4byte	.LVL253
 8783 168c A52A0000 		.4byte	0x2aa5
 8784 1690 B2160000 		.4byte	0x16b2
 8785 1694 29       		.uleb128 0x29
 8786 1695 01       		.byte	0x1
 8787 1696 50       		.byte	0x50
 8788 1697 02       		.byte	0x2
 8789 1698 7B       		.byte	0x7b
 8790 1699 00       		.sleb128 0
 8791 169a 29       		.uleb128 0x29
 8792 169b 01       		.byte	0x1
 8793 169c 51       		.byte	0x51
 8794 169d 02       		.byte	0x2
 8795 169e 79       		.byte	0x79
 8796 169f 00       		.sleb128 0
 8797 16a0 29       		.uleb128 0x29
 8798 16a1 02       		.byte	0x2
 8799 16a2 7D       		.byte	0x7d
 8800 16a3 00       		.sleb128 0
 8801 16a4 02       		.byte	0x2
 8802 16a5 7A       		.byte	0x7a
 8803 16a6 00       		.sleb128 0
 8804 16a7 29       		.uleb128 0x29
 8805 16a8 02       		.byte	0x2
 8806 16a9 7D       		.byte	0x7d
 8807 16aa 04       		.sleb128 4
 8808 16ab 05       		.byte	0x5
 8809 16ac 03       		.byte	0x3
 8810 16ad 00010000 		.4byte	.LANCHOR0+256
 8811 16b1 00       		.byte	0
 8812 16b2 28       		.uleb128 0x28
 8813 16b3 90020000 		.4byte	.LVL254
 8814 16b7 A52A0000 		.4byte	0x2aa5
 8815 16bb DD160000 		.4byte	0x16dd
 8816 16bf 29       		.uleb128 0x29
 8817 16c0 01       		.byte	0x1
 8818 16c1 50       		.byte	0x50
 8819 16c2 02       		.byte	0x2
 8820 16c3 7B       		.byte	0x7b
 8821 16c4 00       		.sleb128 0
 8822 16c5 29       		.uleb128 0x29
 8823 16c6 01       		.byte	0x1
 8824 16c7 51       		.byte	0x51
 8825 16c8 02       		.byte	0x2
 8826 16c9 79       		.byte	0x79
 8827 16ca 00       		.sleb128 0
 8828 16cb 29       		.uleb128 0x29
 8829 16cc 02       		.byte	0x2
 8830 16cd 7D       		.byte	0x7d
 8831 16ce 00       		.sleb128 0
 8832 16cf 02       		.byte	0x2
 8833 16d0 7A       		.byte	0x7a
 8834 16d1 00       		.sleb128 0
 8835 16d2 29       		.uleb128 0x29
ARM GAS  /var/folders/cs/83z6p2tj4w57s6p2rt8nwfp00000gn/T//cc3yBana.s 			page 194


 8836 16d3 02       		.byte	0x2
 8837 16d4 7D       		.byte	0x7d
 8838 16d5 04       		.sleb128 4
 8839 16d6 05       		.byte	0x5
 8840 16d7 03       		.byte	0x3
 8841 16d8 00010000 		.4byte	.LANCHOR0+256
 8842 16dc 00       		.byte	0
 8843 16dd 28       		.uleb128 0x28
 8844 16de A4020000 		.4byte	.LVL255
 8845 16e2 A52A0000 		.4byte	0x2aa5
 8846 16e6 08170000 		.4byte	0x1708
 8847 16ea 29       		.uleb128 0x29
 8848 16eb 01       		.byte	0x1
 8849 16ec 50       		.byte	0x50
 8850 16ed 02       		.byte	0x2
 8851 16ee 7B       		.byte	0x7b
 8852 16ef 00       		.sleb128 0
 8853 16f0 29       		.uleb128 0x29
 8854 16f1 01       		.byte	0x1
 8855 16f2 51       		.byte	0x51
 8856 16f3 02       		.byte	0x2
 8857 16f4 79       		.byte	0x79
 8858 16f5 00       		.sleb128 0
 8859 16f6 29       		.uleb128 0x29
 8860 16f7 02       		.byte	0x2
 8861 16f8 7D       		.byte	0x7d
 8862 16f9 00       		.sleb128 0
 8863 16fa 02       		.byte	0x2
 8864 16fb 7A       		.byte	0x7a
 8865 16fc 00       		.sleb128 0
 8866 16fd 29       		.uleb128 0x29
 8867 16fe 02       		.byte	0x2
 8868 16ff 7D       		.byte	0x7d
 8869 1700 04       		.sleb128 4
 8870 1701 05       		.byte	0x5
 8871 1702 03       		.byte	0x3
 8872 1703 00010000 		.4byte	.LANCHOR0+256
 8873 1707 00       		.byte	0
 8874 1708 2A       		.uleb128 0x2a
 8875 1709 48050000 		.4byte	.LVL301
 8876 170d B32A0000 		.4byte	0x2ab3
 8877 1711 28       		.uleb128 0x28
 8878 1712 5C050000 		.4byte	.LVL302
 8879 1716 B32A0000 		.4byte	0x2ab3
 8880 171a 3C170000 		.4byte	0x173c
 8881 171e 29       		.uleb128 0x29
 8882 171f 01       		.byte	0x1
 8883 1720 50       		.byte	0x50
 8884 1721 02       		.byte	0x2
 8885 1722 7B       		.byte	0x7b
 8886 1723 00       		.sleb128 0
 8887 1724 29       		.uleb128 0x29
 8888 1725 01       		.byte	0x1
 8889 1726 51       		.byte	0x51
 8890 1727 02       		.byte	0x2
 8891 1728 79       		.byte	0x79
 8892 1729 00       		.sleb128 0
ARM GAS  /var/folders/cs/83z6p2tj4w57s6p2rt8nwfp00000gn/T//cc3yBana.s 			page 195


 8893 172a 29       		.uleb128 0x29
 8894 172b 02       		.byte	0x2
 8895 172c 7D       		.byte	0x7d
 8896 172d 00       		.sleb128 0
 8897 172e 02       		.byte	0x2
 8898 172f 7A       		.byte	0x7a
 8899 1730 00       		.sleb128 0
 8900 1731 29       		.uleb128 0x29
 8901 1732 02       		.byte	0x2
 8902 1733 7D       		.byte	0x7d
 8903 1734 04       		.sleb128 4
 8904 1735 05       		.byte	0x5
 8905 1736 03       		.byte	0x3
 8906 1737 00010000 		.4byte	.LANCHOR0+256
 8907 173b 00       		.byte	0
 8908 173c 28       		.uleb128 0x28
 8909 173d 76050000 		.4byte	.LVL303
 8910 1741 B32A0000 		.4byte	0x2ab3
 8911 1745 67170000 		.4byte	0x1767
 8912 1749 29       		.uleb128 0x29
 8913 174a 01       		.byte	0x1
 8914 174b 50       		.byte	0x50
 8915 174c 02       		.byte	0x2
 8916 174d 7B       		.byte	0x7b
 8917 174e 00       		.sleb128 0
 8918 174f 29       		.uleb128 0x29
 8919 1750 01       		.byte	0x1
 8920 1751 51       		.byte	0x51
 8921 1752 02       		.byte	0x2
 8922 1753 79       		.byte	0x79
 8923 1754 00       		.sleb128 0
 8924 1755 29       		.uleb128 0x29
 8925 1756 02       		.byte	0x2
 8926 1757 7D       		.byte	0x7d
 8927 1758 00       		.sleb128 0
 8928 1759 02       		.byte	0x2
 8929 175a 7A       		.byte	0x7a
 8930 175b 00       		.sleb128 0
 8931 175c 29       		.uleb128 0x29
 8932 175d 02       		.byte	0x2
 8933 175e 7D       		.byte	0x7d
 8934 175f 04       		.sleb128 4
 8935 1760 05       		.byte	0x5
 8936 1761 03       		.byte	0x3
 8937 1762 00010000 		.4byte	.LANCHOR0+256
 8938 1766 00       		.byte	0
 8939 1767 28       		.uleb128 0x28
 8940 1768 8A050000 		.4byte	.LVL304
 8941 176c B32A0000 		.4byte	0x2ab3
 8942 1770 92170000 		.4byte	0x1792
 8943 1774 29       		.uleb128 0x29
 8944 1775 01       		.byte	0x1
 8945 1776 50       		.byte	0x50
 8946 1777 02       		.byte	0x2
 8947 1778 7B       		.byte	0x7b
 8948 1779 00       		.sleb128 0
 8949 177a 29       		.uleb128 0x29
ARM GAS  /var/folders/cs/83z6p2tj4w57s6p2rt8nwfp00000gn/T//cc3yBana.s 			page 196


 8950 177b 01       		.byte	0x1
 8951 177c 51       		.byte	0x51
 8952 177d 02       		.byte	0x2
 8953 177e 79       		.byte	0x79
 8954 177f 00       		.sleb128 0
 8955 1780 29       		.uleb128 0x29
 8956 1781 02       		.byte	0x2
 8957 1782 7D       		.byte	0x7d
 8958 1783 00       		.sleb128 0
 8959 1784 02       		.byte	0x2
 8960 1785 7A       		.byte	0x7a
 8961 1786 00       		.sleb128 0
 8962 1787 29       		.uleb128 0x29
 8963 1788 02       		.byte	0x2
 8964 1789 7D       		.byte	0x7d
 8965 178a 04       		.sleb128 4
 8966 178b 05       		.byte	0x5
 8967 178c 03       		.byte	0x3
 8968 178d 00010000 		.4byte	.LANCHOR0+256
 8969 1791 00       		.byte	0
 8970 1792 28       		.uleb128 0x28
 8971 1793 D8070000 		.4byte	.LVL353
 8972 1797 A52A0000 		.4byte	0x2aa5
 8973 179b BA170000 		.4byte	0x17ba
 8974 179f 29       		.uleb128 0x29
 8975 17a0 01       		.byte	0x1
 8976 17a1 50       		.byte	0x50
 8977 17a2 02       		.byte	0x2
 8978 17a3 7B       		.byte	0x7b
 8979 17a4 00       		.sleb128 0
 8980 17a5 29       		.uleb128 0x29
 8981 17a6 01       		.byte	0x1
 8982 17a7 51       		.byte	0x51
 8983 17a8 02       		.byte	0x2
 8984 17a9 79       		.byte	0x79
 8985 17aa 00       		.sleb128 0
 8986 17ab 29       		.uleb128 0x29
 8987 17ac 02       		.byte	0x2
 8988 17ad 7D       		.byte	0x7d
 8989 17ae 00       		.sleb128 0
 8990 17af 02       		.byte	0x2
 8991 17b0 7A       		.byte	0x7a
 8992 17b1 00       		.sleb128 0
 8993 17b2 29       		.uleb128 0x29
 8994 17b3 02       		.byte	0x2
 8995 17b4 7D       		.byte	0x7d
 8996 17b5 04       		.sleb128 4
 8997 17b6 02       		.byte	0x2
 8998 17b7 74       		.byte	0x74
 8999 17b8 00       		.sleb128 0
 9000 17b9 00       		.byte	0
 9001 17ba 39       		.uleb128 0x39
 9002 17bb F2070000 		.4byte	.LVL356
 9003 17bf B32A0000 		.4byte	0x2ab3
 9004 17c3 29       		.uleb128 0x29
 9005 17c4 01       		.byte	0x1
 9006 17c5 50       		.byte	0x50
ARM GAS  /var/folders/cs/83z6p2tj4w57s6p2rt8nwfp00000gn/T//cc3yBana.s 			page 197


 9007 17c6 02       		.byte	0x2
 9008 17c7 7B       		.byte	0x7b
 9009 17c8 00       		.sleb128 0
 9010 17c9 29       		.uleb128 0x29
 9011 17ca 01       		.byte	0x1
 9012 17cb 51       		.byte	0x51
 9013 17cc 02       		.byte	0x2
 9014 17cd 79       		.byte	0x79
 9015 17ce 00       		.sleb128 0
 9016 17cf 29       		.uleb128 0x29
 9017 17d0 02       		.byte	0x2
 9018 17d1 7D       		.byte	0x7d
 9019 17d2 00       		.sleb128 0
 9020 17d3 02       		.byte	0x2
 9021 17d4 7A       		.byte	0x7a
 9022 17d5 00       		.sleb128 0
 9023 17d6 29       		.uleb128 0x29
 9024 17d7 02       		.byte	0x2
 9025 17d8 7D       		.byte	0x7d
 9026 17d9 04       		.sleb128 4
 9027 17da 02       		.byte	0x2
 9028 17db 74       		.byte	0x74
 9029 17dc 00       		.sleb128 0
 9030 17dd 00       		.byte	0
 9031 17de 00       		.byte	0
 9032 17df 00       		.byte	0
 9033 17e0 00       		.byte	0
 9034 17e1 00       		.byte	0
 9035 17e2 28       		.uleb128 0x28
 9036 17e3 16000000 		.4byte	.LVL208
 9037 17e7 EC1D0000 		.4byte	0x1dec
 9038 17eb 02180000 		.4byte	0x1802
 9039 17ef 29       		.uleb128 0x29
 9040 17f0 01       		.byte	0x1
 9041 17f1 50       		.byte	0x50
 9042 17f2 02       		.byte	0x2
 9043 17f3 79       		.byte	0x79
 9044 17f4 00       		.sleb128 0
 9045 17f5 29       		.uleb128 0x29
 9046 17f6 01       		.byte	0x1
 9047 17f7 51       		.byte	0x51
 9048 17f8 03       		.byte	0x3
 9049 17f9 F3       		.byte	0xf3
 9050 17fa 01       		.uleb128 0x1
 9051 17fb 51       		.byte	0x51
 9052 17fc 29       		.uleb128 0x29
 9053 17fd 01       		.byte	0x1
 9054 17fe 52       		.byte	0x52
 9055 17ff 01       		.byte	0x1
 9056 1800 30       		.byte	0x30
 9057 1801 00       		.byte	0
 9058 1802 39       		.uleb128 0x39
 9059 1803 C6080000 		.4byte	.LVL372
 9060 1807 C12A0000 		.4byte	0x2ac1
 9061 180b 29       		.uleb128 0x29
 9062 180c 01       		.byte	0x1
 9063 180d 51       		.byte	0x51
ARM GAS  /var/folders/cs/83z6p2tj4w57s6p2rt8nwfp00000gn/T//cc3yBana.s 			page 198


 9064 180e 04       		.byte	0x4
 9065 180f 91       		.byte	0x91
 9066 1810 B47F     		.sleb128 -76
 9067 1812 06       		.byte	0x6
 9068 1813 29       		.uleb128 0x29
 9069 1814 01       		.byte	0x1
 9070 1815 52       		.byte	0x52
 9071 1816 01       		.byte	0x1
 9072 1817 34       		.byte	0x34
 9073 1818 29       		.uleb128 0x29
 9074 1819 01       		.byte	0x1
 9075 181a 53       		.byte	0x53
 9076 181b 05       		.byte	0x5
 9077 181c 03       		.byte	0x3
 9078 181d 00000000 		.4byte	compareZ
 9079 1821 00       		.byte	0
 9080 1822 00       		.byte	0
 9081 1823 3A       		.uleb128 0x3a
 9082 1824 B3010000 		.4byte	.LASF213
 9083 1828 01       		.byte	0x1
 9084 1829 C402     		.2byte	0x2c4
 9085 182b 0C       		.byte	0xc
 9086 182c 01       		.byte	0x1
 9087 182d 30000000 		.4byte	0x30
 9088 1831 00000000 		.4byte	.LFB37
 9089 1835 1C000000 		.4byte	.LFE37
 9090 1839 02       		.byte	0x2
 9091 183a 7D       		.byte	0x7d
 9092 183b 00       		.sleb128 0
 9093 183c 01       		.byte	0x1
 9094 183d 8C180000 		.4byte	0x188c
 9095 1841 3B       		.uleb128 0x3b
 9096 1842 6100     		.ascii	"a\000"
 9097 1844 01       		.byte	0x1
 9098 1845 C402     		.2byte	0x2c4
 9099 1847 21       		.byte	0x21
 9100 1848 230A0000 		.4byte	0xa23
 9101 184c C0180000 		.4byte	.LLST7
 9102 1850 BC180000 		.4byte	.LVUS7
 9103 1854 3C       		.uleb128 0x3c
 9104 1855 6200     		.ascii	"b\000"
 9105 1857 01       		.byte	0x1
 9106 1858 C402     		.2byte	0x2c4
 9107 185a 30       		.byte	0x30
 9108 185b 230A0000 		.4byte	0xa23
 9109 185f 01       		.byte	0x1
 9110 1860 51       		.byte	0x51
 9111 1861 2C       		.uleb128 0x2c
 9112 1862 5F0C0000 		.4byte	.LASF199
 9113 1866 01       		.byte	0x1
 9114 1867 C602     		.2byte	0x2c6
 9115 1869 11       		.byte	0x11
 9116 186a 810F0000 		.4byte	0xf81
 9117 186e E5180000 		.4byte	.LLST8
 9118 1872 E1180000 		.4byte	.LVUS8
 9119 1876 2C       		.uleb128 0x2c
 9120 1877 76090000 		.4byte	.LASF200
ARM GAS  /var/folders/cs/83z6p2tj4w57s6p2rt8nwfp00000gn/T//cc3yBana.s 			page 199


 9121 187b 01       		.byte	0x1
 9122 187c C702     		.2byte	0x2c7
 9123 187e 11       		.byte	0x11
 9124 187f 810F0000 		.4byte	0xf81
 9125 1883 06190000 		.4byte	.LLST9
 9126 1887 04190000 		.4byte	.LVUS9
 9127 188b 00       		.byte	0
 9128 188c 3D       		.uleb128 0x3d
 9129 188d 7D090000 		.4byte	.LASF203
 9130 1891 01       		.byte	0x1
 9131 1892 7302     		.2byte	0x273
 9132 1894 01       		.byte	0x1
 9133 1895 01       		.byte	0x1
 9134 1896 03       		.byte	0x3
 9135 1897 71190000 		.4byte	0x1971
 9136 189b 3E       		.uleb128 0x3e
 9137 189c 70020000 		.4byte	.LASF187
 9138 18a0 01       		.byte	0x1
 9139 18a1 7302     		.2byte	0x273
 9140 18a3 18       		.byte	0x18
 9141 18a4 1C110000 		.4byte	0x111c
 9142 18a8 3E       		.uleb128 0x3e
 9143 18a9 4D070000 		.4byte	.LASF197
 9144 18ad 01       		.byte	0x1
 9145 18ae 7302     		.2byte	0x273
 9146 18b0 2E       		.byte	0x2e
 9147 18b1 810F0000 		.4byte	0xf81
 9148 18b5 3E       		.uleb128 0x3e
 9149 18b6 21090000 		.4byte	.LASF188
 9150 18ba 01       		.byte	0x1
 9151 18bb 7302     		.2byte	0x273
 9152 18bd 3E       		.byte	0x3e
 9153 18be 22110000 		.4byte	0x1122
 9154 18c2 3E       		.uleb128 0x3e
 9155 18c3 60070000 		.4byte	.LASF189
 9156 18c7 01       		.byte	0x1
 9157 18c8 7302     		.2byte	0x273
 9158 18ca 4A       		.byte	0x4a
 9159 18cb 30000000 		.4byte	0x30
 9160 18cf 3F       		.uleb128 0x3f
 9161 18d0 6600     		.ascii	"f\000"
 9162 18d2 01       		.byte	0x1
 9163 18d3 7502     		.2byte	0x275
 9164 18d5 06       		.byte	0x6
 9165 18d6 30000000 		.4byte	0x30
 9166 18da 40       		.uleb128 0x40
 9167 18db 69090000 		.4byte	.LASF198
 9168 18df 01       		.byte	0x1
 9169 18e0 7602     		.2byte	0x276
 9170 18e2 0E       		.byte	0xe
 9171 18e3 880D0000 		.4byte	0xd88
 9172 18e7 40       		.uleb128 0x40
 9173 18e8 C1020000 		.4byte	.LASF201
 9174 18ec 01       		.byte	0x1
 9175 18ed 7702     		.2byte	0x277
 9176 18ef 0B       		.byte	0xb
 9177 18f0 22110000 		.4byte	0x1122
ARM GAS  /var/folders/cs/83z6p2tj4w57s6p2rt8nwfp00000gn/T//cc3yBana.s 			page 200


 9178 18f4 41       		.uleb128 0x41
 9179 18f5 40       		.uleb128 0x40
 9180 18f6 D7040000 		.4byte	.LASF202
 9181 18fa 01       		.byte	0x1
 9182 18fb 7B02     		.2byte	0x27b
 9183 18fd 11       		.byte	0x11
 9184 18fe 860E0000 		.4byte	0xe86
 9185 1902 3F       		.uleb128 0x3f
 9186 1903 783100   		.ascii	"x1\000"
 9187 1906 01       		.byte	0x1
 9188 1907 8202     		.2byte	0x282
 9189 1909 09       		.byte	0x9
 9190 190a 29000000 		.4byte	0x29
 9191 190e 3F       		.uleb128 0x3f
 9192 190f 793100   		.ascii	"y1\000"
 9193 1912 01       		.byte	0x1
 9194 1913 8302     		.2byte	0x283
 9195 1915 09       		.byte	0x9
 9196 1916 29000000 		.4byte	0x29
 9197 191a 3F       		.uleb128 0x3f
 9198 191b 783200   		.ascii	"x2\000"
 9199 191e 01       		.byte	0x1
 9200 191f 8402     		.2byte	0x284
 9201 1921 09       		.byte	0x9
 9202 1922 29000000 		.4byte	0x29
 9203 1926 3F       		.uleb128 0x3f
 9204 1927 793200   		.ascii	"y2\000"
 9205 192a 01       		.byte	0x1
 9206 192b 8502     		.2byte	0x285
 9207 192d 09       		.byte	0x9
 9208 192e 29000000 		.4byte	0x29
 9209 1932 3F       		.uleb128 0x3f
 9210 1933 783300   		.ascii	"x3\000"
 9211 1936 01       		.byte	0x1
 9212 1937 8602     		.2byte	0x286
 9213 1939 09       		.byte	0x9
 9214 193a 29000000 		.4byte	0x29
 9215 193e 3F       		.uleb128 0x3f
 9216 193f 793300   		.ascii	"y3\000"
 9217 1942 01       		.byte	0x1
 9218 1943 8702     		.2byte	0x287
 9219 1945 09       		.byte	0x9
 9220 1946 29000000 		.4byte	0x29
 9221 194a 3F       		.uleb128 0x3f
 9222 194b 783400   		.ascii	"x4\000"
 9223 194e 01       		.byte	0x1
 9224 194f 8802     		.2byte	0x288
 9225 1951 09       		.byte	0x9
 9226 1952 29000000 		.4byte	0x29
 9227 1956 3F       		.uleb128 0x3f
 9228 1957 793400   		.ascii	"y4\000"
 9229 195a 01       		.byte	0x1
 9230 195b 8902     		.2byte	0x289
 9231 195d 09       		.byte	0x9
 9232 195e 29000000 		.4byte	0x29
 9233 1962 41       		.uleb128 0x41
 9234 1963 3F       		.uleb128 0x3f
ARM GAS  /var/folders/cs/83z6p2tj4w57s6p2rt8nwfp00000gn/T//cc3yBana.s 			page 201


 9235 1964 6400     		.ascii	"d\000"
 9236 1966 01       		.byte	0x1
 9237 1967 9502     		.2byte	0x295
 9238 1969 0A       		.byte	0xa
 9239 196a 29000000 		.4byte	0x29
 9240 196e 00       		.byte	0
 9241 196f 00       		.byte	0
 9242 1970 00       		.byte	0
 9243 1971 3D       		.uleb128 0x3d
 9244 1972 32060000 		.4byte	.LASF204
 9245 1976 01       		.byte	0x1
 9246 1977 5C02     		.2byte	0x25c
 9247 1979 01       		.byte	0x1
 9248 197a 01       		.byte	0x1
 9249 197b 03       		.byte	0x3
 9250 197c E2190000 		.4byte	0x19e2
 9251 1980 3E       		.uleb128 0x3e
 9252 1981 70020000 		.4byte	.LASF187
 9253 1985 01       		.byte	0x1
 9254 1986 5C02     		.2byte	0x25c
 9255 1988 1A       		.byte	0x1a
 9256 1989 1C110000 		.4byte	0x111c
 9257 198d 3E       		.uleb128 0x3e
 9258 198e 4D070000 		.4byte	.LASF197
 9259 1992 01       		.byte	0x1
 9260 1993 5C02     		.2byte	0x25c
 9261 1995 30       		.byte	0x30
 9262 1996 810F0000 		.4byte	0xf81
 9263 199a 3E       		.uleb128 0x3e
 9264 199b 21090000 		.4byte	.LASF188
 9265 199f 01       		.byte	0x1
 9266 19a0 5C02     		.2byte	0x25c
 9267 19a2 40       		.byte	0x40
 9268 19a3 22110000 		.4byte	0x1122
 9269 19a7 3E       		.uleb128 0x3e
 9270 19a8 60070000 		.4byte	.LASF189
 9271 19ac 01       		.byte	0x1
 9272 19ad 5C02     		.2byte	0x25c
 9273 19af 4C       		.byte	0x4c
 9274 19b0 30000000 		.4byte	0x30
 9275 19b4 42       		.uleb128 0x42
 9276 19b5 D4190000 		.4byte	0x19d4
 9277 19b9 3F       		.uleb128 0x3f
 9278 19ba 6900     		.ascii	"i\000"
 9279 19bc 01       		.byte	0x1
 9280 19bd 6102     		.2byte	0x261
 9281 19bf 0D       		.byte	0xd
 9282 19c0 30000000 		.4byte	0x30
 9283 19c4 41       		.uleb128 0x41
 9284 19c5 40       		.uleb128 0x40
 9285 19c6 D7040000 		.4byte	.LASF202
 9286 19ca 01       		.byte	0x1
 9287 19cb 6302     		.2byte	0x263
 9288 19cd 12       		.byte	0x12
 9289 19ce 860E0000 		.4byte	0xe86
 9290 19d2 00       		.byte	0
 9291 19d3 00       		.byte	0
ARM GAS  /var/folders/cs/83z6p2tj4w57s6p2rt8nwfp00000gn/T//cc3yBana.s 			page 202


 9292 19d4 41       		.uleb128 0x41
 9293 19d5 3F       		.uleb128 0x3f
 9294 19d6 6600     		.ascii	"f\000"
 9295 19d8 01       		.byte	0x1
 9296 19d9 6E02     		.2byte	0x26e
 9297 19db 0C       		.byte	0xc
 9298 19dc 30000000 		.4byte	0x30
 9299 19e0 00       		.byte	0
 9300 19e1 00       		.byte	0
 9301 19e2 3D       		.uleb128 0x3d
 9302 19e3 F0090000 		.4byte	.LASF205
 9303 19e7 01       		.byte	0x1
 9304 19e8 0102     		.2byte	0x201
 9305 19ea 01       		.byte	0x1
 9306 19eb 01       		.byte	0x1
 9307 19ec 03       		.byte	0x3
 9308 19ed B71A0000 		.4byte	0x1ab7
 9309 19f1 3E       		.uleb128 0x3e
 9310 19f2 70020000 		.4byte	.LASF187
 9311 19f6 01       		.byte	0x1
 9312 19f7 0102     		.2byte	0x201
 9313 19f9 18       		.byte	0x18
 9314 19fa 1C110000 		.4byte	0x111c
 9315 19fe 3E       		.uleb128 0x3e
 9316 19ff 4D070000 		.4byte	.LASF197
 9317 1a03 01       		.byte	0x1
 9318 1a04 0102     		.2byte	0x201
 9319 1a06 2E       		.byte	0x2e
 9320 1a07 810F0000 		.4byte	0xf81
 9321 1a0b 3E       		.uleb128 0x3e
 9322 1a0c 21090000 		.4byte	.LASF188
 9323 1a10 01       		.byte	0x1
 9324 1a11 0102     		.2byte	0x201
 9325 1a13 3E       		.byte	0x3e
 9326 1a14 22110000 		.4byte	0x1122
 9327 1a18 3E       		.uleb128 0x3e
 9328 1a19 60070000 		.4byte	.LASF189
 9329 1a1d 01       		.byte	0x1
 9330 1a1e 0102     		.2byte	0x201
 9331 1a20 4A       		.byte	0x4a
 9332 1a21 30000000 		.4byte	0x30
 9333 1a25 3E       		.uleb128 0x3e
 9334 1a26 D7040000 		.4byte	.LASF202
 9335 1a2a 01       		.byte	0x1
 9336 1a2b 0102     		.2byte	0x201
 9337 1a2d 63       		.byte	0x63
 9338 1a2e 860E0000 		.4byte	0xe86
 9339 1a32 3F       		.uleb128 0x3f
 9340 1a33 783100   		.ascii	"x1\000"
 9341 1a36 01       		.byte	0x1
 9342 1a37 0802     		.2byte	0x208
 9343 1a39 08       		.byte	0x8
 9344 1a3a 29000000 		.4byte	0x29
 9345 1a3e 3F       		.uleb128 0x3f
 9346 1a3f 793100   		.ascii	"y1\000"
 9347 1a42 01       		.byte	0x1
 9348 1a43 0902     		.2byte	0x209
ARM GAS  /var/folders/cs/83z6p2tj4w57s6p2rt8nwfp00000gn/T//cc3yBana.s 			page 203


 9349 1a45 08       		.byte	0x8
 9350 1a46 29000000 		.4byte	0x29
 9351 1a4a 3F       		.uleb128 0x3f
 9352 1a4b 783200   		.ascii	"x2\000"
 9353 1a4e 01       		.byte	0x1
 9354 1a4f 0A02     		.2byte	0x20a
 9355 1a51 08       		.byte	0x8
 9356 1a52 29000000 		.4byte	0x29
 9357 1a56 3F       		.uleb128 0x3f
 9358 1a57 793200   		.ascii	"y2\000"
 9359 1a5a 01       		.byte	0x1
 9360 1a5b 0B02     		.2byte	0x20b
 9361 1a5d 08       		.byte	0x8
 9362 1a5e 29000000 		.4byte	0x29
 9363 1a62 3F       		.uleb128 0x3f
 9364 1a63 783300   		.ascii	"x3\000"
 9365 1a66 01       		.byte	0x1
 9366 1a67 0C02     		.2byte	0x20c
 9367 1a69 08       		.byte	0x8
 9368 1a6a 29000000 		.4byte	0x29
 9369 1a6e 3F       		.uleb128 0x3f
 9370 1a6f 793300   		.ascii	"y3\000"
 9371 1a72 01       		.byte	0x1
 9372 1a73 0D02     		.2byte	0x20d
 9373 1a75 08       		.byte	0x8
 9374 1a76 29000000 		.4byte	0x29
 9375 1a7a 3F       		.uleb128 0x3f
 9376 1a7b 6300     		.ascii	"c\000"
 9377 1a7d 01       		.byte	0x1
 9378 1a7e 2802     		.2byte	0x228
 9379 1a80 08       		.byte	0x8
 9380 1a81 29000000 		.4byte	0x29
 9381 1a85 3F       		.uleb128 0x3f
 9382 1a86 7600     		.ascii	"v\000"
 9383 1a88 01       		.byte	0x1
 9384 1a89 2902     		.2byte	0x229
 9385 1a8b 08       		.byte	0x8
 9386 1a8c 29000000 		.4byte	0x29
 9387 1a90 3F       		.uleb128 0x3f
 9388 1a91 766900   		.ascii	"vi\000"
 9389 1a94 01       		.byte	0x1
 9390 1a95 3F02     		.2byte	0x23f
 9391 1a97 06       		.byte	0x6
 9392 1a98 30000000 		.4byte	0x30
 9393 1a9c 40       		.uleb128 0x40
 9394 1a9d 28090000 		.4byte	.LASF206
 9395 1aa1 01       		.byte	0x1
 9396 1aa2 4602     		.2byte	0x246
 9397 1aa4 0B       		.byte	0xb
 9398 1aa5 22110000 		.4byte	0x1122
 9399 1aa9 41       		.uleb128 0x41
 9400 1aaa 3F       		.uleb128 0x3f
 9401 1aab 6400     		.ascii	"d\000"
 9402 1aad 01       		.byte	0x1
 9403 1aae 1B02     		.2byte	0x21b
 9404 1ab0 09       		.byte	0x9
 9405 1ab1 29000000 		.4byte	0x29
ARM GAS  /var/folders/cs/83z6p2tj4w57s6p2rt8nwfp00000gn/T//cc3yBana.s 			page 204


 9406 1ab5 00       		.byte	0
 9407 1ab6 00       		.byte	0
 9408 1ab7 26       		.uleb128 0x26
 9409 1ab8 01       		.byte	0x1
 9410 1ab9 3D040000 		.4byte	.LASF207
 9411 1abd 01       		.byte	0x1
 9412 1abe A601     		.2byte	0x1a6
 9413 1ac0 01       		.byte	0x1
 9414 1ac1 01       		.byte	0x1
 9415 1ac2 00000000 		.4byte	.LFB33
 9416 1ac6 CC020000 		.4byte	.LFE33
 9417 1aca 1A190000 		.4byte	.LLST70
 9418 1ace 01       		.byte	0x1
 9419 1acf EC1D0000 		.4byte	0x1dec
 9420 1ad3 27       		.uleb128 0x27
 9421 1ad4 70020000 		.4byte	.LASF187
 9422 1ad8 01       		.byte	0x1
 9423 1ad9 A601     		.2byte	0x1a6
 9424 1adb 1C       		.byte	0x1c
 9425 1adc 1C110000 		.4byte	0x111c
 9426 1ae0 73190000 		.4byte	.LLST71
 9427 1ae4 6D190000 		.4byte	.LVUS71
 9428 1ae8 27       		.uleb128 0x27
 9429 1ae9 46030000 		.4byte	.LASF208
 9430 1aed 01       		.byte	0x1
 9431 1aee A601     		.2byte	0x1a6
 9432 1af0 2B       		.byte	0x2b
 9433 1af1 C30A0000 		.4byte	0xac3
 9434 1af5 AB190000 		.4byte	.LLST72
 9435 1af9 9F190000 		.4byte	.LVUS72
 9436 1afd 43       		.uleb128 0x43
 9437 1afe 3D000000 		.4byte	.LASF209
 9438 1b02 01       		.byte	0x1
 9439 1b03 A601     		.2byte	0x1a6
 9440 1b05 3B       		.byte	0x3b
 9441 1b06 C30A0000 		.4byte	0xac3
 9442 1b0a 03       		.byte	0x3
 9443 1b0b 91       		.byte	0x91
 9444 1b0c 807E     		.sleb128 -256
 9445 1b0e 27       		.uleb128 0x27
 9446 1b0f 72050000 		.4byte	.LASF182
 9447 1b13 01       		.byte	0x1
 9448 1b14 A601     		.2byte	0x1a6
 9449 1b16 49       		.byte	0x49
 9450 1b17 29000000 		.4byte	0x29
 9451 1b1b 421A0000 		.4byte	.LLST73
 9452 1b1f 3E1A0000 		.4byte	.LVUS73
 9453 1b23 3B       		.uleb128 0x3b
 9454 1b24 757000   		.ascii	"up\000"
 9455 1b27 01       		.byte	0x1
 9456 1b28 A601     		.2byte	0x1a6
 9457 1b2a 59       		.byte	0x59
 9458 1b2b 030B0000 		.4byte	0xb03
 9459 1b2f 721A0000 		.4byte	.LLST74
 9460 1b33 661A0000 		.4byte	.LVUS74
 9461 1b37 2C       		.uleb128 0x2c
 9462 1b38 54010000 		.4byte	.LASF178
ARM GAS  /var/folders/cs/83z6p2tj4w57s6p2rt8nwfp00000gn/T//cc3yBana.s 			page 205


 9463 1b3c 01       		.byte	0x1
 9464 1b3d A801     		.2byte	0x1a8
 9465 1b3f 0B       		.byte	0xb
 9466 1b40 8A0B0000 		.4byte	0xb8a
 9467 1b44 021B0000 		.4byte	.LLST75
 9468 1b48 F01A0000 		.4byte	.LVUS75
 9469 1b4c 2D       		.uleb128 0x2d
 9470 1b4d 64697200 		.ascii	"dir\000"
 9471 1b51 01       		.byte	0x1
 9472 1b52 AF01     		.2byte	0x1af
 9473 1b54 0B       		.byte	0xb
 9474 1b55 030B0000 		.4byte	0xb03
 9475 1b59 BF1B0000 		.4byte	.LLST76
 9476 1b5d B51B0000 		.4byte	.LVUS76
 9477 1b61 2D       		.uleb128 0x2d
 9478 1b62 6C00     		.ascii	"l\000"
 9479 1b64 01       		.byte	0x1
 9480 1b65 B101     		.2byte	0x1b1
 9481 1b67 08       		.byte	0x8
 9482 1b68 29000000 		.4byte	0x29
 9483 1b6c 311C0000 		.4byte	.LLST77
 9484 1b70 2D1C0000 		.4byte	.LVUS77
 9485 1b74 2D       		.uleb128 0x2d
 9486 1b75 6800     		.ascii	"h\000"
 9487 1b77 01       		.byte	0x1
 9488 1b78 BB01     		.2byte	0x1bb
 9489 1b7a 08       		.byte	0x8
 9490 1b7b 29000000 		.4byte	0x29
 9491 1b7f 551C0000 		.4byte	.LLST78
 9492 1b83 511C0000 		.4byte	.LVUS78
 9493 1b87 25       		.uleb128 0x25
 9494 1b88 6A070000 		.4byte	.LASF211
 9495 1b8c 01       		.byte	0x1
 9496 1b8d C701     		.2byte	0x1c7
 9497 1b8f 0B       		.byte	0xb
 9498 1b90 8A0B0000 		.4byte	0xb8a
 9499 1b94 03       		.byte	0x3
 9500 1b95 91       		.byte	0x91
 9501 1b96 D07E     		.sleb128 -176
 9502 1b98 44       		.uleb128 0x44
 9503 1b99 BA000000 		.4byte	.LBB92
 9504 1b9d 68010000 		.4byte	.LBE92
 9505 1ba1 541C0000 		.4byte	0x1c54
 9506 1ba5 45       		.uleb128 0x45
 9507 1ba6 79617700 		.ascii	"yaw\000"
 9508 1baa 01       		.byte	0x1
 9509 1bab C101     		.2byte	0x1c1
 9510 1bad 0C       		.byte	0xc
 9511 1bae 8A0B0000 		.4byte	0xb8a
 9512 1bb2 03       		.byte	0x3
 9513 1bb3 91       		.byte	0x91
 9514 1bb4 847F     		.sleb128 -124
 9515 1bb6 2F       		.uleb128 0x2f
 9516 1bb7 88290000 		.4byte	0x2988
 9517 1bbb D4000000 		.4byte	.LBI93
 9518 1bbf 0000     		.2byte	.LVU715
 9519 1bc1 B8010000 		.4byte	.Ldebug_ranges0+0x1b8
ARM GAS  /var/folders/cs/83z6p2tj4w57s6p2rt8nwfp00000gn/T//cc3yBana.s 			page 206


 9520 1bc5 01       		.byte	0x1
 9521 1bc6 BF01     		.2byte	0x1bf
 9522 1bc8 07       		.byte	0x7
 9523 1bc9 EE1B0000 		.4byte	0x1bee
 9524 1bcd 31       		.uleb128 0x31
 9525 1bce 9A290000 		.4byte	0x299a
 9526 1bd2 7B1C0000 		.4byte	.LLST81
 9527 1bd6 791C0000 		.4byte	.LVUS81
 9528 1bda 36       		.uleb128 0x36
 9529 1bdb B8010000 		.4byte	.Ldebug_ranges0+0x1b8
 9530 1bdf 33       		.uleb128 0x33
 9531 1be0 A4290000 		.4byte	0x29a4
 9532 1be4 911C0000 		.4byte	.LLST82
 9533 1be8 8F1C0000 		.4byte	.LVUS82
 9534 1bec 00       		.byte	0
 9535 1bed 00       		.byte	0
 9536 1bee 28       		.uleb128 0x28
 9537 1bef 02010000 		.4byte	.LVL179
 9538 1bf3 CF2A0000 		.4byte	0x2acf
 9539 1bf7 431C0000 		.4byte	0x1c43
 9540 1bfb 29       		.uleb128 0x29
 9541 1bfc 01       		.byte	0x1
 9542 1bfd 50       		.byte	0x50
 9543 1bfe 02       		.byte	0x2
 9544 1bff 74       		.byte	0x74
 9545 1c00 00       		.sleb128 0
 9546 1c01 29       		.uleb128 0x29
 9547 1c02 02       		.byte	0x2
 9548 1c03 90       		.byte	0x90
 9549 1c04 41       		.uleb128 0x41
 9550 1c05 07       		.byte	0x7
 9551 1c06 F4       		.byte	0xf4
 9552 1c07 29       		.uleb128 0x29
 9553 1c08 04       		.byte	0x4
 9554 1c09 00000000 		.4byte	0
 9555 1c0d 29       		.uleb128 0x29
 9556 1c0e 02       		.byte	0x2
 9557 1c0f 90       		.byte	0x90
 9558 1c10 43       		.uleb128 0x43
 9559 1c11 07       		.byte	0x7
 9560 1c12 F4       		.byte	0xf4
 9561 1c13 29       		.uleb128 0x29
 9562 1c14 04       		.byte	0x4
 9563 1c15 00000000 		.4byte	0
 9564 1c19 29       		.uleb128 0x29
 9565 1c1a 02       		.byte	0x2
 9566 1c1b 90       		.byte	0x90
 9567 1c1c 44       		.uleb128 0x44
 9568 1c1d 07       		.byte	0x7
 9569 1c1e F4       		.byte	0xf4
 9570 1c1f 29       		.uleb128 0x29
 9571 1c20 04       		.byte	0x4
 9572 1c21 0000803F 		.4byte	0x3f800000
 9573 1c25 29       		.uleb128 0x29
 9574 1c26 02       		.byte	0x2
 9575 1c27 90       		.byte	0x90
 9576 1c28 45       		.uleb128 0x45
ARM GAS  /var/folders/cs/83z6p2tj4w57s6p2rt8nwfp00000gn/T//cc3yBana.s 			page 207


 9577 1c29 07       		.byte	0x7
 9578 1c2a F4       		.byte	0xf4
 9579 1c2b 29       		.uleb128 0x29
 9580 1c2c 04       		.byte	0x4
 9581 1c2d 00000000 		.4byte	0
 9582 1c31 29       		.uleb128 0x29
 9583 1c32 02       		.byte	0x2
 9584 1c33 90       		.byte	0x90
 9585 1c34 47       		.uleb128 0x47
 9586 1c35 07       		.byte	0x7
 9587 1c36 F4       		.byte	0xf4
 9588 1c37 29       		.uleb128 0x29
 9589 1c38 04       		.byte	0x4
 9590 1c39 00000000 		.4byte	0
 9591 1c3d 29       		.uleb128 0x29
 9592 1c3e 01       		.byte	0x1
 9593 1c3f 51       		.byte	0x51
 9594 1c40 01       		.byte	0x1
 9595 1c41 30       		.byte	0x30
 9596 1c42 00       		.byte	0
 9597 1c43 39       		.uleb128 0x39
 9598 1c44 50010000 		.4byte	.LVL180
 9599 1c48 DD2A0000 		.4byte	0x2add
 9600 1c4c 29       		.uleb128 0x29
 9601 1c4d 01       		.byte	0x1
 9602 1c4e 50       		.byte	0x50
 9603 1c4f 02       		.byte	0x2
 9604 1c50 76       		.byte	0x76
 9605 1c51 00       		.sleb128 0
 9606 1c52 00       		.byte	0
 9607 1c53 00       		.byte	0
 9608 1c54 44       		.uleb128 0x44
 9609 1c55 22020000 		.4byte	.LBB97
 9610 1c59 AA020000 		.4byte	.LBE97
 9611 1c5d 101D0000 		.4byte	0x1d10
 9612 1c61 25       		.uleb128 0x25
 9613 1c62 B7040000 		.4byte	.LASF212
 9614 1c66 01       		.byte	0x1
 9615 1c67 CF01     		.2byte	0x1cf
 9616 1c69 0C       		.byte	0xc
 9617 1c6a 8A0B0000 		.4byte	0xb8a
 9618 1c6e 03       		.byte	0x3
 9619 1c6f 91       		.byte	0x91
 9620 1c70 847F     		.sleb128 -124
 9621 1c72 2F       		.uleb128 0x2f
 9622 1c73 88290000 		.4byte	0x2988
 9623 1c77 3A020000 		.4byte	.LBI98
 9624 1c7b 0000     		.2byte	.LVU758
 9625 1c7d D0010000 		.4byte	.Ldebug_ranges0+0x1d0
 9626 1c81 01       		.byte	0x1
 9627 1c82 CE01     		.2byte	0x1ce
 9628 1c84 07       		.byte	0x7
 9629 1c85 AA1C0000 		.4byte	0x1caa
 9630 1c89 31       		.uleb128 0x31
 9631 1c8a 9A290000 		.4byte	0x299a
 9632 1c8e A71C0000 		.4byte	.LLST83
 9633 1c92 A51C0000 		.4byte	.LVUS83
ARM GAS  /var/folders/cs/83z6p2tj4w57s6p2rt8nwfp00000gn/T//cc3yBana.s 			page 208


 9634 1c96 36       		.uleb128 0x36
 9635 1c97 D0010000 		.4byte	.Ldebug_ranges0+0x1d0
 9636 1c9b 33       		.uleb128 0x33
 9637 1c9c A4290000 		.4byte	0x29a4
 9638 1ca0 BD1C0000 		.4byte	.LLST84
 9639 1ca4 BB1C0000 		.4byte	.LVUS84
 9640 1ca8 00       		.byte	0
 9641 1ca9 00       		.byte	0
 9642 1caa 28       		.uleb128 0x28
 9643 1cab 62020000 		.4byte	.LVL192
 9644 1caf CF2A0000 		.4byte	0x2acf
 9645 1cb3 FF1C0000 		.4byte	0x1cff
 9646 1cb7 29       		.uleb128 0x29
 9647 1cb8 01       		.byte	0x1
 9648 1cb9 50       		.byte	0x50
 9649 1cba 02       		.byte	0x2
 9650 1cbb 75       		.byte	0x75
 9651 1cbc 00       		.sleb128 0
 9652 1cbd 29       		.uleb128 0x29
 9653 1cbe 02       		.byte	0x2
 9654 1cbf 90       		.byte	0x90
 9655 1cc0 42       		.uleb128 0x42
 9656 1cc1 07       		.byte	0x7
 9657 1cc2 F4       		.byte	0xf4
 9658 1cc3 29       		.uleb128 0x29
 9659 1cc4 04       		.byte	0x4
 9660 1cc5 00000000 		.4byte	0
 9661 1cc9 29       		.uleb128 0x29
 9662 1cca 02       		.byte	0x2
 9663 1ccb 90       		.byte	0x90
 9664 1ccc 45       		.uleb128 0x45
 9665 1ccd 07       		.byte	0x7
 9666 1cce F4       		.byte	0xf4
 9667 1ccf 29       		.uleb128 0x29
 9668 1cd0 04       		.byte	0x4
 9669 1cd1 00000000 		.4byte	0
 9670 1cd5 29       		.uleb128 0x29
 9671 1cd6 02       		.byte	0x2
 9672 1cd7 90       		.byte	0x90
 9673 1cd8 46       		.uleb128 0x46
 9674 1cd9 07       		.byte	0x7
 9675 1cda F4       		.byte	0xf4
 9676 1cdb 29       		.uleb128 0x29
 9677 1cdc 04       		.byte	0x4
 9678 1cdd 00000000 		.4byte	0
 9679 1ce1 29       		.uleb128 0x29
 9680 1ce2 02       		.byte	0x2
 9681 1ce3 90       		.byte	0x90
 9682 1ce4 47       		.uleb128 0x47
 9683 1ce5 07       		.byte	0x7
 9684 1ce6 F4       		.byte	0xf4
 9685 1ce7 29       		.uleb128 0x29
 9686 1ce8 04       		.byte	0x4
 9687 1ce9 00000000 		.4byte	0
 9688 1ced 29       		.uleb128 0x29
 9689 1cee 02       		.byte	0x2
 9690 1cef 90       		.byte	0x90
ARM GAS  /var/folders/cs/83z6p2tj4w57s6p2rt8nwfp00000gn/T//cc3yBana.s 			page 209


 9691 1cf0 48       		.uleb128 0x48
 9692 1cf1 07       		.byte	0x7
 9693 1cf2 F4       		.byte	0xf4
 9694 1cf3 29       		.uleb128 0x29
 9695 1cf4 04       		.byte	0x4
 9696 1cf5 0000803F 		.4byte	0x3f800000
 9697 1cf9 29       		.uleb128 0x29
 9698 1cfa 01       		.byte	0x1
 9699 1cfb 51       		.byte	0x51
 9700 1cfc 01       		.byte	0x1
 9701 1cfd 30       		.byte	0x30
 9702 1cfe 00       		.byte	0
 9703 1cff 39       		.uleb128 0x39
 9704 1d00 9A020000 		.4byte	.LVL193
 9705 1d04 DD2A0000 		.4byte	0x2add
 9706 1d08 29       		.uleb128 0x29
 9707 1d09 01       		.byte	0x1
 9708 1d0a 50       		.byte	0x50
 9709 1d0b 02       		.byte	0x2
 9710 1d0c 74       		.byte	0x74
 9711 1d0d 00       		.sleb128 0
 9712 1d0e 00       		.byte	0
 9713 1d0f 00       		.byte	0
 9714 1d10 2F       		.uleb128 0x2f
 9715 1d11 0A290000 		.4byte	0x290a
 9716 1d15 96000000 		.4byte	.LBI80
 9717 1d19 0700     		.2byte	.LVU692
 9718 1d1b 78010000 		.4byte	.Ldebug_ranges0+0x178
 9719 1d1f 01       		.byte	0x1
 9720 1d20 B101     		.2byte	0x1b1
 9721 1d22 0C       		.byte	0xc
 9722 1d23 351D0000 		.4byte	0x1d35
 9723 1d27 31       		.uleb128 0x31
 9724 1d28 1C290000 		.4byte	0x291c
 9725 1d2c D31C0000 		.4byte	.LLST79
 9726 1d30 D11C0000 		.4byte	.LVUS79
 9727 1d34 00       		.byte	0
 9728 1d35 2F       		.uleb128 0x2f
 9729 1d36 88290000 		.4byte	0x2988
 9730 1d3a 96000000 		.4byte	.LBI87
 9731 1d3e 0A00     		.2byte	.LVU695
 9732 1d40 A0010000 		.4byte	.Ldebug_ranges0+0x1a0
 9733 1d44 01       		.byte	0x1
 9734 1d45 B101     		.2byte	0x1b1
 9735 1d47 0C       		.byte	0xc
 9736 1d48 651D0000 		.4byte	0x1d65
 9737 1d4c 30       		.uleb128 0x30
 9738 1d4d 9A290000 		.4byte	0x299a
 9739 1d51 36       		.uleb128 0x36
 9740 1d52 A0010000 		.4byte	.Ldebug_ranges0+0x1a0
 9741 1d56 33       		.uleb128 0x33
 9742 1d57 A4290000 		.4byte	0x29a4
 9743 1d5b ED1C0000 		.4byte	.LLST80
 9744 1d5f EB1C0000 		.4byte	.LVUS80
 9745 1d63 00       		.byte	0
 9746 1d64 00       		.byte	0
 9747 1d65 28       		.uleb128 0x28
ARM GAS  /var/folders/cs/83z6p2tj4w57s6p2rt8nwfp00000gn/T//cc3yBana.s 			page 210


 9748 1d66 98010000 		.4byte	.LVL182
 9749 1d6a CF2A0000 		.4byte	0x2acf
 9750 1d6e DB1D0000 		.4byte	0x1ddb
 9751 1d72 29       		.uleb128 0x29
 9752 1d73 01       		.byte	0x1
 9753 1d74 50       		.byte	0x50
 9754 1d75 02       		.byte	0x2
 9755 1d76 74       		.byte	0x74
 9756 1d77 00       		.sleb128 0
 9757 1d78 29       		.uleb128 0x29
 9758 1d79 02       		.byte	0x2
 9759 1d7a 90       		.byte	0x90
 9760 1d7b 40       		.uleb128 0x40
 9761 1d7c 07       		.byte	0x7
 9762 1d7d F4       		.byte	0xf4
 9763 1d7e 29       		.uleb128 0x29
 9764 1d7f 04       		.byte	0x4
 9765 1d80 0000803F 		.4byte	0x3f800000
 9766 1d84 29       		.uleb128 0x29
 9767 1d85 02       		.byte	0x2
 9768 1d86 90       		.byte	0x90
 9769 1d87 41       		.uleb128 0x41
 9770 1d88 07       		.byte	0x7
 9771 1d89 F4       		.byte	0xf4
 9772 1d8a 29       		.uleb128 0x29
 9773 1d8b 04       		.byte	0x4
 9774 1d8c 00000000 		.4byte	0
 9775 1d90 29       		.uleb128 0x29
 9776 1d91 02       		.byte	0x2
 9777 1d92 90       		.byte	0x90
 9778 1d93 42       		.uleb128 0x42
 9779 1d94 07       		.byte	0x7
 9780 1d95 F4       		.byte	0xf4
 9781 1d96 29       		.uleb128 0x29
 9782 1d97 04       		.byte	0x4
 9783 1d98 00000000 		.4byte	0
 9784 1d9c 29       		.uleb128 0x29
 9785 1d9d 02       		.byte	0x2
 9786 1d9e 90       		.byte	0x90
 9787 1d9f 43       		.uleb128 0x43
 9788 1da0 07       		.byte	0x7
 9789 1da1 F4       		.byte	0xf4
 9790 1da2 29       		.uleb128 0x29
 9791 1da3 04       		.byte	0x4
 9792 1da4 00000000 		.4byte	0
 9793 1da8 29       		.uleb128 0x29
 9794 1da9 02       		.byte	0x2
 9795 1daa 90       		.byte	0x90
 9796 1dab 44       		.uleb128 0x44
 9797 1dac 03       		.byte	0x3
 9798 1dad F5       		.byte	0xf5
 9799 1dae 51       		.uleb128 0x51
 9800 1daf 29       		.uleb128 0x29
 9801 1db0 29       		.uleb128 0x29
 9802 1db1 02       		.byte	0x2
 9803 1db2 90       		.byte	0x90
 9804 1db3 45       		.uleb128 0x45
ARM GAS  /var/folders/cs/83z6p2tj4w57s6p2rt8nwfp00000gn/T//cc3yBana.s 			page 211


 9805 1db4 04       		.byte	0x4
 9806 1db5 F5       		.byte	0xf5
 9807 1db6 56       		.uleb128 0x56
 9808 1db7 29       		.uleb128 0x29
 9809 1db8 1F       		.byte	0x1f
 9810 1db9 29       		.uleb128 0x29
 9811 1dba 02       		.byte	0x2
 9812 1dbb 90       		.byte	0x90
 9813 1dbc 46       		.uleb128 0x46
 9814 1dbd 07       		.byte	0x7
 9815 1dbe F4       		.byte	0xf4
 9816 1dbf 29       		.uleb128 0x29
 9817 1dc0 04       		.byte	0x4
 9818 1dc1 00000000 		.4byte	0
 9819 1dc5 29       		.uleb128 0x29
 9820 1dc6 02       		.byte	0x2
 9821 1dc7 90       		.byte	0x90
 9822 1dc8 47       		.uleb128 0x47
 9823 1dc9 03       		.byte	0x3
 9824 1dca F5       		.byte	0xf5
 9825 1dcb 56       		.uleb128 0x56
 9826 1dcc 29       		.uleb128 0x29
 9827 1dcd 29       		.uleb128 0x29
 9828 1dce 02       		.byte	0x2
 9829 1dcf 90       		.byte	0x90
 9830 1dd0 48       		.uleb128 0x48
 9831 1dd1 03       		.byte	0x3
 9832 1dd2 F5       		.byte	0xf5
 9833 1dd3 51       		.uleb128 0x51
 9834 1dd4 29       		.uleb128 0x29
 9835 1dd5 29       		.uleb128 0x29
 9836 1dd6 01       		.byte	0x1
 9837 1dd7 51       		.byte	0x51
 9838 1dd8 01       		.byte	0x1
 9839 1dd9 30       		.byte	0x30
 9840 1dda 00       		.byte	0
 9841 1ddb 39       		.uleb128 0x39
 9842 1ddc EA010000 		.4byte	.LVL183
 9843 1de0 DD2A0000 		.4byte	0x2add
 9844 1de4 29       		.uleb128 0x29
 9845 1de5 01       		.byte	0x1
 9846 1de6 50       		.byte	0x50
 9847 1de7 02       		.byte	0x2
 9848 1de8 75       		.byte	0x75
 9849 1de9 00       		.sleb128 0
 9850 1dea 00       		.byte	0
 9851 1deb 00       		.byte	0
 9852 1dec 46       		.uleb128 0x46
 9853 1ded 91070000 		.4byte	.LASF214
 9854 1df1 01       		.byte	0x1
 9855 1df2 8401     		.2byte	0x184
 9856 1df4 01       		.byte	0x1
 9857 1df5 01       		.byte	0x1
 9858 1df6 30000000 		.4byte	0x30
 9859 1dfa 00000000 		.4byte	.LFB32
 9860 1dfe 80000000 		.4byte	.LFE32
 9861 1e02 011D0000 		.4byte	.LLST0
ARM GAS  /var/folders/cs/83z6p2tj4w57s6p2rt8nwfp00000gn/T//cc3yBana.s 			page 212


 9862 1e06 01       		.byte	0x1
 9863 1e07 9E1E0000 		.4byte	0x1e9e
 9864 1e0b 27       		.uleb128 0x27
 9865 1e0c 70020000 		.4byte	.LASF187
 9866 1e10 01       		.byte	0x1
 9867 1e11 8401     		.2byte	0x184
 9868 1e13 1A       		.byte	0x1a
 9869 1e14 1C110000 		.4byte	0x111c
 9870 1e18 271D0000 		.4byte	.LLST1
 9871 1e1c 211D0000 		.4byte	.LVUS1
 9872 1e20 27       		.uleb128 0x27
 9873 1e21 A8000000 		.4byte	.LASF195
 9874 1e25 01       		.byte	0x1
 9875 1e26 8401     		.2byte	0x184
 9876 1e28 2E       		.byte	0x2e
 9877 1e29 750F0000 		.4byte	0xf75
 9878 1e2d 591D0000 		.4byte	.LLST2
 9879 1e31 531D0000 		.4byte	.LVUS2
 9880 1e35 27       		.uleb128 0x27
 9881 1e36 D2050000 		.4byte	.LASF196
 9882 1e3a 01       		.byte	0x1
 9883 1e3b 8401     		.2byte	0x184
 9884 1e3d 38       		.byte	0x38
 9885 1e3e 30000000 		.4byte	0x30
 9886 1e42 931D0000 		.4byte	.LLST3
 9887 1e46 851D0000 		.4byte	.LVUS3
 9888 1e4a 2C       		.uleb128 0x2c
 9889 1e4b 4D070000 		.4byte	.LASF197
 9890 1e4f 01       		.byte	0x1
 9891 1e50 8901     		.2byte	0x189
 9892 1e52 11       		.byte	0x11
 9893 1e53 810F0000 		.4byte	0xf81
 9894 1e57 EC1D0000 		.4byte	.LLST4
 9895 1e5b EA1D0000 		.4byte	.LVUS4
 9896 1e5f 2C       		.uleb128 0x2c
 9897 1e60 00000000 		.4byte	.LASF173
 9898 1e64 01       		.byte	0x1
 9899 1e65 8A01     		.2byte	0x18a
 9900 1e67 12       		.byte	0x12
 9901 1e68 2D100000 		.4byte	0x102d
 9902 1e6c 031E0000 		.4byte	.LLST5
 9903 1e70 FF1D0000 		.4byte	.LVUS5
 9904 1e74 2D       		.uleb128 0x2d
 9905 1e75 6900     		.ascii	"i\000"
 9906 1e77 01       		.byte	0x1
 9907 1e78 9D01     		.2byte	0x19d
 9908 1e7a 06       		.byte	0x6
 9909 1e7b 30000000 		.4byte	0x30
 9910 1e7f 291E0000 		.4byte	.LLST6
 9911 1e83 211E0000 		.4byte	.LVUS6
 9912 1e87 39       		.uleb128 0x39
 9913 1e88 6C000000 		.4byte	.LVL12
 9914 1e8c EC1D0000 		.4byte	0x1dec
 9915 1e90 29       		.uleb128 0x29
 9916 1e91 01       		.byte	0x1
 9917 1e92 50       		.byte	0x50
 9918 1e93 02       		.byte	0x2
ARM GAS  /var/folders/cs/83z6p2tj4w57s6p2rt8nwfp00000gn/T//cc3yBana.s 			page 213


 9919 1e94 76       		.byte	0x76
 9920 1e95 00       		.sleb128 0
 9921 1e96 29       		.uleb128 0x29
 9922 1e97 01       		.byte	0x1
 9923 1e98 52       		.byte	0x52
 9924 1e99 02       		.byte	0x2
 9925 1e9a 74       		.byte	0x74
 9926 1e9b 00       		.sleb128 0
 9927 1e9c 00       		.byte	0
 9928 1e9d 00       		.byte	0
 9929 1e9e 47       		.uleb128 0x47
 9930 1e9f 01       		.byte	0x1
 9931 1ea0 920B0000 		.4byte	.LASF226
 9932 1ea4 01       		.byte	0x1
 9933 1ea5 7E01     		.2byte	0x17e
 9934 1ea7 01       		.byte	0x1
 9935 1ea8 01       		.byte	0x1
 9936 1ea9 750F0000 		.4byte	0xf75
 9937 1ead 00000000 		.4byte	.LFB31
 9938 1eb1 04000000 		.4byte	.LFE31
 9939 1eb5 02       		.byte	0x2
 9940 1eb6 7D       		.byte	0x7d
 9941 1eb7 00       		.sleb128 0
 9942 1eb8 01       		.byte	0x1
 9943 1eb9 D31E0000 		.4byte	0x1ed3
 9944 1ebd 27       		.uleb128 0x27
 9945 1ebe 70020000 		.4byte	.LASF187
 9946 1ec2 01       		.byte	0x1
 9947 1ec3 7E01     		.2byte	0x17e
 9948 1ec5 1E       		.byte	0x1e
 9949 1ec6 1C110000 		.4byte	0x111c
 9950 1eca 641E0000 		.4byte	.LLST69
 9951 1ece 601E0000 		.4byte	.LVUS69
 9952 1ed2 00       		.byte	0
 9953 1ed3 48       		.uleb128 0x48
 9954 1ed4 01       		.byte	0x1
 9955 1ed5 E2070000 		.4byte	.LASF215
 9956 1ed9 01       		.byte	0x1
 9957 1eda 7701     		.2byte	0x177
 9958 1edc 01       		.byte	0x1
 9959 1edd 01       		.byte	0x1
 9960 1ede 01       		.byte	0x1
 9961 1edf 071F0000 		.4byte	0x1f07
 9962 1ee3 3E       		.uleb128 0x3e
 9963 1ee4 70020000 		.4byte	.LASF187
 9964 1ee8 01       		.byte	0x1
 9965 1ee9 7701     		.2byte	0x177
 9966 1eeb 1C       		.byte	0x1c
 9967 1eec 1C110000 		.4byte	0x111c
 9968 1ef0 49       		.uleb128 0x49
 9969 1ef1 7800     		.ascii	"x\000"
 9970 1ef3 01       		.byte	0x1
 9971 1ef4 7701     		.2byte	0x177
 9972 1ef6 29       		.byte	0x29
 9973 1ef7 29000000 		.4byte	0x29
 9974 1efb 49       		.uleb128 0x49
 9975 1efc 7900     		.ascii	"y\000"
ARM GAS  /var/folders/cs/83z6p2tj4w57s6p2rt8nwfp00000gn/T//cc3yBana.s 			page 214


 9976 1efe 01       		.byte	0x1
 9977 1eff 7701     		.2byte	0x177
 9978 1f01 32       		.byte	0x32
 9979 1f02 29000000 		.4byte	0x29
 9980 1f06 00       		.byte	0
 9981 1f07 48       		.uleb128 0x48
 9982 1f08 01       		.byte	0x1
 9983 1f09 C7020000 		.4byte	.LASF216
 9984 1f0d 01       		.byte	0x1
 9985 1f0e 7101     		.2byte	0x171
 9986 1f10 01       		.byte	0x1
 9987 1f11 01       		.byte	0x1
 9988 1f12 01       		.byte	0x1
 9989 1f13 321F0000 		.4byte	0x1f32
 9990 1f17 3E       		.uleb128 0x3e
 9991 1f18 70020000 		.4byte	.LASF187
 9992 1f1c 01       		.byte	0x1
 9993 1f1d 7101     		.2byte	0x171
 9994 1f1f 21       		.byte	0x21
 9995 1f20 1C110000 		.4byte	0x111c
 9996 1f24 3E       		.uleb128 0x3e
 9997 1f25 3E070000 		.4byte	.LASF179
 9998 1f29 01       		.byte	0x1
 9999 1f2a 7101     		.2byte	0x171
 10000 1f2c 31       		.byte	0x31
 10001 1f2d 030B0000 		.4byte	0xb03
 10002 1f31 00       		.byte	0
 10003 1f32 26       		.uleb128 0x26
 10004 1f33 01       		.byte	0x1
 10005 1f34 760A0000 		.4byte	.LASF217
 10006 1f38 01       		.byte	0x1
 10007 1f39 6801     		.2byte	0x168
 10008 1f3b 01       		.byte	0x1
 10009 1f3c 01       		.byte	0x1
 10010 1f3d 00000000 		.4byte	.LFB28
 10011 1f41 24000000 		.4byte	.LFE28
 10012 1f45 851E0000 		.4byte	.LLST65
 10013 1f49 01       		.byte	0x1
 10014 1f4a 871F0000 		.4byte	0x1f87
 10015 1f4e 27       		.uleb128 0x27
 10016 1f4f 70020000 		.4byte	.LASF187
 10017 1f53 01       		.byte	0x1
 10018 1f54 6801     		.2byte	0x168
 10019 1f56 19       		.byte	0x19
 10020 1f57 1C110000 		.4byte	0x111c
 10021 1f5b B91E0000 		.4byte	.LLST66
 10022 1f5f B11E0000 		.4byte	.LVUS66
 10023 1f63 4A       		.uleb128 0x4a
 10024 1f64 12000000 		.4byte	.LVL156
 10025 1f68 721F0000 		.4byte	0x1f72
 10026 1f6c 29       		.uleb128 0x29
 10027 1f6d 01       		.byte	0x1
 10028 1f6e 51       		.byte	0x51
 10029 1f6f 01       		.byte	0x1
 10030 1f70 30       		.byte	0x30
 10031 1f71 00       		.byte	0
 10032 1f72 2B       		.uleb128 0x2b
ARM GAS  /var/folders/cs/83z6p2tj4w57s6p2rt8nwfp00000gn/T//cc3yBana.s 			page 215


 10033 1f73 1E000000 		.4byte	.LVL158
 10034 1f77 01       		.byte	0x1
 10035 1f78 0B280000 		.4byte	0x280b
 10036 1f7c 29       		.uleb128 0x29
 10037 1f7d 01       		.byte	0x1
 10038 1f7e 50       		.byte	0x50
 10039 1f7f 05       		.byte	0x5
 10040 1f80 F3       		.byte	0xf3
 10041 1f81 01       		.uleb128 0x1
 10042 1f82 50       		.byte	0x50
 10043 1f83 23       		.byte	0x23
 10044 1f84 50       		.uleb128 0x50
 10045 1f85 00       		.byte	0
 10046 1f86 00       		.byte	0
 10047 1f87 26       		.uleb128 0x26
 10048 1f88 01       		.byte	0x1
 10049 1f89 6C000000 		.4byte	.LASF218
 10050 1f8d 01       		.byte	0x1
 10051 1f8e 5801     		.2byte	0x158
 10052 1f90 01       		.byte	0x1
 10053 1f91 01       		.byte	0x1
 10054 1f92 00000000 		.4byte	.LFB27
 10055 1f96 B0000000 		.4byte	.LFE27
 10056 1f9a F31E0000 		.4byte	.LLST85
 10057 1f9e 01       		.byte	0x1
 10058 1f9f 6B200000 		.4byte	0x206b
 10059 1fa3 27       		.uleb128 0x27
 10060 1fa4 70020000 		.4byte	.LASF187
 10061 1fa8 01       		.byte	0x1
 10062 1fa9 5801     		.2byte	0x158
 10063 1fab 17       		.byte	0x17
 10064 1fac 1C110000 		.4byte	0x111c
 10065 1fb0 4A1F0000 		.4byte	.LLST86
 10066 1fb4 441F0000 		.4byte	.LVUS86
 10067 1fb8 2F       		.uleb128 0x2f
 10068 1fb9 EE280000 		.4byte	0x28ee
 10069 1fbd 5E000000 		.4byte	.LBI102
 10070 1fc1 0700     		.2byte	.LVU810
 10071 1fc3 E8010000 		.4byte	.Ldebug_ranges0+0x1e8
 10072 1fc7 01       		.byte	0x1
 10073 1fc8 6101     		.2byte	0x161
 10074 1fca 02       		.byte	0x2
 10075 1fcb DD1F0000 		.4byte	0x1fdd
 10076 1fcf 31       		.uleb128 0x31
 10077 1fd0 FD280000 		.4byte	0x28fd
 10078 1fd4 7E1F0000 		.4byte	.LLST87
 10079 1fd8 761F0000 		.4byte	.LVUS87
 10080 1fdc 00       		.byte	0
 10081 1fdd 2F       		.uleb128 0x2f
 10082 1fde 071F0000 		.4byte	0x1f07
 10083 1fe2 4A000000 		.4byte	.LBI106
 10084 1fe6 0100     		.2byte	.LVU795
 10085 1fe8 08020000 		.4byte	.Ldebug_ranges0+0x208
 10086 1fec 01       		.byte	0x1
 10087 1fed 5D01     		.2byte	0x15d
 10088 1fef 02       		.byte	0x2
 10089 1ff0 0F200000 		.4byte	0x200f
ARM GAS  /var/folders/cs/83z6p2tj4w57s6p2rt8nwfp00000gn/T//cc3yBana.s 			page 216


 10090 1ff4 31       		.uleb128 0x31
 10091 1ff5 241F0000 		.4byte	0x1f24
 10092 1ff9 BA1F0000 		.4byte	.LLST88
 10093 1ffd B81F0000 		.4byte	.LVUS88
 10094 2001 31       		.uleb128 0x31
 10095 2002 171F0000 		.4byte	0x1f17
 10096 2006 E61F0000 		.4byte	.LLST89
 10097 200a E41F0000 		.4byte	.LVUS89
 10098 200e 00       		.byte	0
 10099 200f 2F       		.uleb128 0x2f
 10100 2010 D31E0000 		.4byte	0x1ed3
 10101 2014 5E000000 		.4byte	.LBI111
 10102 2018 0200     		.2byte	.LVU805
 10103 201a 30020000 		.4byte	.Ldebug_ranges0+0x230
 10104 201e 01       		.byte	0x1
 10105 201f 5F01     		.2byte	0x15f
 10106 2021 02       		.byte	0x2
 10107 2022 4E200000 		.4byte	0x204e
 10108 2026 31       		.uleb128 0x31
 10109 2027 FB1E0000 		.4byte	0x1efb
 10110 202b FB1F0000 		.4byte	.LLST90
 10111 202f F91F0000 		.4byte	.LVUS90
 10112 2033 31       		.uleb128 0x31
 10113 2034 F01E0000 		.4byte	0x1ef0
 10114 2038 FB1F0000 		.4byte	.LLST90
 10115 203c F91F0000 		.4byte	.LVUS90
 10116 2040 31       		.uleb128 0x31
 10117 2041 E31E0000 		.4byte	0x1ee3
 10118 2045 15200000 		.4byte	.LLST92
 10119 2049 13200000 		.4byte	.LVUS92
 10120 204d 00       		.byte	0
 10121 204e 39       		.uleb128 0x39
 10122 204f 4A000000 		.4byte	.LVL199
 10123 2053 B71A0000 		.4byte	0x1ab7
 10124 2057 29       		.uleb128 0x29
 10125 2058 01       		.byte	0x1
 10126 2059 50       		.byte	0x50
 10127 205a 02       		.byte	0x2
 10128 205b 74       		.byte	0x74
 10129 205c 00       		.sleb128 0
 10130 205d 29       		.uleb128 0x29
 10131 205e 02       		.byte	0x2
 10132 205f 90       		.byte	0x90
 10133 2060 46       		.uleb128 0x46
 10134 2061 07       		.byte	0x7
 10135 2062 F4       		.byte	0xf4
 10136 2063 29       		.uleb128 0x29
 10137 2064 04       		.byte	0x4
 10138 2065 0000803F 		.4byte	0x3f800000
 10139 2069 00       		.byte	0
 10140 206a 00       		.byte	0
 10141 206b 26       		.uleb128 0x26
 10142 206c 01       		.byte	0x1
 10143 206d B40B0000 		.4byte	.LASF219
 10144 2071 01       		.byte	0x1
 10145 2072 3101     		.2byte	0x131
 10146 2074 01       		.byte	0x1
ARM GAS  /var/folders/cs/83z6p2tj4w57s6p2rt8nwfp00000gn/T//cc3yBana.s 			page 217


 10147 2075 01       		.byte	0x1
 10148 2076 00000000 		.4byte	.LFB26
 10149 207a 4A040000 		.4byte	.LFE26
 10150 207e 28200000 		.4byte	.LLST44
 10151 2082 01       		.byte	0x1
 10152 2083 E4220000 		.4byte	0x22e4
 10153 2087 27       		.uleb128 0x27
 10154 2088 70020000 		.4byte	.LASF187
 10155 208c 01       		.byte	0x1
 10156 208d 3101     		.2byte	0x131
 10157 208f 1D       		.byte	0x1d
 10158 2090 1C110000 		.4byte	0x111c
 10159 2094 B4200000 		.4byte	.LLST45
 10160 2098 AC200000 		.4byte	.LVUS45
 10161 209c 27       		.uleb128 0x27
 10162 209d A8000000 		.4byte	.LASF195
 10163 20a1 01       		.byte	0x1
 10164 20a2 3101     		.2byte	0x131
 10165 20a4 31       		.byte	0x31
 10166 20a5 750F0000 		.4byte	0xf75
 10167 20a9 FB200000 		.4byte	.LLST46
 10168 20ad EB200000 		.4byte	.LVUS46
 10169 20b1 43       		.uleb128 0x43
 10170 20b2 31080000 		.4byte	.LASF220
 10171 20b6 01       		.byte	0x1
 10172 20b7 3101     		.2byte	0x131
 10173 20b9 40       		.byte	0x40
 10174 20ba 8A0B0000 		.4byte	0xb8a
 10175 20be 02       		.byte	0x2
 10176 20bf 91       		.byte	0x91
 10177 20c0 78       		.sleb128 -8
 10178 20c1 27       		.uleb128 0x27
 10179 20c2 EF060000 		.4byte	.LASF141
 10180 20c6 01       		.byte	0x1
 10181 20c7 3101     		.2byte	0x131
 10182 20c9 4D       		.byte	0x4d
 10183 20ca 29000000 		.4byte	0x29
 10184 20ce 6F210000 		.4byte	.LLST47
 10185 20d2 67210000 		.4byte	.LVUS47
 10186 20d6 27       		.uleb128 0x27
 10187 20d7 69090000 		.4byte	.LASF198
 10188 20db 01       		.byte	0x1
 10189 20dc 3101     		.2byte	0x131
 10190 20de 64       		.byte	0x64
 10191 20df 880D0000 		.4byte	0xd88
 10192 20e3 AF210000 		.4byte	.LLST48
 10193 20e7 A7210000 		.4byte	.LVUS48
 10194 20eb 27       		.uleb128 0x27
 10195 20ec 65000000 		.4byte	.LASF221
 10196 20f0 01       		.byte	0x1
 10197 20f1 3101     		.2byte	0x131
 10198 20f3 6F       		.byte	0x6f
 10199 20f4 30000000 		.4byte	0x30
 10200 20f8 EF210000 		.4byte	.LLST49
 10201 20fc E9210000 		.4byte	.LVUS49
 10202 2100 36       		.uleb128 0x36
 10203 2101 70000000 		.4byte	.Ldebug_ranges0+0x70
ARM GAS  /var/folders/cs/83z6p2tj4w57s6p2rt8nwfp00000gn/T//cc3yBana.s 			page 218


 10204 2105 2C       		.uleb128 0x2c
 10205 2106 4D070000 		.4byte	.LASF197
 10206 210a 01       		.byte	0x1
 10207 210b 4401     		.2byte	0x144
 10208 210d 12       		.byte	0x12
 10209 210e 810F0000 		.4byte	0xf81
 10210 2112 21220000 		.4byte	.LLST50
 10211 2116 1B220000 		.4byte	.LVUS50
 10212 211a 2D       		.uleb128 0x2d
 10213 211b 6900     		.ascii	"i\000"
 10214 211d 01       		.byte	0x1
 10215 211e 4F01     		.2byte	0x14f
 10216 2120 07       		.byte	0x7
 10217 2121 30000000 		.4byte	0x30
 10218 2125 52220000 		.4byte	.LLST51
 10219 2129 4A220000 		.4byte	.LVUS51
 10220 212d 2F       		.uleb128 0x2f
 10221 212e E4220000 		.4byte	0x22e4
 10222 2132 D2000000 		.4byte	.LBI56
 10223 2136 0100     		.2byte	.LVU428
 10224 2138 88000000 		.4byte	.Ldebug_ranges0+0x88
 10225 213c 01       		.byte	0x1
 10226 213d 4801     		.2byte	0x148
 10227 213f 04       		.byte	0x4
 10228 2140 B6220000 		.4byte	0x22b6
 10229 2144 30       		.uleb128 0x30
 10230 2145 22230000 		.4byte	0x2322
 10231 2149 30       		.uleb128 0x30
 10232 214a 16230000 		.4byte	0x2316
 10233 214e 31       		.uleb128 0x31
 10234 214f 0A230000 		.4byte	0x230a
 10235 2153 91220000 		.4byte	.LLST52
 10236 2157 89220000 		.4byte	.LVUS52
 10237 215b 31       		.uleb128 0x31
 10238 215c FE220000 		.4byte	0x22fe
 10239 2160 13230000 		.4byte	.LLST53
 10240 2164 0D230000 		.4byte	.LVUS53
 10241 2168 30       		.uleb128 0x30
 10242 2169 F2220000 		.4byte	0x22f2
 10243 216d 36       		.uleb128 0x36
 10244 216e B0000000 		.4byte	.Ldebug_ranges0+0xb0
 10245 2172 33       		.uleb128 0x33
 10246 2173 2E230000 		.4byte	0x232e
 10247 2177 40230000 		.4byte	.LLST54
 10248 217b 3C230000 		.4byte	.LVUS54
 10249 217f 33       		.uleb128 0x33
 10250 2180 3A230000 		.4byte	0x233a
 10251 2184 7A230000 		.4byte	.LLST55
 10252 2188 5E230000 		.4byte	.LVUS55
 10253 218c 33       		.uleb128 0x33
 10254 218d 44230000 		.4byte	0x2344
 10255 2191 2D240000 		.4byte	.LLST56
 10256 2195 27240000 		.4byte	.LVUS56
 10257 2199 33       		.uleb128 0x33
 10258 219a 50230000 		.4byte	0x2350
 10259 219e 67240000 		.4byte	.LLST57
 10260 21a2 61240000 		.4byte	.LVUS57
ARM GAS  /var/folders/cs/83z6p2tj4w57s6p2rt8nwfp00000gn/T//cc3yBana.s 			page 219


 10261 21a6 33       		.uleb128 0x33
 10262 21a7 5C230000 		.4byte	0x235c
 10263 21ab A1240000 		.4byte	.LLST58
 10264 21af 9B240000 		.4byte	.LVUS58
 10265 21b3 32       		.uleb128 0x32
 10266 21b4 86230000 		.4byte	0x2386
 10267 21b8 E0000000 		.4byte	.Ldebug_ranges0+0xe0
 10268 21bc CE210000 		.4byte	0x21ce
 10269 21c0 33       		.uleb128 0x33
 10270 21c1 8B230000 		.4byte	0x238b
 10271 21c5 D0240000 		.4byte	.LLST59
 10272 21c9 CA240000 		.4byte	.LVUS59
 10273 21cd 00       		.byte	0
 10274 21ce 32       		.uleb128 0x32
 10275 21cf 97230000 		.4byte	0x2397
 10276 21d3 08010000 		.4byte	.Ldebug_ranges0+0x108
 10277 21d7 0D220000 		.4byte	0x220d
 10278 21db 33       		.uleb128 0x33
 10279 21dc 98230000 		.4byte	0x2398
 10280 21e0 FD240000 		.4byte	.LLST60
 10281 21e4 FB240000 		.4byte	.LVUS60
 10282 21e8 34       		.uleb128 0x34
 10283 21e9 A3230000 		.4byte	0x23a3
 10284 21ed 20010000 		.4byte	.Ldebug_ranges0+0x120
 10285 21f1 33       		.uleb128 0x33
 10286 21f2 A4230000 		.4byte	0x23a4
 10287 21f6 13250000 		.4byte	.LLST61
 10288 21fa 11250000 		.4byte	.LVUS61
 10289 21fe 33       		.uleb128 0x33
 10290 21ff B1230000 		.4byte	0x23b1
 10291 2203 28250000 		.4byte	.LLST62
 10292 2207 26250000 		.4byte	.LVUS62
 10293 220b 00       		.byte	0
 10294 220c 00       		.byte	0
 10295 220d 32       		.uleb128 0x32
 10296 220e 68230000 		.4byte	0x2368
 10297 2212 48010000 		.4byte	.Ldebug_ranges0+0x148
 10298 2216 4C220000 		.4byte	0x224c
 10299 221a 33       		.uleb128 0x33
 10300 221b 6D230000 		.4byte	0x236d
 10301 221f 67250000 		.4byte	.LLST63
 10302 2223 65250000 		.4byte	.LVUS63
 10303 2227 32       		.uleb128 0x32
 10304 2228 79230000 		.4byte	0x2379
 10305 222c 60010000 		.4byte	.Ldebug_ranges0+0x160
 10306 2230 42220000 		.4byte	0x2242
 10307 2234 33       		.uleb128 0x33
 10308 2235 7A230000 		.4byte	0x237a
 10309 2239 7C250000 		.4byte	.LLST64
 10310 223d 7A250000 		.4byte	.LVUS64
 10311 2241 00       		.byte	0
 10312 2242 2A       		.uleb128 0x2a
 10313 2243 4E020000 		.4byte	.LVL128
 10314 2247 EB2A0000 		.4byte	0x2aeb
 10315 224b 00       		.byte	0
 10316 224c 2A       		.uleb128 0x2a
 10317 224d 24010000 		.4byte	.LVL116
ARM GAS  /var/folders/cs/83z6p2tj4w57s6p2rt8nwfp00000gn/T//cc3yBana.s 			page 220


 10318 2251 F92A0000 		.4byte	0x2af9
 10319 2255 2A       		.uleb128 0x2a
 10320 2256 66010000 		.4byte	.LVL117
 10321 225a F92A0000 		.4byte	0x2af9
 10322 225e 2A       		.uleb128 0x2a
 10323 225f A2010000 		.4byte	.LVL120
 10324 2263 F92A0000 		.4byte	0x2af9
 10325 2267 2A       		.uleb128 0x2a
 10326 2268 D0010000 		.4byte	.LVL121
 10327 226c F92A0000 		.4byte	0x2af9
 10328 2270 4A       		.uleb128 0x4a
 10329 2271 16020000 		.4byte	.LVL123
 10330 2275 82220000 		.4byte	0x2282
 10331 2279 29       		.uleb128 0x29
 10332 227a 01       		.byte	0x1
 10333 227b 51       		.byte	0x51
 10334 227c 04       		.byte	0x4
 10335 227d 91       		.byte	0x91
 10336 227e D07E     		.sleb128 -176
 10337 2280 06       		.byte	0x6
 10338 2281 00       		.byte	0
 10339 2282 28       		.uleb128 0x28
 10340 2283 20020000 		.4byte	.LVL124
 10341 2287 072B0000 		.4byte	0x2b07
 10342 228b 9D220000 		.4byte	0x229d
 10343 228f 29       		.uleb128 0x29
 10344 2290 01       		.byte	0x1
 10345 2291 51       		.byte	0x51
 10346 2292 01       		.byte	0x1
 10347 2293 30       		.byte	0x30
 10348 2294 29       		.uleb128 0x29
 10349 2295 01       		.byte	0x1
 10350 2296 52       		.byte	0x52
 10351 2297 04       		.byte	0x4
 10352 2298 91       		.byte	0x91
 10353 2299 D07E     		.sleb128 -176
 10354 229b 06       		.byte	0x6
 10355 229c 00       		.byte	0
 10356 229d 39       		.uleb128 0x39
 10357 229e 30040000 		.4byte	.LVL152
 10358 22a2 072B0000 		.4byte	0x2b07
 10359 22a6 29       		.uleb128 0x29
 10360 22a7 01       		.byte	0x1
 10361 22a8 51       		.byte	0x51
 10362 22a9 01       		.byte	0x1
 10363 22aa 30       		.byte	0x30
 10364 22ab 29       		.uleb128 0x29
 10365 22ac 01       		.byte	0x1
 10366 22ad 52       		.byte	0x52
 10367 22ae 04       		.byte	0x4
 10368 22af 77       		.byte	0x77
 10369 22b0 00       		.sleb128 0
 10370 22b1 32       		.byte	0x32
 10371 22b2 24       		.byte	0x24
 10372 22b3 00       		.byte	0
 10373 22b4 00       		.byte	0
 10374 22b5 00       		.byte	0
ARM GAS  /var/folders/cs/83z6p2tj4w57s6p2rt8nwfp00000gn/T//cc3yBana.s 			page 221


 10375 22b6 28       		.uleb128 0x28
 10376 22b7 74000000 		.4byte	.LVL109
 10377 22bb DD2A0000 		.4byte	0x2add
 10378 22bf CA220000 		.4byte	0x22ca
 10379 22c3 29       		.uleb128 0x29
 10380 22c4 01       		.byte	0x1
 10381 22c5 50       		.byte	0x50
 10382 22c6 02       		.byte	0x2
 10383 22c7 91       		.byte	0x91
 10384 22c8 68       		.sleb128 -24
 10385 22c9 00       		.byte	0
 10386 22ca 39       		.uleb128 0x39
 10387 22cb 1C040000 		.4byte	.LVL150
 10388 22cf 6B200000 		.4byte	0x206b
 10389 22d3 29       		.uleb128 0x29
 10390 22d4 01       		.byte	0x1
 10391 22d5 50       		.byte	0x50
 10392 22d6 02       		.byte	0x2
 10393 22d7 76       		.byte	0x76
 10394 22d8 00       		.sleb128 0
 10395 22d9 29       		.uleb128 0x29
 10396 22da 02       		.byte	0x2
 10397 22db 90       		.byte	0x90
 10398 22dc 40       		.uleb128 0x40
 10399 22dd 03       		.byte	0x3
 10400 22de F5       		.byte	0xf5
 10401 22df 51       		.uleb128 0x51
 10402 22e0 29       		.uleb128 0x29
 10403 22e1 00       		.byte	0
 10404 22e2 00       		.byte	0
 10405 22e3 00       		.byte	0
 10406 22e4 4B       		.uleb128 0x4b
 10407 22e5 1B040000 		.4byte	.LASF222
 10408 22e9 01       		.byte	0x1
 10409 22ea D4       		.byte	0xd4
 10410 22eb 01       		.byte	0x1
 10411 22ec 01       		.byte	0x1
 10412 22ed 01       		.byte	0x1
 10413 22ee C1230000 		.4byte	0x23c1
 10414 22f2 4C       		.uleb128 0x4c
 10415 22f3 70020000 		.4byte	.LASF187
 10416 22f7 01       		.byte	0x1
 10417 22f8 D4       		.byte	0xd4
 10418 22f9 26       		.byte	0x26
 10419 22fa 1C110000 		.4byte	0x111c
 10420 22fe 4C       		.uleb128 0x4c
 10421 22ff 4D070000 		.4byte	.LASF197
 10422 2303 01       		.byte	0x1
 10423 2304 D4       		.byte	0xd4
 10424 2305 3C       		.byte	0x3c
 10425 2306 810F0000 		.4byte	0xf81
 10426 230a 4C       		.uleb128 0x4c
 10427 230b 31080000 		.4byte	.LASF220
 10428 230f 01       		.byte	0x1
 10429 2310 D4       		.byte	0xd4
 10430 2311 4C       		.byte	0x4c
 10431 2312 8A0B0000 		.4byte	0xb8a
ARM GAS  /var/folders/cs/83z6p2tj4w57s6p2rt8nwfp00000gn/T//cc3yBana.s 			page 222


 10432 2316 4C       		.uleb128 0x4c
 10433 2317 EF060000 		.4byte	.LASF141
 10434 231b 01       		.byte	0x1
 10435 231c D4       		.byte	0xd4
 10436 231d 59       		.byte	0x59
 10437 231e 29000000 		.4byte	0x29
 10438 2322 4C       		.uleb128 0x4c
 10439 2323 69090000 		.4byte	.LASF198
 10440 2327 01       		.byte	0x1
 10441 2328 D4       		.byte	0xd4
 10442 2329 70       		.byte	0x70
 10443 232a 880D0000 		.4byte	0xd88
 10444 232e 4D       		.uleb128 0x4d
 10445 232f 37040000 		.4byte	.LASF223
 10446 2333 01       		.byte	0x1
 10447 2334 D6       		.byte	0xd6
 10448 2335 0B       		.byte	0xb
 10449 2336 7A0E0000 		.4byte	0xe7a
 10450 233a 4E       		.uleb128 0x4e
 10451 233b 6900     		.ascii	"i\000"
 10452 233d 01       		.byte	0x1
 10453 233e D7       		.byte	0xd7
 10454 233f 06       		.byte	0x6
 10455 2340 30000000 		.4byte	0x30
 10456 2344 4D       		.uleb128 0x4d
 10457 2345 E5020000 		.4byte	.LASF176
 10458 2349 01       		.byte	0x1
 10459 234a E4       		.byte	0xe4
 10460 234b 08       		.byte	0x8
 10461 234c 29000000 		.4byte	0x29
 10462 2350 4D       		.uleb128 0x4d
 10463 2351 D8050000 		.4byte	.LASF224
 10464 2355 01       		.byte	0x1
 10465 2356 E5       		.byte	0xe5
 10466 2357 08       		.byte	0x8
 10467 2358 29000000 		.4byte	0x29
 10468 235c 4D       		.uleb128 0x4d
 10469 235d 7F050000 		.4byte	.LASF225
 10470 2361 01       		.byte	0x1
 10471 2362 E6       		.byte	0xe6
 10472 2363 06       		.byte	0x6
 10473 2364 30000000 		.4byte	0x30
 10474 2368 42       		.uleb128 0x42
 10475 2369 86230000 		.4byte	0x2386
 10476 236d 4D       		.uleb128 0x4d
 10477 236e D7040000 		.4byte	.LASF202
 10478 2372 01       		.byte	0x1
 10479 2373 F5       		.byte	0xf5
 10480 2374 11       		.byte	0x11
 10481 2375 860E0000 		.4byte	0xe86
 10482 2379 41       		.uleb128 0x41
 10483 237a 4E       		.uleb128 0x4e
 10484 237b 7A00     		.ascii	"z\000"
 10485 237d 01       		.byte	0x1
 10486 237e FB       		.byte	0xfb
 10487 237f 0A       		.byte	0xa
 10488 2380 29000000 		.4byte	0x29
ARM GAS  /var/folders/cs/83z6p2tj4w57s6p2rt8nwfp00000gn/T//cc3yBana.s 			page 223


 10489 2384 00       		.byte	0
 10490 2385 00       		.byte	0
 10491 2386 42       		.uleb128 0x42
 10492 2387 97230000 		.4byte	0x2397
 10493 238b 3F       		.uleb128 0x3f
 10494 238c 7000     		.ascii	"p\000"
 10495 238e 01       		.byte	0x1
 10496 238f 0701     		.2byte	0x107
 10497 2391 0C       		.byte	0xc
 10498 2392 BE0C0000 		.4byte	0xcbe
 10499 2396 00       		.byte	0
 10500 2397 41       		.uleb128 0x41
 10501 2398 3F       		.uleb128 0x3f
 10502 2399 6400     		.ascii	"d\000"
 10503 239b 01       		.byte	0x1
 10504 239c 2201     		.2byte	0x122
 10505 239e 09       		.byte	0x9
 10506 239f 29000000 		.4byte	0x29
 10507 23a3 41       		.uleb128 0x41
 10508 23a4 40       		.uleb128 0x40
 10509 23a5 D7040000 		.4byte	.LASF202
 10510 23a9 01       		.byte	0x1
 10511 23aa 2601     		.2byte	0x126
 10512 23ac 12       		.byte	0x12
 10513 23ad 860E0000 		.4byte	0xe86
 10514 23b1 3F       		.uleb128 0x3f
 10515 23b2 69647800 		.ascii	"idx\000"
 10516 23b6 01       		.byte	0x1
 10517 23b7 2801     		.2byte	0x128
 10518 23b9 08       		.byte	0x8
 10519 23ba 30000000 		.4byte	0x30
 10520 23be 00       		.byte	0
 10521 23bf 00       		.byte	0
 10522 23c0 00       		.byte	0
 10523 23c1 4F       		.uleb128 0x4f
 10524 23c2 01       		.byte	0x1
 10525 23c3 DB090000 		.4byte	.LASF227
 10526 23c7 01       		.byte	0x1
 10527 23c8 C6       		.byte	0xc6
 10528 23c9 01       		.byte	0x1
 10529 23ca 01       		.byte	0x1
 10530 23cb 750F0000 		.4byte	0xf75
 10531 23cf 00000000 		.4byte	.LFB24
 10532 23d3 74000000 		.4byte	.LFE24
 10533 23d7 90250000 		.4byte	.LLST40
 10534 23db 01       		.byte	0x1
 10535 23dc 3E240000 		.4byte	0x243e
 10536 23e0 50       		.uleb128 0x50
 10537 23e1 A8000000 		.4byte	.LASF195
 10538 23e5 01       		.byte	0x1
 10539 23e6 C6       		.byte	0xc6
 10540 23e7 23       		.byte	0x23
 10541 23e8 750F0000 		.4byte	0xf75
 10542 23ec B6250000 		.4byte	.LLST41
 10543 23f0 B0250000 		.4byte	.LVUS41
 10544 23f4 51       		.uleb128 0x51
 10545 23f5 B0020000 		.4byte	.LASF228
ARM GAS  /var/folders/cs/83z6p2tj4w57s6p2rt8nwfp00000gn/T//cc3yBana.s 			page 224


 10546 23f9 01       		.byte	0x1
 10547 23fa CA       		.byte	0xca
 10548 23fb 0F       		.byte	0xf
 10549 23fc 750F0000 		.4byte	0xf75
 10550 2400 E8250000 		.4byte	.LLST42
 10551 2404 E0250000 		.4byte	.LVUS42
 10552 2408 52       		.uleb128 0x52
 10553 2409 EE280000 		.4byte	0x28ee
 10554 240d 20000000 		.4byte	.LBI41
 10555 2411 0100     		.2byte	.LVU354
 10556 2413 50000000 		.4byte	.Ldebug_ranges0+0x50
 10557 2417 01       		.byte	0x1
 10558 2418 CB       		.byte	0xcb
 10559 2419 02       		.byte	0x2
 10560 241a 2C240000 		.4byte	0x242c
 10561 241e 31       		.uleb128 0x31
 10562 241f FD280000 		.4byte	0x28fd
 10563 2423 22260000 		.4byte	.LLST43
 10564 2427 1C260000 		.4byte	.LVUS43
 10565 242b 00       		.byte	0
 10566 242c 53       		.uleb128 0x53
 10567 242d 1E000000 		.4byte	.LVL98
 10568 2431 29       		.uleb128 0x29
 10569 2432 01       		.byte	0x1
 10570 2433 50       		.byte	0x50
 10571 2434 01       		.byte	0x1
 10572 2435 30       		.byte	0x30
 10573 2436 29       		.uleb128 0x29
 10574 2437 01       		.byte	0x1
 10575 2438 51       		.byte	0x51
 10576 2439 02       		.byte	0x2
 10577 243a 08       		.byte	0x8
 10578 243b 54       		.byte	0x54
 10579 243c 00       		.byte	0
 10580 243d 00       		.byte	0
 10581 243e 54       		.uleb128 0x54
 10582 243f 01       		.byte	0x1
 10583 2440 06070000 		.4byte	.LASF229
 10584 2444 01       		.byte	0x1
 10585 2445 C0       		.byte	0xc0
 10586 2446 01       		.byte	0x1
 10587 2447 01       		.byte	0x1
 10588 2448 00000000 		.4byte	.LFB23
 10589 244c 34000000 		.4byte	.LFE23
 10590 2450 4B260000 		.4byte	.LLST37
 10591 2454 01       		.byte	0x1
 10592 2455 99240000 		.4byte	0x2499
 10593 2459 50       		.uleb128 0x50
 10594 245a A8000000 		.4byte	.LASF195
 10595 245e 01       		.byte	0x1
 10596 245f C0       		.byte	0xc0
 10597 2460 23       		.byte	0x23
 10598 2461 750F0000 		.4byte	0xf75
 10599 2465 8A260000 		.4byte	.LLST38
 10600 2469 84260000 		.4byte	.LVUS38
 10601 246d 50       		.uleb128 0x50
 10602 246e 4D070000 		.4byte	.LASF197
ARM GAS  /var/folders/cs/83z6p2tj4w57s6p2rt8nwfp00000gn/T//cc3yBana.s 			page 225


 10603 2472 01       		.byte	0x1
 10604 2473 C0       		.byte	0xc0
 10605 2474 32       		.byte	0x32
 10606 2475 7A0E0000 		.4byte	0xe7a
 10607 2479 BC260000 		.4byte	.LLST39
 10608 247d B6260000 		.4byte	.LVUS39
 10609 2481 39       		.uleb128 0x39
 10610 2482 2C000000 		.4byte	.LVL93
 10611 2486 38250000 		.4byte	0x2538
 10612 248a 29       		.uleb128 0x29
 10613 248b 01       		.byte	0x1
 10614 248c 50       		.byte	0x50
 10615 248d 02       		.byte	0x2
 10616 248e 77       		.byte	0x77
 10617 248f 00       		.sleb128 0
 10618 2490 29       		.uleb128 0x29
 10619 2491 01       		.byte	0x1
 10620 2492 51       		.byte	0x51
 10621 2493 03       		.byte	0x3
 10622 2494 F3       		.byte	0xf3
 10623 2495 01       		.uleb128 0x1
 10624 2496 51       		.byte	0x51
 10625 2497 00       		.byte	0
 10626 2498 00       		.byte	0
 10627 2499 54       		.uleb128 0x54
 10628 249a 01       		.byte	0x1
 10629 249b 53030000 		.4byte	.LASF230
 10630 249f 01       		.byte	0x1
 10631 24a0 BA       		.byte	0xba
 10632 24a1 01       		.byte	0x1
 10633 24a2 01       		.byte	0x1
 10634 24a3 00000000 		.4byte	.LFB22
 10635 24a7 44000000 		.4byte	.LFE22
 10636 24ab E8260000 		.4byte	.LLST34
 10637 24af 01       		.byte	0x1
 10638 24b0 38250000 		.4byte	0x2538
 10639 24b4 50       		.uleb128 0x50
 10640 24b5 A8000000 		.4byte	.LASF195
 10641 24b9 01       		.byte	0x1
 10642 24ba BA       		.byte	0xba
 10643 24bb 2D       		.byte	0x2d
 10644 24bc 750F0000 		.4byte	0xf75
 10645 24c0 25270000 		.4byte	.LLST35
 10646 24c4 21270000 		.4byte	.LVUS35
 10647 24c8 50       		.uleb128 0x50
 10648 24c9 4D070000 		.4byte	.LASF197
 10649 24cd 01       		.byte	0x1
 10650 24ce BA       		.byte	0xba
 10651 24cf 3C       		.byte	0x3c
 10652 24d0 7A0E0000 		.4byte	0xe7a
 10653 24d4 47270000 		.4byte	.LLST36
 10654 24d8 43270000 		.4byte	.LVUS36
 10655 24dc 55       		.uleb128 0x55
 10656 24dd EA020000 		.4byte	.LASF231
 10657 24e1 01       		.byte	0x1
 10658 24e2 BA       		.byte	0xba
 10659 24e3 4C       		.byte	0x4c
ARM GAS  /var/folders/cs/83z6p2tj4w57s6p2rt8nwfp00000gn/T//cc3yBana.s 			page 226


 10660 24e4 030B0000 		.4byte	0xb03
 10661 24e8 03       		.byte	0x3
 10662 24e9 91       		.byte	0x91
 10663 24ea A47F     		.sleb128 -92
 10664 24ec 28       		.uleb128 0x28
 10665 24ed 22000000 		.4byte	.LVL89
 10666 24f1 142B0000 		.4byte	0x2b14
 10667 24f5 21250000 		.4byte	0x2521
 10668 24f9 29       		.uleb128 0x29
 10669 24fa 01       		.byte	0x1
 10670 24fb 50       		.byte	0x50
 10671 24fc 02       		.byte	0x2
 10672 24fd 76       		.byte	0x76
 10673 24fe 00       		.sleb128 0
 10674 24ff 29       		.uleb128 0x29
 10675 2500 02       		.byte	0x2
 10676 2501 90       		.byte	0x90
 10677 2502 40       		.uleb128 0x40
 10678 2503 06       		.byte	0x6
 10679 2504 91       		.byte	0x91
 10680 2505 A47F     		.sleb128 -92
 10681 2507 F6       		.byte	0xf6
 10682 2508 04       		.byte	0x4
 10683 2509 29       		.uleb128 0x29
 10684 250a 29       		.uleb128 0x29
 10685 250b 02       		.byte	0x2
 10686 250c 90       		.byte	0x90
 10687 250d 41       		.uleb128 0x41
 10688 250e 06       		.byte	0x6
 10689 250f 91       		.byte	0x91
 10690 2510 A87F     		.sleb128 -88
 10691 2512 F6       		.byte	0xf6
 10692 2513 04       		.byte	0x4
 10693 2514 29       		.uleb128 0x29
 10694 2515 29       		.uleb128 0x29
 10695 2516 02       		.byte	0x2
 10696 2517 90       		.byte	0x90
 10697 2518 42       		.uleb128 0x42
 10698 2519 06       		.byte	0x6
 10699 251a 91       		.byte	0x91
 10700 251b AC7F     		.sleb128 -84
 10701 251d F6       		.byte	0xf6
 10702 251e 04       		.byte	0x4
 10703 251f 29       		.uleb128 0x29
 10704 2520 00       		.byte	0
 10705 2521 39       		.uleb128 0x39
 10706 2522 3E000000 		.4byte	.LVL90
 10707 2526 38250000 		.4byte	0x2538
 10708 252a 29       		.uleb128 0x29
 10709 252b 01       		.byte	0x1
 10710 252c 50       		.byte	0x50
 10711 252d 02       		.byte	0x2
 10712 252e 77       		.byte	0x77
 10713 252f 00       		.sleb128 0
 10714 2530 29       		.uleb128 0x29
 10715 2531 01       		.byte	0x1
 10716 2532 51       		.byte	0x51
ARM GAS  /var/folders/cs/83z6p2tj4w57s6p2rt8nwfp00000gn/T//cc3yBana.s 			page 227


 10717 2533 02       		.byte	0x2
 10718 2534 78       		.byte	0x78
 10719 2535 00       		.sleb128 0
 10720 2536 00       		.byte	0
 10721 2537 00       		.byte	0
 10722 2538 54       		.uleb128 0x54
 10723 2539 01       		.byte	0x1
 10724 253a 7C080000 		.4byte	.LASF232
 10725 253e 01       		.byte	0x1
 10726 253f 86       		.byte	0x86
 10727 2540 01       		.byte	0x1
 10728 2541 01       		.byte	0x1
 10729 2542 00000000 		.4byte	.LFB21
 10730 2546 58010000 		.4byte	.LFE21
 10731 254a 65270000 		.4byte	.LLST28
 10732 254e 01       		.byte	0x1
 10733 254f 2E260000 		.4byte	0x262e
 10734 2553 50       		.uleb128 0x50
 10735 2554 A8000000 		.4byte	.LASF195
 10736 2558 01       		.byte	0x1
 10737 2559 86       		.byte	0x86
 10738 255a 30       		.byte	0x30
 10739 255b 750F0000 		.4byte	0xf75
 10740 255f D0270000 		.4byte	.LLST29
 10741 2563 C2270000 		.4byte	.LVUS29
 10742 2567 50       		.uleb128 0x50
 10743 2568 4D070000 		.4byte	.LASF197
 10744 256c 01       		.byte	0x1
 10745 256d 86       		.byte	0x86
 10746 256e 3F       		.byte	0x3f
 10747 256f 7A0E0000 		.4byte	0xe7a
 10748 2573 34280000 		.4byte	.LLST30
 10749 2577 2E280000 		.4byte	.LVUS30
 10750 257b 55       		.uleb128 0x55
 10751 257c D8070000 		.4byte	.LASF163
 10752 2580 01       		.byte	0x1
 10753 2581 86       		.byte	0x86
 10754 2582 4F       		.byte	0x4f
 10755 2583 8A0B0000 		.4byte	0xb8a
 10756 2587 02       		.byte	0x2
 10757 2588 91       		.byte	0x91
 10758 2589 78       		.sleb128 -8
 10759 258a 51       		.uleb128 0x51
 10760 258b 28060000 		.4byte	.LASF233
 10761 258f 01       		.byte	0x1
 10762 2590 88       		.byte	0x88
 10763 2591 11       		.byte	0x11
 10764 2592 810F0000 		.4byte	0xf81
 10765 2596 64280000 		.4byte	.LLST31
 10766 259a 60280000 		.4byte	.LVUS31
 10767 259e 56       		.uleb128 0x56
 10768 259f 6900     		.ascii	"i\000"
 10769 25a1 01       		.byte	0x1
 10770 25a2 89       		.byte	0x89
 10771 25a3 06       		.byte	0x6
 10772 25a4 30000000 		.4byte	0x30
 10773 25a8 8F280000 		.4byte	.LLST32
ARM GAS  /var/folders/cs/83z6p2tj4w57s6p2rt8nwfp00000gn/T//cc3yBana.s 			page 228


 10774 25ac 87280000 		.4byte	.LVUS32
 10775 25b0 2E       		.uleb128 0x2e
 10776 25b1 20000000 		.4byte	.Ldebug_ranges0+0x20
 10777 25b5 D7250000 		.4byte	0x25d7
 10778 25b9 51       		.uleb128 0x51
 10779 25ba D7040000 		.4byte	.LASF202
 10780 25be 01       		.byte	0x1
 10781 25bf 9A       		.byte	0x9a
 10782 25c0 11       		.byte	0x11
 10783 25c1 860E0000 		.4byte	0xe86
 10784 25c5 CA280000 		.4byte	.LLST33
 10785 25c9 C6280000 		.4byte	.LVUS33
 10786 25cd 2A       		.uleb128 0x2a
 10787 25ce D2000000 		.4byte	.LVL79
 10788 25d2 EB2A0000 		.4byte	0x2aeb
 10789 25d6 00       		.byte	0
 10790 25d7 57       		.uleb128 0x57
 10791 25d8 24000000 		.4byte	.LVL69
 10792 25dc 02       		.byte	0x2
 10793 25dd 74       		.byte	0x74
 10794 25de 00       		.sleb128 0
 10795 25df F0250000 		.4byte	0x25f0
 10796 25e3 29       		.uleb128 0x29
 10797 25e4 01       		.byte	0x1
 10798 25e5 50       		.byte	0x50
 10799 25e6 02       		.byte	0x2
 10800 25e7 75       		.byte	0x75
 10801 25e8 00       		.sleb128 0
 10802 25e9 29       		.uleb128 0x29
 10803 25ea 01       		.byte	0x1
 10804 25eb 51       		.byte	0x51
 10805 25ec 02       		.byte	0x2
 10806 25ed 08       		.byte	0x8
 10807 25ee 68       		.byte	0x68
 10808 25ef 00       		.byte	0
 10809 25f0 28       		.uleb128 0x28
 10810 25f1 30000000 		.4byte	.LVL71
 10811 25f5 222B0000 		.4byte	0x2b22
 10812 25f9 04260000 		.4byte	0x2604
 10813 25fd 29       		.uleb128 0x29
 10814 25fe 01       		.byte	0x1
 10815 25ff 50       		.byte	0x50
 10816 2600 02       		.byte	0x2
 10817 2601 77       		.byte	0x77
 10818 2602 00       		.sleb128 0
 10819 2603 00       		.byte	0
 10820 2604 4A       		.uleb128 0x4a
 10821 2605 46000000 		.4byte	.LVL72
 10822 2609 14260000 		.4byte	0x2614
 10823 260d 29       		.uleb128 0x29
 10824 260e 01       		.byte	0x1
 10825 260f 50       		.byte	0x50
 10826 2610 02       		.byte	0x2
 10827 2611 75       		.byte	0x75
 10828 2612 00       		.sleb128 0
 10829 2613 00       		.byte	0
 10830 2614 4A       		.uleb128 0x4a
ARM GAS  /var/folders/cs/83z6p2tj4w57s6p2rt8nwfp00000gn/T//cc3yBana.s 			page 229


 10831 2615 5C000000 		.4byte	.LVL73
 10832 2619 24260000 		.4byte	0x2624
 10833 261d 29       		.uleb128 0x29
 10834 261e 01       		.byte	0x1
 10835 261f 50       		.byte	0x50
 10836 2620 02       		.byte	0x2
 10837 2621 75       		.byte	0x75
 10838 2622 00       		.sleb128 0
 10839 2623 00       		.byte	0
 10840 2624 2A       		.uleb128 0x2a
 10841 2625 26010000 		.4byte	.LVL85
 10842 2629 F92A0000 		.4byte	0x2af9
 10843 262d 00       		.byte	0
 10844 262e 58       		.uleb128 0x58
 10845 262f 01       		.byte	0x1
 10846 2630 61080000 		.4byte	.LASF234
 10847 2634 01       		.byte	0x1
 10848 2635 7E       		.byte	0x7e
 10849 2636 06       		.byte	0x6
 10850 2637 01       		.byte	0x1
 10851 2638 00000000 		.4byte	.LFB20
 10852 263c 1A000000 		.4byte	.LFE20
 10853 2640 02       		.byte	0x2
 10854 2641 7D       		.byte	0x7d
 10855 2642 00       		.sleb128 0
 10856 2643 01       		.byte	0x1
 10857 2644 6B260000 		.4byte	0x266b
 10858 2648 55       		.uleb128 0x55
 10859 2649 A8000000 		.4byte	.LASF195
 10860 264d 01       		.byte	0x1
 10861 264e 7E       		.byte	0x7e
 10862 264f 2E       		.byte	0x2e
 10863 2650 750F0000 		.4byte	0xf75
 10864 2654 01       		.byte	0x1
 10865 2655 50       		.byte	0x50
 10866 2656 50       		.uleb128 0x50
 10867 2657 1B010000 		.4byte	.LASF235
 10868 265b 01       		.byte	0x1
 10869 265c 7E       		.byte	0x7e
 10870 265d 38       		.byte	0x38
 10871 265e 30000000 		.4byte	0x30
 10872 2662 EC280000 		.4byte	.LLST27
 10873 2666 E8280000 		.4byte	.LVUS27
 10874 266a 00       		.byte	0
 10875 266b 58       		.uleb128 0x58
 10876 266c 01       		.byte	0x1
 10877 266d F6030000 		.4byte	.LASF236
 10878 2671 01       		.byte	0x1
 10879 2672 77       		.byte	0x77
 10880 2673 01       		.byte	0x1
 10881 2674 01       		.byte	0x1
 10882 2675 00000000 		.4byte	.LFB19
 10883 2679 18000000 		.4byte	.LFE19
 10884 267d 02       		.byte	0x2
 10885 267e 7D       		.byte	0x7d
 10886 267f 00       		.sleb128 0
 10887 2680 01       		.byte	0x1
ARM GAS  /var/folders/cs/83z6p2tj4w57s6p2rt8nwfp00000gn/T//cc3yBana.s 			page 230


 10888 2681 A8260000 		.4byte	0x26a8
 10889 2685 55       		.uleb128 0x55
 10890 2686 A8000000 		.4byte	.LASF195
 10891 268a 01       		.byte	0x1
 10892 268b 77       		.byte	0x77
 10893 268c 25       		.byte	0x25
 10894 268d 750F0000 		.4byte	0xf75
 10895 2691 01       		.byte	0x1
 10896 2692 50       		.byte	0x50
 10897 2693 50       		.uleb128 0x50
 10898 2694 0D040000 		.4byte	.LASF237
 10899 2698 01       		.byte	0x1
 10900 2699 77       		.byte	0x77
 10901 269a 2F       		.byte	0x2f
 10902 269b 30000000 		.4byte	0x30
 10903 269f 11290000 		.4byte	.LLST26
 10904 26a3 0D290000 		.4byte	.LVUS26
 10905 26a7 00       		.byte	0
 10906 26a8 59       		.uleb128 0x59
 10907 26a9 01       		.byte	0x1
 10908 26aa F1000000 		.4byte	.LASF238
 10909 26ae 01       		.byte	0x1
 10910 26af 69       		.byte	0x69
 10911 26b0 01       		.byte	0x1
 10912 26b1 01       		.byte	0x1
 10913 26b2 880D0000 		.4byte	0xd88
 10914 26b6 00000000 		.4byte	.LFB18
 10915 26ba 14000000 		.4byte	.LFE18
 10916 26be 02       		.byte	0x2
 10917 26bf 7D       		.byte	0x7d
 10918 26c0 00       		.sleb128 0
 10919 26c1 01       		.byte	0x1
 10920 26c2 DB260000 		.4byte	0x26db
 10921 26c6 50       		.uleb128 0x50
 10922 26c7 A8000000 		.4byte	.LASF195
 10923 26cb 01       		.byte	0x1
 10924 26cc 69       		.byte	0x69
 10925 26cd 29       		.byte	0x29
 10926 26ce 750F0000 		.4byte	0xf75
 10927 26d2 36290000 		.4byte	.LLST25
 10928 26d6 32290000 		.4byte	.LVUS25
 10929 26da 00       		.byte	0
 10930 26db 58       		.uleb128 0x58
 10931 26dc 01       		.byte	0x1
 10932 26dd A3060000 		.4byte	.LASF239
 10933 26e1 01       		.byte	0x1
 10934 26e2 62       		.byte	0x62
 10935 26e3 01       		.byte	0x1
 10936 26e4 01       		.byte	0x1
 10937 26e5 00000000 		.4byte	.LFB17
 10938 26e9 12000000 		.4byte	.LFE17
 10939 26ed 02       		.byte	0x2
 10940 26ee 7D       		.byte	0x7d
 10941 26ef 00       		.sleb128 0
 10942 26f0 01       		.byte	0x1
 10943 26f1 12270000 		.4byte	0x2712
 10944 26f5 55       		.uleb128 0x55
ARM GAS  /var/folders/cs/83z6p2tj4w57s6p2rt8nwfp00000gn/T//cc3yBana.s 			page 231


 10945 26f6 A8000000 		.4byte	.LASF195
 10946 26fa 01       		.byte	0x1
 10947 26fb 62       		.byte	0x62
 10948 26fc 29       		.byte	0x29
 10949 26fd 750F0000 		.4byte	0xf75
 10950 2701 01       		.byte	0x1
 10951 2702 50       		.byte	0x50
 10952 2703 55       		.uleb128 0x55
 10953 2704 69090000 		.4byte	.LASF198
 10954 2708 01       		.byte	0x1
 10955 2709 62       		.byte	0x62
 10956 270a 3B       		.byte	0x3b
 10957 270b 880D0000 		.4byte	0xd88
 10958 270f 01       		.byte	0x1
 10959 2710 51       		.byte	0x51
 10960 2711 00       		.byte	0
 10961 2712 58       		.uleb128 0x58
 10962 2713 01       		.byte	0x1
 10963 2714 290A0000 		.4byte	.LASF240
 10964 2718 01       		.byte	0x1
 10965 2719 5B       		.byte	0x5b
 10966 271a 01       		.byte	0x1
 10967 271b 01       		.byte	0x1
 10968 271c 00000000 		.4byte	.LFB16
 10969 2720 12000000 		.4byte	.LFE16
 10970 2724 02       		.byte	0x2
 10971 2725 7D       		.byte	0x7d
 10972 2726 00       		.sleb128 0
 10973 2727 01       		.byte	0x1
 10974 2728 4A270000 		.4byte	0x274a
 10975 272c 55       		.uleb128 0x55
 10976 272d A8000000 		.4byte	.LASF195
 10977 2731 01       		.byte	0x1
 10978 2732 5B       		.byte	0x5b
 10979 2733 27       		.byte	0x27
 10980 2734 750F0000 		.4byte	0xf75
 10981 2738 01       		.byte	0x1
 10982 2739 50       		.byte	0x50
 10983 273a 55       		.uleb128 0x55
 10984 273b 0A020000 		.4byte	.LASF241
 10985 273f 01       		.byte	0x1
 10986 2740 5B       		.byte	0x5b
 10987 2741 33       		.byte	0x33
 10988 2742 29000000 		.4byte	0x29
 10989 2746 02       		.byte	0x2
 10990 2747 90       		.byte	0x90
 10991 2748 40       		.uleb128 0x40
 10992 2749 00       		.byte	0
 10993 274a 54       		.uleb128 0x54
 10994 274b 01       		.byte	0x1
 10995 274c 60060000 		.4byte	.LASF242
 10996 2750 01       		.byte	0x1
 10997 2751 54       		.byte	0x54
 10998 2752 01       		.byte	0x1
 10999 2753 01       		.byte	0x1
 11000 2754 00000000 		.4byte	.LFB15
 11001 2758 68000000 		.4byte	.LFE15
ARM GAS  /var/folders/cs/83z6p2tj4w57s6p2rt8nwfp00000gn/T//cc3yBana.s 			page 232


 11002 275c 54290000 		.4byte	.LLST20
 11003 2760 01       		.byte	0x1
 11004 2761 DD270000 		.4byte	0x27dd
 11005 2765 50       		.uleb128 0x50
 11006 2766 A8000000 		.4byte	.LASF195
 11007 276a 01       		.byte	0x1
 11008 276b 54       		.byte	0x54
 11009 276c 27       		.byte	0x27
 11010 276d 750F0000 		.4byte	0xf75
 11011 2771 93290000 		.4byte	.LLST21
 11012 2775 8D290000 		.4byte	.LVUS21
 11013 2779 50       		.uleb128 0x50
 11014 277a 31080000 		.4byte	.LASF220
 11015 277e 01       		.byte	0x1
 11016 277f 54       		.byte	0x54
 11017 2780 37       		.byte	0x37
 11018 2781 DD270000 		.4byte	0x27dd
 11019 2785 C8290000 		.4byte	.LLST22
 11020 2789 BE290000 		.4byte	.LVUS22
 11021 278d 5A       		.uleb128 0x5a
 11022 278e 6D00     		.ascii	"m\000"
 11023 2790 01       		.byte	0x1
 11024 2791 56       		.byte	0x56
 11025 2792 0B       		.byte	0xb
 11026 2793 8A0B0000 		.4byte	0xb8a
 11027 2797 03       		.byte	0x3
 11028 2798 91       		.byte	0x91
 11029 2799 B47F     		.sleb128 -76
 11030 279b 52       		.uleb128 0x52
 11031 279c E3270000 		.4byte	0x27e3
 11032 27a0 42000000 		.4byte	.LBI30
 11033 27a4 0100     		.2byte	.LVU155
 11034 27a6 00000000 		.4byte	.Ldebug_ranges0+0
 11035 27aa 01       		.byte	0x1
 11036 27ab 57       		.byte	0x57
 11037 27ac 02       		.byte	0x2
 11038 27ad CC270000 		.4byte	0x27cc
 11039 27b1 31       		.uleb128 0x31
 11040 27b2 FE270000 		.4byte	0x27fe
 11041 27b6 1A2A0000 		.4byte	.LLST23
 11042 27ba 102A0000 		.4byte	.LVUS23
 11043 27be 31       		.uleb128 0x31
 11044 27bf F2270000 		.4byte	0x27f2
 11045 27c3 642A0000 		.4byte	.LLST24
 11046 27c7 622A0000 		.4byte	.LVUS24
 11047 27cb 00       		.byte	0
 11048 27cc 39       		.uleb128 0x39
 11049 27cd 42000000 		.4byte	.LVL49
 11050 27d1 DD2A0000 		.4byte	0x2add
 11051 27d5 29       		.uleb128 0x29
 11052 27d6 01       		.byte	0x1
 11053 27d7 50       		.byte	0x50
 11054 27d8 02       		.byte	0x2
 11055 27d9 75       		.byte	0x75
 11056 27da 00       		.sleb128 0
 11057 27db 00       		.byte	0
 11058 27dc 00       		.byte	0
ARM GAS  /var/folders/cs/83z6p2tj4w57s6p2rt8nwfp00000gn/T//cc3yBana.s 			page 233


 11059 27dd 05       		.uleb128 0x5
 11060 27de 04       		.byte	0x4
 11061 27df 8A0B0000 		.4byte	0xb8a
 11062 27e3 5B       		.uleb128 0x5b
 11063 27e4 01       		.byte	0x1
 11064 27e5 F8050000 		.4byte	.LASF243
 11065 27e9 01       		.byte	0x1
 11066 27ea 46       		.byte	0x46
 11067 27eb 01       		.byte	0x1
 11068 27ec 01       		.byte	0x1
 11069 27ed 01       		.byte	0x1
 11070 27ee 0B280000 		.4byte	0x280b
 11071 27f2 4C       		.uleb128 0x4c
 11072 27f3 A8000000 		.4byte	.LASF195
 11073 27f7 01       		.byte	0x1
 11074 27f8 46       		.byte	0x46
 11075 27f9 27       		.byte	0x27
 11076 27fa 750F0000 		.4byte	0xf75
 11077 27fe 4C       		.uleb128 0x4c
 11078 27ff 31080000 		.4byte	.LASF220
 11079 2803 01       		.byte	0x1
 11080 2804 46       		.byte	0x46
 11081 2805 37       		.byte	0x37
 11082 2806 DD270000 		.4byte	0x27dd
 11083 280a 00       		.byte	0
 11084 280b 54       		.uleb128 0x54
 11085 280c 01       		.byte	0x1
 11086 280d 21000000 		.4byte	.LASF244
 11087 2811 01       		.byte	0x1
 11088 2812 26       		.byte	0x26
 11089 2813 01       		.byte	0x1
 11090 2814 01       		.byte	0x1
 11091 2815 00000000 		.4byte	.LFB13
 11092 2819 78000000 		.4byte	.LFE13
 11093 281d 772A0000 		.4byte	.LLST12
 11094 2821 01       		.byte	0x1
 11095 2822 EE280000 		.4byte	0x28ee
 11096 2826 50       		.uleb128 0x50
 11097 2827 A8000000 		.4byte	.LASF195
 11098 282b 01       		.byte	0x1
 11099 282c 26       		.byte	0x26
 11100 282d 21       		.byte	0x21
 11101 282e 750F0000 		.4byte	0xf75
 11102 2832 9D2A0000 		.4byte	.LLST13
 11103 2836 972A0000 		.4byte	.LVUS13
 11104 283a 51       		.uleb128 0x51
 11105 283b 4D070000 		.4byte	.LASF197
 11106 283f 01       		.byte	0x1
 11107 2840 28       		.byte	0x28
 11108 2841 11       		.byte	0x11
 11109 2842 810F0000 		.4byte	0xf81
 11110 2846 CF2A0000 		.4byte	.LLST14
 11111 284a C92A0000 		.4byte	.LVUS14
 11112 284e 56       		.uleb128 0x56
 11113 284f 6900     		.ascii	"i\000"
 11114 2851 01       		.byte	0x1
 11115 2852 37       		.byte	0x37
ARM GAS  /var/folders/cs/83z6p2tj4w57s6p2rt8nwfp00000gn/T//cc3yBana.s 			page 234


 11116 2853 06       		.byte	0x6
 11117 2854 30000000 		.4byte	0x30
 11118 2858 002B0000 		.4byte	.LLST15
 11119 285c F82A0000 		.4byte	.LVUS15
 11120 2860 44       		.uleb128 0x44
 11121 2861 0A000000 		.4byte	.LBB29
 11122 2865 2C000000 		.4byte	.LBE29
 11123 2869 BA280000 		.4byte	0x28ba
 11124 286d 51       		.uleb128 0x51
 11125 286e C6000000 		.4byte	.LASF154
 11126 2872 01       		.byte	0x1
 11127 2873 2C       		.byte	0x2c
 11128 2874 12       		.byte	0x12
 11129 2875 810F0000 		.4byte	0xf81
 11130 2879 392B0000 		.4byte	.LLST16
 11131 287d 372B0000 		.4byte	.LVUS16
 11132 2881 2A       		.uleb128 0x2a
 11133 2882 14000000 		.4byte	.LVL26
 11134 2886 302B0000 		.4byte	0x2b30
 11135 288a 4A       		.uleb128 0x4a
 11136 288b 1C000000 		.4byte	.LVL27
 11137 288f 99280000 		.4byte	0x2899
 11138 2893 29       		.uleb128 0x29
 11139 2894 01       		.byte	0x1
 11140 2895 51       		.byte	0x51
 11141 2896 01       		.byte	0x1
 11142 2897 30       		.byte	0x30
 11143 2898 00       		.byte	0
 11144 2899 4A       		.uleb128 0x4a
 11145 289a 24000000 		.4byte	.LVL28
 11146 289e A8280000 		.4byte	0x28a8
 11147 28a2 29       		.uleb128 0x29
 11148 28a3 01       		.byte	0x1
 11149 28a4 51       		.byte	0x51
 11150 28a5 01       		.byte	0x1
 11151 28a6 30       		.byte	0x30
 11152 28a7 00       		.byte	0
 11153 28a8 53       		.uleb128 0x53
 11154 28a9 2C000000 		.4byte	.LVL29
 11155 28ad 29       		.uleb128 0x29
 11156 28ae 01       		.byte	0x1
 11157 28af 50       		.byte	0x50
 11158 28b0 02       		.byte	0x2
 11159 28b1 74       		.byte	0x74
 11160 28b2 00       		.sleb128 0
 11161 28b3 29       		.uleb128 0x29
 11162 28b4 01       		.byte	0x1
 11163 28b5 51       		.byte	0x51
 11164 28b6 01       		.byte	0x1
 11165 28b7 30       		.byte	0x30
 11166 28b8 00       		.byte	0
 11167 28b9 00       		.byte	0
 11168 28ba 4A       		.uleb128 0x4a
 11169 28bb 3A000000 		.4byte	.LVL30
 11170 28bf CA280000 		.4byte	0x28ca
 11171 28c3 29       		.uleb128 0x29
 11172 28c4 01       		.byte	0x1
ARM GAS  /var/folders/cs/83z6p2tj4w57s6p2rt8nwfp00000gn/T//cc3yBana.s 			page 235


 11173 28c5 51       		.byte	0x51
 11174 28c6 02       		.byte	0x2
 11175 28c7 75       		.byte	0x75
 11176 28c8 00       		.sleb128 0
 11177 28c9 00       		.byte	0
 11178 28ca 2A       		.uleb128 0x2a
 11179 28cb 4E000000 		.4byte	.LVL32
 11180 28cf 0B280000 		.4byte	0x280b
 11181 28d3 4A       		.uleb128 0x4a
 11182 28d4 5C000000 		.4byte	.LVL34
 11183 28d8 E2280000 		.4byte	0x28e2
 11184 28dc 29       		.uleb128 0x29
 11185 28dd 01       		.byte	0x1
 11186 28de 51       		.byte	0x51
 11187 28df 01       		.byte	0x1
 11188 28e0 30       		.byte	0x30
 11189 28e1 00       		.byte	0
 11190 28e2 53       		.uleb128 0x53
 11191 28e3 6E000000 		.4byte	.LVL36
 11192 28e7 29       		.uleb128 0x29
 11193 28e8 01       		.byte	0x1
 11194 28e9 51       		.byte	0x51
 11195 28ea 01       		.byte	0x1
 11196 28eb 30       		.byte	0x30
 11197 28ec 00       		.byte	0
 11198 28ed 00       		.byte	0
 11199 28ee 5B       		.uleb128 0x5b
 11200 28ef 01       		.byte	0x1
 11201 28f0 3D090000 		.4byte	.LASF245
 11202 28f4 01       		.byte	0x1
 11203 28f5 15       		.byte	0x15
 11204 28f6 01       		.byte	0x1
 11205 28f7 01       		.byte	0x1
 11206 28f8 01       		.byte	0x1
 11207 28f9 0A290000 		.4byte	0x290a
 11208 28fd 4C       		.uleb128 0x4c
 11209 28fe A8000000 		.4byte	.LASF195
 11210 2902 01       		.byte	0x1
 11211 2903 15       		.byte	0x15
 11212 2904 1F       		.byte	0x1f
 11213 2905 750F0000 		.4byte	0xf75
 11214 2909 00       		.byte	0
 11215 290a 5C       		.uleb128 0x5c
 11216 290b 0F020000 		.4byte	.LASF246
 11217 290f 02       		.byte	0x2
 11218 2910 43       		.byte	0x43
 11219 2911 15       		.byte	0x15
 11220 2912 01       		.byte	0x1
 11221 2913 29000000 		.4byte	0x29
 11222 2917 03       		.byte	0x3
 11223 2918 27290000 		.4byte	0x2927
 11224 291c 5D       		.uleb128 0x5d
 11225 291d 7600     		.ascii	"v\000"
 11226 291f 02       		.byte	0x2
 11227 2920 43       		.byte	0x43
 11228 2921 36       		.byte	0x36
 11229 2922 27290000 		.4byte	0x2927
ARM GAS  /var/folders/cs/83z6p2tj4w57s6p2rt8nwfp00000gn/T//cc3yBana.s 			page 236


 11230 2926 00       		.byte	0
 11231 2927 05       		.uleb128 0x5
 11232 2928 04       		.byte	0x4
 11233 2929 030B0000 		.4byte	0xb03
 11234 292d 5C       		.uleb128 0x5c
 11235 292e F7010000 		.4byte	.LASF247
 11236 2932 02       		.byte	0x2
 11237 2933 3C       		.byte	0x3c
 11238 2934 15       		.byte	0x15
 11239 2935 01       		.byte	0x1
 11240 2936 29000000 		.4byte	0x29
 11241 293a 03       		.byte	0x3
 11242 293b 54290000 		.4byte	0x2954
 11243 293f 5D       		.uleb128 0x5d
 11244 2940 6100     		.ascii	"a\000"
 11245 2942 02       		.byte	0x2
 11246 2943 3C       		.byte	0x3c
 11247 2944 2A       		.byte	0x2a
 11248 2945 030B0000 		.4byte	0xb03
 11249 2949 5D       		.uleb128 0x5d
 11250 294a 6200     		.ascii	"b\000"
 11251 294c 02       		.byte	0x2
 11252 294d 3C       		.byte	0x3c
 11253 294e 36       		.byte	0x36
 11254 294f 030B0000 		.4byte	0xb03
 11255 2953 00       		.byte	0
 11256 2954 5C       		.uleb128 0x5c
 11257 2955 31070000 		.4byte	.LASF248
 11258 2959 02       		.byte	0x2
 11259 295a 32       		.byte	0x32
 11260 295b 18       		.byte	0x18
 11261 295c 01       		.byte	0x1
 11262 295d 030B0000 		.4byte	0xb03
 11263 2961 03       		.byte	0x3
 11264 2962 88290000 		.4byte	0x2988
 11265 2966 5D       		.uleb128 0x5d
 11266 2967 647800   		.ascii	"dx\000"
 11267 296a 02       		.byte	0x2
 11268 296b 32       		.byte	0x32
 11269 296c 2B       		.byte	0x2b
 11270 296d 29000000 		.4byte	0x29
 11271 2971 5D       		.uleb128 0x5d
 11272 2972 647900   		.ascii	"dy\000"
 11273 2975 02       		.byte	0x2
 11274 2976 32       		.byte	0x32
 11275 2977 35       		.byte	0x35
 11276 2978 29000000 		.4byte	0x29
 11277 297c 5D       		.uleb128 0x5d
 11278 297d 647A00   		.ascii	"dz\000"
 11279 2980 02       		.byte	0x2
 11280 2981 32       		.byte	0x32
 11281 2982 3F       		.byte	0x3f
 11282 2983 29000000 		.4byte	0x29
 11283 2987 00       		.byte	0
 11284 2988 5C       		.uleb128 0x5c
 11285 2989 CB070000 		.4byte	.LASF249
 11286 298d 02       		.byte	0x2
ARM GAS  /var/folders/cs/83z6p2tj4w57s6p2rt8nwfp00000gn/T//cc3yBana.s 			page 237


 11287 298e 11       		.byte	0x11
 11288 298f 15       		.byte	0x15
 11289 2990 01       		.byte	0x1
 11290 2991 29000000 		.4byte	0x29
 11291 2995 03       		.byte	0x3
 11292 2996 B1290000 		.4byte	0x29b1
 11293 299a 5D       		.uleb128 0x5d
 11294 299b 7800     		.ascii	"x\000"
 11295 299d 02       		.byte	0x2
 11296 299e 11       		.byte	0x11
 11297 299f 28       		.byte	0x28
 11298 29a0 29000000 		.4byte	0x29
 11299 29a4 4D       		.uleb128 0x4d
 11300 29a5 2E020000 		.4byte	.LASF250
 11301 29a9 02       		.byte	0x2
 11302 29aa 13       		.byte	0x13
 11303 29ab 08       		.byte	0x8
 11304 29ac 29000000 		.4byte	0x29
 11305 29b0 00       		.byte	0
 11306 29b1 5E       		.uleb128 0x5e
 11307 29b2 EE280000 		.4byte	0x28ee
 11308 29b6 00000000 		.4byte	.LFB12
 11309 29ba 48000000 		.4byte	.LFE12
 11310 29be 4C2B0000 		.4byte	.LLST10
 11311 29c2 01       		.byte	0x1
 11312 29c3 D5290000 		.4byte	0x29d5
 11313 29c7 31       		.uleb128 0x31
 11314 29c8 FD280000 		.4byte	0x28fd
 11315 29cc 802B0000 		.4byte	.LLST11
 11316 29d0 782B0000 		.4byte	.LVUS11
 11317 29d4 00       		.byte	0
 11318 29d5 5E       		.uleb128 0x5e
 11319 29d6 E3270000 		.4byte	0x27e3
 11320 29da 00000000 		.4byte	.LFB14
 11321 29de 2E000000 		.4byte	.LFE14
 11322 29e2 B72B0000 		.4byte	.LLST17
 11323 29e6 01       		.byte	0x1
 11324 29e7 062A0000 		.4byte	0x2a06
 11325 29eb 31       		.uleb128 0x31
 11326 29ec F2270000 		.4byte	0x27f2
 11327 29f0 E72B0000 		.4byte	.LLST18
 11328 29f4 E32B0000 		.4byte	.LVUS18
 11329 29f8 31       		.uleb128 0x31
 11330 29f9 FE270000 		.4byte	0x27fe
 11331 29fd 0F2C0000 		.4byte	.LLST19
 11332 2a01 052C0000 		.4byte	.LVUS19
 11333 2a05 00       		.byte	0
 11334 2a06 5E       		.uleb128 0x5e
 11335 2a07 071F0000 		.4byte	0x1f07
 11336 2a0b 00000000 		.4byte	.LFB29
 11337 2a0f 20000000 		.4byte	.LFE29
 11338 2a13 572C0000 		.4byte	.LLST67
 11339 2a17 01       		.byte	0x1
 11340 2a18 322A0000 		.4byte	0x2a32
 11341 2a1c 31       		.uleb128 0x31
 11342 2a1d 171F0000 		.4byte	0x1f17
 11343 2a21 872C0000 		.4byte	.LLST68
ARM GAS  /var/folders/cs/83z6p2tj4w57s6p2rt8nwfp00000gn/T//cc3yBana.s 			page 238


 11344 2a25 832C0000 		.4byte	.LVUS68
 11345 2a29 5F       		.uleb128 0x5f
 11346 2a2a 241F0000 		.4byte	0x1f24
 11347 2a2e 02       		.byte	0x2
 11348 2a2f 91       		.byte	0x91
 11349 2a30 74       		.sleb128 -12
 11350 2a31 00       		.byte	0
 11351 2a32 60       		.uleb128 0x60
 11352 2a33 D31E0000 		.4byte	0x1ed3
 11353 2a37 00000000 		.4byte	.LFB30
 11354 2a3b 0A000000 		.4byte	.LFE30
 11355 2a3f 02       		.byte	0x2
 11356 2a40 7D       		.byte	0x7d
 11357 2a41 00       		.sleb128 0
 11358 2a42 01       		.byte	0x1
 11359 2a43 5F2A0000 		.4byte	0x2a5f
 11360 2a47 5F       		.uleb128 0x5f
 11361 2a48 E31E0000 		.4byte	0x1ee3
 11362 2a4c 01       		.byte	0x1
 11363 2a4d 50       		.byte	0x50
 11364 2a4e 5F       		.uleb128 0x5f
 11365 2a4f F01E0000 		.4byte	0x1ef0
 11366 2a53 02       		.byte	0x2
 11367 2a54 90       		.byte	0x90
 11368 2a55 40       		.uleb128 0x40
 11369 2a56 5F       		.uleb128 0x5f
 11370 2a57 FB1E0000 		.4byte	0x1efb
 11371 2a5b 02       		.byte	0x2
 11372 2a5c 90       		.byte	0x90
 11373 2a5d 41       		.uleb128 0x41
 11374 2a5e 00       		.byte	0
 11375 2a5f 61       		.uleb128 0x61
 11376 2a60 01       		.byte	0x1
 11377 2a61 01       		.byte	0x1
 11378 2a62 1A050000 		.4byte	.LASF251
 11379 2a66 1A050000 		.4byte	.LASF251
 11380 2a6a 0E       		.byte	0xe
 11381 2a6b 1B       		.byte	0x1b
 11382 2a6c 06       		.byte	0x6
 11383 2a6d 61       		.uleb128 0x61
 11384 2a6e 01       		.byte	0x1
 11385 2a6f 01       		.byte	0x1
 11386 2a70 F6080000 		.4byte	.LASF252
 11387 2a74 F6080000 		.4byte	.LASF252
 11388 2a78 0E       		.byte	0xe
 11389 2a79 1F       		.byte	0x1f
 11390 2a7a 0D       		.byte	0xd
 11391 2a7b 61       		.uleb128 0x61
 11392 2a7c 01       		.byte	0x1
 11393 2a7d 01       		.byte	0x1
 11394 2a7e 91060000 		.4byte	.LASF253
 11395 2a82 91060000 		.4byte	.LASF253
 11396 2a86 0E       		.byte	0xe
 11397 2a87 1E       		.byte	0x1e
 11398 2a88 0D       		.byte	0xd
 11399 2a89 61       		.uleb128 0x61
 11400 2a8a 01       		.byte	0x1
ARM GAS  /var/folders/cs/83z6p2tj4w57s6p2rt8nwfp00000gn/T//cc3yBana.s 			page 239


 11401 2a8b 01       		.byte	0x1
 11402 2a8c DB060000 		.4byte	.LASF254
 11403 2a90 DB060000 		.4byte	.LASF254
 11404 2a94 0E       		.byte	0xe
 11405 2a95 18       		.byte	0x18
 11406 2a96 0D       		.byte	0xd
 11407 2a97 61       		.uleb128 0x61
 11408 2a98 01       		.byte	0x1
 11409 2a99 01       		.byte	0x1
 11410 2a9a 53070000 		.4byte	.LASF255
 11411 2a9e 53070000 		.4byte	.LASF255
 11412 2aa2 0E       		.byte	0xe
 11413 2aa3 17       		.byte	0x17
 11414 2aa4 0D       		.byte	0xd
 11415 2aa5 61       		.uleb128 0x61
 11416 2aa6 01       		.byte	0x1
 11417 2aa7 01       		.byte	0x1
 11418 2aa8 1A060000 		.4byte	.LASF256
 11419 2aac 1A060000 		.4byte	.LASF256
 11420 2ab0 0E       		.byte	0xe
 11421 2ab1 1D       		.byte	0x1d
 11422 2ab2 0D       		.byte	0xd
 11423 2ab3 61       		.uleb128 0x61
 11424 2ab4 01       		.byte	0x1
 11425 2ab5 01       		.byte	0x1
 11426 2ab6 88030000 		.4byte	.LASF257
 11427 2aba 88030000 		.4byte	.LASF257
 11428 2abe 0E       		.byte	0xe
 11429 2abf 16       		.byte	0x16
 11430 2ac0 0D       		.byte	0xd
 11431 2ac1 61       		.uleb128 0x61
 11432 2ac2 01       		.byte	0x1
 11433 2ac3 01       		.byte	0x1
 11434 2ac4 15040000 		.4byte	.LASF258
 11435 2ac8 15040000 		.4byte	.LASF258
 11436 2acc 08       		.byte	0x8
 11437 2acd 8C       		.byte	0x8c
 11438 2ace 06       		.byte	0x6
 11439 2acf 61       		.uleb128 0x61
 11440 2ad0 01       		.byte	0x1
 11441 2ad1 01       		.byte	0x1
 11442 2ad2 30090000 		.4byte	.LASF259
 11443 2ad6 30090000 		.4byte	.LASF259
 11444 2ada 02       		.byte	0x2
 11445 2adb 60       		.byte	0x60
 11446 2adc 0A       		.byte	0xa
 11447 2add 61       		.uleb128 0x61
 11448 2ade 01       		.byte	0x1
 11449 2adf 01       		.byte	0x1
 11450 2ae0 8B090000 		.4byte	.LASF260
 11451 2ae4 8B090000 		.4byte	.LASF260
 11452 2ae8 02       		.byte	0x2
 11453 2ae9 62       		.byte	0x62
 11454 2aea 0A       		.byte	0xa
 11455 2aeb 61       		.uleb128 0x61
 11456 2aec 01       		.byte	0x1
 11457 2aed 01       		.byte	0x1
ARM GAS  /var/folders/cs/83z6p2tj4w57s6p2rt8nwfp00000gn/T//cc3yBana.s 			page 240


 11458 2aee 3E030000 		.4byte	.LASF261
 11459 2af2 3E030000 		.4byte	.LASF261
 11460 2af6 02       		.byte	0x2
 11461 2af7 41       		.byte	0x41
 11462 2af8 0A       		.byte	0xa
 11463 2af9 61       		.uleb128 0x61
 11464 2afa 01       		.byte	0x1
 11465 2afb 01       		.byte	0x1
 11466 2afc 63050000 		.4byte	.LASF262
 11467 2b00 63050000 		.4byte	.LASF262
 11468 2b04 02       		.byte	0x2
 11469 2b05 63       		.byte	0x63
 11470 2b06 09       		.byte	0x9
 11471 2b07 62       		.uleb128 0x62
 11472 2b08 01       		.byte	0x1
 11473 2b09 01       		.byte	0x1
 11474 2b0a 78050000 		.4byte	.LASF267
 11475 2b0e 9E080000 		.4byte	.LASF268
 11476 2b12 0F       		.byte	0xf
 11477 2b13 00       		.byte	0
 11478 2b14 61       		.uleb128 0x61
 11479 2b15 01       		.byte	0x1
 11480 2b16 01       		.byte	0x1
 11481 2b17 70070000 		.4byte	.LASF263
 11482 2b1b 70070000 		.4byte	.LASF263
 11483 2b1f 02       		.byte	0x2
 11484 2b20 61       		.byte	0x61
 11485 2b21 0A       		.byte	0xa
 11486 2b22 61       		.uleb128 0x61
 11487 2b23 01       		.byte	0x1
 11488 2b24 01       		.byte	0x1
 11489 2b25 18030000 		.4byte	.LASF264
 11490 2b29 18030000 		.4byte	.LASF264
 11491 2b2d 0C       		.byte	0xc
 11492 2b2e 2A       		.byte	0x2a
 11493 2b2f 0A       		.byte	0xa
 11494 2b30 61       		.uleb128 0x61
 11495 2b31 01       		.byte	0x1
 11496 2b32 01       		.byte	0x1
 11497 2b33 DD050000 		.4byte	.LASF265
 11498 2b37 DD050000 		.4byte	.LASF265
 11499 2b3b 0C       		.byte	0xc
 11500 2b3c 2B       		.byte	0x2b
 11501 2b3d 06       		.byte	0x6
 11502 2b3e 00       		.byte	0
 11503              		.section	.debug_abbrev,"",%progbits
 11504              	.Ldebug_abbrev0:
 11505 0000 01       		.uleb128 0x1
 11506 0001 11       		.uleb128 0x11
 11507 0002 01       		.byte	0x1
 11508 0003 25       		.uleb128 0x25
 11509 0004 0E       		.uleb128 0xe
 11510 0005 13       		.uleb128 0x13
 11511 0006 0B       		.uleb128 0xb
 11512 0007 03       		.uleb128 0x3
 11513 0008 0E       		.uleb128 0xe
 11514 0009 1B       		.uleb128 0x1b
ARM GAS  /var/folders/cs/83z6p2tj4w57s6p2rt8nwfp00000gn/T//cc3yBana.s 			page 241


 11515 000a 0E       		.uleb128 0xe
 11516 000b 55       		.uleb128 0x55
 11517 000c 06       		.uleb128 0x6
 11518 000d 11       		.uleb128 0x11
 11519 000e 01       		.uleb128 0x1
 11520 000f 52       		.uleb128 0x52
 11521 0010 01       		.uleb128 0x1
 11522 0011 10       		.uleb128 0x10
 11523 0012 06       		.uleb128 0x6
 11524 0013 00       		.byte	0
 11525 0014 00       		.byte	0
 11526 0015 02       		.uleb128 0x2
 11527 0016 24       		.uleb128 0x24
 11528 0017 00       		.byte	0
 11529 0018 0B       		.uleb128 0xb
 11530 0019 0B       		.uleb128 0xb
 11531 001a 3E       		.uleb128 0x3e
 11532 001b 0B       		.uleb128 0xb
 11533 001c 03       		.uleb128 0x3
 11534 001d 0E       		.uleb128 0xe
 11535 001e 00       		.byte	0
 11536 001f 00       		.byte	0
 11537 0020 03       		.uleb128 0x3
 11538 0021 24       		.uleb128 0x24
 11539 0022 00       		.byte	0
 11540 0023 0B       		.uleb128 0xb
 11541 0024 0B       		.uleb128 0xb
 11542 0025 3E       		.uleb128 0x3e
 11543 0026 0B       		.uleb128 0xb
 11544 0027 03       		.uleb128 0x3
 11545 0028 08       		.uleb128 0x8
 11546 0029 00       		.byte	0
 11547 002a 00       		.byte	0
 11548 002b 04       		.uleb128 0x4
 11549 002c 16       		.uleb128 0x16
 11550 002d 00       		.byte	0
 11551 002e 03       		.uleb128 0x3
 11552 002f 0E       		.uleb128 0xe
 11553 0030 3A       		.uleb128 0x3a
 11554 0031 0B       		.uleb128 0xb
 11555 0032 3B       		.uleb128 0x3b
 11556 0033 0B       		.uleb128 0xb
 11557 0034 39       		.uleb128 0x39
 11558 0035 0B       		.uleb128 0xb
 11559 0036 49       		.uleb128 0x49
 11560 0037 13       		.uleb128 0x13
 11561 0038 00       		.byte	0
 11562 0039 00       		.byte	0
 11563 003a 05       		.uleb128 0x5
 11564 003b 0F       		.uleb128 0xf
 11565 003c 00       		.byte	0
 11566 003d 0B       		.uleb128 0xb
 11567 003e 0B       		.uleb128 0xb
 11568 003f 49       		.uleb128 0x49
 11569 0040 13       		.uleb128 0x13
 11570 0041 00       		.byte	0
 11571 0042 00       		.byte	0
ARM GAS  /var/folders/cs/83z6p2tj4w57s6p2rt8nwfp00000gn/T//cc3yBana.s 			page 242


 11572 0043 06       		.uleb128 0x6
 11573 0044 13       		.uleb128 0x13
 11574 0045 00       		.byte	0
 11575 0046 03       		.uleb128 0x3
 11576 0047 0E       		.uleb128 0xe
 11577 0048 3C       		.uleb128 0x3c
 11578 0049 0C       		.uleb128 0xc
 11579 004a 00       		.byte	0
 11580 004b 00       		.byte	0
 11581 004c 07       		.uleb128 0x7
 11582 004d 16       		.uleb128 0x16
 11583 004e 00       		.byte	0
 11584 004f 03       		.uleb128 0x3
 11585 0050 0E       		.uleb128 0xe
 11586 0051 3A       		.uleb128 0x3a
 11587 0052 0B       		.uleb128 0xb
 11588 0053 3B       		.uleb128 0x3b
 11589 0054 05       		.uleb128 0x5
 11590 0055 39       		.uleb128 0x39
 11591 0056 0B       		.uleb128 0xb
 11592 0057 49       		.uleb128 0x49
 11593 0058 13       		.uleb128 0x13
 11594 0059 00       		.byte	0
 11595 005a 00       		.byte	0
 11596 005b 08       		.uleb128 0x8
 11597 005c 17       		.uleb128 0x17
 11598 005d 01       		.byte	0x1
 11599 005e 0B       		.uleb128 0xb
 11600 005f 0B       		.uleb128 0xb
 11601 0060 3A       		.uleb128 0x3a
 11602 0061 0B       		.uleb128 0xb
 11603 0062 3B       		.uleb128 0x3b
 11604 0063 0B       		.uleb128 0xb
 11605 0064 39       		.uleb128 0x39
 11606 0065 0B       		.uleb128 0xb
 11607 0066 01       		.uleb128 0x1
 11608 0067 13       		.uleb128 0x13
 11609 0068 00       		.byte	0
 11610 0069 00       		.byte	0
 11611 006a 09       		.uleb128 0x9
 11612 006b 0D       		.uleb128 0xd
 11613 006c 00       		.byte	0
 11614 006d 03       		.uleb128 0x3
 11615 006e 0E       		.uleb128 0xe
 11616 006f 3A       		.uleb128 0x3a
 11617 0070 0B       		.uleb128 0xb
 11618 0071 3B       		.uleb128 0x3b
 11619 0072 0B       		.uleb128 0xb
 11620 0073 39       		.uleb128 0x39
 11621 0074 0B       		.uleb128 0xb
 11622 0075 49       		.uleb128 0x49
 11623 0076 13       		.uleb128 0x13
 11624 0077 00       		.byte	0
 11625 0078 00       		.byte	0
 11626 0079 0A       		.uleb128 0xa
 11627 007a 01       		.uleb128 0x1
 11628 007b 01       		.byte	0x1
ARM GAS  /var/folders/cs/83z6p2tj4w57s6p2rt8nwfp00000gn/T//cc3yBana.s 			page 243


 11629 007c 49       		.uleb128 0x49
 11630 007d 13       		.uleb128 0x13
 11631 007e 01       		.uleb128 0x1
 11632 007f 13       		.uleb128 0x13
 11633 0080 00       		.byte	0
 11634 0081 00       		.byte	0
 11635 0082 0B       		.uleb128 0xb
 11636 0083 21       		.uleb128 0x21
 11637 0084 00       		.byte	0
 11638 0085 49       		.uleb128 0x49
 11639 0086 13       		.uleb128 0x13
 11640 0087 2F       		.uleb128 0x2f
 11641 0088 0B       		.uleb128 0xb
 11642 0089 00       		.byte	0
 11643 008a 00       		.byte	0
 11644 008b 0C       		.uleb128 0xc
 11645 008c 13       		.uleb128 0x13
 11646 008d 01       		.byte	0x1
 11647 008e 0B       		.uleb128 0xb
 11648 008f 0B       		.uleb128 0xb
 11649 0090 3A       		.uleb128 0x3a
 11650 0091 0B       		.uleb128 0xb
 11651 0092 3B       		.uleb128 0x3b
 11652 0093 0B       		.uleb128 0xb
 11653 0094 39       		.uleb128 0x39
 11654 0095 0B       		.uleb128 0xb
 11655 0096 01       		.uleb128 0x1
 11656 0097 13       		.uleb128 0x13
 11657 0098 00       		.byte	0
 11658 0099 00       		.byte	0
 11659 009a 0D       		.uleb128 0xd
 11660 009b 0D       		.uleb128 0xd
 11661 009c 00       		.byte	0
 11662 009d 03       		.uleb128 0x3
 11663 009e 0E       		.uleb128 0xe
 11664 009f 3A       		.uleb128 0x3a
 11665 00a0 0B       		.uleb128 0xb
 11666 00a1 3B       		.uleb128 0x3b
 11667 00a2 0B       		.uleb128 0xb
 11668 00a3 39       		.uleb128 0x39
 11669 00a4 0B       		.uleb128 0xb
 11670 00a5 49       		.uleb128 0x49
 11671 00a6 13       		.uleb128 0x13
 11672 00a7 38       		.uleb128 0x38
 11673 00a8 0A       		.uleb128 0xa
 11674 00a9 00       		.byte	0
 11675 00aa 00       		.byte	0
 11676 00ab 0E       		.uleb128 0xe
 11677 00ac 0F       		.uleb128 0xf
 11678 00ad 00       		.byte	0
 11679 00ae 0B       		.uleb128 0xb
 11680 00af 0B       		.uleb128 0xb
 11681 00b0 00       		.byte	0
 11682 00b1 00       		.byte	0
 11683 00b2 0F       		.uleb128 0xf
 11684 00b3 26       		.uleb128 0x26
 11685 00b4 00       		.byte	0
ARM GAS  /var/folders/cs/83z6p2tj4w57s6p2rt8nwfp00000gn/T//cc3yBana.s 			page 244


 11686 00b5 49       		.uleb128 0x49
 11687 00b6 13       		.uleb128 0x13
 11688 00b7 00       		.byte	0
 11689 00b8 00       		.byte	0
 11690 00b9 10       		.uleb128 0x10
 11691 00ba 13       		.uleb128 0x13
 11692 00bb 01       		.byte	0x1
 11693 00bc 03       		.uleb128 0x3
 11694 00bd 0E       		.uleb128 0xe
 11695 00be 0B       		.uleb128 0xb
 11696 00bf 0B       		.uleb128 0xb
 11697 00c0 3A       		.uleb128 0x3a
 11698 00c1 0B       		.uleb128 0xb
 11699 00c2 3B       		.uleb128 0x3b
 11700 00c3 0B       		.uleb128 0xb
 11701 00c4 39       		.uleb128 0x39
 11702 00c5 0B       		.uleb128 0xb
 11703 00c6 01       		.uleb128 0x1
 11704 00c7 13       		.uleb128 0x13
 11705 00c8 00       		.byte	0
 11706 00c9 00       		.byte	0
 11707 00ca 11       		.uleb128 0x11
 11708 00cb 0D       		.uleb128 0xd
 11709 00cc 00       		.byte	0
 11710 00cd 03       		.uleb128 0x3
 11711 00ce 08       		.uleb128 0x8
 11712 00cf 3A       		.uleb128 0x3a
 11713 00d0 0B       		.uleb128 0xb
 11714 00d1 3B       		.uleb128 0x3b
 11715 00d2 0B       		.uleb128 0xb
 11716 00d3 39       		.uleb128 0x39
 11717 00d4 0B       		.uleb128 0xb
 11718 00d5 49       		.uleb128 0x49
 11719 00d6 13       		.uleb128 0x13
 11720 00d7 38       		.uleb128 0x38
 11721 00d8 0A       		.uleb128 0xa
 11722 00d9 00       		.byte	0
 11723 00da 00       		.byte	0
 11724 00db 12       		.uleb128 0x12
 11725 00dc 13       		.uleb128 0x13
 11726 00dd 01       		.byte	0x1
 11727 00de 03       		.uleb128 0x3
 11728 00df 0E       		.uleb128 0xe
 11729 00e0 0B       		.uleb128 0xb
 11730 00e1 05       		.uleb128 0x5
 11731 00e2 3A       		.uleb128 0x3a
 11732 00e3 0B       		.uleb128 0xb
 11733 00e4 3B       		.uleb128 0x3b
 11734 00e5 0B       		.uleb128 0xb
 11735 00e6 39       		.uleb128 0x39
 11736 00e7 0B       		.uleb128 0xb
 11737 00e8 01       		.uleb128 0x1
 11738 00e9 13       		.uleb128 0x13
 11739 00ea 00       		.byte	0
 11740 00eb 00       		.byte	0
 11741 00ec 13       		.uleb128 0x13
 11742 00ed 15       		.uleb128 0x15
ARM GAS  /var/folders/cs/83z6p2tj4w57s6p2rt8nwfp00000gn/T//cc3yBana.s 			page 245


 11743 00ee 00       		.byte	0
 11744 00ef 27       		.uleb128 0x27
 11745 00f0 0C       		.uleb128 0xc
 11746 00f1 00       		.byte	0
 11747 00f2 00       		.byte	0
 11748 00f3 14       		.uleb128 0x14
 11749 00f4 15       		.uleb128 0x15
 11750 00f5 01       		.byte	0x1
 11751 00f6 27       		.uleb128 0x27
 11752 00f7 0C       		.uleb128 0xc
 11753 00f8 49       		.uleb128 0x49
 11754 00f9 13       		.uleb128 0x13
 11755 00fa 01       		.uleb128 0x1
 11756 00fb 13       		.uleb128 0x13
 11757 00fc 00       		.byte	0
 11758 00fd 00       		.byte	0
 11759 00fe 15       		.uleb128 0x15
 11760 00ff 05       		.uleb128 0x5
 11761 0100 00       		.byte	0
 11762 0101 49       		.uleb128 0x49
 11763 0102 13       		.uleb128 0x13
 11764 0103 00       		.byte	0
 11765 0104 00       		.byte	0
 11766 0105 16       		.uleb128 0x16
 11767 0106 13       		.uleb128 0x13
 11768 0107 01       		.byte	0x1
 11769 0108 03       		.uleb128 0x3
 11770 0109 0E       		.uleb128 0xe
 11771 010a 0B       		.uleb128 0xb
 11772 010b 05       		.uleb128 0x5
 11773 010c 3A       		.uleb128 0x3a
 11774 010d 0B       		.uleb128 0xb
 11775 010e 3B       		.uleb128 0x3b
 11776 010f 05       		.uleb128 0x5
 11777 0110 39       		.uleb128 0x39
 11778 0111 0B       		.uleb128 0xb
 11779 0112 01       		.uleb128 0x1
 11780 0113 13       		.uleb128 0x13
 11781 0114 00       		.byte	0
 11782 0115 00       		.byte	0
 11783 0116 17       		.uleb128 0x17
 11784 0117 0D       		.uleb128 0xd
 11785 0118 00       		.byte	0
 11786 0119 03       		.uleb128 0x3
 11787 011a 0E       		.uleb128 0xe
 11788 011b 3A       		.uleb128 0x3a
 11789 011c 0B       		.uleb128 0xb
 11790 011d 3B       		.uleb128 0x3b
 11791 011e 05       		.uleb128 0x5
 11792 011f 39       		.uleb128 0x39
 11793 0120 0B       		.uleb128 0xb
 11794 0121 49       		.uleb128 0x49
 11795 0122 13       		.uleb128 0x13
 11796 0123 38       		.uleb128 0x38
 11797 0124 0A       		.uleb128 0xa
 11798 0125 00       		.byte	0
 11799 0126 00       		.byte	0
ARM GAS  /var/folders/cs/83z6p2tj4w57s6p2rt8nwfp00000gn/T//cc3yBana.s 			page 246


 11800 0127 18       		.uleb128 0x18
 11801 0128 13       		.uleb128 0x13
 11802 0129 01       		.byte	0x1
 11803 012a 03       		.uleb128 0x3
 11804 012b 0E       		.uleb128 0xe
 11805 012c 0B       		.uleb128 0xb
 11806 012d 0B       		.uleb128 0xb
 11807 012e 3A       		.uleb128 0x3a
 11808 012f 0B       		.uleb128 0xb
 11809 0130 3B       		.uleb128 0x3b
 11810 0131 05       		.uleb128 0x5
 11811 0132 39       		.uleb128 0x39
 11812 0133 0B       		.uleb128 0xb
 11813 0134 01       		.uleb128 0x1
 11814 0135 13       		.uleb128 0x13
 11815 0136 00       		.byte	0
 11816 0137 00       		.byte	0
 11817 0138 19       		.uleb128 0x19
 11818 0139 13       		.uleb128 0x13
 11819 013a 01       		.byte	0x1
 11820 013b 0B       		.uleb128 0xb
 11821 013c 0B       		.uleb128 0xb
 11822 013d 3A       		.uleb128 0x3a
 11823 013e 0B       		.uleb128 0xb
 11824 013f 3B       		.uleb128 0x3b
 11825 0140 05       		.uleb128 0x5
 11826 0141 39       		.uleb128 0x39
 11827 0142 0B       		.uleb128 0xb
 11828 0143 01       		.uleb128 0x1
 11829 0144 13       		.uleb128 0x13
 11830 0145 00       		.byte	0
 11831 0146 00       		.byte	0
 11832 0147 1A       		.uleb128 0x1a
 11833 0148 17       		.uleb128 0x17
 11834 0149 01       		.byte	0x1
 11835 014a 0B       		.uleb128 0xb
 11836 014b 0B       		.uleb128 0xb
 11837 014c 3A       		.uleb128 0x3a
 11838 014d 0B       		.uleb128 0xb
 11839 014e 3B       		.uleb128 0x3b
 11840 014f 05       		.uleb128 0x5
 11841 0150 39       		.uleb128 0x39
 11842 0151 0B       		.uleb128 0xb
 11843 0152 01       		.uleb128 0x1
 11844 0153 13       		.uleb128 0x13
 11845 0154 00       		.byte	0
 11846 0155 00       		.byte	0
 11847 0156 1B       		.uleb128 0x1b
 11848 0157 0D       		.uleb128 0xd
 11849 0158 00       		.byte	0
 11850 0159 03       		.uleb128 0x3
 11851 015a 0E       		.uleb128 0xe
 11852 015b 3A       		.uleb128 0x3a
 11853 015c 0B       		.uleb128 0xb
 11854 015d 3B       		.uleb128 0x3b
 11855 015e 05       		.uleb128 0x5
 11856 015f 39       		.uleb128 0x39
ARM GAS  /var/folders/cs/83z6p2tj4w57s6p2rt8nwfp00000gn/T//cc3yBana.s 			page 247


 11857 0160 0B       		.uleb128 0xb
 11858 0161 49       		.uleb128 0x49
 11859 0162 13       		.uleb128 0x13
 11860 0163 00       		.byte	0
 11861 0164 00       		.byte	0
 11862 0165 1C       		.uleb128 0x1c
 11863 0166 15       		.uleb128 0x15
 11864 0167 01       		.byte	0x1
 11865 0168 27       		.uleb128 0x27
 11866 0169 0C       		.uleb128 0xc
 11867 016a 01       		.uleb128 0x1
 11868 016b 13       		.uleb128 0x13
 11869 016c 00       		.byte	0
 11870 016d 00       		.byte	0
 11871 016e 1D       		.uleb128 0x1d
 11872 016f 34       		.uleb128 0x34
 11873 0170 00       		.byte	0
 11874 0171 03       		.uleb128 0x3
 11875 0172 0E       		.uleb128 0xe
 11876 0173 3A       		.uleb128 0x3a
 11877 0174 0B       		.uleb128 0xb
 11878 0175 3B       		.uleb128 0x3b
 11879 0176 05       		.uleb128 0x5
 11880 0177 39       		.uleb128 0x39
 11881 0178 0B       		.uleb128 0xb
 11882 0179 49       		.uleb128 0x49
 11883 017a 13       		.uleb128 0x13
 11884 017b 3F       		.uleb128 0x3f
 11885 017c 0C       		.uleb128 0xc
 11886 017d 3C       		.uleb128 0x3c
 11887 017e 0C       		.uleb128 0xc
 11888 017f 00       		.byte	0
 11889 0180 00       		.byte	0
 11890 0181 1E       		.uleb128 0x1e
 11891 0182 26       		.uleb128 0x26
 11892 0183 00       		.byte	0
 11893 0184 00       		.byte	0
 11894 0185 00       		.byte	0
 11895 0186 1F       		.uleb128 0x1f
 11896 0187 34       		.uleb128 0x34
 11897 0188 00       		.byte	0
 11898 0189 03       		.uleb128 0x3
 11899 018a 0E       		.uleb128 0xe
 11900 018b 3A       		.uleb128 0x3a
 11901 018c 0B       		.uleb128 0xb
 11902 018d 3B       		.uleb128 0x3b
 11903 018e 0B       		.uleb128 0xb
 11904 018f 39       		.uleb128 0x39
 11905 0190 0B       		.uleb128 0xb
 11906 0191 49       		.uleb128 0x49
 11907 0192 13       		.uleb128 0x13
 11908 0193 3F       		.uleb128 0x3f
 11909 0194 0C       		.uleb128 0xc
 11910 0195 3C       		.uleb128 0x3c
 11911 0196 0C       		.uleb128 0xc
 11912 0197 00       		.byte	0
 11913 0198 00       		.byte	0
ARM GAS  /var/folders/cs/83z6p2tj4w57s6p2rt8nwfp00000gn/T//cc3yBana.s 			page 248


 11914 0199 20       		.uleb128 0x20
 11915 019a 04       		.uleb128 0x4
 11916 019b 01       		.byte	0x1
 11917 019c 03       		.uleb128 0x3
 11918 019d 0E       		.uleb128 0xe
 11919 019e 3E       		.uleb128 0x3e
 11920 019f 0B       		.uleb128 0xb
 11921 01a0 0B       		.uleb128 0xb
 11922 01a1 0B       		.uleb128 0xb
 11923 01a2 49       		.uleb128 0x49
 11924 01a3 13       		.uleb128 0x13
 11925 01a4 3A       		.uleb128 0x3a
 11926 01a5 0B       		.uleb128 0xb
 11927 01a6 3B       		.uleb128 0x3b
 11928 01a7 05       		.uleb128 0x5
 11929 01a8 39       		.uleb128 0x39
 11930 01a9 0B       		.uleb128 0xb
 11931 01aa 01       		.uleb128 0x1
 11932 01ab 13       		.uleb128 0x13
 11933 01ac 00       		.byte	0
 11934 01ad 00       		.byte	0
 11935 01ae 21       		.uleb128 0x21
 11936 01af 28       		.uleb128 0x28
 11937 01b0 00       		.byte	0
 11938 01b1 03       		.uleb128 0x3
 11939 01b2 0E       		.uleb128 0xe
 11940 01b3 1C       		.uleb128 0x1c
 11941 01b4 0D       		.uleb128 0xd
 11942 01b5 00       		.byte	0
 11943 01b6 00       		.byte	0
 11944 01b7 22       		.uleb128 0x22
 11945 01b8 28       		.uleb128 0x28
 11946 01b9 00       		.byte	0
 11947 01ba 03       		.uleb128 0x3
 11948 01bb 0E       		.uleb128 0xe
 11949 01bc 1C       		.uleb128 0x1c
 11950 01bd 0B       		.uleb128 0xb
 11951 01be 00       		.byte	0
 11952 01bf 00       		.byte	0
 11953 01c0 23       		.uleb128 0x23
 11954 01c1 0D       		.uleb128 0xd
 11955 01c2 00       		.byte	0
 11956 01c3 03       		.uleb128 0x3
 11957 01c4 0E       		.uleb128 0xe
 11958 01c5 3A       		.uleb128 0x3a
 11959 01c6 0B       		.uleb128 0xb
 11960 01c7 3B       		.uleb128 0x3b
 11961 01c8 0B       		.uleb128 0xb
 11962 01c9 39       		.uleb128 0x39
 11963 01ca 0B       		.uleb128 0xb
 11964 01cb 49       		.uleb128 0x49
 11965 01cc 13       		.uleb128 0x13
 11966 01cd 0B       		.uleb128 0xb
 11967 01ce 0B       		.uleb128 0xb
 11968 01cf 0D       		.uleb128 0xd
 11969 01d0 0B       		.uleb128 0xb
 11970 01d1 0C       		.uleb128 0xc
ARM GAS  /var/folders/cs/83z6p2tj4w57s6p2rt8nwfp00000gn/T//cc3yBana.s 			page 249


 11971 01d2 0B       		.uleb128 0xb
 11972 01d3 38       		.uleb128 0x38
 11973 01d4 0A       		.uleb128 0xa
 11974 01d5 00       		.byte	0
 11975 01d6 00       		.byte	0
 11976 01d7 24       		.uleb128 0x24
 11977 01d8 04       		.uleb128 0x4
 11978 01d9 01       		.byte	0x1
 11979 01da 3E       		.uleb128 0x3e
 11980 01db 0B       		.uleb128 0xb
 11981 01dc 0B       		.uleb128 0xb
 11982 01dd 0B       		.uleb128 0xb
 11983 01de 49       		.uleb128 0x49
 11984 01df 13       		.uleb128 0x13
 11985 01e0 3A       		.uleb128 0x3a
 11986 01e1 0B       		.uleb128 0xb
 11987 01e2 3B       		.uleb128 0x3b
 11988 01e3 0B       		.uleb128 0xb
 11989 01e4 39       		.uleb128 0x39
 11990 01e5 0B       		.uleb128 0xb
 11991 01e6 01       		.uleb128 0x1
 11992 01e7 13       		.uleb128 0x13
 11993 01e8 00       		.byte	0
 11994 01e9 00       		.byte	0
 11995 01ea 25       		.uleb128 0x25
 11996 01eb 34       		.uleb128 0x34
 11997 01ec 00       		.byte	0
 11998 01ed 03       		.uleb128 0x3
 11999 01ee 0E       		.uleb128 0xe
 12000 01ef 3A       		.uleb128 0x3a
 12001 01f0 0B       		.uleb128 0xb
 12002 01f1 3B       		.uleb128 0x3b
 12003 01f2 05       		.uleb128 0x5
 12004 01f3 39       		.uleb128 0x39
 12005 01f4 0B       		.uleb128 0xb
 12006 01f5 49       		.uleb128 0x49
 12007 01f6 13       		.uleb128 0x13
 12008 01f7 02       		.uleb128 0x2
 12009 01f8 0A       		.uleb128 0xa
 12010 01f9 00       		.byte	0
 12011 01fa 00       		.byte	0
 12012 01fb 26       		.uleb128 0x26
 12013 01fc 2E       		.uleb128 0x2e
 12014 01fd 01       		.byte	0x1
 12015 01fe 3F       		.uleb128 0x3f
 12016 01ff 0C       		.uleb128 0xc
 12017 0200 03       		.uleb128 0x3
 12018 0201 0E       		.uleb128 0xe
 12019 0202 3A       		.uleb128 0x3a
 12020 0203 0B       		.uleb128 0xb
 12021 0204 3B       		.uleb128 0x3b
 12022 0205 05       		.uleb128 0x5
 12023 0206 39       		.uleb128 0x39
 12024 0207 0B       		.uleb128 0xb
 12025 0208 27       		.uleb128 0x27
 12026 0209 0C       		.uleb128 0xc
 12027 020a 11       		.uleb128 0x11
ARM GAS  /var/folders/cs/83z6p2tj4w57s6p2rt8nwfp00000gn/T//cc3yBana.s 			page 250


 12028 020b 01       		.uleb128 0x1
 12029 020c 12       		.uleb128 0x12
 12030 020d 01       		.uleb128 0x1
 12031 020e 40       		.uleb128 0x40
 12032 020f 06       		.uleb128 0x6
 12033 0210 9742     		.uleb128 0x2117
 12034 0212 0C       		.uleb128 0xc
 12035 0213 01       		.uleb128 0x1
 12036 0214 13       		.uleb128 0x13
 12037 0215 00       		.byte	0
 12038 0216 00       		.byte	0
 12039 0217 27       		.uleb128 0x27
 12040 0218 05       		.uleb128 0x5
 12041 0219 00       		.byte	0
 12042 021a 03       		.uleb128 0x3
 12043 021b 0E       		.uleb128 0xe
 12044 021c 3A       		.uleb128 0x3a
 12045 021d 0B       		.uleb128 0xb
 12046 021e 3B       		.uleb128 0x3b
 12047 021f 05       		.uleb128 0x5
 12048 0220 39       		.uleb128 0x39
 12049 0221 0B       		.uleb128 0xb
 12050 0222 49       		.uleb128 0x49
 12051 0223 13       		.uleb128 0x13
 12052 0224 02       		.uleb128 0x2
 12053 0225 06       		.uleb128 0x6
 12054 0226 B742     		.uleb128 0x2137
 12055 0228 06       		.uleb128 0x6
 12056 0229 00       		.byte	0
 12057 022a 00       		.byte	0
 12058 022b 28       		.uleb128 0x28
 12059 022c 898201   		.uleb128 0x4109
 12060 022f 01       		.byte	0x1
 12061 0230 11       		.uleb128 0x11
 12062 0231 01       		.uleb128 0x1
 12063 0232 31       		.uleb128 0x31
 12064 0233 13       		.uleb128 0x13
 12065 0234 01       		.uleb128 0x1
 12066 0235 13       		.uleb128 0x13
 12067 0236 00       		.byte	0
 12068 0237 00       		.byte	0
 12069 0238 29       		.uleb128 0x29
 12070 0239 8A8201   		.uleb128 0x410a
 12071 023c 00       		.byte	0
 12072 023d 02       		.uleb128 0x2
 12073 023e 0A       		.uleb128 0xa
 12074 023f 9142     		.uleb128 0x2111
 12075 0241 0A       		.uleb128 0xa
 12076 0242 00       		.byte	0
 12077 0243 00       		.byte	0
 12078 0244 2A       		.uleb128 0x2a
 12079 0245 898201   		.uleb128 0x4109
 12080 0248 00       		.byte	0
 12081 0249 11       		.uleb128 0x11
 12082 024a 01       		.uleb128 0x1
 12083 024b 31       		.uleb128 0x31
 12084 024c 13       		.uleb128 0x13
ARM GAS  /var/folders/cs/83z6p2tj4w57s6p2rt8nwfp00000gn/T//cc3yBana.s 			page 251


 12085 024d 00       		.byte	0
 12086 024e 00       		.byte	0
 12087 024f 2B       		.uleb128 0x2b
 12088 0250 898201   		.uleb128 0x4109
 12089 0253 01       		.byte	0x1
 12090 0254 11       		.uleb128 0x11
 12091 0255 01       		.uleb128 0x1
 12092 0256 9542     		.uleb128 0x2115
 12093 0258 0C       		.uleb128 0xc
 12094 0259 31       		.uleb128 0x31
 12095 025a 13       		.uleb128 0x13
 12096 025b 00       		.byte	0
 12097 025c 00       		.byte	0
 12098 025d 2C       		.uleb128 0x2c
 12099 025e 34       		.uleb128 0x34
 12100 025f 00       		.byte	0
 12101 0260 03       		.uleb128 0x3
 12102 0261 0E       		.uleb128 0xe
 12103 0262 3A       		.uleb128 0x3a
 12104 0263 0B       		.uleb128 0xb
 12105 0264 3B       		.uleb128 0x3b
 12106 0265 05       		.uleb128 0x5
 12107 0266 39       		.uleb128 0x39
 12108 0267 0B       		.uleb128 0xb
 12109 0268 49       		.uleb128 0x49
 12110 0269 13       		.uleb128 0x13
 12111 026a 02       		.uleb128 0x2
 12112 026b 06       		.uleb128 0x6
 12113 026c B742     		.uleb128 0x2137
 12114 026e 06       		.uleb128 0x6
 12115 026f 00       		.byte	0
 12116 0270 00       		.byte	0
 12117 0271 2D       		.uleb128 0x2d
 12118 0272 34       		.uleb128 0x34
 12119 0273 00       		.byte	0
 12120 0274 03       		.uleb128 0x3
 12121 0275 08       		.uleb128 0x8
 12122 0276 3A       		.uleb128 0x3a
 12123 0277 0B       		.uleb128 0xb
 12124 0278 3B       		.uleb128 0x3b
 12125 0279 05       		.uleb128 0x5
 12126 027a 39       		.uleb128 0x39
 12127 027b 0B       		.uleb128 0xb
 12128 027c 49       		.uleb128 0x49
 12129 027d 13       		.uleb128 0x13
 12130 027e 02       		.uleb128 0x2
 12131 027f 06       		.uleb128 0x6
 12132 0280 B742     		.uleb128 0x2137
 12133 0282 06       		.uleb128 0x6
 12134 0283 00       		.byte	0
 12135 0284 00       		.byte	0
 12136 0285 2E       		.uleb128 0x2e
 12137 0286 0B       		.uleb128 0xb
 12138 0287 01       		.byte	0x1
 12139 0288 55       		.uleb128 0x55
 12140 0289 06       		.uleb128 0x6
 12141 028a 01       		.uleb128 0x1
ARM GAS  /var/folders/cs/83z6p2tj4w57s6p2rt8nwfp00000gn/T//cc3yBana.s 			page 252


 12142 028b 13       		.uleb128 0x13
 12143 028c 00       		.byte	0
 12144 028d 00       		.byte	0
 12145 028e 2F       		.uleb128 0x2f
 12146 028f 1D       		.uleb128 0x1d
 12147 0290 01       		.byte	0x1
 12148 0291 31       		.uleb128 0x31
 12149 0292 13       		.uleb128 0x13
 12150 0293 52       		.uleb128 0x52
 12151 0294 01       		.uleb128 0x1
 12152 0295 B842     		.uleb128 0x2138
 12153 0297 05       		.uleb128 0x5
 12154 0298 55       		.uleb128 0x55
 12155 0299 06       		.uleb128 0x6
 12156 029a 58       		.uleb128 0x58
 12157 029b 0B       		.uleb128 0xb
 12158 029c 59       		.uleb128 0x59
 12159 029d 05       		.uleb128 0x5
 12160 029e 57       		.uleb128 0x57
 12161 029f 0B       		.uleb128 0xb
 12162 02a0 01       		.uleb128 0x1
 12163 02a1 13       		.uleb128 0x13
 12164 02a2 00       		.byte	0
 12165 02a3 00       		.byte	0
 12166 02a4 30       		.uleb128 0x30
 12167 02a5 05       		.uleb128 0x5
 12168 02a6 00       		.byte	0
 12169 02a7 31       		.uleb128 0x31
 12170 02a8 13       		.uleb128 0x13
 12171 02a9 00       		.byte	0
 12172 02aa 00       		.byte	0
 12173 02ab 31       		.uleb128 0x31
 12174 02ac 05       		.uleb128 0x5
 12175 02ad 00       		.byte	0
 12176 02ae 31       		.uleb128 0x31
 12177 02af 13       		.uleb128 0x13
 12178 02b0 02       		.uleb128 0x2
 12179 02b1 06       		.uleb128 0x6
 12180 02b2 B742     		.uleb128 0x2137
 12181 02b4 06       		.uleb128 0x6
 12182 02b5 00       		.byte	0
 12183 02b6 00       		.byte	0
 12184 02b7 32       		.uleb128 0x32
 12185 02b8 0B       		.uleb128 0xb
 12186 02b9 01       		.byte	0x1
 12187 02ba 31       		.uleb128 0x31
 12188 02bb 13       		.uleb128 0x13
 12189 02bc 55       		.uleb128 0x55
 12190 02bd 06       		.uleb128 0x6
 12191 02be 01       		.uleb128 0x1
 12192 02bf 13       		.uleb128 0x13
 12193 02c0 00       		.byte	0
 12194 02c1 00       		.byte	0
 12195 02c2 33       		.uleb128 0x33
 12196 02c3 34       		.uleb128 0x34
 12197 02c4 00       		.byte	0
 12198 02c5 31       		.uleb128 0x31
ARM GAS  /var/folders/cs/83z6p2tj4w57s6p2rt8nwfp00000gn/T//cc3yBana.s 			page 253


 12199 02c6 13       		.uleb128 0x13
 12200 02c7 02       		.uleb128 0x2
 12201 02c8 06       		.uleb128 0x6
 12202 02c9 B742     		.uleb128 0x2137
 12203 02cb 06       		.uleb128 0x6
 12204 02cc 00       		.byte	0
 12205 02cd 00       		.byte	0
 12206 02ce 34       		.uleb128 0x34
 12207 02cf 0B       		.uleb128 0xb
 12208 02d0 01       		.byte	0x1
 12209 02d1 31       		.uleb128 0x31
 12210 02d2 13       		.uleb128 0x13
 12211 02d3 55       		.uleb128 0x55
 12212 02d4 06       		.uleb128 0x6
 12213 02d5 00       		.byte	0
 12214 02d6 00       		.byte	0
 12215 02d7 35       		.uleb128 0x35
 12216 02d8 1D       		.uleb128 0x1d
 12217 02d9 01       		.byte	0x1
 12218 02da 31       		.uleb128 0x31
 12219 02db 13       		.uleb128 0x13
 12220 02dc 52       		.uleb128 0x52
 12221 02dd 01       		.uleb128 0x1
 12222 02de B842     		.uleb128 0x2138
 12223 02e0 05       		.uleb128 0x5
 12224 02e1 55       		.uleb128 0x55
 12225 02e2 06       		.uleb128 0x6
 12226 02e3 58       		.uleb128 0x58
 12227 02e4 0B       		.uleb128 0xb
 12228 02e5 59       		.uleb128 0x59
 12229 02e6 05       		.uleb128 0x5
 12230 02e7 57       		.uleb128 0x57
 12231 02e8 0B       		.uleb128 0xb
 12232 02e9 00       		.byte	0
 12233 02ea 00       		.byte	0
 12234 02eb 36       		.uleb128 0x36
 12235 02ec 0B       		.uleb128 0xb
 12236 02ed 01       		.byte	0x1
 12237 02ee 55       		.uleb128 0x55
 12238 02ef 06       		.uleb128 0x6
 12239 02f0 00       		.byte	0
 12240 02f1 00       		.byte	0
 12241 02f2 37       		.uleb128 0x37
 12242 02f3 34       		.uleb128 0x34
 12243 02f4 00       		.byte	0
 12244 02f5 31       		.uleb128 0x31
 12245 02f6 13       		.uleb128 0x13
 12246 02f7 00       		.byte	0
 12247 02f8 00       		.byte	0
 12248 02f9 38       		.uleb128 0x38
 12249 02fa 1D       		.uleb128 0x1d
 12250 02fb 01       		.byte	0x1
 12251 02fc 31       		.uleb128 0x31
 12252 02fd 13       		.uleb128 0x13
 12253 02fe 52       		.uleb128 0x52
 12254 02ff 01       		.uleb128 0x1
 12255 0300 B842     		.uleb128 0x2138
ARM GAS  /var/folders/cs/83z6p2tj4w57s6p2rt8nwfp00000gn/T//cc3yBana.s 			page 254


 12256 0302 05       		.uleb128 0x5
 12257 0303 11       		.uleb128 0x11
 12258 0304 01       		.uleb128 0x1
 12259 0305 12       		.uleb128 0x12
 12260 0306 01       		.uleb128 0x1
 12261 0307 58       		.uleb128 0x58
 12262 0308 0B       		.uleb128 0xb
 12263 0309 59       		.uleb128 0x59
 12264 030a 05       		.uleb128 0x5
 12265 030b 57       		.uleb128 0x57
 12266 030c 0B       		.uleb128 0xb
 12267 030d 01       		.uleb128 0x1
 12268 030e 13       		.uleb128 0x13
 12269 030f 00       		.byte	0
 12270 0310 00       		.byte	0
 12271 0311 39       		.uleb128 0x39
 12272 0312 898201   		.uleb128 0x4109
 12273 0315 01       		.byte	0x1
 12274 0316 11       		.uleb128 0x11
 12275 0317 01       		.uleb128 0x1
 12276 0318 31       		.uleb128 0x31
 12277 0319 13       		.uleb128 0x13
 12278 031a 00       		.byte	0
 12279 031b 00       		.byte	0
 12280 031c 3A       		.uleb128 0x3a
 12281 031d 2E       		.uleb128 0x2e
 12282 031e 01       		.byte	0x1
 12283 031f 03       		.uleb128 0x3
 12284 0320 0E       		.uleb128 0xe
 12285 0321 3A       		.uleb128 0x3a
 12286 0322 0B       		.uleb128 0xb
 12287 0323 3B       		.uleb128 0x3b
 12288 0324 05       		.uleb128 0x5
 12289 0325 39       		.uleb128 0x39
 12290 0326 0B       		.uleb128 0xb
 12291 0327 27       		.uleb128 0x27
 12292 0328 0C       		.uleb128 0xc
 12293 0329 49       		.uleb128 0x49
 12294 032a 13       		.uleb128 0x13
 12295 032b 11       		.uleb128 0x11
 12296 032c 01       		.uleb128 0x1
 12297 032d 12       		.uleb128 0x12
 12298 032e 01       		.uleb128 0x1
 12299 032f 40       		.uleb128 0x40
 12300 0330 0A       		.uleb128 0xa
 12301 0331 9742     		.uleb128 0x2117
 12302 0333 0C       		.uleb128 0xc
 12303 0334 01       		.uleb128 0x1
 12304 0335 13       		.uleb128 0x13
 12305 0336 00       		.byte	0
 12306 0337 00       		.byte	0
 12307 0338 3B       		.uleb128 0x3b
 12308 0339 05       		.uleb128 0x5
 12309 033a 00       		.byte	0
 12310 033b 03       		.uleb128 0x3
 12311 033c 08       		.uleb128 0x8
 12312 033d 3A       		.uleb128 0x3a
ARM GAS  /var/folders/cs/83z6p2tj4w57s6p2rt8nwfp00000gn/T//cc3yBana.s 			page 255


 12313 033e 0B       		.uleb128 0xb
 12314 033f 3B       		.uleb128 0x3b
 12315 0340 05       		.uleb128 0x5
 12316 0341 39       		.uleb128 0x39
 12317 0342 0B       		.uleb128 0xb
 12318 0343 49       		.uleb128 0x49
 12319 0344 13       		.uleb128 0x13
 12320 0345 02       		.uleb128 0x2
 12321 0346 06       		.uleb128 0x6
 12322 0347 B742     		.uleb128 0x2137
 12323 0349 06       		.uleb128 0x6
 12324 034a 00       		.byte	0
 12325 034b 00       		.byte	0
 12326 034c 3C       		.uleb128 0x3c
 12327 034d 05       		.uleb128 0x5
 12328 034e 00       		.byte	0
 12329 034f 03       		.uleb128 0x3
 12330 0350 08       		.uleb128 0x8
 12331 0351 3A       		.uleb128 0x3a
 12332 0352 0B       		.uleb128 0xb
 12333 0353 3B       		.uleb128 0x3b
 12334 0354 05       		.uleb128 0x5
 12335 0355 39       		.uleb128 0x39
 12336 0356 0B       		.uleb128 0xb
 12337 0357 49       		.uleb128 0x49
 12338 0358 13       		.uleb128 0x13
 12339 0359 02       		.uleb128 0x2
 12340 035a 0A       		.uleb128 0xa
 12341 035b 00       		.byte	0
 12342 035c 00       		.byte	0
 12343 035d 3D       		.uleb128 0x3d
 12344 035e 2E       		.uleb128 0x2e
 12345 035f 01       		.byte	0x1
 12346 0360 03       		.uleb128 0x3
 12347 0361 0E       		.uleb128 0xe
 12348 0362 3A       		.uleb128 0x3a
 12349 0363 0B       		.uleb128 0xb
 12350 0364 3B       		.uleb128 0x3b
 12351 0365 05       		.uleb128 0x5
 12352 0366 39       		.uleb128 0x39
 12353 0367 0B       		.uleb128 0xb
 12354 0368 27       		.uleb128 0x27
 12355 0369 0C       		.uleb128 0xc
 12356 036a 20       		.uleb128 0x20
 12357 036b 0B       		.uleb128 0xb
 12358 036c 01       		.uleb128 0x1
 12359 036d 13       		.uleb128 0x13
 12360 036e 00       		.byte	0
 12361 036f 00       		.byte	0
 12362 0370 3E       		.uleb128 0x3e
 12363 0371 05       		.uleb128 0x5
 12364 0372 00       		.byte	0
 12365 0373 03       		.uleb128 0x3
 12366 0374 0E       		.uleb128 0xe
 12367 0375 3A       		.uleb128 0x3a
 12368 0376 0B       		.uleb128 0xb
 12369 0377 3B       		.uleb128 0x3b
ARM GAS  /var/folders/cs/83z6p2tj4w57s6p2rt8nwfp00000gn/T//cc3yBana.s 			page 256


 12370 0378 05       		.uleb128 0x5
 12371 0379 39       		.uleb128 0x39
 12372 037a 0B       		.uleb128 0xb
 12373 037b 49       		.uleb128 0x49
 12374 037c 13       		.uleb128 0x13
 12375 037d 00       		.byte	0
 12376 037e 00       		.byte	0
 12377 037f 3F       		.uleb128 0x3f
 12378 0380 34       		.uleb128 0x34
 12379 0381 00       		.byte	0
 12380 0382 03       		.uleb128 0x3
 12381 0383 08       		.uleb128 0x8
 12382 0384 3A       		.uleb128 0x3a
 12383 0385 0B       		.uleb128 0xb
 12384 0386 3B       		.uleb128 0x3b
 12385 0387 05       		.uleb128 0x5
 12386 0388 39       		.uleb128 0x39
 12387 0389 0B       		.uleb128 0xb
 12388 038a 49       		.uleb128 0x49
 12389 038b 13       		.uleb128 0x13
 12390 038c 00       		.byte	0
 12391 038d 00       		.byte	0
 12392 038e 40       		.uleb128 0x40
 12393 038f 34       		.uleb128 0x34
 12394 0390 00       		.byte	0
 12395 0391 03       		.uleb128 0x3
 12396 0392 0E       		.uleb128 0xe
 12397 0393 3A       		.uleb128 0x3a
 12398 0394 0B       		.uleb128 0xb
 12399 0395 3B       		.uleb128 0x3b
 12400 0396 05       		.uleb128 0x5
 12401 0397 39       		.uleb128 0x39
 12402 0398 0B       		.uleb128 0xb
 12403 0399 49       		.uleb128 0x49
 12404 039a 13       		.uleb128 0x13
 12405 039b 00       		.byte	0
 12406 039c 00       		.byte	0
 12407 039d 41       		.uleb128 0x41
 12408 039e 0B       		.uleb128 0xb
 12409 039f 01       		.byte	0x1
 12410 03a0 00       		.byte	0
 12411 03a1 00       		.byte	0
 12412 03a2 42       		.uleb128 0x42
 12413 03a3 0B       		.uleb128 0xb
 12414 03a4 01       		.byte	0x1
 12415 03a5 01       		.uleb128 0x1
 12416 03a6 13       		.uleb128 0x13
 12417 03a7 00       		.byte	0
 12418 03a8 00       		.byte	0
 12419 03a9 43       		.uleb128 0x43
 12420 03aa 05       		.uleb128 0x5
 12421 03ab 00       		.byte	0
 12422 03ac 03       		.uleb128 0x3
 12423 03ad 0E       		.uleb128 0xe
 12424 03ae 3A       		.uleb128 0x3a
 12425 03af 0B       		.uleb128 0xb
 12426 03b0 3B       		.uleb128 0x3b
ARM GAS  /var/folders/cs/83z6p2tj4w57s6p2rt8nwfp00000gn/T//cc3yBana.s 			page 257


 12427 03b1 05       		.uleb128 0x5
 12428 03b2 39       		.uleb128 0x39
 12429 03b3 0B       		.uleb128 0xb
 12430 03b4 49       		.uleb128 0x49
 12431 03b5 13       		.uleb128 0x13
 12432 03b6 02       		.uleb128 0x2
 12433 03b7 0A       		.uleb128 0xa
 12434 03b8 00       		.byte	0
 12435 03b9 00       		.byte	0
 12436 03ba 44       		.uleb128 0x44
 12437 03bb 0B       		.uleb128 0xb
 12438 03bc 01       		.byte	0x1
 12439 03bd 11       		.uleb128 0x11
 12440 03be 01       		.uleb128 0x1
 12441 03bf 12       		.uleb128 0x12
 12442 03c0 01       		.uleb128 0x1
 12443 03c1 01       		.uleb128 0x1
 12444 03c2 13       		.uleb128 0x13
 12445 03c3 00       		.byte	0
 12446 03c4 00       		.byte	0
 12447 03c5 45       		.uleb128 0x45
 12448 03c6 34       		.uleb128 0x34
 12449 03c7 00       		.byte	0
 12450 03c8 03       		.uleb128 0x3
 12451 03c9 08       		.uleb128 0x8
 12452 03ca 3A       		.uleb128 0x3a
 12453 03cb 0B       		.uleb128 0xb
 12454 03cc 3B       		.uleb128 0x3b
 12455 03cd 05       		.uleb128 0x5
 12456 03ce 39       		.uleb128 0x39
 12457 03cf 0B       		.uleb128 0xb
 12458 03d0 49       		.uleb128 0x49
 12459 03d1 13       		.uleb128 0x13
 12460 03d2 02       		.uleb128 0x2
 12461 03d3 0A       		.uleb128 0xa
 12462 03d4 00       		.byte	0
 12463 03d5 00       		.byte	0
 12464 03d6 46       		.uleb128 0x46
 12465 03d7 2E       		.uleb128 0x2e
 12466 03d8 01       		.byte	0x1
 12467 03d9 03       		.uleb128 0x3
 12468 03da 0E       		.uleb128 0xe
 12469 03db 3A       		.uleb128 0x3a
 12470 03dc 0B       		.uleb128 0xb
 12471 03dd 3B       		.uleb128 0x3b
 12472 03de 05       		.uleb128 0x5
 12473 03df 39       		.uleb128 0x39
 12474 03e0 0B       		.uleb128 0xb
 12475 03e1 27       		.uleb128 0x27
 12476 03e2 0C       		.uleb128 0xc
 12477 03e3 49       		.uleb128 0x49
 12478 03e4 13       		.uleb128 0x13
 12479 03e5 11       		.uleb128 0x11
 12480 03e6 01       		.uleb128 0x1
 12481 03e7 12       		.uleb128 0x12
 12482 03e8 01       		.uleb128 0x1
 12483 03e9 40       		.uleb128 0x40
ARM GAS  /var/folders/cs/83z6p2tj4w57s6p2rt8nwfp00000gn/T//cc3yBana.s 			page 258


 12484 03ea 06       		.uleb128 0x6
 12485 03eb 9642     		.uleb128 0x2116
 12486 03ed 0C       		.uleb128 0xc
 12487 03ee 01       		.uleb128 0x1
 12488 03ef 13       		.uleb128 0x13
 12489 03f0 00       		.byte	0
 12490 03f1 00       		.byte	0
 12491 03f2 47       		.uleb128 0x47
 12492 03f3 2E       		.uleb128 0x2e
 12493 03f4 01       		.byte	0x1
 12494 03f5 3F       		.uleb128 0x3f
 12495 03f6 0C       		.uleb128 0xc
 12496 03f7 03       		.uleb128 0x3
 12497 03f8 0E       		.uleb128 0xe
 12498 03f9 3A       		.uleb128 0x3a
 12499 03fa 0B       		.uleb128 0xb
 12500 03fb 3B       		.uleb128 0x3b
 12501 03fc 05       		.uleb128 0x5
 12502 03fd 39       		.uleb128 0x39
 12503 03fe 0B       		.uleb128 0xb
 12504 03ff 27       		.uleb128 0x27
 12505 0400 0C       		.uleb128 0xc
 12506 0401 49       		.uleb128 0x49
 12507 0402 13       		.uleb128 0x13
 12508 0403 11       		.uleb128 0x11
 12509 0404 01       		.uleb128 0x1
 12510 0405 12       		.uleb128 0x12
 12511 0406 01       		.uleb128 0x1
 12512 0407 40       		.uleb128 0x40
 12513 0408 0A       		.uleb128 0xa
 12514 0409 9742     		.uleb128 0x2117
 12515 040b 0C       		.uleb128 0xc
 12516 040c 01       		.uleb128 0x1
 12517 040d 13       		.uleb128 0x13
 12518 040e 00       		.byte	0
 12519 040f 00       		.byte	0
 12520 0410 48       		.uleb128 0x48
 12521 0411 2E       		.uleb128 0x2e
 12522 0412 01       		.byte	0x1
 12523 0413 3F       		.uleb128 0x3f
 12524 0414 0C       		.uleb128 0xc
 12525 0415 03       		.uleb128 0x3
 12526 0416 0E       		.uleb128 0xe
 12527 0417 3A       		.uleb128 0x3a
 12528 0418 0B       		.uleb128 0xb
 12529 0419 3B       		.uleb128 0x3b
 12530 041a 05       		.uleb128 0x5
 12531 041b 39       		.uleb128 0x39
 12532 041c 0B       		.uleb128 0xb
 12533 041d 27       		.uleb128 0x27
 12534 041e 0C       		.uleb128 0xc
 12535 041f 20       		.uleb128 0x20
 12536 0420 0B       		.uleb128 0xb
 12537 0421 01       		.uleb128 0x1
 12538 0422 13       		.uleb128 0x13
 12539 0423 00       		.byte	0
 12540 0424 00       		.byte	0
ARM GAS  /var/folders/cs/83z6p2tj4w57s6p2rt8nwfp00000gn/T//cc3yBana.s 			page 259


 12541 0425 49       		.uleb128 0x49
 12542 0426 05       		.uleb128 0x5
 12543 0427 00       		.byte	0
 12544 0428 03       		.uleb128 0x3
 12545 0429 08       		.uleb128 0x8
 12546 042a 3A       		.uleb128 0x3a
 12547 042b 0B       		.uleb128 0xb
 12548 042c 3B       		.uleb128 0x3b
 12549 042d 05       		.uleb128 0x5
 12550 042e 39       		.uleb128 0x39
 12551 042f 0B       		.uleb128 0xb
 12552 0430 49       		.uleb128 0x49
 12553 0431 13       		.uleb128 0x13
 12554 0432 00       		.byte	0
 12555 0433 00       		.byte	0
 12556 0434 4A       		.uleb128 0x4a
 12557 0435 898201   		.uleb128 0x4109
 12558 0438 01       		.byte	0x1
 12559 0439 11       		.uleb128 0x11
 12560 043a 01       		.uleb128 0x1
 12561 043b 01       		.uleb128 0x1
 12562 043c 13       		.uleb128 0x13
 12563 043d 00       		.byte	0
 12564 043e 00       		.byte	0
 12565 043f 4B       		.uleb128 0x4b
 12566 0440 2E       		.uleb128 0x2e
 12567 0441 01       		.byte	0x1
 12568 0442 03       		.uleb128 0x3
 12569 0443 0E       		.uleb128 0xe
 12570 0444 3A       		.uleb128 0x3a
 12571 0445 0B       		.uleb128 0xb
 12572 0446 3B       		.uleb128 0x3b
 12573 0447 0B       		.uleb128 0xb
 12574 0448 39       		.uleb128 0x39
 12575 0449 0B       		.uleb128 0xb
 12576 044a 27       		.uleb128 0x27
 12577 044b 0C       		.uleb128 0xc
 12578 044c 20       		.uleb128 0x20
 12579 044d 0B       		.uleb128 0xb
 12580 044e 01       		.uleb128 0x1
 12581 044f 13       		.uleb128 0x13
 12582 0450 00       		.byte	0
 12583 0451 00       		.byte	0
 12584 0452 4C       		.uleb128 0x4c
 12585 0453 05       		.uleb128 0x5
 12586 0454 00       		.byte	0
 12587 0455 03       		.uleb128 0x3
 12588 0456 0E       		.uleb128 0xe
 12589 0457 3A       		.uleb128 0x3a
 12590 0458 0B       		.uleb128 0xb
 12591 0459 3B       		.uleb128 0x3b
 12592 045a 0B       		.uleb128 0xb
 12593 045b 39       		.uleb128 0x39
 12594 045c 0B       		.uleb128 0xb
 12595 045d 49       		.uleb128 0x49
 12596 045e 13       		.uleb128 0x13
 12597 045f 00       		.byte	0
ARM GAS  /var/folders/cs/83z6p2tj4w57s6p2rt8nwfp00000gn/T//cc3yBana.s 			page 260


 12598 0460 00       		.byte	0
 12599 0461 4D       		.uleb128 0x4d
 12600 0462 34       		.uleb128 0x34
 12601 0463 00       		.byte	0
 12602 0464 03       		.uleb128 0x3
 12603 0465 0E       		.uleb128 0xe
 12604 0466 3A       		.uleb128 0x3a
 12605 0467 0B       		.uleb128 0xb
 12606 0468 3B       		.uleb128 0x3b
 12607 0469 0B       		.uleb128 0xb
 12608 046a 39       		.uleb128 0x39
 12609 046b 0B       		.uleb128 0xb
 12610 046c 49       		.uleb128 0x49
 12611 046d 13       		.uleb128 0x13
 12612 046e 00       		.byte	0
 12613 046f 00       		.byte	0
 12614 0470 4E       		.uleb128 0x4e
 12615 0471 34       		.uleb128 0x34
 12616 0472 00       		.byte	0
 12617 0473 03       		.uleb128 0x3
 12618 0474 08       		.uleb128 0x8
 12619 0475 3A       		.uleb128 0x3a
 12620 0476 0B       		.uleb128 0xb
 12621 0477 3B       		.uleb128 0x3b
 12622 0478 0B       		.uleb128 0xb
 12623 0479 39       		.uleb128 0x39
 12624 047a 0B       		.uleb128 0xb
 12625 047b 49       		.uleb128 0x49
 12626 047c 13       		.uleb128 0x13
 12627 047d 00       		.byte	0
 12628 047e 00       		.byte	0
 12629 047f 4F       		.uleb128 0x4f
 12630 0480 2E       		.uleb128 0x2e
 12631 0481 01       		.byte	0x1
 12632 0482 3F       		.uleb128 0x3f
 12633 0483 0C       		.uleb128 0xc
 12634 0484 03       		.uleb128 0x3
 12635 0485 0E       		.uleb128 0xe
 12636 0486 3A       		.uleb128 0x3a
 12637 0487 0B       		.uleb128 0xb
 12638 0488 3B       		.uleb128 0x3b
 12639 0489 0B       		.uleb128 0xb
 12640 048a 39       		.uleb128 0x39
 12641 048b 0B       		.uleb128 0xb
 12642 048c 27       		.uleb128 0x27
 12643 048d 0C       		.uleb128 0xc
 12644 048e 49       		.uleb128 0x49
 12645 048f 13       		.uleb128 0x13
 12646 0490 11       		.uleb128 0x11
 12647 0491 01       		.uleb128 0x1
 12648 0492 12       		.uleb128 0x12
 12649 0493 01       		.uleb128 0x1
 12650 0494 40       		.uleb128 0x40
 12651 0495 06       		.uleb128 0x6
 12652 0496 9642     		.uleb128 0x2116
 12653 0498 0C       		.uleb128 0xc
 12654 0499 01       		.uleb128 0x1
ARM GAS  /var/folders/cs/83z6p2tj4w57s6p2rt8nwfp00000gn/T//cc3yBana.s 			page 261


 12655 049a 13       		.uleb128 0x13
 12656 049b 00       		.byte	0
 12657 049c 00       		.byte	0
 12658 049d 50       		.uleb128 0x50
 12659 049e 05       		.uleb128 0x5
 12660 049f 00       		.byte	0
 12661 04a0 03       		.uleb128 0x3
 12662 04a1 0E       		.uleb128 0xe
 12663 04a2 3A       		.uleb128 0x3a
 12664 04a3 0B       		.uleb128 0xb
 12665 04a4 3B       		.uleb128 0x3b
 12666 04a5 0B       		.uleb128 0xb
 12667 04a6 39       		.uleb128 0x39
 12668 04a7 0B       		.uleb128 0xb
 12669 04a8 49       		.uleb128 0x49
 12670 04a9 13       		.uleb128 0x13
 12671 04aa 02       		.uleb128 0x2
 12672 04ab 06       		.uleb128 0x6
 12673 04ac B742     		.uleb128 0x2137
 12674 04ae 06       		.uleb128 0x6
 12675 04af 00       		.byte	0
 12676 04b0 00       		.byte	0
 12677 04b1 51       		.uleb128 0x51
 12678 04b2 34       		.uleb128 0x34
 12679 04b3 00       		.byte	0
 12680 04b4 03       		.uleb128 0x3
 12681 04b5 0E       		.uleb128 0xe
 12682 04b6 3A       		.uleb128 0x3a
 12683 04b7 0B       		.uleb128 0xb
 12684 04b8 3B       		.uleb128 0x3b
 12685 04b9 0B       		.uleb128 0xb
 12686 04ba 39       		.uleb128 0x39
 12687 04bb 0B       		.uleb128 0xb
 12688 04bc 49       		.uleb128 0x49
 12689 04bd 13       		.uleb128 0x13
 12690 04be 02       		.uleb128 0x2
 12691 04bf 06       		.uleb128 0x6
 12692 04c0 B742     		.uleb128 0x2137
 12693 04c2 06       		.uleb128 0x6
 12694 04c3 00       		.byte	0
 12695 04c4 00       		.byte	0
 12696 04c5 52       		.uleb128 0x52
 12697 04c6 1D       		.uleb128 0x1d
 12698 04c7 01       		.byte	0x1
 12699 04c8 31       		.uleb128 0x31
 12700 04c9 13       		.uleb128 0x13
 12701 04ca 52       		.uleb128 0x52
 12702 04cb 01       		.uleb128 0x1
 12703 04cc B842     		.uleb128 0x2138
 12704 04ce 05       		.uleb128 0x5
 12705 04cf 55       		.uleb128 0x55
 12706 04d0 06       		.uleb128 0x6
 12707 04d1 58       		.uleb128 0x58
 12708 04d2 0B       		.uleb128 0xb
 12709 04d3 59       		.uleb128 0x59
 12710 04d4 0B       		.uleb128 0xb
 12711 04d5 57       		.uleb128 0x57
ARM GAS  /var/folders/cs/83z6p2tj4w57s6p2rt8nwfp00000gn/T//cc3yBana.s 			page 262


 12712 04d6 0B       		.uleb128 0xb
 12713 04d7 01       		.uleb128 0x1
 12714 04d8 13       		.uleb128 0x13
 12715 04d9 00       		.byte	0
 12716 04da 00       		.byte	0
 12717 04db 53       		.uleb128 0x53
 12718 04dc 898201   		.uleb128 0x4109
 12719 04df 01       		.byte	0x1
 12720 04e0 11       		.uleb128 0x11
 12721 04e1 01       		.uleb128 0x1
 12722 04e2 00       		.byte	0
 12723 04e3 00       		.byte	0
 12724 04e4 54       		.uleb128 0x54
 12725 04e5 2E       		.uleb128 0x2e
 12726 04e6 01       		.byte	0x1
 12727 04e7 3F       		.uleb128 0x3f
 12728 04e8 0C       		.uleb128 0xc
 12729 04e9 03       		.uleb128 0x3
 12730 04ea 0E       		.uleb128 0xe
 12731 04eb 3A       		.uleb128 0x3a
 12732 04ec 0B       		.uleb128 0xb
 12733 04ed 3B       		.uleb128 0x3b
 12734 04ee 0B       		.uleb128 0xb
 12735 04ef 39       		.uleb128 0x39
 12736 04f0 0B       		.uleb128 0xb
 12737 04f1 27       		.uleb128 0x27
 12738 04f2 0C       		.uleb128 0xc
 12739 04f3 11       		.uleb128 0x11
 12740 04f4 01       		.uleb128 0x1
 12741 04f5 12       		.uleb128 0x12
 12742 04f6 01       		.uleb128 0x1
 12743 04f7 40       		.uleb128 0x40
 12744 04f8 06       		.uleb128 0x6
 12745 04f9 9742     		.uleb128 0x2117
 12746 04fb 0C       		.uleb128 0xc
 12747 04fc 01       		.uleb128 0x1
 12748 04fd 13       		.uleb128 0x13
 12749 04fe 00       		.byte	0
 12750 04ff 00       		.byte	0
 12751 0500 55       		.uleb128 0x55
 12752 0501 05       		.uleb128 0x5
 12753 0502 00       		.byte	0
 12754 0503 03       		.uleb128 0x3
 12755 0504 0E       		.uleb128 0xe
 12756 0505 3A       		.uleb128 0x3a
 12757 0506 0B       		.uleb128 0xb
 12758 0507 3B       		.uleb128 0x3b
 12759 0508 0B       		.uleb128 0xb
 12760 0509 39       		.uleb128 0x39
 12761 050a 0B       		.uleb128 0xb
 12762 050b 49       		.uleb128 0x49
 12763 050c 13       		.uleb128 0x13
 12764 050d 02       		.uleb128 0x2
 12765 050e 0A       		.uleb128 0xa
 12766 050f 00       		.byte	0
 12767 0510 00       		.byte	0
 12768 0511 56       		.uleb128 0x56
ARM GAS  /var/folders/cs/83z6p2tj4w57s6p2rt8nwfp00000gn/T//cc3yBana.s 			page 263


 12769 0512 34       		.uleb128 0x34
 12770 0513 00       		.byte	0
 12771 0514 03       		.uleb128 0x3
 12772 0515 08       		.uleb128 0x8
 12773 0516 3A       		.uleb128 0x3a
 12774 0517 0B       		.uleb128 0xb
 12775 0518 3B       		.uleb128 0x3b
 12776 0519 0B       		.uleb128 0xb
 12777 051a 39       		.uleb128 0x39
 12778 051b 0B       		.uleb128 0xb
 12779 051c 49       		.uleb128 0x49
 12780 051d 13       		.uleb128 0x13
 12781 051e 02       		.uleb128 0x2
 12782 051f 06       		.uleb128 0x6
 12783 0520 B742     		.uleb128 0x2137
 12784 0522 06       		.uleb128 0x6
 12785 0523 00       		.byte	0
 12786 0524 00       		.byte	0
 12787 0525 57       		.uleb128 0x57
 12788 0526 898201   		.uleb128 0x4109
 12789 0529 01       		.byte	0x1
 12790 052a 11       		.uleb128 0x11
 12791 052b 01       		.uleb128 0x1
 12792 052c 9342     		.uleb128 0x2113
 12793 052e 0A       		.uleb128 0xa
 12794 052f 01       		.uleb128 0x1
 12795 0530 13       		.uleb128 0x13
 12796 0531 00       		.byte	0
 12797 0532 00       		.byte	0
 12798 0533 58       		.uleb128 0x58
 12799 0534 2E       		.uleb128 0x2e
 12800 0535 01       		.byte	0x1
 12801 0536 3F       		.uleb128 0x3f
 12802 0537 0C       		.uleb128 0xc
 12803 0538 03       		.uleb128 0x3
 12804 0539 0E       		.uleb128 0xe
 12805 053a 3A       		.uleb128 0x3a
 12806 053b 0B       		.uleb128 0xb
 12807 053c 3B       		.uleb128 0x3b
 12808 053d 0B       		.uleb128 0xb
 12809 053e 39       		.uleb128 0x39
 12810 053f 0B       		.uleb128 0xb
 12811 0540 27       		.uleb128 0x27
 12812 0541 0C       		.uleb128 0xc
 12813 0542 11       		.uleb128 0x11
 12814 0543 01       		.uleb128 0x1
 12815 0544 12       		.uleb128 0x12
 12816 0545 01       		.uleb128 0x1
 12817 0546 40       		.uleb128 0x40
 12818 0547 0A       		.uleb128 0xa
 12819 0548 9742     		.uleb128 0x2117
 12820 054a 0C       		.uleb128 0xc
 12821 054b 01       		.uleb128 0x1
 12822 054c 13       		.uleb128 0x13
 12823 054d 00       		.byte	0
 12824 054e 00       		.byte	0
 12825 054f 59       		.uleb128 0x59
ARM GAS  /var/folders/cs/83z6p2tj4w57s6p2rt8nwfp00000gn/T//cc3yBana.s 			page 264


 12826 0550 2E       		.uleb128 0x2e
 12827 0551 01       		.byte	0x1
 12828 0552 3F       		.uleb128 0x3f
 12829 0553 0C       		.uleb128 0xc
 12830 0554 03       		.uleb128 0x3
 12831 0555 0E       		.uleb128 0xe
 12832 0556 3A       		.uleb128 0x3a
 12833 0557 0B       		.uleb128 0xb
 12834 0558 3B       		.uleb128 0x3b
 12835 0559 0B       		.uleb128 0xb
 12836 055a 39       		.uleb128 0x39
 12837 055b 0B       		.uleb128 0xb
 12838 055c 27       		.uleb128 0x27
 12839 055d 0C       		.uleb128 0xc
 12840 055e 49       		.uleb128 0x49
 12841 055f 13       		.uleb128 0x13
 12842 0560 11       		.uleb128 0x11
 12843 0561 01       		.uleb128 0x1
 12844 0562 12       		.uleb128 0x12
 12845 0563 01       		.uleb128 0x1
 12846 0564 40       		.uleb128 0x40
 12847 0565 0A       		.uleb128 0xa
 12848 0566 9742     		.uleb128 0x2117
 12849 0568 0C       		.uleb128 0xc
 12850 0569 01       		.uleb128 0x1
 12851 056a 13       		.uleb128 0x13
 12852 056b 00       		.byte	0
 12853 056c 00       		.byte	0
 12854 056d 5A       		.uleb128 0x5a
 12855 056e 34       		.uleb128 0x34
 12856 056f 00       		.byte	0
 12857 0570 03       		.uleb128 0x3
 12858 0571 08       		.uleb128 0x8
 12859 0572 3A       		.uleb128 0x3a
 12860 0573 0B       		.uleb128 0xb
 12861 0574 3B       		.uleb128 0x3b
 12862 0575 0B       		.uleb128 0xb
 12863 0576 39       		.uleb128 0x39
 12864 0577 0B       		.uleb128 0xb
 12865 0578 49       		.uleb128 0x49
 12866 0579 13       		.uleb128 0x13
 12867 057a 02       		.uleb128 0x2
 12868 057b 0A       		.uleb128 0xa
 12869 057c 00       		.byte	0
 12870 057d 00       		.byte	0
 12871 057e 5B       		.uleb128 0x5b
 12872 057f 2E       		.uleb128 0x2e
 12873 0580 01       		.byte	0x1
 12874 0581 3F       		.uleb128 0x3f
 12875 0582 0C       		.uleb128 0xc
 12876 0583 03       		.uleb128 0x3
 12877 0584 0E       		.uleb128 0xe
 12878 0585 3A       		.uleb128 0x3a
 12879 0586 0B       		.uleb128 0xb
 12880 0587 3B       		.uleb128 0x3b
 12881 0588 0B       		.uleb128 0xb
 12882 0589 39       		.uleb128 0x39
ARM GAS  /var/folders/cs/83z6p2tj4w57s6p2rt8nwfp00000gn/T//cc3yBana.s 			page 265


 12883 058a 0B       		.uleb128 0xb
 12884 058b 27       		.uleb128 0x27
 12885 058c 0C       		.uleb128 0xc
 12886 058d 20       		.uleb128 0x20
 12887 058e 0B       		.uleb128 0xb
 12888 058f 01       		.uleb128 0x1
 12889 0590 13       		.uleb128 0x13
 12890 0591 00       		.byte	0
 12891 0592 00       		.byte	0
 12892 0593 5C       		.uleb128 0x5c
 12893 0594 2E       		.uleb128 0x2e
 12894 0595 01       		.byte	0x1
 12895 0596 03       		.uleb128 0x3
 12896 0597 0E       		.uleb128 0xe
 12897 0598 3A       		.uleb128 0x3a
 12898 0599 0B       		.uleb128 0xb
 12899 059a 3B       		.uleb128 0x3b
 12900 059b 0B       		.uleb128 0xb
 12901 059c 39       		.uleb128 0x39
 12902 059d 0B       		.uleb128 0xb
 12903 059e 27       		.uleb128 0x27
 12904 059f 0C       		.uleb128 0xc
 12905 05a0 49       		.uleb128 0x49
 12906 05a1 13       		.uleb128 0x13
 12907 05a2 20       		.uleb128 0x20
 12908 05a3 0B       		.uleb128 0xb
 12909 05a4 01       		.uleb128 0x1
 12910 05a5 13       		.uleb128 0x13
 12911 05a6 00       		.byte	0
 12912 05a7 00       		.byte	0
 12913 05a8 5D       		.uleb128 0x5d
 12914 05a9 05       		.uleb128 0x5
 12915 05aa 00       		.byte	0
 12916 05ab 03       		.uleb128 0x3
 12917 05ac 08       		.uleb128 0x8
 12918 05ad 3A       		.uleb128 0x3a
 12919 05ae 0B       		.uleb128 0xb
 12920 05af 3B       		.uleb128 0x3b
 12921 05b0 0B       		.uleb128 0xb
 12922 05b1 39       		.uleb128 0x39
 12923 05b2 0B       		.uleb128 0xb
 12924 05b3 49       		.uleb128 0x49
 12925 05b4 13       		.uleb128 0x13
 12926 05b5 00       		.byte	0
 12927 05b6 00       		.byte	0
 12928 05b7 5E       		.uleb128 0x5e
 12929 05b8 2E       		.uleb128 0x2e
 12930 05b9 01       		.byte	0x1
 12931 05ba 31       		.uleb128 0x31
 12932 05bb 13       		.uleb128 0x13
 12933 05bc 11       		.uleb128 0x11
 12934 05bd 01       		.uleb128 0x1
 12935 05be 12       		.uleb128 0x12
 12936 05bf 01       		.uleb128 0x1
 12937 05c0 40       		.uleb128 0x40
 12938 05c1 06       		.uleb128 0x6
 12939 05c2 9742     		.uleb128 0x2117
ARM GAS  /var/folders/cs/83z6p2tj4w57s6p2rt8nwfp00000gn/T//cc3yBana.s 			page 266


 12940 05c4 0C       		.uleb128 0xc
 12941 05c5 01       		.uleb128 0x1
 12942 05c6 13       		.uleb128 0x13
 12943 05c7 00       		.byte	0
 12944 05c8 00       		.byte	0
 12945 05c9 5F       		.uleb128 0x5f
 12946 05ca 05       		.uleb128 0x5
 12947 05cb 00       		.byte	0
 12948 05cc 31       		.uleb128 0x31
 12949 05cd 13       		.uleb128 0x13
 12950 05ce 02       		.uleb128 0x2
 12951 05cf 0A       		.uleb128 0xa
 12952 05d0 00       		.byte	0
 12953 05d1 00       		.byte	0
 12954 05d2 60       		.uleb128 0x60
 12955 05d3 2E       		.uleb128 0x2e
 12956 05d4 01       		.byte	0x1
 12957 05d5 31       		.uleb128 0x31
 12958 05d6 13       		.uleb128 0x13
 12959 05d7 11       		.uleb128 0x11
 12960 05d8 01       		.uleb128 0x1
 12961 05d9 12       		.uleb128 0x12
 12962 05da 01       		.uleb128 0x1
 12963 05db 40       		.uleb128 0x40
 12964 05dc 0A       		.uleb128 0xa
 12965 05dd 9742     		.uleb128 0x2117
 12966 05df 0C       		.uleb128 0xc
 12967 05e0 01       		.uleb128 0x1
 12968 05e1 13       		.uleb128 0x13
 12969 05e2 00       		.byte	0
 12970 05e3 00       		.byte	0
 12971 05e4 61       		.uleb128 0x61
 12972 05e5 2E       		.uleb128 0x2e
 12973 05e6 00       		.byte	0
 12974 05e7 3F       		.uleb128 0x3f
 12975 05e8 0C       		.uleb128 0xc
 12976 05e9 3C       		.uleb128 0x3c
 12977 05ea 0C       		.uleb128 0xc
 12978 05eb 8740     		.uleb128 0x2007
 12979 05ed 0E       		.uleb128 0xe
 12980 05ee 03       		.uleb128 0x3
 12981 05ef 0E       		.uleb128 0xe
 12982 05f0 3A       		.uleb128 0x3a
 12983 05f1 0B       		.uleb128 0xb
 12984 05f2 3B       		.uleb128 0x3b
 12985 05f3 0B       		.uleb128 0xb
 12986 05f4 39       		.uleb128 0x39
 12987 05f5 0B       		.uleb128 0xb
 12988 05f6 00       		.byte	0
 12989 05f7 00       		.byte	0
 12990 05f8 62       		.uleb128 0x62
 12991 05f9 2E       		.uleb128 0x2e
 12992 05fa 00       		.byte	0
 12993 05fb 3F       		.uleb128 0x3f
 12994 05fc 0C       		.uleb128 0xc
 12995 05fd 3C       		.uleb128 0x3c
 12996 05fe 0C       		.uleb128 0xc
ARM GAS  /var/folders/cs/83z6p2tj4w57s6p2rt8nwfp00000gn/T//cc3yBana.s 			page 267


 12997 05ff 8740     		.uleb128 0x2007
 12998 0601 0E       		.uleb128 0xe
 12999 0602 03       		.uleb128 0x3
 13000 0603 0E       		.uleb128 0xe
 13001 0604 3A       		.uleb128 0x3a
 13002 0605 0B       		.uleb128 0xb
 13003 0606 3B       		.uleb128 0x3b
 13004 0607 0B       		.uleb128 0xb
 13005 0608 00       		.byte	0
 13006 0609 00       		.byte	0
 13007 060a 00       		.byte	0
 13008              		.section	.debug_loc,"",%progbits
 13009              	.Ldebug_loc0:
 13010              	.LLST149:
 13011 0000 00000000 		.4byte	.LFB39
 13012 0004 04000000 		.4byte	.LCFI51
 13013 0008 0200     		.2byte	0x2
 13014 000a 7D       		.byte	0x7d
 13015 000b 00       		.sleb128 0
 13016 000c 04000000 		.4byte	.LCFI51
 13017 0010 08000000 		.4byte	.LCFI52
 13018 0014 0200     		.2byte	0x2
 13019 0016 7D       		.byte	0x7d
 13020 0017 1C       		.sleb128 28
 13021 0018 08000000 		.4byte	.LCFI52
 13022 001c 56000000 		.4byte	.LCFI53
 13023 0020 0300     		.2byte	0x3
 13024 0022 7D       		.byte	0x7d
 13025 0023 D800     		.sleb128 88
 13026 0025 56000000 		.4byte	.LCFI53
 13027 0029 5A000000 		.4byte	.LCFI54
 13028 002d 0200     		.2byte	0x2
 13029 002f 7D       		.byte	0x7d
 13030 0030 1C       		.sleb128 28
 13031 0031 5A000000 		.4byte	.LCFI54
 13032 0035 68000000 		.4byte	.LFE39
 13033 0039 0200     		.2byte	0x2
 13034 003b 7D       		.byte	0x7d
 13035 003c 00       		.sleb128 0
 13036 003d 00000000 		.4byte	0
 13037 0041 00000000 		.4byte	0
 13038              	.LVUS150:
 13039 0045 00       		.uleb128 0
 13040 0046 00       		.uleb128 .LVU1371
 13041 0047 00       		.uleb128 .LVU1371
 13042 0048 00       		.uleb128 .LVU1375
 13043 0049 00       		.uleb128 .LVU1375
 13044 004a 00       		.uleb128 .LVU1376
 13045 004b 00       		.uleb128 .LVU1376
 13046 004c 00       		.uleb128 0
 13047              	.LLST150:
 13048 004d 00000000 		.4byte	.LVL376
 13049 0051 2A000000 		.4byte	.LVL377
 13050 0055 0100     		.2byte	0x1
 13051 0057 50       		.byte	0x50
 13052 0058 2A000000 		.4byte	.LVL377
 13053 005c 5A000000 		.4byte	.LVL380
ARM GAS  /var/folders/cs/83z6p2tj4w57s6p2rt8nwfp00000gn/T//cc3yBana.s 			page 268


 13054 0060 0100     		.2byte	0x1
 13055 0062 56       		.byte	0x56
 13056 0063 5A000000 		.4byte	.LVL380
 13057 0067 5D000000 		.4byte	.LVL381-1
 13058 006b 0100     		.2byte	0x1
 13059 006d 50       		.byte	0x50
 13060 006e 5D000000 		.4byte	.LVL381-1
 13061 0072 68000000 		.4byte	.LFE39
 13062 0076 0400     		.2byte	0x4
 13063 0078 F3       		.byte	0xf3
 13064 0079 01       		.uleb128 0x1
 13065 007a 50       		.byte	0x50
 13066 007b 9F       		.byte	0x9f
 13067 007c 00000000 		.4byte	0
 13068 0080 00000000 		.4byte	0
 13069              	.LVUS151:
 13070 0084 00       		.uleb128 0
 13071 0085 00       		.uleb128 .LVU1371
 13072 0086 00       		.uleb128 .LVU1371
 13073 0087 00       		.uleb128 .LVU1375
 13074 0088 00       		.uleb128 .LVU1375
 13075 0089 00       		.uleb128 .LVU1376
 13076 008a 00       		.uleb128 .LVU1376
 13077 008b 00       		.uleb128 0
 13078              	.LLST151:
 13079 008c 00000000 		.4byte	.LVL376
 13080 0090 2A000000 		.4byte	.LVL377
 13081 0094 0100     		.2byte	0x1
 13082 0096 51       		.byte	0x51
 13083 0097 2A000000 		.4byte	.LVL377
 13084 009b 5A000000 		.4byte	.LVL380
 13085 009f 0100     		.2byte	0x1
 13086 00a1 57       		.byte	0x57
 13087 00a2 5A000000 		.4byte	.LVL380
 13088 00a6 5D000000 		.4byte	.LVL381-1
 13089 00aa 0100     		.2byte	0x1
 13090 00ac 52       		.byte	0x52
 13091 00ad 5D000000 		.4byte	.LVL381-1
 13092 00b1 68000000 		.4byte	.LFE39
 13093 00b5 0400     		.2byte	0x4
 13094 00b7 F3       		.byte	0xf3
 13095 00b8 01       		.uleb128 0x1
 13096 00b9 51       		.byte	0x51
 13097 00ba 9F       		.byte	0x9f
 13098 00bb 00000000 		.4byte	0
 13099 00bf 00000000 		.4byte	0
 13100              	.LVUS152:
 13101 00c3 00       		.uleb128 0
 13102 00c4 00       		.uleb128 .LVU1371
 13103 00c5 00       		.uleb128 .LVU1371
 13104 00c6 00       		.uleb128 .LVU1375
 13105 00c7 00       		.uleb128 .LVU1375
 13106 00c8 00       		.uleb128 .LVU1376
 13107 00c9 00       		.uleb128 .LVU1376
 13108 00ca 00       		.uleb128 0
 13109              	.LLST152:
 13110 00cb 00000000 		.4byte	.LVL376
ARM GAS  /var/folders/cs/83z6p2tj4w57s6p2rt8nwfp00000gn/T//cc3yBana.s 			page 269


 13111 00cf 2A000000 		.4byte	.LVL377
 13112 00d3 0100     		.2byte	0x1
 13113 00d5 52       		.byte	0x52
 13114 00d6 2A000000 		.4byte	.LVL377
 13115 00da 5A000000 		.4byte	.LVL380
 13116 00de 0100     		.2byte	0x1
 13117 00e0 58       		.byte	0x58
 13118 00e1 5A000000 		.4byte	.LVL380
 13119 00e5 5D000000 		.4byte	.LVL381-1
 13120 00e9 0100     		.2byte	0x1
 13121 00eb 53       		.byte	0x53
 13122 00ec 5D000000 		.4byte	.LVL381-1
 13123 00f0 68000000 		.4byte	.LFE39
 13124 00f4 0400     		.2byte	0x4
 13125 00f6 F3       		.byte	0xf3
 13126 00f7 01       		.uleb128 0x1
 13127 00f8 52       		.byte	0x52
 13128 00f9 9F       		.byte	0x9f
 13129 00fa 00000000 		.4byte	0
 13130 00fe 00000000 		.4byte	0
 13131              	.LLST93:
 13132 0102 00000000 		.4byte	.LFB38
 13133 0106 04000000 		.4byte	.LCFI45
 13134 010a 0200     		.2byte	0x2
 13135 010c 7D       		.byte	0x7d
 13136 010d 00       		.sleb128 0
 13137 010e 04000000 		.4byte	.LCFI45
 13138 0112 10000000 		.4byte	.LCFI46
 13139 0116 0200     		.2byte	0x2
 13140 0118 7D       		.byte	0x7d
 13141 0119 24       		.sleb128 36
 13142 011a 10000000 		.4byte	.LCFI46
 13143 011e 12000000 		.4byte	.LCFI47
 13144 0122 0200     		.2byte	0x2
 13145 0124 7D       		.byte	0x7d
 13146 0125 3C       		.sleb128 60
 13147 0126 12000000 		.4byte	.LCFI47
 13148 012a DA030000 		.4byte	.LCFI48
 13149 012e 0300     		.2byte	0x3
 13150 0130 7D       		.byte	0x7d
 13151 0131 E000     		.sleb128 96
 13152 0133 DA030000 		.4byte	.LCFI48
 13153 0137 DE030000 		.4byte	.LCFI49
 13154 013b 0200     		.2byte	0x2
 13155 013d 7D       		.byte	0x7d
 13156 013e 3C       		.sleb128 60
 13157 013f DE030000 		.4byte	.LCFI49
 13158 0143 E2030000 		.4byte	.LCFI50
 13159 0147 0200     		.2byte	0x2
 13160 0149 7D       		.byte	0x7d
 13161 014a 24       		.sleb128 36
 13162 014b E2030000 		.4byte	.LCFI50
 13163 014f E8080000 		.4byte	.LFE38
 13164 0153 0300     		.2byte	0x3
 13165 0155 7D       		.byte	0x7d
 13166 0156 E000     		.sleb128 96
 13167 0158 00000000 		.4byte	0
ARM GAS  /var/folders/cs/83z6p2tj4w57s6p2rt8nwfp00000gn/T//cc3yBana.s 			page 270


 13168 015c 00000000 		.4byte	0
 13169              	.LVUS94:
 13170 0160 00       		.uleb128 0
 13171 0161 00       		.uleb128 .LVU846
 13172 0162 00       		.uleb128 .LVU846
 13173 0163 00       		.uleb128 .LVU855
 13174 0164 00       		.uleb128 .LVU855
 13175 0165 00       		.uleb128 .LVU1349
 13176 0166 00       		.uleb128 .LVU1349
 13177 0167 00       		.uleb128 .LVU1353
 13178 0168 00       		.uleb128 .LVU1353
 13179 0169 00       		.uleb128 0
 13180              	.LLST94:
 13181 016a 00000000 		.4byte	.LVL206
 13182 016e 15000000 		.4byte	.LVL208-1
 13183 0172 0100     		.2byte	0x1
 13184 0174 50       		.byte	0x50
 13185 0175 15000000 		.4byte	.LVL208-1
 13186 0179 34000000 		.4byte	.LVL212
 13187 017d 0100     		.2byte	0x1
 13188 017f 59       		.byte	0x59
 13189 0180 34000000 		.4byte	.LVL212
 13190 0184 B8080000 		.4byte	.LVL370
 13191 0188 0400     		.2byte	0x4
 13192 018a F3       		.byte	0xf3
 13193 018b 01       		.uleb128 0x1
 13194 018c 50       		.byte	0x50
 13195 018d 9F       		.byte	0x9f
 13196 018e B8080000 		.4byte	.LVL370
 13197 0192 CA080000 		.4byte	.LVL373
 13198 0196 0100     		.2byte	0x1
 13199 0198 59       		.byte	0x59
 13200 0199 CA080000 		.4byte	.LVL373
 13201 019d E8080000 		.4byte	.LFE38
 13202 01a1 0400     		.2byte	0x4
 13203 01a3 F3       		.byte	0xf3
 13204 01a4 01       		.uleb128 0x1
 13205 01a5 50       		.byte	0x50
 13206 01a6 9F       		.byte	0x9f
 13207 01a7 00000000 		.4byte	0
 13208 01ab 00000000 		.4byte	0
 13209              	.LVUS95:
 13210 01af 00       		.uleb128 0
 13211 01b0 00       		.uleb128 .LVU846
 13212 01b1 00       		.uleb128 .LVU846
 13213 01b2 00       		.uleb128 0
 13214              	.LLST95:
 13215 01b3 00000000 		.4byte	.LVL206
 13216 01b7 15000000 		.4byte	.LVL208-1
 13217 01bb 0100     		.2byte	0x1
 13218 01bd 51       		.byte	0x51
 13219 01be 15000000 		.4byte	.LVL208-1
 13220 01c2 E8080000 		.4byte	.LFE38
 13221 01c6 0400     		.2byte	0x4
 13222 01c8 F3       		.byte	0xf3
 13223 01c9 01       		.uleb128 0x1
 13224 01ca 51       		.byte	0x51
ARM GAS  /var/folders/cs/83z6p2tj4w57s6p2rt8nwfp00000gn/T//cc3yBana.s 			page 271


 13225 01cb 9F       		.byte	0x9f
 13226 01cc 00000000 		.4byte	0
 13227 01d0 00000000 		.4byte	0
 13228              	.LVUS96:
 13229 01d4 00       		.uleb128 0
 13230 01d5 00       		.uleb128 .LVU844
 13231 01d6 00       		.uleb128 .LVU844
 13232 01d7 00       		.uleb128 .LVU907
 13233 01d8 00       		.uleb128 .LVU907
 13234 01d9 00       		.uleb128 .LVU908
 13235 01da 00       		.uleb128 .LVU908
 13236 01db 00       		.uleb128 .LVU1003
 13237 01dc 00       		.uleb128 .LVU1003
 13238 01dd 00       		.uleb128 .LVU1004
 13239 01de 00       		.uleb128 .LVU1004
 13240 01df 00       		.uleb128 .LVU1086
 13241 01e0 00       		.uleb128 .LVU1086
 13242 01e1 00       		.uleb128 .LVU1087
 13243 01e2 00       		.uleb128 .LVU1087
 13244 01e3 00       		.uleb128 .LVU1098
 13245 01e4 00       		.uleb128 .LVU1098
 13246 01e5 00       		.uleb128 .LVU1099
 13247 01e6 00       		.uleb128 .LVU1099
 13248 01e7 00       		.uleb128 .LVU1136
 13249 01e8 00       		.uleb128 .LVU1136
 13250 01e9 00       		.uleb128 .LVU1137
 13251 01ea 00       		.uleb128 .LVU1137
 13252 01eb 00       		.uleb128 .LVU1154
 13253 01ec 00       		.uleb128 .LVU1154
 13254 01ed 00       		.uleb128 .LVU1156
 13255 01ee 00       		.uleb128 .LVU1156
 13256 01ef 00       		.uleb128 .LVU1243
 13257 01f0 00       		.uleb128 .LVU1243
 13258 01f1 00       		.uleb128 .LVU1244
 13259 01f2 00       		.uleb128 .LVU1244
 13260 01f3 00       		.uleb128 .LVU1294
 13261 01f4 00       		.uleb128 .LVU1294
 13262 01f5 00       		.uleb128 .LVU1295
 13263 01f6 00       		.uleb128 .LVU1295
 13264 01f7 00       		.uleb128 .LVU1296
 13265 01f8 00       		.uleb128 .LVU1296
 13266 01f9 00       		.uleb128 .LVU1297
 13267 01fa 00       		.uleb128 .LVU1297
 13268 01fb 00       		.uleb128 .LVU1344
 13269 01fc 00       		.uleb128 .LVU1344
 13270 01fd 00       		.uleb128 .LVU1345
 13271 01fe 00       		.uleb128 .LVU1345
 13272 01ff 00       		.uleb128 0
 13273              	.LLST96:
 13274 0200 00000000 		.4byte	.LVL206
 13275 0204 08000000 		.4byte	.LVL207
 13276 0208 0100     		.2byte	0x1
 13277 020a 52       		.byte	0x52
 13278 020b 08000000 		.4byte	.LVL207
 13279 020f CA000000 		.4byte	.LVL227
 13280 0213 0100     		.2byte	0x1
 13281 0215 5B       		.byte	0x5b
ARM GAS  /var/folders/cs/83z6p2tj4w57s6p2rt8nwfp00000gn/T//cc3yBana.s 			page 272


 13282 0216 CA000000 		.4byte	.LVL227
 13283 021a CD000000 		.4byte	.LVL228-1
 13284 021e 0100     		.2byte	0x1
 13285 0220 50       		.byte	0x50
 13286 0221 CD000000 		.4byte	.LVL228-1
 13287 0225 5E020000 		.4byte	.LVL251
 13288 0229 0100     		.2byte	0x1
 13289 022b 5B       		.byte	0x5b
 13290 022c 5E020000 		.4byte	.LVL251
 13291 0230 61020000 		.4byte	.LVL252-1
 13292 0234 0100     		.2byte	0x1
 13293 0236 50       		.byte	0x50
 13294 0237 61020000 		.4byte	.LVL252-1
 13295 023b FC030000 		.4byte	.LVL276
 13296 023f 0100     		.2byte	0x1
 13297 0241 5B       		.byte	0x5b
 13298 0242 FC030000 		.4byte	.LVL276
 13299 0246 FF030000 		.4byte	.LVL277-1
 13300 024a 0100     		.2byte	0x1
 13301 024c 50       		.byte	0x50
 13302 024d FF030000 		.4byte	.LVL277-1
 13303 0251 66040000 		.4byte	.LVL279
 13304 0255 0100     		.2byte	0x1
 13305 0257 5B       		.byte	0x5b
 13306 0258 66040000 		.4byte	.LVL279
 13307 025c 69040000 		.4byte	.LVL280-1
 13308 0260 0100     		.2byte	0x1
 13309 0262 50       		.byte	0x50
 13310 0263 69040000 		.4byte	.LVL280-1
 13311 0267 DC040000 		.4byte	.LVL291
 13312 026b 0100     		.2byte	0x1
 13313 026d 5B       		.byte	0x5b
 13314 026e DC040000 		.4byte	.LVL291
 13315 0272 DF040000 		.4byte	.LVL292-1
 13316 0276 0100     		.2byte	0x1
 13317 0278 50       		.byte	0x50
 13318 0279 DF040000 		.4byte	.LVL292-1
 13319 027d 44050000 		.4byte	.LVL300
 13320 0281 0100     		.2byte	0x1
 13321 0283 5B       		.byte	0x5b
 13322 0284 44050000 		.4byte	.LVL300
 13323 0288 47050000 		.4byte	.LVL301-1
 13324 028c 0100     		.2byte	0x1
 13325 028e 50       		.byte	0x50
 13326 028f 47050000 		.4byte	.LVL301-1
 13327 0293 D2060000 		.4byte	.LVL327
 13328 0297 0100     		.2byte	0x1
 13329 0299 5B       		.byte	0x5b
 13330 029a D2060000 		.4byte	.LVL327
 13331 029e D5060000 		.4byte	.LVL328-1
 13332 02a2 0100     		.2byte	0x1
 13333 02a4 50       		.byte	0x50
 13334 02a5 D5060000 		.4byte	.LVL328-1
 13335 02a9 A6070000 		.4byte	.LVL345
 13336 02ad 0100     		.2byte	0x1
 13337 02af 5B       		.byte	0x5b
 13338 02b0 A6070000 		.4byte	.LVL345
ARM GAS  /var/folders/cs/83z6p2tj4w57s6p2rt8nwfp00000gn/T//cc3yBana.s 			page 273


 13339 02b4 A9070000 		.4byte	.LVL346-1
 13340 02b8 0100     		.2byte	0x1
 13341 02ba 50       		.byte	0x50
 13342 02bb A9070000 		.4byte	.LVL346-1
 13343 02bf B2070000 		.4byte	.LVL347
 13344 02c3 0100     		.2byte	0x1
 13345 02c5 5B       		.byte	0x5b
 13346 02c6 B2070000 		.4byte	.LVL347
 13347 02ca B5070000 		.4byte	.LVL348-1
 13348 02ce 0100     		.2byte	0x1
 13349 02d0 50       		.byte	0x50
 13350 02d1 B5070000 		.4byte	.LVL348-1
 13351 02d5 A0080000 		.4byte	.LVL366
 13352 02d9 0100     		.2byte	0x1
 13353 02db 5B       		.byte	0x5b
 13354 02dc A0080000 		.4byte	.LVL366
 13355 02e0 A3080000 		.4byte	.LVL367-1
 13356 02e4 0100     		.2byte	0x1
 13357 02e6 50       		.byte	0x50
 13358 02e7 A3080000 		.4byte	.LVL367-1
 13359 02eb E8080000 		.4byte	.LFE38
 13360 02ef 0100     		.2byte	0x1
 13361 02f1 5B       		.byte	0x5b
 13362 02f2 00000000 		.4byte	0
 13363 02f6 00000000 		.4byte	0
 13364              	.LVUS97:
 13365 02fa 00       		.uleb128 0
 13366 02fb 00       		.uleb128 .LVU846
 13367 02fc 00       		.uleb128 .LVU846
 13368 02fd 00       		.uleb128 .LVU855
 13369 02fe 00       		.uleb128 .LVU855
 13370 02ff 00       		.uleb128 .LVU881
 13371 0300 00       		.uleb128 .LVU881
 13372 0301 00       		.uleb128 .LVU907
 13373 0302 00       		.uleb128 .LVU907
 13374 0303 00       		.uleb128 .LVU908
 13375 0304 00       		.uleb128 .LVU908
 13376 0305 00       		.uleb128 .LVU980
 13377 0306 00       		.uleb128 .LVU980
 13378 0307 00       		.uleb128 .LVU997
 13379 0308 00       		.uleb128 .LVU997
 13380 0309 00       		.uleb128 .LVU1003
 13381 030a 00       		.uleb128 .LVU1003
 13382 030b 00       		.uleb128 .LVU1004
 13383 030c 00       		.uleb128 .LVU1004
 13384 030d 00       		.uleb128 .LVU1073
 13385 030e 00       		.uleb128 .LVU1073
 13386 030f 00       		.uleb128 .LVU1075
 13387 0310 00       		.uleb128 .LVU1075
 13388 0311 00       		.uleb128 .LVU1086
 13389 0312 00       		.uleb128 .LVU1086
 13390 0313 00       		.uleb128 .LVU1087
 13391 0314 00       		.uleb128 .LVU1087
 13392 0315 00       		.uleb128 .LVU1098
 13393 0316 00       		.uleb128 .LVU1098
 13394 0317 00       		.uleb128 .LVU1099
 13395 0318 00       		.uleb128 .LVU1099
ARM GAS  /var/folders/cs/83z6p2tj4w57s6p2rt8nwfp00000gn/T//cc3yBana.s 			page 274


 13396 0319 00       		.uleb128 .LVU1136
 13397 031a 00       		.uleb128 .LVU1136
 13398 031b 00       		.uleb128 .LVU1137
 13399 031c 00       		.uleb128 .LVU1137
 13400 031d 00       		.uleb128 .LVU1138
 13401 031e 00       		.uleb128 .LVU1138
 13402 031f 00       		.uleb128 .LVU1146
 13403 0320 00       		.uleb128 .LVU1146
 13404 0321 00       		.uleb128 .LVU1147
 13405 0322 00       		.uleb128 .LVU1147
 13406 0323 00       		.uleb128 .LVU1150
 13407 0324 00       		.uleb128 .LVU1150
 13408 0325 00       		.uleb128 .LVU1154
 13409 0326 00       		.uleb128 .LVU1154
 13410 0327 00       		.uleb128 .LVU1156
 13411 0328 00       		.uleb128 .LVU1156
 13412 0329 00       		.uleb128 .LVU1181
 13413 032a 00       		.uleb128 .LVU1181
 13414 032b 00       		.uleb128 .LVU1277
 13415 032c 00       		.uleb128 .LVU1277
 13416 032d 00       		.uleb128 .LVU1282
 13417 032e 00       		.uleb128 .LVU1282
 13418 032f 00       		.uleb128 .LVU1301
 13419 0330 00       		.uleb128 .LVU1301
 13420 0331 00       		.uleb128 .LVU1306
 13421 0332 00       		.uleb128 .LVU1306
 13422 0333 00       		.uleb128 .LVU1349
 13423 0334 00       		.uleb128 .LVU1349
 13424 0335 00       		.uleb128 .LVU1353
 13425 0336 00       		.uleb128 .LVU1353
 13426 0337 00       		.uleb128 0
 13427              	.LLST97:
 13428 0338 00000000 		.4byte	.LVL206
 13429 033c 15000000 		.4byte	.LVL208-1
 13430 0340 0100     		.2byte	0x1
 13431 0342 53       		.byte	0x53
 13432 0343 15000000 		.4byte	.LVL208-1
 13433 0347 34000000 		.4byte	.LVL212
 13434 034b 0100     		.2byte	0x1
 13435 034d 5A       		.byte	0x5a
 13436 034e 34000000 		.4byte	.LVL212
 13437 0352 72000000 		.4byte	.LVL220
 13438 0356 0200     		.2byte	0x2
 13439 0358 90       		.byte	0x90
 13440 0359 54       		.uleb128 0x54
 13441 035a 72000000 		.4byte	.LVL220
 13442 035e CA000000 		.4byte	.LVL227
 13443 0362 0100     		.2byte	0x1
 13444 0364 5A       		.byte	0x5a
 13445 0365 CA000000 		.4byte	.LVL227
 13446 0369 CD000000 		.4byte	.LVL228-1
 13447 036d 0100     		.2byte	0x1
 13448 036f 51       		.byte	0x51
 13449 0370 CD000000 		.4byte	.LVL228-1
 13450 0374 FE010000 		.4byte	.LVL246
 13451 0378 0100     		.2byte	0x1
 13452 037a 5A       		.byte	0x5a
ARM GAS  /var/folders/cs/83z6p2tj4w57s6p2rt8nwfp00000gn/T//cc3yBana.s 			page 275


 13453 037b FE010000 		.4byte	.LVL246
 13454 037f 44020000 		.4byte	.LVL249
 13455 0383 0200     		.2byte	0x2
 13456 0385 90       		.byte	0x90
 13457 0386 54       		.uleb128 0x54
 13458 0387 44020000 		.4byte	.LVL249
 13459 038b 5E020000 		.4byte	.LVL251
 13460 038f 0100     		.2byte	0x1
 13461 0391 59       		.byte	0x59
 13462 0392 5E020000 		.4byte	.LVL251
 13463 0396 61020000 		.4byte	.LVL252-1
 13464 039a 0100     		.2byte	0x1
 13465 039c 51       		.byte	0x51
 13466 039d 61020000 		.4byte	.LVL252-1
 13467 03a1 D8030000 		.4byte	.LVL272
 13468 03a5 0100     		.2byte	0x1
 13469 03a7 59       		.byte	0x59
 13470 03a8 D8030000 		.4byte	.LVL272
 13471 03ac E2030000 		.4byte	.LVL273
 13472 03b0 0400     		.2byte	0x4
 13473 03b2 F3       		.byte	0xf3
 13474 03b3 01       		.uleb128 0x1
 13475 03b4 53       		.byte	0x53
 13476 03b5 9F       		.byte	0x9f
 13477 03b6 E2030000 		.4byte	.LVL273
 13478 03ba FC030000 		.4byte	.LVL276
 13479 03be 0100     		.2byte	0x1
 13480 03c0 5A       		.byte	0x5a
 13481 03c1 FC030000 		.4byte	.LVL276
 13482 03c5 FF030000 		.4byte	.LVL277-1
 13483 03c9 0100     		.2byte	0x1
 13484 03cb 51       		.byte	0x51
 13485 03cc FF030000 		.4byte	.LVL277-1
 13486 03d0 66040000 		.4byte	.LVL279
 13487 03d4 0100     		.2byte	0x1
 13488 03d6 5A       		.byte	0x5a
 13489 03d7 66040000 		.4byte	.LVL279
 13490 03db 69040000 		.4byte	.LVL280-1
 13491 03df 0100     		.2byte	0x1
 13492 03e1 51       		.byte	0x51
 13493 03e2 69040000 		.4byte	.LVL280-1
 13494 03e6 DC040000 		.4byte	.LVL291
 13495 03ea 0100     		.2byte	0x1
 13496 03ec 5A       		.byte	0x5a
 13497 03ed DC040000 		.4byte	.LVL291
 13498 03f1 DF040000 		.4byte	.LVL292-1
 13499 03f5 0100     		.2byte	0x1
 13500 03f7 51       		.byte	0x51
 13501 03f8 DF040000 		.4byte	.LVL292-1
 13502 03fc E2040000 		.4byte	.LVL293
 13503 0400 0100     		.2byte	0x1
 13504 0402 5A       		.byte	0x5a
 13505 0403 E2040000 		.4byte	.LVL293
 13506 0407 12050000 		.4byte	.LVL296
 13507 040b 0100     		.2byte	0x1
 13508 040d 59       		.byte	0x59
 13509 040e 12050000 		.4byte	.LVL296
ARM GAS  /var/folders/cs/83z6p2tj4w57s6p2rt8nwfp00000gn/T//cc3yBana.s 			page 276


 13510 0412 14050000 		.4byte	.LVL297
 13511 0416 0200     		.2byte	0x2
 13512 0418 90       		.byte	0x90
 13513 0419 54       		.uleb128 0x54
 13514 041a 14050000 		.4byte	.LVL297
 13515 041e 3A050000 		.4byte	.LVL298
 13516 0422 0100     		.2byte	0x1
 13517 0424 59       		.byte	0x59
 13518 0425 3A050000 		.4byte	.LVL298
 13519 0429 44050000 		.4byte	.LVL300
 13520 042d 0100     		.2byte	0x1
 13521 042f 5A       		.byte	0x5a
 13522 0430 44050000 		.4byte	.LVL300
 13523 0434 47050000 		.4byte	.LVL301-1
 13524 0438 0100     		.2byte	0x1
 13525 043a 51       		.byte	0x51
 13526 043b 47050000 		.4byte	.LVL301-1
 13527 043f C0050000 		.4byte	.LVL313
 13528 0443 0100     		.2byte	0x1
 13529 0445 59       		.byte	0x59
 13530 0446 C0050000 		.4byte	.LVL313
 13531 044a 82070000 		.4byte	.LVL338
 13532 044e 0200     		.2byte	0x2
 13533 0450 90       		.byte	0x90
 13534 0451 54       		.uleb128 0x54
 13535 0452 82070000 		.4byte	.LVL338
 13536 0456 90070000 		.4byte	.LVL341
 13537 045a 0100     		.2byte	0x1
 13538 045c 5A       		.byte	0x5a
 13539 045d 90070000 		.4byte	.LVL341
 13540 0461 C4070000 		.4byte	.LVL351
 13541 0465 0200     		.2byte	0x2
 13542 0467 90       		.byte	0x90
 13543 0468 54       		.uleb128 0x54
 13544 0469 C4070000 		.4byte	.LVL351
 13545 046d F8070000 		.4byte	.LVL357
 13546 0471 0100     		.2byte	0x1
 13547 0473 59       		.byte	0x59
 13548 0474 F8070000 		.4byte	.LVL357
 13549 0478 B8080000 		.4byte	.LVL370
 13550 047c 0200     		.2byte	0x2
 13551 047e 90       		.byte	0x90
 13552 047f 54       		.uleb128 0x54
 13553 0480 B8080000 		.4byte	.LVL370
 13554 0484 CA080000 		.4byte	.LVL373
 13555 0488 0100     		.2byte	0x1
 13556 048a 5A       		.byte	0x5a
 13557 048b CA080000 		.4byte	.LVL373
 13558 048f E8080000 		.4byte	.LFE38
 13559 0493 0200     		.2byte	0x2
 13560 0495 90       		.byte	0x90
 13561 0496 54       		.uleb128 0x54
 13562 0497 00000000 		.4byte	0
 13563 049b 00000000 		.4byte	0
 13564              	.LVUS98:
 13565 049f 00       		.uleb128 .LVU848
 13566 04a0 00       		.uleb128 .LVU852
ARM GAS  /var/folders/cs/83z6p2tj4w57s6p2rt8nwfp00000gn/T//cc3yBana.s 			page 277


 13567 04a1 00       		.uleb128 .LVU852
 13568 04a2 00       		.uleb128 .LVU1349
 13569 04a3 00       		.uleb128 .LVU1349
 13570 04a4 00       		.uleb128 .LVU1351
 13571 04a5 00       		.uleb128 .LVU1351
 13572 04a6 00       		.uleb128 0
 13573              	.LLST98:
 13574 04a7 1A000000 		.4byte	.LVL209
 13575 04ab 22000000 		.4byte	.LVL211
 13576 04af 0100     		.2byte	0x1
 13577 04b1 50       		.byte	0x50
 13578 04b2 22000000 		.4byte	.LVL211
 13579 04b6 B8080000 		.4byte	.LVL370
 13580 04ba 0300     		.2byte	0x3
 13581 04bc 91       		.byte	0x91
 13582 04bd B47F     		.sleb128 -76
 13583 04bf B8080000 		.4byte	.LVL370
 13584 04c3 C2080000 		.4byte	.LVL371
 13585 04c7 0100     		.2byte	0x1
 13586 04c9 50       		.byte	0x50
 13587 04ca C2080000 		.4byte	.LVL371
 13588 04ce E8080000 		.4byte	.LFE38
 13589 04d2 0300     		.2byte	0x3
 13590 04d4 91       		.byte	0x91
 13591 04d5 B47F     		.sleb128 -76
 13592 04d7 00000000 		.4byte	0
 13593 04db 00000000 		.4byte	0
 13594              	.LVUS99:
 13595 04df 00       		.uleb128 .LVU850
 13596 04e0 00       		.uleb128 .LVU855
 13597 04e1 00       		.uleb128 .LVU855
 13598 04e2 00       		.uleb128 .LVU863
 13599 04e3 00       		.uleb128 .LVU863
 13600 04e4 00       		.uleb128 .LVU865
 13601 04e5 00       		.uleb128 .LVU865
 13602 04e6 00       		.uleb128 .LVU1073
 13603 04e7 00       		.uleb128 .LVU1075
 13604 04e8 00       		.uleb128 .LVU1181
 13605 04e9 00       		.uleb128 .LVU1181
 13606 04ea 00       		.uleb128 .LVU1186
 13607 04eb 00       		.uleb128 .LVU1186
 13608 04ec 00       		.uleb128 .LVU1349
 13609 04ed 00       		.uleb128 .LVU1352
 13610 04ee 00       		.uleb128 .LVU1353
 13611 04ef 00       		.uleb128 .LVU1353
 13612 04f0 00       		.uleb128 0
 13613              	.LLST99:
 13614 04f1 1E000000 		.4byte	.LVL210
 13615 04f5 34000000 		.4byte	.LVL212
 13616 04f9 0200     		.2byte	0x2
 13617 04fb 30       		.byte	0x30
 13618 04fc 9F       		.byte	0x9f
 13619 04fd 34000000 		.4byte	.LVL212
 13620 0501 44000000 		.4byte	.LVL214
 13621 0505 0300     		.2byte	0x3
 13622 0507 91       		.byte	0x91
 13623 0508 B07F     		.sleb128 -80
ARM GAS  /var/folders/cs/83z6p2tj4w57s6p2rt8nwfp00000gn/T//cc3yBana.s 			page 278


 13624 050a 44000000 		.4byte	.LVL214
 13625 050e 48000000 		.4byte	.LVL215
 13626 0512 0100     		.2byte	0x1
 13627 0514 53       		.byte	0x53
 13628 0515 48000000 		.4byte	.LVL215
 13629 0519 D8030000 		.4byte	.LVL272
 13630 051d 0300     		.2byte	0x3
 13631 051f 91       		.byte	0x91
 13632 0520 B07F     		.sleb128 -80
 13633 0522 E2030000 		.4byte	.LVL273
 13634 0526 C0050000 		.4byte	.LVL313
 13635 052a 0300     		.2byte	0x3
 13636 052c 91       		.byte	0x91
 13637 052d B07F     		.sleb128 -80
 13638 052f C0050000 		.4byte	.LVL313
 13639 0533 D6050000 		.4byte	.LVL314
 13640 0537 0100     		.2byte	0x1
 13641 0539 52       		.byte	0x52
 13642 053a D6050000 		.4byte	.LVL314
 13643 053e B8080000 		.4byte	.LVL370
 13644 0542 0300     		.2byte	0x3
 13645 0544 91       		.byte	0x91
 13646 0545 B07F     		.sleb128 -80
 13647 0547 C6080000 		.4byte	.LVL372
 13648 054b CA080000 		.4byte	.LVL373
 13649 054f 0200     		.2byte	0x2
 13650 0551 30       		.byte	0x30
 13651 0552 9F       		.byte	0x9f
 13652 0553 CA080000 		.4byte	.LVL373
 13653 0557 E8080000 		.4byte	.LFE38
 13654 055b 0300     		.2byte	0x3
 13655 055d 91       		.byte	0x91
 13656 055e B07F     		.sleb128 -80
 13657 0560 00000000 		.4byte	0
 13658 0564 00000000 		.4byte	0
 13659              	.LVUS100:
 13660 0568 00       		.uleb128 .LVU855
 13661 0569 00       		.uleb128 .LVU857
 13662 056a 00       		.uleb128 .LVU867
 13663 056b 00       		.uleb128 .LVU997
 13664 056c 00       		.uleb128 .LVU997
 13665 056d 00       		.uleb128 .LVU1073
 13666 056e 00       		.uleb128 .LVU1075
 13667 056f 00       		.uleb128 .LVU1138
 13668 0570 00       		.uleb128 .LVU1138
 13669 0571 00       		.uleb128 .LVU1150
 13670 0572 00       		.uleb128 .LVU1150
 13671 0573 00       		.uleb128 .LVU1154
 13672 0574 00       		.uleb128 .LVU1154
 13673 0575 00       		.uleb128 .LVU1181
 13674 0576 00       		.uleb128 .LVU1181
 13675 0577 00       		.uleb128 .LVU1301
 13676 0578 00       		.uleb128 .LVU1301
 13677 0579 00       		.uleb128 .LVU1306
 13678 057a 00       		.uleb128 .LVU1306
 13679 057b 00       		.uleb128 .LVU1349
 13680 057c 00       		.uleb128 .LVU1353
ARM GAS  /var/folders/cs/83z6p2tj4w57s6p2rt8nwfp00000gn/T//cc3yBana.s 			page 279


 13681 057d 00       		.uleb128 0
 13682              	.LLST100:
 13683 057e 34000000 		.4byte	.LVL212
 13684 0582 3A000000 		.4byte	.LVL213
 13685 0586 0100     		.2byte	0x1
 13686 0588 55       		.byte	0x55
 13687 0589 52000000 		.4byte	.LVL216
 13688 058d 44020000 		.4byte	.LVL249
 13689 0591 0100     		.2byte	0x1
 13690 0593 55       		.byte	0x55
 13691 0594 44020000 		.4byte	.LVL249
 13692 0598 D8030000 		.4byte	.LVL272
 13693 059c 0100     		.2byte	0x1
 13694 059e 58       		.byte	0x58
 13695 059f E2030000 		.4byte	.LVL273
 13696 05a3 E2040000 		.4byte	.LVL293
 13697 05a7 0100     		.2byte	0x1
 13698 05a9 55       		.byte	0x55
 13699 05aa E2040000 		.4byte	.LVL293
 13700 05ae 3A050000 		.4byte	.LVL298
 13701 05b2 0100     		.2byte	0x1
 13702 05b4 58       		.byte	0x58
 13703 05b5 3A050000 		.4byte	.LVL298
 13704 05b9 44050000 		.4byte	.LVL300
 13705 05bd 0100     		.2byte	0x1
 13706 05bf 55       		.byte	0x55
 13707 05c0 44050000 		.4byte	.LVL300
 13708 05c4 C0050000 		.4byte	.LVL313
 13709 05c8 0100     		.2byte	0x1
 13710 05ca 58       		.byte	0x58
 13711 05cb C0050000 		.4byte	.LVL313
 13712 05cf C4070000 		.4byte	.LVL351
 13713 05d3 0100     		.2byte	0x1
 13714 05d5 55       		.byte	0x55
 13715 05d6 C4070000 		.4byte	.LVL351
 13716 05da F8070000 		.4byte	.LVL357
 13717 05de 0100     		.2byte	0x1
 13718 05e0 58       		.byte	0x58
 13719 05e1 F8070000 		.4byte	.LVL357
 13720 05e5 B8080000 		.4byte	.LVL370
 13721 05e9 0100     		.2byte	0x1
 13722 05eb 55       		.byte	0x55
 13723 05ec CA080000 		.4byte	.LVL373
 13724 05f0 E8080000 		.4byte	.LFE38
 13725 05f4 0100     		.2byte	0x1
 13726 05f6 55       		.byte	0x55
 13727 05f7 00000000 		.4byte	0
 13728 05fb 00000000 		.4byte	0
 13729              	.LVUS101:
 13730 05ff 00       		.uleb128 .LVU855
 13731 0600 00       		.uleb128 .LVU857
 13732 0601 00       		.uleb128 .LVU869
 13733 0602 00       		.uleb128 .LVU881
 13734 0603 00       		.uleb128 .LVU881
 13735 0604 00       		.uleb128 .LVU980
 13736 0605 00       		.uleb128 .LVU1075
 13737 0606 00       		.uleb128 .LVU1138
ARM GAS  /var/folders/cs/83z6p2tj4w57s6p2rt8nwfp00000gn/T//cc3yBana.s 			page 280


 13738 0607 00       		.uleb128 .LVU1150
 13739 0608 00       		.uleb128 .LVU1154
 13740 0609 00       		.uleb128 .LVU1181
 13741 060a 00       		.uleb128 .LVU1277
 13742 060b 00       		.uleb128 .LVU1277
 13743 060c 00       		.uleb128 .LVU1282
 13744 060d 00       		.uleb128 .LVU1282
 13745 060e 00       		.uleb128 .LVU1301
 13746 060f 00       		.uleb128 .LVU1306
 13747 0610 00       		.uleb128 .LVU1349
 13748 0611 00       		.uleb128 .LVU1353
 13749 0612 00       		.uleb128 0
 13750              	.LLST101:
 13751 0613 34000000 		.4byte	.LVL212
 13752 0617 3A000000 		.4byte	.LVL213
 13753 061b 0100     		.2byte	0x1
 13754 061d 57       		.byte	0x57
 13755 061e 56000000 		.4byte	.LVL217
 13756 0622 72000000 		.4byte	.LVL220
 13757 0626 0100     		.2byte	0x1
 13758 0628 57       		.byte	0x57
 13759 0629 72000000 		.4byte	.LVL220
 13760 062d FE010000 		.4byte	.LVL246
 13761 0631 0300     		.2byte	0x3
 13762 0633 91       		.byte	0x91
 13763 0634 B87F     		.sleb128 -72
 13764 0636 E2030000 		.4byte	.LVL273
 13765 063a E2040000 		.4byte	.LVL293
 13766 063e 0300     		.2byte	0x3
 13767 0640 91       		.byte	0x91
 13768 0641 B87F     		.sleb128 -72
 13769 0643 3A050000 		.4byte	.LVL298
 13770 0647 44050000 		.4byte	.LVL300
 13771 064b 0300     		.2byte	0x3
 13772 064d 91       		.byte	0x91
 13773 064e B87F     		.sleb128 -72
 13774 0650 C0050000 		.4byte	.LVL313
 13775 0654 82070000 		.4byte	.LVL338
 13776 0658 0100     		.2byte	0x1
 13777 065a 57       		.byte	0x57
 13778 065b 82070000 		.4byte	.LVL338
 13779 065f 90070000 		.4byte	.LVL341
 13780 0663 0300     		.2byte	0x3
 13781 0665 91       		.byte	0x91
 13782 0666 B87F     		.sleb128 -72
 13783 0668 90070000 		.4byte	.LVL341
 13784 066c C4070000 		.4byte	.LVL351
 13785 0670 0100     		.2byte	0x1
 13786 0672 57       		.byte	0x57
 13787 0673 F8070000 		.4byte	.LVL357
 13788 0677 B8080000 		.4byte	.LVL370
 13789 067b 0100     		.2byte	0x1
 13790 067d 57       		.byte	0x57
 13791 067e CA080000 		.4byte	.LVL373
 13792 0682 E8080000 		.4byte	.LFE38
 13793 0686 0100     		.2byte	0x1
 13794 0688 57       		.byte	0x57
ARM GAS  /var/folders/cs/83z6p2tj4w57s6p2rt8nwfp00000gn/T//cc3yBana.s 			page 281


 13795 0689 00000000 		.4byte	0
 13796 068d 00000000 		.4byte	0
 13797              	.LVUS102:
 13798 0691 01       		.uleb128 .LVU872
 13799 0692 00       		.uleb128 .LVU977
 13800 0693 00       		.uleb128 .LVU1075
 13801 0694 00       		.uleb128 .LVU1138
 13802 0695 00       		.uleb128 .LVU1150
 13803 0696 00       		.uleb128 .LVU1154
 13804 0697 00       		.uleb128 .LVU1181
 13805 0698 00       		.uleb128 .LVU1301
 13806 0699 00       		.uleb128 .LVU1306
 13807 069a 00       		.uleb128 .LVU1349
 13808 069b 00       		.uleb128 .LVU1353
 13809 069c 00       		.uleb128 0
 13810              	.LLST102:
 13811 069d 5A000000 		.4byte	.LVL218
 13812 06a1 F8010000 		.4byte	.LVL245
 13813 06a5 0100     		.2byte	0x1
 13814 06a7 55       		.byte	0x55
 13815 06a8 E2030000 		.4byte	.LVL273
 13816 06ac E2040000 		.4byte	.LVL293
 13817 06b0 0100     		.2byte	0x1
 13818 06b2 55       		.byte	0x55
 13819 06b3 3A050000 		.4byte	.LVL298
 13820 06b7 44050000 		.4byte	.LVL300
 13821 06bb 0100     		.2byte	0x1
 13822 06bd 55       		.byte	0x55
 13823 06be C0050000 		.4byte	.LVL313
 13824 06c2 C4070000 		.4byte	.LVL351
 13825 06c6 0100     		.2byte	0x1
 13826 06c8 55       		.byte	0x55
 13827 06c9 F8070000 		.4byte	.LVL357
 13828 06cd B8080000 		.4byte	.LVL370
 13829 06d1 0100     		.2byte	0x1
 13830 06d3 55       		.byte	0x55
 13831 06d4 CA080000 		.4byte	.LVL373
 13832 06d8 E8080000 		.4byte	.LFE38
 13833 06dc 0100     		.2byte	0x1
 13834 06de 55       		.byte	0x55
 13835 06df 00000000 		.4byte	0
 13836 06e3 00000000 		.4byte	0
 13837              	.LVUS103:
 13838 06e7 00       		.uleb128 .LVU879
 13839 06e8 00       		.uleb128 .LVU976
 13840 06e9 00       		.uleb128 .LVU976
 13841 06ea 00       		.uleb128 .LVU977
 13842 06eb 00       		.uleb128 .LVU1075
 13843 06ec 00       		.uleb128 .LVU1138
 13844 06ed 00       		.uleb128 .LVU1150
 13845 06ee 00       		.uleb128 .LVU1154
 13846 06ef 00       		.uleb128 .LVU1277
 13847 06f0 00       		.uleb128 .LVU1282
 13848              	.LLST103:
 13849 06f1 64000000 		.4byte	.LVL219
 13850 06f5 F2010000 		.4byte	.LVL244
 13851 06f9 0100     		.2byte	0x1
ARM GAS  /var/folders/cs/83z6p2tj4w57s6p2rt8nwfp00000gn/T//cc3yBana.s 			page 282


 13852 06fb 56       		.byte	0x56
 13853 06fc F2010000 		.4byte	.LVL244
 13854 0700 F8010000 		.4byte	.LVL245
 13855 0704 0300     		.2byte	0x3
 13856 0706 76       		.byte	0x76
 13857 0707 01       		.sleb128 1
 13858 0708 9F       		.byte	0x9f
 13859 0709 E2030000 		.4byte	.LVL273
 13860 070d E2040000 		.4byte	.LVL293
 13861 0711 0100     		.2byte	0x1
 13862 0713 56       		.byte	0x56
 13863 0714 3A050000 		.4byte	.LVL298
 13864 0718 44050000 		.4byte	.LVL300
 13865 071c 0100     		.2byte	0x1
 13866 071e 56       		.byte	0x56
 13867 071f 82070000 		.4byte	.LVL338
 13868 0723 90070000 		.4byte	.LVL341
 13869 0727 0100     		.2byte	0x1
 13870 0729 56       		.byte	0x56
 13871 072a 00000000 		.4byte	0
 13872 072e 00000000 		.4byte	0
 13873              	.LVUS104:
 13874 0732 00       		.uleb128 .LVU884
 13875 0733 00       		.uleb128 .LVU977
 13876 0734 00       		.uleb128 .LVU1075
 13877 0735 00       		.uleb128 .LVU1138
 13878 0736 00       		.uleb128 .LVU1150
 13879 0737 00       		.uleb128 .LVU1154
 13880 0738 00       		.uleb128 .LVU1277
 13881 0739 00       		.uleb128 .LVU1282
 13882              	.LLST104:
 13883 073a 78000000 		.4byte	.LVL221
 13884 073e F8010000 		.4byte	.LVL245
 13885 0742 0100     		.2byte	0x1
 13886 0744 54       		.byte	0x54
 13887 0745 E2030000 		.4byte	.LVL273
 13888 0749 E2040000 		.4byte	.LVL293
 13889 074d 0100     		.2byte	0x1
 13890 074f 54       		.byte	0x54
 13891 0750 3A050000 		.4byte	.LVL298
 13892 0754 44050000 		.4byte	.LVL300
 13893 0758 0100     		.2byte	0x1
 13894 075a 54       		.byte	0x54
 13895 075b 82070000 		.4byte	.LVL338
 13896 075f 90070000 		.4byte	.LVL341
 13897 0763 0100     		.2byte	0x1
 13898 0765 54       		.byte	0x54
 13899 0766 00000000 		.4byte	0
 13900 076a 00000000 		.4byte	0
 13901              	.LVUS105:
 13902 076e 00       		.uleb128 .LVU886
 13903 076f 00       		.uleb128 .LVU908
 13904 0770 01       		.uleb128 .LVU913
 13905 0771 00       		.uleb128 .LVU969
 13906 0772 00       		.uleb128 .LVU1075
 13907 0773 00       		.uleb128 .LVU1138
 13908 0774 00       		.uleb128 .LVU1150
ARM GAS  /var/folders/cs/83z6p2tj4w57s6p2rt8nwfp00000gn/T//cc3yBana.s 			page 283


 13909 0775 00       		.uleb128 .LVU1154
 13910 0776 00       		.uleb128 .LVU1277
 13911 0777 00       		.uleb128 .LVU1282
 13912              	.LLST105:
 13913 0778 7C000000 		.4byte	.LVL222
 13914 077c CE000000 		.4byte	.LVL228
 13915 0780 0100     		.2byte	0x1
 13916 0782 54       		.byte	0x54
 13917 0783 D6000000 		.4byte	.LVL230
 13918 0787 E8010000 		.4byte	.LVL242
 13919 078b 0100     		.2byte	0x1
 13920 078d 54       		.byte	0x54
 13921 078e E2030000 		.4byte	.LVL273
 13922 0792 E2040000 		.4byte	.LVL293
 13923 0796 0100     		.2byte	0x1
 13924 0798 54       		.byte	0x54
 13925 0799 3A050000 		.4byte	.LVL298
 13926 079d 44050000 		.4byte	.LVL300
 13927 07a1 0100     		.2byte	0x1
 13928 07a3 54       		.byte	0x54
 13929 07a4 82070000 		.4byte	.LVL338
 13930 07a8 90070000 		.4byte	.LVL341
 13931 07ac 0100     		.2byte	0x1
 13932 07ae 54       		.byte	0x54
 13933 07af 00000000 		.4byte	0
 13934 07b3 00000000 		.4byte	0
 13935              	.LVUS106:
 13936 07b7 00       		.uleb128 .LVU886
 13937 07b8 00       		.uleb128 .LVU896
 13938 07b9 00       		.uleb128 .LVU896
 13939 07ba 00       		.uleb128 .LVU905
 13940 07bb 00       		.uleb128 .LVU923
 13941 07bc 00       		.uleb128 .LVU969
 13942 07bd 00       		.uleb128 .LVU1075
 13943 07be 00       		.uleb128 .LVU1081
 13944 07bf 00       		.uleb128 .LVU1081
 13945 07c0 00       		.uleb128 .LVU1084
 13946 07c1 00       		.uleb128 .LVU1088
 13947 07c2 00       		.uleb128 .LVU1098
 13948 07c3 00       		.uleb128 .LVU1100
 13949 07c4 00       		.uleb128 .LVU1118
 13950 07c5 00       		.uleb128 .LVU1118
 13951 07c6 00       		.uleb128 .LVU1136
 13952 07c7 00       		.uleb128 .LVU1150
 13953 07c8 00       		.uleb128 .LVU1154
 13954 07c9 00       		.uleb128 .LVU1277
 13955 07ca 00       		.uleb128 .LVU1282
 13956              	.LLST106:
 13957 07cb 7C000000 		.4byte	.LVL222
 13958 07cf AE000000 		.4byte	.LVL225
 13959 07d3 0200     		.2byte	0x2
 13960 07d5 90       		.byte	0x90
 13961 07d6 4A       		.uleb128 0x4a
 13962 07d7 AE000000 		.4byte	.LVL225
 13963 07db BE000000 		.4byte	.LVL226
 13964 07df 0200     		.2byte	0x2
 13965 07e1 72       		.byte	0x72
ARM GAS  /var/folders/cs/83z6p2tj4w57s6p2rt8nwfp00000gn/T//cc3yBana.s 			page 284


 13966 07e2 00       		.sleb128 0
 13967 07e3 0A010000 		.4byte	.LVL231
 13968 07e7 E8010000 		.4byte	.LVL242
 13969 07eb 0200     		.2byte	0x2
 13970 07ed 90       		.byte	0x90
 13971 07ee 4A       		.uleb128 0x4a
 13972 07ef E2030000 		.4byte	.LVL273
 13973 07f3 F0030000 		.4byte	.LVL274
 13974 07f7 0200     		.2byte	0x2
 13975 07f9 90       		.byte	0x90
 13976 07fa 4A       		.uleb128 0x4a
 13977 07fb F0030000 		.4byte	.LVL274
 13978 07ff F6030000 		.4byte	.LVL275
 13979 0803 0200     		.2byte	0x2
 13980 0805 72       		.byte	0x72
 13981 0806 00       		.sleb128 0
 13982 0807 02040000 		.4byte	.LVL278
 13983 080b 66040000 		.4byte	.LVL279
 13984 080f 0200     		.2byte	0x2
 13985 0811 90       		.byte	0x90
 13986 0812 4A       		.uleb128 0x4a
 13987 0813 6C040000 		.4byte	.LVL281
 13988 0817 94040000 		.4byte	.LVL286
 13989 081b 0200     		.2byte	0x2
 13990 081d 90       		.byte	0x90
 13991 081e 4A       		.uleb128 0x4a
 13992 081f 94040000 		.4byte	.LVL286
 13993 0823 DC040000 		.4byte	.LVL291
 13994 0827 0200     		.2byte	0x2
 13995 0829 72       		.byte	0x72
 13996 082a 00       		.sleb128 0
 13997 082b 3A050000 		.4byte	.LVL298
 13998 082f 44050000 		.4byte	.LVL300
 13999 0833 0200     		.2byte	0x2
 14000 0835 72       		.byte	0x72
 14001 0836 00       		.sleb128 0
 14002 0837 82070000 		.4byte	.LVL338
 14003 083b 90070000 		.4byte	.LVL341
 14004 083f 0200     		.2byte	0x2
 14005 0841 72       		.byte	0x72
 14006 0842 00       		.sleb128 0
 14007 0843 00000000 		.4byte	0
 14008 0847 00000000 		.4byte	0
 14009              	.LVUS107:
 14010 084b 00       		.uleb128 .LVU886
 14011 084c 00       		.uleb128 .LVU896
 14012 084d 00       		.uleb128 .LVU896
 14013 084e 00       		.uleb128 .LVU905
 14014 084f 00       		.uleb128 .LVU925
 14015 0850 00       		.uleb128 .LVU969
 14016 0851 00       		.uleb128 .LVU1075
 14017 0852 00       		.uleb128 .LVU1081
 14018 0853 00       		.uleb128 .LVU1081
 14019 0854 00       		.uleb128 .LVU1084
 14020 0855 00       		.uleb128 .LVU1088
 14021 0856 00       		.uleb128 .LVU1098
 14022 0857 00       		.uleb128 .LVU1100
ARM GAS  /var/folders/cs/83z6p2tj4w57s6p2rt8nwfp00000gn/T//cc3yBana.s 			page 285


 14023 0858 00       		.uleb128 .LVU1106
 14024 0859 00       		.uleb128 .LVU1106
 14025 085a 00       		.uleb128 .LVU1136
 14026 085b 00       		.uleb128 .LVU1150
 14027 085c 00       		.uleb128 .LVU1154
 14028 085d 00       		.uleb128 .LVU1277
 14029 085e 00       		.uleb128 .LVU1282
 14030              	.LLST107:
 14031 085f 7C000000 		.4byte	.LVL222
 14032 0863 AE000000 		.4byte	.LVL225
 14033 0867 0200     		.2byte	0x2
 14034 0869 90       		.byte	0x90
 14035 086a 4B       		.uleb128 0x4b
 14036 086b AE000000 		.4byte	.LVL225
 14037 086f BE000000 		.4byte	.LVL226
 14038 0873 0200     		.2byte	0x2
 14039 0875 72       		.byte	0x72
 14040 0876 04       		.sleb128 4
 14041 0877 0E010000 		.4byte	.LVL232
 14042 087b E8010000 		.4byte	.LVL242
 14043 087f 0200     		.2byte	0x2
 14044 0881 90       		.byte	0x90
 14045 0882 4B       		.uleb128 0x4b
 14046 0883 E2030000 		.4byte	.LVL273
 14047 0887 F0030000 		.4byte	.LVL274
 14048 088b 0200     		.2byte	0x2
 14049 088d 90       		.byte	0x90
 14050 088e 4B       		.uleb128 0x4b
 14051 088f F0030000 		.4byte	.LVL274
 14052 0893 F6030000 		.4byte	.LVL275
 14053 0897 0200     		.2byte	0x2
 14054 0899 72       		.byte	0x72
 14055 089a 04       		.sleb128 4
 14056 089b 02040000 		.4byte	.LVL278
 14057 089f 66040000 		.4byte	.LVL279
 14058 08a3 0200     		.2byte	0x2
 14059 08a5 90       		.byte	0x90
 14060 08a6 4B       		.uleb128 0x4b
 14061 08a7 6C040000 		.4byte	.LVL281
 14062 08ab 76040000 		.4byte	.LVL284
 14063 08af 0200     		.2byte	0x2
 14064 08b1 90       		.byte	0x90
 14065 08b2 4B       		.uleb128 0x4b
 14066 08b3 76040000 		.4byte	.LVL284
 14067 08b7 DC040000 		.4byte	.LVL291
 14068 08bb 0200     		.2byte	0x2
 14069 08bd 72       		.byte	0x72
 14070 08be 04       		.sleb128 4
 14071 08bf 3A050000 		.4byte	.LVL298
 14072 08c3 44050000 		.4byte	.LVL300
 14073 08c7 0200     		.2byte	0x2
 14074 08c9 72       		.byte	0x72
 14075 08ca 04       		.sleb128 4
 14076 08cb 82070000 		.4byte	.LVL338
 14077 08cf 90070000 		.4byte	.LVL341
 14078 08d3 0200     		.2byte	0x2
 14079 08d5 72       		.byte	0x72
ARM GAS  /var/folders/cs/83z6p2tj4w57s6p2rt8nwfp00000gn/T//cc3yBana.s 			page 286


 14080 08d6 04       		.sleb128 4
 14081 08d7 00000000 		.4byte	0
 14082 08db 00000000 		.4byte	0
 14083              	.LVUS108:
 14084 08df 00       		.uleb128 .LVU886
 14085 08e0 00       		.uleb128 .LVU887
 14086 08e1 00       		.uleb128 .LVU887
 14087 08e2 00       		.uleb128 .LVU905
 14088 08e3 00       		.uleb128 .LVU928
 14089 08e4 00       		.uleb128 .LVU961
 14090 08e5 00       		.uleb128 .LVU961
 14091 08e6 00       		.uleb128 .LVU969
 14092 08e7 00       		.uleb128 .LVU1075
 14093 08e8 00       		.uleb128 .LVU1084
 14094 08e9 00       		.uleb128 .LVU1088
 14095 08ea 00       		.uleb128 .LVU1098
 14096 08eb 00       		.uleb128 .LVU1100
 14097 08ec 00       		.uleb128 .LVU1103
 14098 08ed 00       		.uleb128 .LVU1103
 14099 08ee 00       		.uleb128 .LVU1136
 14100 08ef 00       		.uleb128 .LVU1150
 14101 08f0 00       		.uleb128 .LVU1154
 14102 08f1 00       		.uleb128 .LVU1277
 14103 08f2 00       		.uleb128 .LVU1282
 14104              	.LLST108:
 14105 08f3 7C000000 		.4byte	.LVL222
 14106 08f7 80000000 		.4byte	.LVL223
 14107 08fb 0200     		.2byte	0x2
 14108 08fd 90       		.byte	0x90
 14109 08fe 4E       		.uleb128 0x4e
 14110 08ff 80000000 		.4byte	.LVL223
 14111 0903 BE000000 		.4byte	.LVL226
 14112 0907 0200     		.2byte	0x2
 14113 0909 73       		.byte	0x73
 14114 090a 00       		.sleb128 0
 14115 090b 16010000 		.4byte	.LVL233
 14116 090f BC010000 		.4byte	.LVL239
 14117 0913 0200     		.2byte	0x2
 14118 0915 90       		.byte	0x90
 14119 0916 4E       		.uleb128 0x4e
 14120 0917 BC010000 		.4byte	.LVL239
 14121 091b E8010000 		.4byte	.LVL242
 14122 091f 0200     		.2byte	0x2
 14123 0921 73       		.byte	0x73
 14124 0922 00       		.sleb128 0
 14125 0923 E2030000 		.4byte	.LVL273
 14126 0927 F6030000 		.4byte	.LVL275
 14127 092b 0200     		.2byte	0x2
 14128 092d 73       		.byte	0x73
 14129 092e 00       		.sleb128 0
 14130 092f 02040000 		.4byte	.LVL278
 14131 0933 66040000 		.4byte	.LVL279
 14132 0937 0200     		.2byte	0x2
 14133 0939 90       		.byte	0x90
 14134 093a 4E       		.uleb128 0x4e
 14135 093b 6C040000 		.4byte	.LVL281
 14136 093f 72040000 		.4byte	.LVL283
ARM GAS  /var/folders/cs/83z6p2tj4w57s6p2rt8nwfp00000gn/T//cc3yBana.s 			page 287


 14137 0943 0200     		.2byte	0x2
 14138 0945 90       		.byte	0x90
 14139 0946 4E       		.uleb128 0x4e
 14140 0947 72040000 		.4byte	.LVL283
 14141 094b DC040000 		.4byte	.LVL291
 14142 094f 0200     		.2byte	0x2
 14143 0951 73       		.byte	0x73
 14144 0952 00       		.sleb128 0
 14145 0953 3A050000 		.4byte	.LVL298
 14146 0957 44050000 		.4byte	.LVL300
 14147 095b 0200     		.2byte	0x2
 14148 095d 73       		.byte	0x73
 14149 095e 00       		.sleb128 0
 14150 095f 82070000 		.4byte	.LVL338
 14151 0963 90070000 		.4byte	.LVL341
 14152 0967 0200     		.2byte	0x2
 14153 0969 73       		.byte	0x73
 14154 096a 00       		.sleb128 0
 14155 096b 00000000 		.4byte	0
 14156 096f 00000000 		.4byte	0
 14157              	.LVUS109:
 14158 0973 00       		.uleb128 .LVU886
 14159 0974 00       		.uleb128 .LVU887
 14160 0975 00       		.uleb128 .LVU887
 14161 0976 00       		.uleb128 .LVU905
 14162 0977 00       		.uleb128 .LVU930
 14163 0978 00       		.uleb128 .LVU959
 14164 0979 00       		.uleb128 .LVU959
 14165 097a 00       		.uleb128 .LVU969
 14166 097b 00       		.uleb128 .LVU1075
 14167 097c 00       		.uleb128 .LVU1084
 14168 097d 00       		.uleb128 .LVU1088
 14169 097e 00       		.uleb128 .LVU1098
 14170 097f 00       		.uleb128 .LVU1100
 14171 0980 00       		.uleb128 .LVU1103
 14172 0981 00       		.uleb128 .LVU1103
 14173 0982 00       		.uleb128 .LVU1136
 14174 0983 00       		.uleb128 .LVU1150
 14175 0984 00       		.uleb128 .LVU1154
 14176 0985 00       		.uleb128 .LVU1277
 14177 0986 00       		.uleb128 .LVU1282
 14178              	.LLST109:
 14179 0987 7C000000 		.4byte	.LVL222
 14180 098b 80000000 		.4byte	.LVL223
 14181 098f 0200     		.2byte	0x2
 14182 0991 90       		.byte	0x90
 14183 0992 4D       		.uleb128 0x4d
 14184 0993 80000000 		.4byte	.LVL223
 14185 0997 BE000000 		.4byte	.LVL226
 14186 099b 0200     		.2byte	0x2
 14187 099d 73       		.byte	0x73
 14188 099e 04       		.sleb128 4
 14189 099f 1A010000 		.4byte	.LVL234
 14190 09a3 B4010000 		.4byte	.LVL237
 14191 09a7 0200     		.2byte	0x2
 14192 09a9 90       		.byte	0x90
 14193 09aa 4D       		.uleb128 0x4d
ARM GAS  /var/folders/cs/83z6p2tj4w57s6p2rt8nwfp00000gn/T//cc3yBana.s 			page 288


 14194 09ab B4010000 		.4byte	.LVL237
 14195 09af E8010000 		.4byte	.LVL242
 14196 09b3 0200     		.2byte	0x2
 14197 09b5 73       		.byte	0x73
 14198 09b6 04       		.sleb128 4
 14199 09b7 E2030000 		.4byte	.LVL273
 14200 09bb F6030000 		.4byte	.LVL275
 14201 09bf 0200     		.2byte	0x2
 14202 09c1 73       		.byte	0x73
 14203 09c2 04       		.sleb128 4
 14204 09c3 02040000 		.4byte	.LVL278
 14205 09c7 66040000 		.4byte	.LVL279
 14206 09cb 0200     		.2byte	0x2
 14207 09cd 90       		.byte	0x90
 14208 09ce 4D       		.uleb128 0x4d
 14209 09cf 6C040000 		.4byte	.LVL281
 14210 09d3 72040000 		.4byte	.LVL283
 14211 09d7 0200     		.2byte	0x2
 14212 09d9 90       		.byte	0x90
 14213 09da 4D       		.uleb128 0x4d
 14214 09db 72040000 		.4byte	.LVL283
 14215 09df DC040000 		.4byte	.LVL291
 14216 09e3 0200     		.2byte	0x2
 14217 09e5 73       		.byte	0x73
 14218 09e6 04       		.sleb128 4
 14219 09e7 3A050000 		.4byte	.LVL298
 14220 09eb 44050000 		.4byte	.LVL300
 14221 09ef 0200     		.2byte	0x2
 14222 09f1 73       		.byte	0x73
 14223 09f2 04       		.sleb128 4
 14224 09f3 82070000 		.4byte	.LVL338
 14225 09f7 90070000 		.4byte	.LVL341
 14226 09fb 0200     		.2byte	0x2
 14227 09fd 73       		.byte	0x73
 14228 09fe 04       		.sleb128 4
 14229 09ff 00000000 		.4byte	0
 14230 0a03 00000000 		.4byte	0
 14231              	.LVUS110:
 14232 0a07 00       		.uleb128 .LVU886
 14233 0a08 00       		.uleb128 .LVU887
 14234 0a09 00       		.uleb128 .LVU887
 14235 0a0a 00       		.uleb128 .LVU905
 14236 0a0b 00       		.uleb128 .LVU932
 14237 0a0c 00       		.uleb128 .LVU960
 14238 0a0d 00       		.uleb128 .LVU960
 14239 0a0e 00       		.uleb128 .LVU969
 14240 0a0f 00       		.uleb128 .LVU1075
 14241 0a10 00       		.uleb128 .LVU1084
 14242 0a11 00       		.uleb128 .LVU1088
 14243 0a12 00       		.uleb128 .LVU1098
 14244 0a13 00       		.uleb128 .LVU1100
 14245 0a14 00       		.uleb128 .LVU1102
 14246 0a15 00       		.uleb128 .LVU1102
 14247 0a16 00       		.uleb128 .LVU1136
 14248 0a17 00       		.uleb128 .LVU1150
 14249 0a18 00       		.uleb128 .LVU1154
 14250 0a19 00       		.uleb128 .LVU1277
ARM GAS  /var/folders/cs/83z6p2tj4w57s6p2rt8nwfp00000gn/T//cc3yBana.s 			page 289


 14251 0a1a 00       		.uleb128 .LVU1282
 14252              	.LLST110:
 14253 0a1b 7C000000 		.4byte	.LVL222
 14254 0a1f 80000000 		.4byte	.LVL223
 14255 0a23 0200     		.2byte	0x2
 14256 0a25 90       		.byte	0x90
 14257 0a26 4F       		.uleb128 0x4f
 14258 0a27 80000000 		.4byte	.LVL223
 14259 0a2b BE000000 		.4byte	.LVL226
 14260 0a2f 0200     		.2byte	0x2
 14261 0a31 71       		.byte	0x71
 14262 0a32 00       		.sleb128 0
 14263 0a33 1E010000 		.4byte	.LVL235
 14264 0a37 B8010000 		.4byte	.LVL238
 14265 0a3b 0200     		.2byte	0x2
 14266 0a3d 90       		.byte	0x90
 14267 0a3e 4F       		.uleb128 0x4f
 14268 0a3f B8010000 		.4byte	.LVL238
 14269 0a43 E8010000 		.4byte	.LVL242
 14270 0a47 0200     		.2byte	0x2
 14271 0a49 71       		.byte	0x71
 14272 0a4a 00       		.sleb128 0
 14273 0a4b E2030000 		.4byte	.LVL273
 14274 0a4f F6030000 		.4byte	.LVL275
 14275 0a53 0200     		.2byte	0x2
 14276 0a55 71       		.byte	0x71
 14277 0a56 00       		.sleb128 0
 14278 0a57 02040000 		.4byte	.LVL278
 14279 0a5b 66040000 		.4byte	.LVL279
 14280 0a5f 0200     		.2byte	0x2
 14281 0a61 90       		.byte	0x90
 14282 0a62 4F       		.uleb128 0x4f
 14283 0a63 6C040000 		.4byte	.LVL281
 14284 0a67 70040000 		.4byte	.LVL282
 14285 0a6b 0200     		.2byte	0x2
 14286 0a6d 90       		.byte	0x90
 14287 0a6e 4F       		.uleb128 0x4f
 14288 0a6f 70040000 		.4byte	.LVL282
 14289 0a73 DC040000 		.4byte	.LVL291
 14290 0a77 0200     		.2byte	0x2
 14291 0a79 71       		.byte	0x71
 14292 0a7a 00       		.sleb128 0
 14293 0a7b 3A050000 		.4byte	.LVL298
 14294 0a7f 44050000 		.4byte	.LVL300
 14295 0a83 0200     		.2byte	0x2
 14296 0a85 71       		.byte	0x71
 14297 0a86 00       		.sleb128 0
 14298 0a87 82070000 		.4byte	.LVL338
 14299 0a8b 90070000 		.4byte	.LVL341
 14300 0a8f 0200     		.2byte	0x2
 14301 0a91 71       		.byte	0x71
 14302 0a92 00       		.sleb128 0
 14303 0a93 00000000 		.4byte	0
 14304 0a97 00000000 		.4byte	0
 14305              	.LVUS111:
 14306 0a9b 00       		.uleb128 .LVU886
 14307 0a9c 00       		.uleb128 .LVU887
ARM GAS  /var/folders/cs/83z6p2tj4w57s6p2rt8nwfp00000gn/T//cc3yBana.s 			page 290


 14308 0a9d 00       		.uleb128 .LVU887
 14309 0a9e 00       		.uleb128 .LVU905
 14310 0a9f 00       		.uleb128 .LVU935
 14311 0aa0 00       		.uleb128 .LVU962
 14312 0aa1 00       		.uleb128 .LVU962
 14313 0aa2 00       		.uleb128 .LVU969
 14314 0aa3 00       		.uleb128 .LVU1075
 14315 0aa4 00       		.uleb128 .LVU1084
 14316 0aa5 00       		.uleb128 .LVU1088
 14317 0aa6 00       		.uleb128 .LVU1098
 14318 0aa7 00       		.uleb128 .LVU1100
 14319 0aa8 00       		.uleb128 .LVU1103
 14320 0aa9 00       		.uleb128 .LVU1103
 14321 0aaa 00       		.uleb128 .LVU1136
 14322 0aab 00       		.uleb128 .LVU1150
 14323 0aac 00       		.uleb128 .LVU1154
 14324 0aad 00       		.uleb128 .LVU1277
 14325 0aae 00       		.uleb128 .LVU1282
 14326              	.LLST111:
 14327 0aaf 7C000000 		.4byte	.LVL222
 14328 0ab3 80000000 		.4byte	.LVL223
 14329 0ab7 0200     		.2byte	0x2
 14330 0ab9 90       		.byte	0x90
 14331 0aba 4C       		.uleb128 0x4c
 14332 0abb 80000000 		.4byte	.LVL223
 14333 0abf BE000000 		.4byte	.LVL226
 14334 0ac3 0200     		.2byte	0x2
 14335 0ac5 71       		.byte	0x71
 14336 0ac6 04       		.sleb128 4
 14337 0ac7 26010000 		.4byte	.LVL236
 14338 0acb C0010000 		.4byte	.LVL240
 14339 0acf 0200     		.2byte	0x2
 14340 0ad1 90       		.byte	0x90
 14341 0ad2 4C       		.uleb128 0x4c
 14342 0ad3 C0010000 		.4byte	.LVL240
 14343 0ad7 E8010000 		.4byte	.LVL242
 14344 0adb 0200     		.2byte	0x2
 14345 0add 71       		.byte	0x71
 14346 0ade 04       		.sleb128 4
 14347 0adf E2030000 		.4byte	.LVL273
 14348 0ae3 F6030000 		.4byte	.LVL275
 14349 0ae7 0200     		.2byte	0x2
 14350 0ae9 71       		.byte	0x71
 14351 0aea 04       		.sleb128 4
 14352 0aeb 02040000 		.4byte	.LVL278
 14353 0aef 66040000 		.4byte	.LVL279
 14354 0af3 0200     		.2byte	0x2
 14355 0af5 90       		.byte	0x90
 14356 0af6 4C       		.uleb128 0x4c
 14357 0af7 6C040000 		.4byte	.LVL281
 14358 0afb 72040000 		.4byte	.LVL283
 14359 0aff 0200     		.2byte	0x2
 14360 0b01 90       		.byte	0x90
 14361 0b02 4C       		.uleb128 0x4c
 14362 0b03 72040000 		.4byte	.LVL283
 14363 0b07 DC040000 		.4byte	.LVL291
 14364 0b0b 0200     		.2byte	0x2
ARM GAS  /var/folders/cs/83z6p2tj4w57s6p2rt8nwfp00000gn/T//cc3yBana.s 			page 291


 14365 0b0d 71       		.byte	0x71
 14366 0b0e 04       		.sleb128 4
 14367 0b0f 3A050000 		.4byte	.LVL298
 14368 0b13 44050000 		.4byte	.LVL300
 14369 0b17 0200     		.2byte	0x2
 14370 0b19 71       		.byte	0x71
 14371 0b1a 04       		.sleb128 4
 14372 0b1b 82070000 		.4byte	.LVL338
 14373 0b1f 90070000 		.4byte	.LVL341
 14374 0b23 0200     		.2byte	0x2
 14375 0b25 71       		.byte	0x71
 14376 0b26 04       		.sleb128 4
 14377 0b27 00000000 		.4byte	0
 14378 0b2b 00000000 		.4byte	0
 14379              	.LVUS112:
 14380 0b2f 00       		.uleb128 .LVU891
 14381 0b30 00       		.uleb128 .LVU896
 14382 0b31 00       		.uleb128 .LVU896
 14383 0b32 00       		.uleb128 .LVU905
 14384 0b33 00       		.uleb128 .LVU1075
 14385 0b34 00       		.uleb128 .LVU1081
 14386 0b35 00       		.uleb128 .LVU1081
 14387 0b36 00       		.uleb128 .LVU1084
 14388 0b37 00       		.uleb128 .LVU1103
 14389 0b38 00       		.uleb128 .LVU1134
 14390 0b39 00       		.uleb128 .LVU1134
 14391 0b3a 00       		.uleb128 .LVU1136
 14392 0b3b 00       		.uleb128 .LVU1150
 14393 0b3c 00       		.uleb128 .LVU1153
 14394 0b3d 00       		.uleb128 .LVU1153
 14395 0b3e 00       		.uleb128 .LVU1154
 14396 0b3f 00       		.uleb128 .LVU1277
 14397 0b40 00       		.uleb128 .LVU1280
 14398 0b41 00       		.uleb128 .LVU1280
 14399 0b42 00       		.uleb128 .LVU1282
 14400              	.LLST112:
 14401 0b43 90000000 		.4byte	.LVL224
 14402 0b47 AE000000 		.4byte	.LVL225
 14403 0b4b 0200     		.2byte	0x2
 14404 0b4d 90       		.byte	0x90
 14405 0b4e 4F       		.uleb128 0x4f
 14406 0b4f AE000000 		.4byte	.LVL225
 14407 0b53 BE000000 		.4byte	.LVL226
 14408 0b57 0D00     		.2byte	0xd
 14409 0b59 74       		.byte	0x74
 14410 0b5a 1C       		.sleb128 28
 14411 0b5b F6       		.byte	0xf6
 14412 0b5c 04       		.byte	0x4
 14413 0b5d 29       		.uleb128 0x29
 14414 0b5e 75       		.byte	0x75
 14415 0b5f D800     		.sleb128 88
 14416 0b61 F6       		.byte	0xf6
 14417 0b62 04       		.byte	0x4
 14418 0b63 29       		.uleb128 0x29
 14419 0b64 22       		.byte	0x22
 14420 0b65 9F       		.byte	0x9f
 14421 0b66 E2030000 		.4byte	.LVL273
ARM GAS  /var/folders/cs/83z6p2tj4w57s6p2rt8nwfp00000gn/T//cc3yBana.s 			page 292


 14422 0b6a F0030000 		.4byte	.LVL274
 14423 0b6e 0200     		.2byte	0x2
 14424 0b70 90       		.byte	0x90
 14425 0b71 4F       		.uleb128 0x4f
 14426 0b72 F0030000 		.4byte	.LVL274
 14427 0b76 F6030000 		.4byte	.LVL275
 14428 0b7a 0D00     		.2byte	0xd
 14429 0b7c 74       		.byte	0x74
 14430 0b7d 1C       		.sleb128 28
 14431 0b7e F6       		.byte	0xf6
 14432 0b7f 04       		.byte	0x4
 14433 0b80 29       		.uleb128 0x29
 14434 0b81 75       		.byte	0x75
 14435 0b82 D800     		.sleb128 88
 14436 0b84 F6       		.byte	0xf6
 14437 0b85 04       		.byte	0x4
 14438 0b86 29       		.uleb128 0x29
 14439 0b87 22       		.byte	0x22
 14440 0b88 9F       		.byte	0x9f
 14441 0b89 72040000 		.4byte	.LVL283
 14442 0b8d C0040000 		.4byte	.LVL289
 14443 0b91 0200     		.2byte	0x2
 14444 0b93 90       		.byte	0x90
 14445 0b94 4F       		.uleb128 0x4f
 14446 0b95 C0040000 		.4byte	.LVL289
 14447 0b99 DC040000 		.4byte	.LVL291
 14448 0b9d 0D00     		.2byte	0xd
 14449 0b9f 74       		.byte	0x74
 14450 0ba0 1C       		.sleb128 28
 14451 0ba1 F6       		.byte	0xf6
 14452 0ba2 04       		.byte	0x4
 14453 0ba3 29       		.uleb128 0x29
 14454 0ba4 75       		.byte	0x75
 14455 0ba5 D800     		.sleb128 88
 14456 0ba7 F6       		.byte	0xf6
 14457 0ba8 04       		.byte	0x4
 14458 0ba9 29       		.uleb128 0x29
 14459 0baa 22       		.byte	0x22
 14460 0bab 9F       		.byte	0x9f
 14461 0bac 3A050000 		.4byte	.LVL298
 14462 0bb0 42050000 		.4byte	.LVL299
 14463 0bb4 0200     		.2byte	0x2
 14464 0bb6 90       		.byte	0x90
 14465 0bb7 4F       		.uleb128 0x4f
 14466 0bb8 42050000 		.4byte	.LVL299
 14467 0bbc 44050000 		.4byte	.LVL300
 14468 0bc0 0D00     		.2byte	0xd
 14469 0bc2 74       		.byte	0x74
 14470 0bc3 1C       		.sleb128 28
 14471 0bc4 F6       		.byte	0xf6
 14472 0bc5 04       		.byte	0x4
 14473 0bc6 29       		.uleb128 0x29
 14474 0bc7 75       		.byte	0x75
 14475 0bc8 D800     		.sleb128 88
 14476 0bca F6       		.byte	0xf6
 14477 0bcb 04       		.byte	0x4
 14478 0bcc 29       		.uleb128 0x29
ARM GAS  /var/folders/cs/83z6p2tj4w57s6p2rt8nwfp00000gn/T//cc3yBana.s 			page 293


 14479 0bcd 22       		.byte	0x22
 14480 0bce 9F       		.byte	0x9f
 14481 0bcf 82070000 		.4byte	.LVL338
 14482 0bd3 8A070000 		.4byte	.LVL339
 14483 0bd7 0200     		.2byte	0x2
 14484 0bd9 90       		.byte	0x90
 14485 0bda 4F       		.uleb128 0x4f
 14486 0bdb 8A070000 		.4byte	.LVL339
 14487 0bdf 90070000 		.4byte	.LVL341
 14488 0be3 0D00     		.2byte	0xd
 14489 0be5 74       		.byte	0x74
 14490 0be6 1C       		.sleb128 28
 14491 0be7 F6       		.byte	0xf6
 14492 0be8 04       		.byte	0x4
 14493 0be9 29       		.uleb128 0x29
 14494 0bea 75       		.byte	0x75
 14495 0beb D800     		.sleb128 88
 14496 0bed F6       		.byte	0xf6
 14497 0bee 04       		.byte	0x4
 14498 0bef 29       		.uleb128 0x29
 14499 0bf0 22       		.byte	0x22
 14500 0bf1 9F       		.byte	0x9f
 14501 0bf2 00000000 		.4byte	0
 14502 0bf6 00000000 		.4byte	0
 14503              	.LVUS113:
 14504 0bfa 00       		.uleb128 .LVU1129
 14505 0bfb 00       		.uleb128 .LVU1134
 14506 0bfc 00       		.uleb128 .LVU1134
 14507 0bfd 00       		.uleb128 .LVU1135
 14508 0bfe 00       		.uleb128 .LVU1150
 14509 0bff 00       		.uleb128 .LVU1154
 14510 0c00 00       		.uleb128 .LVU1277
 14511 0c01 02       		.uleb128 .LVU1279
 14512 0c02 02       		.uleb128 .LVU1279
 14513 0c03 00       		.uleb128 .LVU1280
 14514 0c04 00       		.uleb128 .LVU1280
 14515 0c05 00       		.uleb128 .LVU1281
 14516 0c06 00       		.uleb128 .LVU1281
 14517 0c07 00       		.uleb128 .LVU1282
 14518              	.LLST113:
 14519 0c08 B2040000 		.4byte	.LVL288
 14520 0c0c C0040000 		.4byte	.LVL289
 14521 0c10 0200     		.2byte	0x2
 14522 0c12 90       		.byte	0x90
 14523 0c13 4E       		.uleb128 0x4e
 14524 0c14 C0040000 		.4byte	.LVL289
 14525 0c18 C4040000 		.4byte	.LVL290
 14526 0c1c 0200     		.2byte	0x2
 14527 0c1e 90       		.byte	0x90
 14528 0c1f 4F       		.uleb128 0x4f
 14529 0c20 3A050000 		.4byte	.LVL298
 14530 0c24 44050000 		.4byte	.LVL300
 14531 0c28 0200     		.2byte	0x2
 14532 0c2a 90       		.byte	0x90
 14533 0c2b 4E       		.uleb128 0x4e
 14534 0c2c 82070000 		.4byte	.LVL338
 14535 0c30 82070000 		.4byte	.LVL338
ARM GAS  /var/folders/cs/83z6p2tj4w57s6p2rt8nwfp00000gn/T//cc3yBana.s 			page 294


 14536 0c34 0200     		.2byte	0x2
 14537 0c36 90       		.byte	0x90
 14538 0c37 4E       		.uleb128 0x4e
 14539 0c38 82070000 		.4byte	.LVL338
 14540 0c3c 8A070000 		.4byte	.LVL339
 14541 0c40 1000     		.2byte	0x10
 14542 0c42 F5       		.byte	0xf5
 14543 0c43 4F       		.uleb128 0x4f
 14544 0c44 29       		.uleb128 0x29
 14545 0c45 F4       		.byte	0xf4
 14546 0c46 29       		.uleb128 0x29
 14547 0c47 04       		.byte	0x4
 14548 0c48 0000803F 		.4byte	0x3f800000
 14549 0c4c 22       		.byte	0x22
 14550 0c4d F5       		.byte	0xf5
 14551 0c4e 4E       		.uleb128 0x4e
 14552 0c4f 29       		.uleb128 0x29
 14553 0c50 1E       		.byte	0x1e
 14554 0c51 9F       		.byte	0x9f
 14555 0c52 8A070000 		.4byte	.LVL339
 14556 0c56 8E070000 		.4byte	.LVL340
 14557 0c5a 1900     		.2byte	0x19
 14558 0c5c 74       		.byte	0x74
 14559 0c5d 1C       		.sleb128 28
 14560 0c5e F6       		.byte	0xf6
 14561 0c5f 04       		.byte	0x4
 14562 0c60 29       		.uleb128 0x29
 14563 0c61 75       		.byte	0x75
 14564 0c62 D800     		.sleb128 88
 14565 0c64 F6       		.byte	0xf6
 14566 0c65 04       		.byte	0x4
 14567 0c66 29       		.uleb128 0x29
 14568 0c67 22       		.byte	0x22
 14569 0c68 F4       		.byte	0xf4
 14570 0c69 29       		.uleb128 0x29
 14571 0c6a 04       		.byte	0x4
 14572 0c6b 0000803F 		.4byte	0x3f800000
 14573 0c6f 22       		.byte	0x22
 14574 0c70 F5       		.byte	0xf5
 14575 0c71 4E       		.uleb128 0x4e
 14576 0c72 29       		.uleb128 0x29
 14577 0c73 1E       		.byte	0x1e
 14578 0c74 9F       		.byte	0x9f
 14579 0c75 8E070000 		.4byte	.LVL340
 14580 0c79 90070000 		.4byte	.LVL341
 14581 0c7d 0200     		.2byte	0x2
 14582 0c7f 90       		.byte	0x90
 14583 0c80 4F       		.uleb128 0x4f
 14584 0c81 00000000 		.4byte	0
 14585 0c85 00000000 		.4byte	0
 14586              	.LVUS114:
 14587 0c89 00       		.uleb128 .LVU963
 14588 0c8a 00       		.uleb128 .LVU969
 14589 0c8b 00       		.uleb128 .LVU1102
 14590 0c8c 00       		.uleb128 .LVU1103
 14591              	.LLST114:
 14592 0c8d C8010000 		.4byte	.LVL241
ARM GAS  /var/folders/cs/83z6p2tj4w57s6p2rt8nwfp00000gn/T//cc3yBana.s 			page 295


 14593 0c91 E8010000 		.4byte	.LVL242
 14594 0c95 0200     		.2byte	0x2
 14595 0c97 90       		.byte	0x90
 14596 0c98 4F       		.uleb128 0x4f
 14597 0c99 70040000 		.4byte	.LVL282
 14598 0c9d 72040000 		.4byte	.LVL283
 14599 0ca1 0200     		.2byte	0x2
 14600 0ca3 90       		.byte	0x90
 14601 0ca4 4F       		.uleb128 0x4f
 14602 0ca5 00000000 		.4byte	0
 14603 0ca9 00000000 		.4byte	0
 14604              	.LVUS115:
 14605 0cad 01       		.uleb128 .LVU1111
 14606 0cae 03       		.uleb128 .LVU1113
 14607              	.LLST115:
 14608 0caf 80040000 		.4byte	.LVL285
 14609 0cb3 80040000 		.4byte	.LVL285
 14610 0cb7 0D00     		.2byte	0xd
 14611 0cb9 79       		.byte	0x79
 14612 0cba 38       		.sleb128 56
 14613 0cbb 93       		.byte	0x93
 14614 0cbc 04       		.uleb128 0x4
 14615 0cbd 90       		.byte	0x90
 14616 0cbe 4B       		.uleb128 0x4b
 14617 0cbf 93       		.byte	0x93
 14618 0cc0 04       		.uleb128 0x4
 14619 0cc1 79       		.byte	0x79
 14620 0cc2 C000     		.sleb128 64
 14621 0cc4 93       		.byte	0x93
 14622 0cc5 04       		.uleb128 0x4
 14623 0cc6 00000000 		.4byte	0
 14624 0cca 00000000 		.4byte	0
 14625              	.LVUS116:
 14626 0cce 01       		.uleb128 .LVU1111
 14627 0ccf 03       		.uleb128 .LVU1113
 14628              	.LLST116:
 14629 0cd0 80040000 		.4byte	.LVL285
 14630 0cd4 80040000 		.4byte	.LVL285
 14631 0cd8 0C00     		.2byte	0xc
 14632 0cda 74       		.byte	0x74
 14633 0cdb 10       		.sleb128 16
 14634 0cdc 93       		.byte	0x93
 14635 0cdd 04       		.uleb128 0x4
 14636 0cde 90       		.byte	0x90
 14637 0cdf 4D       		.uleb128 0x4d
 14638 0ce0 93       		.byte	0x93
 14639 0ce1 04       		.uleb128 0x4
 14640 0ce2 74       		.byte	0x74
 14641 0ce3 18       		.sleb128 24
 14642 0ce4 93       		.byte	0x93
 14643 0ce5 04       		.uleb128 0x4
 14644 0ce6 00000000 		.4byte	0
 14645 0cea 00000000 		.4byte	0
 14646              	.LVUS117:
 14647 0cee 01       		.uleb128 .LVU1123
 14648 0cef 03       		.uleb128 .LVU1125
 14649              	.LLST117:
ARM GAS  /var/folders/cs/83z6p2tj4w57s6p2rt8nwfp00000gn/T//cc3yBana.s 			page 296


 14650 0cf0 A6040000 		.4byte	.LVL287
 14651 0cf4 A6040000 		.4byte	.LVL287
 14652 0cf8 0D00     		.2byte	0xd
 14653 0cfa 79       		.byte	0x79
 14654 0cfb 38       		.sleb128 56
 14655 0cfc 93       		.byte	0x93
 14656 0cfd 04       		.uleb128 0x4
 14657 0cfe 79       		.byte	0x79
 14658 0cff 3C       		.sleb128 60
 14659 0d00 93       		.byte	0x93
 14660 0d01 04       		.uleb128 0x4
 14661 0d02 79       		.byte	0x79
 14662 0d03 C000     		.sleb128 64
 14663 0d05 93       		.byte	0x93
 14664 0d06 04       		.uleb128 0x4
 14665 0d07 00000000 		.4byte	0
 14666 0d0b 00000000 		.4byte	0
 14667              	.LVUS118:
 14668 0d0f 01       		.uleb128 .LVU1123
 14669 0d10 03       		.uleb128 .LVU1125
 14670              	.LLST118:
 14671 0d11 A6040000 		.4byte	.LVL287
 14672 0d15 A6040000 		.4byte	.LVL287
 14673 0d19 0C00     		.2byte	0xc
 14674 0d1b 74       		.byte	0x74
 14675 0d1c 10       		.sleb128 16
 14676 0d1d 93       		.byte	0x93
 14677 0d1e 04       		.uleb128 0x4
 14678 0d1f 74       		.byte	0x74
 14679 0d20 14       		.sleb128 20
 14680 0d21 93       		.byte	0x93
 14681 0d22 04       		.uleb128 0x4
 14682 0d23 74       		.byte	0x74
 14683 0d24 18       		.sleb128 24
 14684 0d25 93       		.byte	0x93
 14685 0d26 04       		.uleb128 0x4
 14686 0d27 00000000 		.4byte	0
 14687 0d2b 00000000 		.4byte	0
 14688              	.LVUS119:
 14689 0d2f 00       		.uleb128 .LVU1181
 14690 0d30 00       		.uleb128 .LVU1186
 14691 0d31 00       		.uleb128 .LVU1186
 14692 0d32 00       		.uleb128 .LVU1277
 14693 0d33 00       		.uleb128 .LVU1282
 14694 0d34 00       		.uleb128 .LVU1301
 14695 0d35 00       		.uleb128 .LVU1306
 14696 0d36 00       		.uleb128 .LVU1349
 14697 0d37 00       		.uleb128 .LVU1353
 14698 0d38 00       		.uleb128 0
 14699              	.LLST119:
 14700 0d39 C0050000 		.4byte	.LVL313
 14701 0d3d D6050000 		.4byte	.LVL314
 14702 0d41 0200     		.2byte	0x2
 14703 0d43 30       		.byte	0x30
 14704 0d44 9F       		.byte	0x9f
 14705 0d45 D6050000 		.4byte	.LVL314
 14706 0d49 82070000 		.4byte	.LVL338
ARM GAS  /var/folders/cs/83z6p2tj4w57s6p2rt8nwfp00000gn/T//cc3yBana.s 			page 297


 14707 0d4d 0100     		.2byte	0x1
 14708 0d4f 54       		.byte	0x54
 14709 0d50 90070000 		.4byte	.LVL341
 14710 0d54 C4070000 		.4byte	.LVL351
 14711 0d58 0100     		.2byte	0x1
 14712 0d5a 54       		.byte	0x54
 14713 0d5b F8070000 		.4byte	.LVL357
 14714 0d5f B8080000 		.4byte	.LVL370
 14715 0d63 0100     		.2byte	0x1
 14716 0d65 54       		.byte	0x54
 14717 0d66 CA080000 		.4byte	.LVL373
 14718 0d6a E8080000 		.4byte	.LFE38
 14719 0d6e 0100     		.2byte	0x1
 14720 0d70 54       		.byte	0x54
 14721 0d71 00000000 		.4byte	0
 14722 0d75 00000000 		.4byte	0
 14723              	.LVUS120:
 14724 0d79 00       		.uleb128 .LVU1190
 14725 0d7a 00       		.uleb128 .LVU1237
 14726 0d7b 00       		.uleb128 .LVU1237
 14727 0d7c 00       		.uleb128 .LVU1241
 14728 0d7d 00       		.uleb128 .LVU1249
 14729 0d7e 00       		.uleb128 .LVU1277
 14730 0d7f 00       		.uleb128 .LVU1282
 14731 0d80 00       		.uleb128 .LVU1284
 14732 0d81 00       		.uleb128 .LVU1284
 14733 0d82 00       		.uleb128 .LVU1293
 14734 0d83 00       		.uleb128 .LVU1298
 14735 0d84 00       		.uleb128 .LVU1301
 14736 0d85 00       		.uleb128 .LVU1306
 14737 0d86 00       		.uleb128 .LVU1344
 14738 0d87 00       		.uleb128 .LVU1346
 14739 0d88 00       		.uleb128 .LVU1349
 14740 0d89 00       		.uleb128 .LVU1353
 14741 0d8a 00       		.uleb128 0
 14742              	.LLST120:
 14743 0d8b E4050000 		.4byte	.LVL315
 14744 0d8f BE060000 		.4byte	.LVL325
 14745 0d93 0100     		.2byte	0x1
 14746 0d95 50       		.byte	0x50
 14747 0d96 BE060000 		.4byte	.LVL325
 14748 0d9a C8060000 		.4byte	.LVL326
 14749 0d9e 0F00     		.2byte	0xf
 14750 0da0 74       		.byte	0x74
 14751 0da1 00       		.sleb128 0
 14752 0da2 33       		.byte	0x33
 14753 0da3 24       		.byte	0x24
 14754 0da4 74       		.byte	0x74
 14755 0da5 00       		.sleb128 0
 14756 0da6 22       		.byte	0x22
 14757 0da7 32       		.byte	0x32
 14758 0da8 24       		.byte	0x24
 14759 0da9 75       		.byte	0x75
 14760 0daa C800     		.sleb128 72
 14761 0dac 06       		.byte	0x6
 14762 0dad 22       		.byte	0x22
 14763 0dae 9F       		.byte	0x9f
ARM GAS  /var/folders/cs/83z6p2tj4w57s6p2rt8nwfp00000gn/T//cc3yBana.s 			page 298


 14764 0daf E6060000 		.4byte	.LVL331
 14765 0db3 82070000 		.4byte	.LVL338
 14766 0db7 0100     		.2byte	0x1
 14767 0db9 50       		.byte	0x50
 14768 0dba 90070000 		.4byte	.LVL341
 14769 0dbe 92070000 		.4byte	.LVL342
 14770 0dc2 0100     		.2byte	0x1
 14771 0dc4 50       		.byte	0x50
 14772 0dc5 92070000 		.4byte	.LVL342
 14773 0dc9 A4070000 		.4byte	.LVL344
 14774 0dcd 0F00     		.2byte	0xf
 14775 0dcf 74       		.byte	0x74
 14776 0dd0 00       		.sleb128 0
 14777 0dd1 33       		.byte	0x33
 14778 0dd2 24       		.byte	0x24
 14779 0dd3 74       		.byte	0x74
 14780 0dd4 00       		.sleb128 0
 14781 0dd5 22       		.byte	0x22
 14782 0dd6 32       		.byte	0x32
 14783 0dd7 24       		.byte	0x24
 14784 0dd8 75       		.byte	0x75
 14785 0dd9 C800     		.sleb128 72
 14786 0ddb 06       		.byte	0x6
 14787 0ddc 22       		.byte	0x22
 14788 0ddd 9F       		.byte	0x9f
 14789 0dde BE070000 		.4byte	.LVL349
 14790 0de2 C4070000 		.4byte	.LVL351
 14791 0de6 0100     		.2byte	0x1
 14792 0de8 50       		.byte	0x50
 14793 0de9 F8070000 		.4byte	.LVL357
 14794 0ded A0080000 		.4byte	.LVL366
 14795 0df1 0100     		.2byte	0x1
 14796 0df3 50       		.byte	0x50
 14797 0df4 AC080000 		.4byte	.LVL368
 14798 0df8 B8080000 		.4byte	.LVL370
 14799 0dfc 0100     		.2byte	0x1
 14800 0dfe 50       		.byte	0x50
 14801 0dff CA080000 		.4byte	.LVL373
 14802 0e03 E8080000 		.4byte	.LFE38
 14803 0e07 0100     		.2byte	0x1
 14804 0e09 50       		.byte	0x50
 14805 0e0a 00000000 		.4byte	0
 14806 0e0e 00000000 		.4byte	0
 14807              	.LVUS121:
 14808 0e12 00       		.uleb128 .LVU1190
 14809 0e13 00       		.uleb128 .LVU1245
 14810 0e14 00       		.uleb128 .LVU1249
 14811 0e15 00       		.uleb128 .LVU1277
 14812 0e16 00       		.uleb128 .LVU1282
 14813 0e17 00       		.uleb128 .LVU1301
 14814 0e18 00       		.uleb128 .LVU1306
 14815 0e19 00       		.uleb128 .LVU1349
 14816 0e1a 00       		.uleb128 .LVU1353
 14817 0e1b 00       		.uleb128 0
 14818              	.LLST121:
 14819 0e1c E4050000 		.4byte	.LVL315
 14820 0e20 DC060000 		.4byte	.LVL329
ARM GAS  /var/folders/cs/83z6p2tj4w57s6p2rt8nwfp00000gn/T//cc3yBana.s 			page 299


 14821 0e24 0100     		.2byte	0x1
 14822 0e26 55       		.byte	0x55
 14823 0e27 E6060000 		.4byte	.LVL331
 14824 0e2b 82070000 		.4byte	.LVL338
 14825 0e2f 0100     		.2byte	0x1
 14826 0e31 55       		.byte	0x55
 14827 0e32 90070000 		.4byte	.LVL341
 14828 0e36 C4070000 		.4byte	.LVL351
 14829 0e3a 0100     		.2byte	0x1
 14830 0e3c 55       		.byte	0x55
 14831 0e3d F8070000 		.4byte	.LVL357
 14832 0e41 B8080000 		.4byte	.LVL370
 14833 0e45 0100     		.2byte	0x1
 14834 0e47 55       		.byte	0x55
 14835 0e48 CA080000 		.4byte	.LVL373
 14836 0e4c E8080000 		.4byte	.LFE38
 14837 0e50 0100     		.2byte	0x1
 14838 0e52 55       		.byte	0x55
 14839 0e53 00000000 		.4byte	0
 14840 0e57 00000000 		.4byte	0
 14841              	.LVUS122:
 14842 0e5b 00       		.uleb128 .LVU1199
 14843 0e5c 00       		.uleb128 .LVU1223
 14844 0e5d 00       		.uleb128 .LVU1223
 14845 0e5e 00       		.uleb128 .LVU1241
 14846 0e5f 00       		.uleb128 .LVU1249
 14847 0e60 00       		.uleb128 .LVU1258
 14848 0e61 00       		.uleb128 .LVU1258
 14849 0e62 00       		.uleb128 .LVU1266
 14850 0e63 00       		.uleb128 .LVU1266
 14851 0e64 00       		.uleb128 .LVU1277
 14852 0e65 00       		.uleb128 .LVU1282
 14853 0e66 00       		.uleb128 .LVU1293
 14854 0e67 00       		.uleb128 .LVU1298
 14855 0e68 00       		.uleb128 .LVU1301
 14856 0e69 00       		.uleb128 .LVU1306
 14857 0e6a 00       		.uleb128 .LVU1338
 14858 0e6b 00       		.uleb128 .LVU1338
 14859 0e6c 00       		.uleb128 .LVU1344
 14860 0e6d 00       		.uleb128 .LVU1346
 14861 0e6e 00       		.uleb128 .LVU1349
 14862 0e6f 00       		.uleb128 .LVU1353
 14863 0e70 00       		.uleb128 0
 14864              	.LLST122:
 14865 0e71 18060000 		.4byte	.LVL316
 14866 0e75 8E060000 		.4byte	.LVL322
 14867 0e79 0200     		.2byte	0x2
 14868 0e7b 90       		.byte	0x90
 14869 0e7c 4F       		.uleb128 0x4f
 14870 0e7d 8E060000 		.4byte	.LVL322
 14871 0e81 C8060000 		.4byte	.LVL326
 14872 0e85 0200     		.2byte	0x2
 14873 0e87 72       		.byte	0x72
 14874 0e88 00       		.sleb128 0
 14875 0e89 E6060000 		.4byte	.LVL331
 14876 0e8d FE060000 		.4byte	.LVL335
 14877 0e91 0200     		.2byte	0x2
ARM GAS  /var/folders/cs/83z6p2tj4w57s6p2rt8nwfp00000gn/T//cc3yBana.s 			page 300


 14878 0e93 90       		.byte	0x90
 14879 0e94 4F       		.uleb128 0x4f
 14880 0e95 FE060000 		.4byte	.LVL335
 14881 0e99 26070000 		.4byte	.LVL337
 14882 0e9d 0200     		.2byte	0x2
 14883 0e9f 72       		.byte	0x72
 14884 0ea0 00       		.sleb128 0
 14885 0ea1 26070000 		.4byte	.LVL337
 14886 0ea5 82070000 		.4byte	.LVL338
 14887 0ea9 0200     		.2byte	0x2
 14888 0eab 90       		.byte	0x90
 14889 0eac 4F       		.uleb128 0x4f
 14890 0ead 90070000 		.4byte	.LVL341
 14891 0eb1 A4070000 		.4byte	.LVL344
 14892 0eb5 0200     		.2byte	0x2
 14893 0eb7 72       		.byte	0x72
 14894 0eb8 00       		.sleb128 0
 14895 0eb9 BE070000 		.4byte	.LVL349
 14896 0ebd C4070000 		.4byte	.LVL351
 14897 0ec1 0200     		.2byte	0x2
 14898 0ec3 90       		.byte	0x90
 14899 0ec4 4F       		.uleb128 0x4f
 14900 0ec5 F8070000 		.4byte	.LVL357
 14901 0ec9 6C080000 		.4byte	.LVL365
 14902 0ecd 0200     		.2byte	0x2
 14903 0ecf 72       		.byte	0x72
 14904 0ed0 00       		.sleb128 0
 14905 0ed1 6C080000 		.4byte	.LVL365
 14906 0ed5 A0080000 		.4byte	.LVL366
 14907 0ed9 0200     		.2byte	0x2
 14908 0edb 90       		.byte	0x90
 14909 0edc 4F       		.uleb128 0x4f
 14910 0edd AC080000 		.4byte	.LVL368
 14911 0ee1 B8080000 		.4byte	.LVL370
 14912 0ee5 0200     		.2byte	0x2
 14913 0ee7 72       		.byte	0x72
 14914 0ee8 00       		.sleb128 0
 14915 0ee9 CA080000 		.4byte	.LVL373
 14916 0eed E8080000 		.4byte	.LFE38
 14917 0ef1 0200     		.2byte	0x2
 14918 0ef3 72       		.byte	0x72
 14919 0ef4 00       		.sleb128 0
 14920 0ef5 00000000 		.4byte	0
 14921 0ef9 00000000 		.4byte	0
 14922              	.LVUS123:
 14923 0efd 00       		.uleb128 .LVU1201
 14924 0efe 00       		.uleb128 .LVU1223
 14925 0eff 00       		.uleb128 .LVU1223
 14926 0f00 00       		.uleb128 .LVU1241
 14927 0f01 00       		.uleb128 .LVU1249
 14928 0f02 00       		.uleb128 .LVU1257
 14929 0f03 00       		.uleb128 .LVU1257
 14930 0f04 00       		.uleb128 .LVU1266
 14931 0f05 00       		.uleb128 .LVU1266
 14932 0f06 00       		.uleb128 .LVU1277
 14933 0f07 00       		.uleb128 .LVU1282
 14934 0f08 00       		.uleb128 .LVU1293
ARM GAS  /var/folders/cs/83z6p2tj4w57s6p2rt8nwfp00000gn/T//cc3yBana.s 			page 301


 14935 0f09 00       		.uleb128 .LVU1298
 14936 0f0a 00       		.uleb128 .LVU1301
 14937 0f0b 00       		.uleb128 .LVU1306
 14938 0f0c 00       		.uleb128 .LVU1338
 14939 0f0d 00       		.uleb128 .LVU1338
 14940 0f0e 00       		.uleb128 .LVU1344
 14941 0f0f 00       		.uleb128 .LVU1346
 14942 0f10 00       		.uleb128 .LVU1349
 14943 0f11 00       		.uleb128 .LVU1353
 14944 0f12 00       		.uleb128 0
 14945              	.LLST123:
 14946 0f13 1C060000 		.4byte	.LVL317
 14947 0f17 8E060000 		.4byte	.LVL322
 14948 0f1b 0200     		.2byte	0x2
 14949 0f1d 90       		.byte	0x90
 14950 0f1e 4D       		.uleb128 0x4d
 14951 0f1f 8E060000 		.4byte	.LVL322
 14952 0f23 C8060000 		.4byte	.LVL326
 14953 0f27 0200     		.2byte	0x2
 14954 0f29 72       		.byte	0x72
 14955 0f2a 04       		.sleb128 4
 14956 0f2b E6060000 		.4byte	.LVL331
 14957 0f2f FA060000 		.4byte	.LVL334
 14958 0f33 0200     		.2byte	0x2
 14959 0f35 90       		.byte	0x90
 14960 0f36 4D       		.uleb128 0x4d
 14961 0f37 FA060000 		.4byte	.LVL334
 14962 0f3b 26070000 		.4byte	.LVL337
 14963 0f3f 0200     		.2byte	0x2
 14964 0f41 72       		.byte	0x72
 14965 0f42 04       		.sleb128 4
 14966 0f43 26070000 		.4byte	.LVL337
 14967 0f47 82070000 		.4byte	.LVL338
 14968 0f4b 0200     		.2byte	0x2
 14969 0f4d 90       		.byte	0x90
 14970 0f4e 4D       		.uleb128 0x4d
 14971 0f4f 90070000 		.4byte	.LVL341
 14972 0f53 A4070000 		.4byte	.LVL344
 14973 0f57 0200     		.2byte	0x2
 14974 0f59 72       		.byte	0x72
 14975 0f5a 04       		.sleb128 4
 14976 0f5b BE070000 		.4byte	.LVL349
 14977 0f5f C4070000 		.4byte	.LVL351
 14978 0f63 0200     		.2byte	0x2
 14979 0f65 90       		.byte	0x90
 14980 0f66 4D       		.uleb128 0x4d
 14981 0f67 F8070000 		.4byte	.LVL357
 14982 0f6b 6C080000 		.4byte	.LVL365
 14983 0f6f 0200     		.2byte	0x2
 14984 0f71 72       		.byte	0x72
 14985 0f72 04       		.sleb128 4
 14986 0f73 6C080000 		.4byte	.LVL365
 14987 0f77 A0080000 		.4byte	.LVL366
 14988 0f7b 0200     		.2byte	0x2
 14989 0f7d 90       		.byte	0x90
 14990 0f7e 4D       		.uleb128 0x4d
 14991 0f7f AC080000 		.4byte	.LVL368
ARM GAS  /var/folders/cs/83z6p2tj4w57s6p2rt8nwfp00000gn/T//cc3yBana.s 			page 302


 14992 0f83 B8080000 		.4byte	.LVL370
 14993 0f87 0200     		.2byte	0x2
 14994 0f89 72       		.byte	0x72
 14995 0f8a 04       		.sleb128 4
 14996 0f8b CA080000 		.4byte	.LVL373
 14997 0f8f E8080000 		.4byte	.LFE38
 14998 0f93 0200     		.2byte	0x2
 14999 0f95 72       		.byte	0x72
 15000 0f96 04       		.sleb128 4
 15001 0f97 00000000 		.4byte	0
 15002 0f9b 00000000 		.4byte	0
 15003              	.LVUS124:
 15004 0f9f 00       		.uleb128 .LVU1204
 15005 0fa0 00       		.uleb128 .LVU1232
 15006 0fa1 00       		.uleb128 .LVU1232
 15007 0fa2 00       		.uleb128 .LVU1241
 15008 0fa3 00       		.uleb128 .LVU1249
 15009 0fa4 00       		.uleb128 .LVU1277
 15010 0fa5 00       		.uleb128 .LVU1282
 15011 0fa6 00       		.uleb128 .LVU1290
 15012 0fa7 00       		.uleb128 .LVU1290
 15013 0fa8 00       		.uleb128 .LVU1293
 15014 0fa9 00       		.uleb128 .LVU1298
 15015 0faa 00       		.uleb128 .LVU1301
 15016 0fab 00       		.uleb128 .LVU1306
 15017 0fac 00       		.uleb128 .LVU1317
 15018 0fad 00       		.uleb128 .LVU1317
 15019 0fae 00       		.uleb128 .LVU1338
 15020 0faf 00       		.uleb128 .LVU1338
 15021 0fb0 00       		.uleb128 .LVU1344
 15022 0fb1 00       		.uleb128 .LVU1346
 15023 0fb2 00       		.uleb128 .LVU1349
 15024 0fb3 00       		.uleb128 .LVU1353
 15025 0fb4 00       		.uleb128 0
 15026              	.LLST124:
 15027 0fb5 24060000 		.4byte	.LVL318
 15028 0fb9 BC060000 		.4byte	.LVL324
 15029 0fbd 0200     		.2byte	0x2
 15030 0fbf 90       		.byte	0x90
 15031 0fc0 4C       		.uleb128 0x4c
 15032 0fc1 BC060000 		.4byte	.LVL324
 15033 0fc5 C8060000 		.4byte	.LVL326
 15034 0fc9 0200     		.2byte	0x2
 15035 0fcb 73       		.byte	0x73
 15036 0fcc 00       		.sleb128 0
 15037 0fcd E6060000 		.4byte	.LVL331
 15038 0fd1 82070000 		.4byte	.LVL338
 15039 0fd5 0200     		.2byte	0x2
 15040 0fd7 90       		.byte	0x90
 15041 0fd8 4C       		.uleb128 0x4c
 15042 0fd9 90070000 		.4byte	.LVL341
 15043 0fdd 9A070000 		.4byte	.LVL343
 15044 0fe1 0200     		.2byte	0x2
 15045 0fe3 90       		.byte	0x90
 15046 0fe4 4C       		.uleb128 0x4c
 15047 0fe5 9A070000 		.4byte	.LVL343
 15048 0fe9 A4070000 		.4byte	.LVL344
ARM GAS  /var/folders/cs/83z6p2tj4w57s6p2rt8nwfp00000gn/T//cc3yBana.s 			page 303


 15049 0fed 0200     		.2byte	0x2
 15050 0fef 73       		.byte	0x73
 15051 0ff0 00       		.sleb128 0
 15052 0ff1 BE070000 		.4byte	.LVL349
 15053 0ff5 C4070000 		.4byte	.LVL351
 15054 0ff9 0200     		.2byte	0x2
 15055 0ffb 90       		.byte	0x90
 15056 0ffc 4C       		.uleb128 0x4c
 15057 0ffd F8070000 		.4byte	.LVL357
 15058 1001 10080000 		.4byte	.LVL359
 15059 1005 0200     		.2byte	0x2
 15060 1007 90       		.byte	0x90
 15061 1008 4C       		.uleb128 0x4c
 15062 1009 10080000 		.4byte	.LVL359
 15063 100d 6C080000 		.4byte	.LVL365
 15064 1011 0200     		.2byte	0x2
 15065 1013 73       		.byte	0x73
 15066 1014 00       		.sleb128 0
 15067 1015 6C080000 		.4byte	.LVL365
 15068 1019 A0080000 		.4byte	.LVL366
 15069 101d 0200     		.2byte	0x2
 15070 101f 90       		.byte	0x90
 15071 1020 4C       		.uleb128 0x4c
 15072 1021 AC080000 		.4byte	.LVL368
 15073 1025 B8080000 		.4byte	.LVL370
 15074 1029 0200     		.2byte	0x2
 15075 102b 73       		.byte	0x73
 15076 102c 00       		.sleb128 0
 15077 102d CA080000 		.4byte	.LVL373
 15078 1031 E8080000 		.4byte	.LFE38
 15079 1035 0200     		.2byte	0x2
 15080 1037 73       		.byte	0x73
 15081 1038 00       		.sleb128 0
 15082 1039 00000000 		.4byte	0
 15083 103d 00000000 		.4byte	0
 15084              	.LVUS125:
 15085 1041 00       		.uleb128 .LVU1206
 15086 1042 00       		.uleb128 .LVU1223
 15087 1043 00       		.uleb128 .LVU1223
 15088 1044 00       		.uleb128 .LVU1241
 15089 1045 00       		.uleb128 .LVU1249
 15090 1046 00       		.uleb128 .LVU1255
 15091 1047 00       		.uleb128 .LVU1255
 15092 1048 00       		.uleb128 .LVU1266
 15093 1049 00       		.uleb128 .LVU1266
 15094 104a 00       		.uleb128 .LVU1277
 15095 104b 00       		.uleb128 .LVU1282
 15096 104c 00       		.uleb128 .LVU1293
 15097 104d 00       		.uleb128 .LVU1298
 15098 104e 00       		.uleb128 .LVU1301
 15099 104f 00       		.uleb128 .LVU1306
 15100 1050 00       		.uleb128 .LVU1338
 15101 1051 00       		.uleb128 .LVU1338
 15102 1052 00       		.uleb128 .LVU1344
 15103 1053 00       		.uleb128 .LVU1346
 15104 1054 00       		.uleb128 .LVU1349
 15105 1055 00       		.uleb128 .LVU1353
ARM GAS  /var/folders/cs/83z6p2tj4w57s6p2rt8nwfp00000gn/T//cc3yBana.s 			page 304


 15106 1056 00       		.uleb128 0
 15107              	.LLST125:
 15108 1057 28060000 		.4byte	.LVL319
 15109 105b 8E060000 		.4byte	.LVL322
 15110 105f 0200     		.2byte	0x2
 15111 1061 90       		.byte	0x90
 15112 1062 4B       		.uleb128 0x4b
 15113 1063 8E060000 		.4byte	.LVL322
 15114 1067 C8060000 		.4byte	.LVL326
 15115 106b 0200     		.2byte	0x2
 15116 106d 73       		.byte	0x73
 15117 106e 04       		.sleb128 4
 15118 106f E6060000 		.4byte	.LVL331
 15119 1073 F2060000 		.4byte	.LVL332
 15120 1077 0200     		.2byte	0x2
 15121 1079 90       		.byte	0x90
 15122 107a 4B       		.uleb128 0x4b
 15123 107b F2060000 		.4byte	.LVL332
 15124 107f 26070000 		.4byte	.LVL337
 15125 1083 0200     		.2byte	0x2
 15126 1085 73       		.byte	0x73
 15127 1086 04       		.sleb128 4
 15128 1087 26070000 		.4byte	.LVL337
 15129 108b 82070000 		.4byte	.LVL338
 15130 108f 0200     		.2byte	0x2
 15131 1091 90       		.byte	0x90
 15132 1092 4B       		.uleb128 0x4b
 15133 1093 90070000 		.4byte	.LVL341
 15134 1097 A4070000 		.4byte	.LVL344
 15135 109b 0200     		.2byte	0x2
 15136 109d 73       		.byte	0x73
 15137 109e 04       		.sleb128 4
 15138 109f BE070000 		.4byte	.LVL349
 15139 10a3 C4070000 		.4byte	.LVL351
 15140 10a7 0200     		.2byte	0x2
 15141 10a9 90       		.byte	0x90
 15142 10aa 4B       		.uleb128 0x4b
 15143 10ab F8070000 		.4byte	.LVL357
 15144 10af 6C080000 		.4byte	.LVL365
 15145 10b3 0200     		.2byte	0x2
 15146 10b5 73       		.byte	0x73
 15147 10b6 04       		.sleb128 4
 15148 10b7 6C080000 		.4byte	.LVL365
 15149 10bb A0080000 		.4byte	.LVL366
 15150 10bf 0200     		.2byte	0x2
 15151 10c1 90       		.byte	0x90
 15152 10c2 4B       		.uleb128 0x4b
 15153 10c3 AC080000 		.4byte	.LVL368
 15154 10c7 B8080000 		.4byte	.LVL370
 15155 10cb 0200     		.2byte	0x2
 15156 10cd 73       		.byte	0x73
 15157 10ce 04       		.sleb128 4
 15158 10cf CA080000 		.4byte	.LVL373
 15159 10d3 E8080000 		.4byte	.LFE38
 15160 10d7 0200     		.2byte	0x2
 15161 10d9 73       		.byte	0x73
 15162 10da 04       		.sleb128 4
ARM GAS  /var/folders/cs/83z6p2tj4w57s6p2rt8nwfp00000gn/T//cc3yBana.s 			page 305


 15163 10db 00000000 		.4byte	0
 15164 10df 00000000 		.4byte	0
 15165              	.LVUS126:
 15166 10e3 00       		.uleb128 .LVU1208
 15167 10e4 00       		.uleb128 .LVU1223
 15168 10e5 00       		.uleb128 .LVU1223
 15169 10e6 00       		.uleb128 .LVU1241
 15170 10e7 00       		.uleb128 .LVU1249
 15171 10e8 00       		.uleb128 .LVU1256
 15172 10e9 00       		.uleb128 .LVU1256
 15173 10ea 00       		.uleb128 .LVU1266
 15174 10eb 00       		.uleb128 .LVU1266
 15175 10ec 00       		.uleb128 .LVU1277
 15176 10ed 00       		.uleb128 .LVU1282
 15177 10ee 00       		.uleb128 .LVU1293
 15178 10ef 00       		.uleb128 .LVU1298
 15179 10f0 00       		.uleb128 .LVU1300
 15180 10f1 00       		.uleb128 .LVU1300
 15181 10f2 00       		.uleb128 .LVU1301
 15182 10f3 00       		.uleb128 .LVU1306
 15183 10f4 00       		.uleb128 .LVU1338
 15184 10f5 00       		.uleb128 .LVU1338
 15185 10f6 00       		.uleb128 .LVU1344
 15186 10f7 00       		.uleb128 .LVU1346
 15187 10f8 00       		.uleb128 .LVU1349
 15188 10f9 00       		.uleb128 .LVU1353
 15189 10fa 00       		.uleb128 0
 15190              	.LLST126:
 15191 10fb 2C060000 		.4byte	.LVL320
 15192 10ff 8E060000 		.4byte	.LVL322
 15193 1103 0200     		.2byte	0x2
 15194 1105 90       		.byte	0x90
 15195 1106 4E       		.uleb128 0x4e
 15196 1107 8E060000 		.4byte	.LVL322
 15197 110b C8060000 		.4byte	.LVL326
 15198 110f 0200     		.2byte	0x2
 15199 1111 7E       		.byte	0x7e
 15200 1112 00       		.sleb128 0
 15201 1113 E6060000 		.4byte	.LVL331
 15202 1117 F6060000 		.4byte	.LVL333
 15203 111b 0200     		.2byte	0x2
 15204 111d 90       		.byte	0x90
 15205 111e 4E       		.uleb128 0x4e
 15206 111f F6060000 		.4byte	.LVL333
 15207 1123 26070000 		.4byte	.LVL337
 15208 1127 0200     		.2byte	0x2
 15209 1129 7E       		.byte	0x7e
 15210 112a 00       		.sleb128 0
 15211 112b 26070000 		.4byte	.LVL337
 15212 112f 82070000 		.4byte	.LVL338
 15213 1133 0200     		.2byte	0x2
 15214 1135 90       		.byte	0x90
 15215 1136 4E       		.uleb128 0x4e
 15216 1137 90070000 		.4byte	.LVL341
 15217 113b A4070000 		.4byte	.LVL344
 15218 113f 0200     		.2byte	0x2
 15219 1141 7E       		.byte	0x7e
ARM GAS  /var/folders/cs/83z6p2tj4w57s6p2rt8nwfp00000gn/T//cc3yBana.s 			page 306


 15220 1142 00       		.sleb128 0
 15221 1143 BE070000 		.4byte	.LVL349
 15222 1147 C2070000 		.4byte	.LVL350
 15223 114b 0200     		.2byte	0x2
 15224 114d 90       		.byte	0x90
 15225 114e 4E       		.uleb128 0x4e
 15226 114f C2070000 		.4byte	.LVL350
 15227 1153 C4070000 		.4byte	.LVL351
 15228 1157 0200     		.2byte	0x2
 15229 1159 7E       		.byte	0x7e
 15230 115a 00       		.sleb128 0
 15231 115b F8070000 		.4byte	.LVL357
 15232 115f 6C080000 		.4byte	.LVL365
 15233 1163 0200     		.2byte	0x2
 15234 1165 7E       		.byte	0x7e
 15235 1166 00       		.sleb128 0
 15236 1167 6C080000 		.4byte	.LVL365
 15237 116b A0080000 		.4byte	.LVL366
 15238 116f 0200     		.2byte	0x2
 15239 1171 90       		.byte	0x90
 15240 1172 4E       		.uleb128 0x4e
 15241 1173 AC080000 		.4byte	.LVL368
 15242 1177 B8080000 		.4byte	.LVL370
 15243 117b 0200     		.2byte	0x2
 15244 117d 7E       		.byte	0x7e
 15245 117e 00       		.sleb128 0
 15246 117f CA080000 		.4byte	.LVL373
 15247 1183 E8080000 		.4byte	.LFE38
 15248 1187 0200     		.2byte	0x2
 15249 1189 7E       		.byte	0x7e
 15250 118a 00       		.sleb128 0
 15251 118b 00000000 		.4byte	0
 15252 118f 00000000 		.4byte	0
 15253              	.LVUS127:
 15254 1193 00       		.uleb128 .LVU1211
 15255 1194 00       		.uleb128 .LVU1232
 15256 1195 00       		.uleb128 .LVU1232
 15257 1196 00       		.uleb128 .LVU1241
 15258 1197 00       		.uleb128 .LVU1249
 15259 1198 00       		.uleb128 .LVU1277
 15260 1199 00       		.uleb128 .LVU1282
 15261 119a 00       		.uleb128 .LVU1290
 15262 119b 00       		.uleb128 .LVU1290
 15263 119c 00       		.uleb128 .LVU1293
 15264 119d 00       		.uleb128 .LVU1298
 15265 119e 00       		.uleb128 .LVU1301
 15266 119f 00       		.uleb128 .LVU1306
 15267 11a0 00       		.uleb128 .LVU1320
 15268 11a1 00       		.uleb128 .LVU1320
 15269 11a2 00       		.uleb128 .LVU1338
 15270 11a3 00       		.uleb128 .LVU1338
 15271 11a4 00       		.uleb128 .LVU1344
 15272 11a5 00       		.uleb128 .LVU1346
 15273 11a6 00       		.uleb128 .LVU1349
 15274 11a7 00       		.uleb128 .LVU1353
 15275 11a8 00       		.uleb128 0
 15276              	.LLST127:
ARM GAS  /var/folders/cs/83z6p2tj4w57s6p2rt8nwfp00000gn/T//cc3yBana.s 			page 307


 15277 11a9 34060000 		.4byte	.LVL321
 15278 11ad BC060000 		.4byte	.LVL324
 15279 11b1 0200     		.2byte	0x2
 15280 11b3 90       		.byte	0x90
 15281 11b4 4A       		.uleb128 0x4a
 15282 11b5 BC060000 		.4byte	.LVL324
 15283 11b9 C8060000 		.4byte	.LVL326
 15284 11bd 0200     		.2byte	0x2
 15285 11bf 7E       		.byte	0x7e
 15286 11c0 04       		.sleb128 4
 15287 11c1 E6060000 		.4byte	.LVL331
 15288 11c5 82070000 		.4byte	.LVL338
 15289 11c9 0200     		.2byte	0x2
 15290 11cb 90       		.byte	0x90
 15291 11cc 4A       		.uleb128 0x4a
 15292 11cd 90070000 		.4byte	.LVL341
 15293 11d1 9A070000 		.4byte	.LVL343
 15294 11d5 0200     		.2byte	0x2
 15295 11d7 90       		.byte	0x90
 15296 11d8 4A       		.uleb128 0x4a
 15297 11d9 9A070000 		.4byte	.LVL343
 15298 11dd A4070000 		.4byte	.LVL344
 15299 11e1 0200     		.2byte	0x2
 15300 11e3 7E       		.byte	0x7e
 15301 11e4 04       		.sleb128 4
 15302 11e5 BE070000 		.4byte	.LVL349
 15303 11e9 C4070000 		.4byte	.LVL351
 15304 11ed 0200     		.2byte	0x2
 15305 11ef 90       		.byte	0x90
 15306 11f0 4A       		.uleb128 0x4a
 15307 11f1 F8070000 		.4byte	.LVL357
 15308 11f5 1C080000 		.4byte	.LVL360
 15309 11f9 0200     		.2byte	0x2
 15310 11fb 90       		.byte	0x90
 15311 11fc 4A       		.uleb128 0x4a
 15312 11fd 1C080000 		.4byte	.LVL360
 15313 1201 6C080000 		.4byte	.LVL365
 15314 1205 0200     		.2byte	0x2
 15315 1207 7E       		.byte	0x7e
 15316 1208 04       		.sleb128 4
 15317 1209 6C080000 		.4byte	.LVL365
 15318 120d A0080000 		.4byte	.LVL366
 15319 1211 0200     		.2byte	0x2
 15320 1213 90       		.byte	0x90
 15321 1214 4A       		.uleb128 0x4a
 15322 1215 AC080000 		.4byte	.LVL368
 15323 1219 B8080000 		.4byte	.LVL370
 15324 121d 0200     		.2byte	0x2
 15325 121f 7E       		.byte	0x7e
 15326 1220 04       		.sleb128 4
 15327 1221 CA080000 		.4byte	.LVL373
 15328 1225 E8080000 		.4byte	.LFE38
 15329 1229 0200     		.2byte	0x2
 15330 122b 7E       		.byte	0x7e
 15331 122c 04       		.sleb128 4
 15332 122d 00000000 		.4byte	0
 15333 1231 00000000 		.4byte	0
ARM GAS  /var/folders/cs/83z6p2tj4w57s6p2rt8nwfp00000gn/T//cc3yBana.s 			page 308


 15334              	.LVUS128:
 15335 1235 00       		.uleb128 .LVU1227
 15336 1236 00       		.uleb128 .LVU1232
 15337 1237 00       		.uleb128 .LVU1232
 15338 1238 00       		.uleb128 .LVU1237
 15339 1239 00       		.uleb128 .LVU1237
 15340 123a 00       		.uleb128 .LVU1241
 15341 123b 00       		.uleb128 .LVU1282
 15342 123c 00       		.uleb128 .LVU1290
 15343 123d 00       		.uleb128 .LVU1290
 15344 123e 00       		.uleb128 .LVU1293
 15345 123f 00       		.uleb128 .LVU1306
 15346 1240 00       		.uleb128 .LVU1336
 15347 1241 00       		.uleb128 .LVU1336
 15348 1242 00       		.uleb128 .LVU1338
 15349 1243 00       		.uleb128 .LVU1346
 15350 1244 00       		.uleb128 .LVU1348
 15351 1245 00       		.uleb128 .LVU1348
 15352 1246 00       		.uleb128 .LVU1349
 15353 1247 00       		.uleb128 .LVU1353
 15354 1248 00       		.uleb128 .LVU1355
 15355 1249 00       		.uleb128 .LVU1355
 15356 124a 00       		.uleb128 0
 15357              	.LLST128:
 15358 124b 9E060000 		.4byte	.LVL323
 15359 124f BC060000 		.4byte	.LVL324
 15360 1253 0200     		.2byte	0x2
 15361 1255 90       		.byte	0x90
 15362 1256 4F       		.uleb128 0x4f
 15363 1257 BC060000 		.4byte	.LVL324
 15364 125b BE060000 		.4byte	.LVL325
 15365 125f 0D00     		.2byte	0xd
 15366 1261 70       		.byte	0x70
 15367 1262 1C       		.sleb128 28
 15368 1263 F6       		.byte	0xf6
 15369 1264 04       		.byte	0x4
 15370 1265 29       		.uleb128 0x29
 15371 1266 75       		.byte	0x75
 15372 1267 D800     		.sleb128 88
 15373 1269 F6       		.byte	0xf6
 15374 126a 04       		.byte	0x4
 15375 126b 29       		.uleb128 0x29
 15376 126c 22       		.byte	0x22
 15377 126d 9F       		.byte	0x9f
 15378 126e BE060000 		.4byte	.LVL325
 15379 1272 C8060000 		.4byte	.LVL326
 15380 1276 1B00     		.2byte	0x1b
 15381 1278 74       		.byte	0x74
 15382 1279 00       		.sleb128 0
 15383 127a 33       		.byte	0x33
 15384 127b 24       		.byte	0x24
 15385 127c 74       		.byte	0x74
 15386 127d 00       		.sleb128 0
 15387 127e 22       		.byte	0x22
 15388 127f 32       		.byte	0x32
 15389 1280 24       		.byte	0x24
 15390 1281 75       		.byte	0x75
ARM GAS  /var/folders/cs/83z6p2tj4w57s6p2rt8nwfp00000gn/T//cc3yBana.s 			page 309


 15391 1282 C800     		.sleb128 72
 15392 1284 06       		.byte	0x6
 15393 1285 22       		.byte	0x22
 15394 1286 23       		.byte	0x23
 15395 1287 1C       		.uleb128 0x1c
 15396 1288 F6       		.byte	0xf6
 15397 1289 04       		.byte	0x4
 15398 128a 29       		.uleb128 0x29
 15399 128b 75       		.byte	0x75
 15400 128c D800     		.sleb128 88
 15401 128e F6       		.byte	0xf6
 15402 128f 04       		.byte	0x4
 15403 1290 29       		.uleb128 0x29
 15404 1291 22       		.byte	0x22
 15405 1292 9F       		.byte	0x9f
 15406 1293 90070000 		.4byte	.LVL341
 15407 1297 9A070000 		.4byte	.LVL343
 15408 129b 0200     		.2byte	0x2
 15409 129d 90       		.byte	0x90
 15410 129e 4F       		.uleb128 0x4f
 15411 129f 9A070000 		.4byte	.LVL343
 15412 12a3 A4070000 		.4byte	.LVL344
 15413 12a7 1B00     		.2byte	0x1b
 15414 12a9 74       		.byte	0x74
 15415 12aa 00       		.sleb128 0
 15416 12ab 33       		.byte	0x33
 15417 12ac 24       		.byte	0x24
 15418 12ad 74       		.byte	0x74
 15419 12ae 00       		.sleb128 0
 15420 12af 22       		.byte	0x22
 15421 12b0 32       		.byte	0x32
 15422 12b1 24       		.byte	0x24
 15423 12b2 75       		.byte	0x75
 15424 12b3 C800     		.sleb128 72
 15425 12b5 06       		.byte	0x6
 15426 12b6 22       		.byte	0x22
 15427 12b7 23       		.byte	0x23
 15428 12b8 1C       		.uleb128 0x1c
 15429 12b9 F6       		.byte	0xf6
 15430 12ba 04       		.byte	0x4
 15431 12bb 29       		.uleb128 0x29
 15432 12bc 75       		.byte	0x75
 15433 12bd D800     		.sleb128 88
 15434 12bf F6       		.byte	0xf6
 15435 12c0 04       		.byte	0x4
 15436 12c1 29       		.uleb128 0x29
 15437 12c2 22       		.byte	0x22
 15438 12c3 9F       		.byte	0x9f
 15439 12c4 F8070000 		.4byte	.LVL357
 15440 12c8 4C080000 		.4byte	.LVL363
 15441 12cc 0200     		.2byte	0x2
 15442 12ce 90       		.byte	0x90
 15443 12cf 4F       		.uleb128 0x4f
 15444 12d0 4C080000 		.4byte	.LVL363
 15445 12d4 6C080000 		.4byte	.LVL365
 15446 12d8 0D00     		.2byte	0xd
 15447 12da 70       		.byte	0x70
ARM GAS  /var/folders/cs/83z6p2tj4w57s6p2rt8nwfp00000gn/T//cc3yBana.s 			page 310


 15448 12db 1C       		.sleb128 28
 15449 12dc F6       		.byte	0xf6
 15450 12dd 04       		.byte	0x4
 15451 12de 29       		.uleb128 0x29
 15452 12df 75       		.byte	0x75
 15453 12e0 D800     		.sleb128 88
 15454 12e2 F6       		.byte	0xf6
 15455 12e3 04       		.byte	0x4
 15456 12e4 29       		.uleb128 0x29
 15457 12e5 22       		.byte	0x22
 15458 12e6 9F       		.byte	0x9f
 15459 12e7 AC080000 		.4byte	.LVL368
 15460 12eb B2080000 		.4byte	.LVL369
 15461 12ef 0200     		.2byte	0x2
 15462 12f1 90       		.byte	0x90
 15463 12f2 4F       		.uleb128 0x4f
 15464 12f3 B2080000 		.4byte	.LVL369
 15465 12f7 B8080000 		.4byte	.LVL370
 15466 12fb 0D00     		.2byte	0xd
 15467 12fd 70       		.byte	0x70
 15468 12fe 1C       		.sleb128 28
 15469 12ff F6       		.byte	0xf6
 15470 1300 04       		.byte	0x4
 15471 1301 29       		.uleb128 0x29
 15472 1302 75       		.byte	0x75
 15473 1303 D800     		.sleb128 88
 15474 1305 F6       		.byte	0xf6
 15475 1306 04       		.byte	0x4
 15476 1307 29       		.uleb128 0x29
 15477 1308 22       		.byte	0x22
 15478 1309 9F       		.byte	0x9f
 15479 130a CA080000 		.4byte	.LVL373
 15480 130e D6080000 		.4byte	.LVL374
 15481 1312 0200     		.2byte	0x2
 15482 1314 90       		.byte	0x90
 15483 1315 4F       		.uleb128 0x4f
 15484 1316 D6080000 		.4byte	.LVL374
 15485 131a E8080000 		.4byte	.LFE38
 15486 131e 0D00     		.2byte	0xd
 15487 1320 70       		.byte	0x70
 15488 1321 1C       		.sleb128 28
 15489 1322 F6       		.byte	0xf6
 15490 1323 04       		.byte	0x4
 15491 1324 29       		.uleb128 0x29
 15492 1325 75       		.byte	0x75
 15493 1326 D800     		.sleb128 88
 15494 1328 F6       		.byte	0xf6
 15495 1329 04       		.byte	0x4
 15496 132a 29       		.uleb128 0x29
 15497 132b 22       		.byte	0x22
 15498 132c 9F       		.byte	0x9f
 15499 132d 00000000 		.4byte	0
 15500 1331 00000000 		.4byte	0
 15501              	.LVUS129:
 15502 1335 00       		.uleb128 .LVU1331
 15503 1336 00       		.uleb128 .LVU1336
 15504 1337 00       		.uleb128 .LVU1336
ARM GAS  /var/folders/cs/83z6p2tj4w57s6p2rt8nwfp00000gn/T//cc3yBana.s 			page 311


 15505 1338 00       		.uleb128 .LVU1337
 15506 1339 00       		.uleb128 .LVU1346
 15507 133a 00       		.uleb128 .LVU1349
 15508 133b 00       		.uleb128 .LVU1353
 15509 133c 01       		.uleb128 .LVU1354
 15510 133d 01       		.uleb128 .LVU1354
 15511 133e 00       		.uleb128 .LVU1355
 15512 133f 00       		.uleb128 .LVU1355
 15513 1340 00       		.uleb128 .LVU1356
 15514 1341 00       		.uleb128 .LVU1356
 15515 1342 00       		.uleb128 0
 15516              	.LLST129:
 15517 1343 3A080000 		.4byte	.LVL362
 15518 1347 4C080000 		.4byte	.LVL363
 15519 134b 0200     		.2byte	0x2
 15520 134d 90       		.byte	0x90
 15521 134e 4E       		.uleb128 0x4e
 15522 134f 4C080000 		.4byte	.LVL363
 15523 1353 50080000 		.4byte	.LVL364
 15524 1357 0200     		.2byte	0x2
 15525 1359 90       		.byte	0x90
 15526 135a 4F       		.uleb128 0x4f
 15527 135b AC080000 		.4byte	.LVL368
 15528 135f B8080000 		.4byte	.LVL370
 15529 1363 0200     		.2byte	0x2
 15530 1365 90       		.byte	0x90
 15531 1366 4E       		.uleb128 0x4e
 15532 1367 CA080000 		.4byte	.LVL373
 15533 136b CA080000 		.4byte	.LVL373
 15534 136f 0200     		.2byte	0x2
 15535 1371 90       		.byte	0x90
 15536 1372 4E       		.uleb128 0x4e
 15537 1373 CA080000 		.4byte	.LVL373
 15538 1377 D6080000 		.4byte	.LVL374
 15539 137b 1000     		.2byte	0x10
 15540 137d F5       		.byte	0xf5
 15541 137e 4F       		.uleb128 0x4f
 15542 137f 29       		.uleb128 0x29
 15543 1380 F4       		.byte	0xf4
 15544 1381 29       		.uleb128 0x29
 15545 1382 04       		.byte	0x4
 15546 1383 0000803F 		.4byte	0x3f800000
 15547 1387 22       		.byte	0x22
 15548 1388 F5       		.byte	0xf5
 15549 1389 4E       		.uleb128 0x4e
 15550 138a 29       		.uleb128 0x29
 15551 138b 1E       		.byte	0x1e
 15552 138c 9F       		.byte	0x9f
 15553 138d D6080000 		.4byte	.LVL374
 15554 1391 DA080000 		.4byte	.LVL375
 15555 1395 1900     		.2byte	0x19
 15556 1397 70       		.byte	0x70
 15557 1398 1C       		.sleb128 28
 15558 1399 F6       		.byte	0xf6
 15559 139a 04       		.byte	0x4
 15560 139b 29       		.uleb128 0x29
 15561 139c 75       		.byte	0x75
ARM GAS  /var/folders/cs/83z6p2tj4w57s6p2rt8nwfp00000gn/T//cc3yBana.s 			page 312


 15562 139d D800     		.sleb128 88
 15563 139f F6       		.byte	0xf6
 15564 13a0 04       		.byte	0x4
 15565 13a1 29       		.uleb128 0x29
 15566 13a2 22       		.byte	0x22
 15567 13a3 F4       		.byte	0xf4
 15568 13a4 29       		.uleb128 0x29
 15569 13a5 04       		.byte	0x4
 15570 13a6 0000803F 		.4byte	0x3f800000
 15571 13aa 22       		.byte	0x22
 15572 13ab F5       		.byte	0xf5
 15573 13ac 4E       		.uleb128 0x4e
 15574 13ad 29       		.uleb128 0x29
 15575 13ae 1E       		.byte	0x1e
 15576 13af 9F       		.byte	0x9f
 15577 13b0 DA080000 		.4byte	.LVL375
 15578 13b4 E8080000 		.4byte	.LFE38
 15579 13b8 0200     		.2byte	0x2
 15580 13ba 90       		.byte	0x90
 15581 13bb 4F       		.uleb128 0x4f
 15582 13bc 00000000 		.4byte	0
 15583 13c0 00000000 		.4byte	0
 15584              	.LVUS130:
 15585 13c4 00       		.uleb128 .LVU1259
 15586 13c5 00       		.uleb128 .LVU1266
 15587 13c6 00       		.uleb128 .LVU1300
 15588 13c7 00       		.uleb128 .LVU1301
 15589              	.LLST130:
 15590 13c8 06070000 		.4byte	.LVL336
 15591 13cc 26070000 		.4byte	.LVL337
 15592 13d0 0200     		.2byte	0x2
 15593 13d2 90       		.byte	0x90
 15594 13d3 4E       		.uleb128 0x4e
 15595 13d4 C2070000 		.4byte	.LVL350
 15596 13d8 C4070000 		.4byte	.LVL351
 15597 13dc 0200     		.2byte	0x2
 15598 13de 90       		.byte	0x90
 15599 13df 4E       		.uleb128 0x4e
 15600 13e0 00000000 		.4byte	0
 15601 13e4 00000000 		.4byte	0
 15602              	.LVUS131:
 15603 13e8 01       		.uleb128 .LVU1313
 15604 13e9 03       		.uleb128 .LVU1315
 15605              	.LLST131:
 15606 13ea 08080000 		.4byte	.LVL358
 15607 13ee 08080000 		.4byte	.LVL358
 15608 13f2 0D00     		.2byte	0xd
 15609 13f4 79       		.byte	0x79
 15610 13f5 38       		.sleb128 56
 15611 13f6 93       		.byte	0x93
 15612 13f7 04       		.uleb128 0x4
 15613 13f8 90       		.byte	0x90
 15614 13f9 4B       		.uleb128 0x4b
 15615 13fa 93       		.byte	0x93
 15616 13fb 04       		.uleb128 0x4
 15617 13fc 79       		.byte	0x79
 15618 13fd C000     		.sleb128 64
ARM GAS  /var/folders/cs/83z6p2tj4w57s6p2rt8nwfp00000gn/T//cc3yBana.s 			page 313


 15619 13ff 93       		.byte	0x93
 15620 1400 04       		.uleb128 0x4
 15621 1401 00000000 		.4byte	0
 15622 1405 00000000 		.4byte	0
 15623              	.LVUS132:
 15624 1409 01       		.uleb128 .LVU1313
 15625 140a 03       		.uleb128 .LVU1315
 15626              	.LLST132:
 15627 140b 08080000 		.4byte	.LVL358
 15628 140f 08080000 		.4byte	.LVL358
 15629 1413 0C00     		.2byte	0xc
 15630 1415 70       		.byte	0x70
 15631 1416 10       		.sleb128 16
 15632 1417 93       		.byte	0x93
 15633 1418 04       		.uleb128 0x4
 15634 1419 90       		.byte	0x90
 15635 141a 4D       		.uleb128 0x4d
 15636 141b 93       		.byte	0x93
 15637 141c 04       		.uleb128 0x4
 15638 141d 70       		.byte	0x70
 15639 141e 18       		.sleb128 24
 15640 141f 93       		.byte	0x93
 15641 1420 04       		.uleb128 0x4
 15642 1421 00000000 		.4byte	0
 15643 1425 00000000 		.4byte	0
 15644              	.LVUS133:
 15645 1429 01       		.uleb128 .LVU1325
 15646 142a 03       		.uleb128 .LVU1327
 15647              	.LLST133:
 15648 142b 2E080000 		.4byte	.LVL361
 15649 142f 2E080000 		.4byte	.LVL361
 15650 1433 0D00     		.2byte	0xd
 15651 1435 79       		.byte	0x79
 15652 1436 38       		.sleb128 56
 15653 1437 93       		.byte	0x93
 15654 1438 04       		.uleb128 0x4
 15655 1439 79       		.byte	0x79
 15656 143a 3C       		.sleb128 60
 15657 143b 93       		.byte	0x93
 15658 143c 04       		.uleb128 0x4
 15659 143d 79       		.byte	0x79
 15660 143e C000     		.sleb128 64
 15661 1440 93       		.byte	0x93
 15662 1441 04       		.uleb128 0x4
 15663 1442 00000000 		.4byte	0
 15664 1446 00000000 		.4byte	0
 15665              	.LVUS134:
 15666 144a 01       		.uleb128 .LVU1325
 15667 144b 03       		.uleb128 .LVU1327
 15668              	.LLST134:
 15669 144c 2E080000 		.4byte	.LVL361
 15670 1450 2E080000 		.4byte	.LVL361
 15671 1454 0C00     		.2byte	0xc
 15672 1456 70       		.byte	0x70
 15673 1457 10       		.sleb128 16
 15674 1458 93       		.byte	0x93
 15675 1459 04       		.uleb128 0x4
ARM GAS  /var/folders/cs/83z6p2tj4w57s6p2rt8nwfp00000gn/T//cc3yBana.s 			page 314


 15676 145a 70       		.byte	0x70
 15677 145b 14       		.sleb128 20
 15678 145c 93       		.byte	0x93
 15679 145d 04       		.uleb128 0x4
 15680 145e 70       		.byte	0x70
 15681 145f 18       		.sleb128 24
 15682 1460 93       		.byte	0x93
 15683 1461 04       		.uleb128 0x4
 15684 1462 00000000 		.4byte	0
 15685 1466 00000000 		.4byte	0
 15686              	.LVUS135:
 15687 146a 01       		.uleb128 .LVU981
 15688 146b 00       		.uleb128 .LVU997
 15689 146c 00       		.uleb128 .LVU997
 15690 146d 00       		.uleb128 .LVU1073
 15691 146e 00       		.uleb128 .LVU1138
 15692 146f 00       		.uleb128 .LVU1150
 15693 1470 00       		.uleb128 .LVU1154
 15694 1471 00       		.uleb128 .LVU1181
 15695 1472 00       		.uleb128 .LVU1301
 15696 1473 00       		.uleb128 .LVU1306
 15697              	.LLST135:
 15698 1474 FE010000 		.4byte	.LVL246
 15699 1478 44020000 		.4byte	.LVL249
 15700 147c 0100     		.2byte	0x1
 15701 147e 55       		.byte	0x55
 15702 147f 44020000 		.4byte	.LVL249
 15703 1483 D8030000 		.4byte	.LVL272
 15704 1487 0100     		.2byte	0x1
 15705 1489 58       		.byte	0x58
 15706 148a E2040000 		.4byte	.LVL293
 15707 148e 3A050000 		.4byte	.LVL298
 15708 1492 0100     		.2byte	0x1
 15709 1494 58       		.byte	0x58
 15710 1495 44050000 		.4byte	.LVL300
 15711 1499 C0050000 		.4byte	.LVL313
 15712 149d 0100     		.2byte	0x1
 15713 149f 58       		.byte	0x58
 15714 14a0 C4070000 		.4byte	.LVL351
 15715 14a4 F8070000 		.4byte	.LVL357
 15716 14a8 0100     		.2byte	0x1
 15717 14aa 58       		.byte	0x58
 15718 14ab 00000000 		.4byte	0
 15719 14af 00000000 		.4byte	0
 15720              	.LVUS136:
 15721 14b3 02       		.uleb128 .LVU988
 15722 14b4 00       		.uleb128 .LVU997
 15723 14b5 00       		.uleb128 .LVU997
 15724 14b6 00       		.uleb128 .LVU1073
 15725 14b7 00       		.uleb128 .LVU1138
 15726 14b8 00       		.uleb128 .LVU1150
 15727 14b9 00       		.uleb128 .LVU1154
 15728 14ba 00       		.uleb128 .LVU1181
 15729 14bb 00       		.uleb128 .LVU1301
 15730 14bc 00       		.uleb128 .LVU1306
 15731              	.LLST136:
 15732 14bd 06020000 		.4byte	.LVL247
ARM GAS  /var/folders/cs/83z6p2tj4w57s6p2rt8nwfp00000gn/T//cc3yBana.s 			page 315


 15733 14c1 44020000 		.4byte	.LVL249
 15734 14c5 0200     		.2byte	0x2
 15735 14c7 30       		.byte	0x30
 15736 14c8 9F       		.byte	0x9f
 15737 14c9 44020000 		.4byte	.LVL249
 15738 14cd D8030000 		.4byte	.LVL272
 15739 14d1 0100     		.2byte	0x1
 15740 14d3 56       		.byte	0x56
 15741 14d4 E2040000 		.4byte	.LVL293
 15742 14d8 3A050000 		.4byte	.LVL298
 15743 14dc 0100     		.2byte	0x1
 15744 14de 56       		.byte	0x56
 15745 14df 44050000 		.4byte	.LVL300
 15746 14e3 C0050000 		.4byte	.LVL313
 15747 14e7 0100     		.2byte	0x1
 15748 14e9 56       		.byte	0x56
 15749 14ea C4070000 		.4byte	.LVL351
 15750 14ee F8070000 		.4byte	.LVL357
 15751 14f2 0100     		.2byte	0x1
 15752 14f4 56       		.byte	0x56
 15753 14f5 00000000 		.4byte	0
 15754 14f9 00000000 		.4byte	0
 15755              	.LVUS137:
 15756 14fd 00       		.uleb128 .LVU986
 15757 14fe 00       		.uleb128 .LVU991
 15758 14ff 00       		.uleb128 .LVU991
 15759 1500 00       		.uleb128 .LVU997
 15760              	.LLST137:
 15761 1501 06020000 		.4byte	.LVL247
 15762 1505 12020000 		.4byte	.LVL248
 15763 1509 0100     		.2byte	0x1
 15764 150b 53       		.byte	0x53
 15765 150c 12020000 		.4byte	.LVL248
 15766 1510 44020000 		.4byte	.LVL249
 15767 1514 0300     		.2byte	0x3
 15768 1516 75       		.byte	0x75
 15769 1517 DC00     		.sleb128 92
 15770 1519 00000000 		.4byte	0
 15771 151d 00000000 		.4byte	0
 15772              	.LVUS138:
 15773 1521 01       		.uleb128 .LVU987
 15774 1522 00       		.uleb128 .LVU1073
 15775 1523 00       		.uleb128 .LVU1138
 15776 1524 00       		.uleb128 .LVU1150
 15777 1525 00       		.uleb128 .LVU1154
 15778 1526 00       		.uleb128 .LVU1181
 15779 1527 00       		.uleb128 .LVU1301
 15780 1528 00       		.uleb128 .LVU1306
 15781              	.LLST138:
 15782 1529 06020000 		.4byte	.LVL247
 15783 152d D8030000 		.4byte	.LVL272
 15784 1531 0600     		.2byte	0x6
 15785 1533 03       		.byte	0x3
 15786 1534 00010000 		.4byte	patterns+256
 15787 1538 9F       		.byte	0x9f
 15788 1539 E2040000 		.4byte	.LVL293
 15789 153d 3A050000 		.4byte	.LVL298
ARM GAS  /var/folders/cs/83z6p2tj4w57s6p2rt8nwfp00000gn/T//cc3yBana.s 			page 316


 15790 1541 0600     		.2byte	0x6
 15791 1543 03       		.byte	0x3
 15792 1544 00010000 		.4byte	patterns+256
 15793 1548 9F       		.byte	0x9f
 15794 1549 44050000 		.4byte	.LVL300
 15795 154d C0050000 		.4byte	.LVL313
 15796 1551 0600     		.2byte	0x6
 15797 1553 03       		.byte	0x3
 15798 1554 00010000 		.4byte	patterns+256
 15799 1558 9F       		.byte	0x9f
 15800 1559 C4070000 		.4byte	.LVL351
 15801 155d F8070000 		.4byte	.LVL357
 15802 1561 0600     		.2byte	0x6
 15803 1563 03       		.byte	0x3
 15804 1564 00010000 		.4byte	patterns+256
 15805 1568 9F       		.byte	0x9f
 15806 1569 00000000 		.4byte	0
 15807 156d 00000000 		.4byte	0
 15808              	.LVUS139:
 15809 1571 00       		.uleb128 .LVU997
 15810 1572 00       		.uleb128 .LVU1010
 15811 1573 00       		.uleb128 .LVU1010
 15812 1574 00       		.uleb128 .LVU1014
 15813 1575 00       		.uleb128 .LVU1018
 15814 1576 00       		.uleb128 .LVU1073
 15815 1577 00       		.uleb128 .LVU1138
 15816 1578 00       		.uleb128 .LVU1145
 15817 1579 00       		.uleb128 .LVU1145
 15818 157a 00       		.uleb128 .LVU1147
 15819 157b 00       		.uleb128 .LVU1147
 15820 157c 00       		.uleb128 .LVU1150
 15821 157d 00       		.uleb128 .LVU1154
 15822 157e 00       		.uleb128 .LVU1181
 15823 157f 00       		.uleb128 .LVU1301
 15824 1580 00       		.uleb128 .LVU1303
 15825 1581 00       		.uleb128 .LVU1303
 15826 1582 00       		.uleb128 .LVU1304
 15827 1583 00       		.uleb128 .LVU1304
 15828 1584 00       		.uleb128 .LVU1305
 15829 1585 00       		.uleb128 .LVU1305
 15830 1586 00       		.uleb128 .LVU1306
 15831              	.LLST139:
 15832 1587 44020000 		.4byte	.LVL249
 15833 158b A8020000 		.4byte	.LVL256
 15834 158f 0100     		.2byte	0x1
 15835 1591 54       		.byte	0x54
 15836 1592 A8020000 		.4byte	.LVL256
 15837 1596 B0020000 		.4byte	.LVL258
 15838 159a 0800     		.2byte	0x8
 15839 159c 77       		.byte	0x77
 15840 159d 00       		.sleb128 0
 15841 159e 32       		.byte	0x32
 15842 159f 24       		.byte	0x24
 15843 15a0 75       		.byte	0x75
 15844 15a1 00       		.sleb128 0
 15845 15a2 22       		.byte	0x22
 15846 15a3 9F       		.byte	0x9f
ARM GAS  /var/folders/cs/83z6p2tj4w57s6p2rt8nwfp00000gn/T//cc3yBana.s 			page 317


 15847 15a4 C0020000 		.4byte	.LVL259
 15848 15a8 D8030000 		.4byte	.LVL272
 15849 15ac 0100     		.2byte	0x1
 15850 15ae 54       		.byte	0x54
 15851 15af E2040000 		.4byte	.LVL293
 15852 15b3 0E050000 		.4byte	.LVL295
 15853 15b7 0100     		.2byte	0x1
 15854 15b9 54       		.byte	0x54
 15855 15ba 0E050000 		.4byte	.LVL295
 15856 15be 14050000 		.4byte	.LVL297
 15857 15c2 0800     		.2byte	0x8
 15858 15c4 77       		.byte	0x77
 15859 15c5 00       		.sleb128 0
 15860 15c6 32       		.byte	0x32
 15861 15c7 24       		.byte	0x24
 15862 15c8 75       		.byte	0x75
 15863 15c9 00       		.sleb128 0
 15864 15ca 22       		.byte	0x22
 15865 15cb 9F       		.byte	0x9f
 15866 15cc 14050000 		.4byte	.LVL297
 15867 15d0 3A050000 		.4byte	.LVL298
 15868 15d4 0100     		.2byte	0x1
 15869 15d6 54       		.byte	0x54
 15870 15d7 44050000 		.4byte	.LVL300
 15871 15db C0050000 		.4byte	.LVL313
 15872 15df 0100     		.2byte	0x1
 15873 15e1 54       		.byte	0x54
 15874 15e2 C4070000 		.4byte	.LVL351
 15875 15e6 CA070000 		.4byte	.LVL352
 15876 15ea 0100     		.2byte	0x1
 15877 15ec 54       		.byte	0x54
 15878 15ed CA070000 		.4byte	.LVL352
 15879 15f1 DE070000 		.4byte	.LVL354
 15880 15f5 0800     		.2byte	0x8
 15881 15f7 77       		.byte	0x77
 15882 15f8 00       		.sleb128 0
 15883 15f9 32       		.byte	0x32
 15884 15fa 24       		.byte	0x24
 15885 15fb 75       		.byte	0x75
 15886 15fc 00       		.sleb128 0
 15887 15fd 22       		.byte	0x22
 15888 15fe 9F       		.byte	0x9f
 15889 15ff DE070000 		.4byte	.LVL354
 15890 1603 E4070000 		.4byte	.LVL355
 15891 1607 0100     		.2byte	0x1
 15892 1609 54       		.byte	0x54
 15893 160a E4070000 		.4byte	.LVL355
 15894 160e F8070000 		.4byte	.LVL357
 15895 1612 0800     		.2byte	0x8
 15896 1614 77       		.byte	0x77
 15897 1615 00       		.sleb128 0
 15898 1616 32       		.byte	0x32
 15899 1617 24       		.byte	0x24
 15900 1618 75       		.byte	0x75
 15901 1619 00       		.sleb128 0
 15902 161a 22       		.byte	0x22
 15903 161b 9F       		.byte	0x9f
ARM GAS  /var/folders/cs/83z6p2tj4w57s6p2rt8nwfp00000gn/T//cc3yBana.s 			page 318


 15904 161c 00000000 		.4byte	0
 15905 1620 00000000 		.4byte	0
 15906              	.LVUS140:
 15907 1624 00       		.uleb128 .LVU997
 15908 1625 00       		.uleb128 .LVU998
 15909 1626 00       		.uleb128 .LVU1030
 15910 1627 00       		.uleb128 .LVU1065
 15911 1628 00       		.uleb128 .LVU1138
 15912 1629 00       		.uleb128 .LVU1145
 15913 162a 00       		.uleb128 .LVU1147
 15914 162b 00       		.uleb128 .LVU1150
 15915 162c 00       		.uleb128 .LVU1165
 15916 162d 00       		.uleb128 .LVU1181
 15917              	.LLST140:
 15918 162e 44020000 		.4byte	.LVL249
 15919 1632 48020000 		.4byte	.LVL250
 15920 1636 0200     		.2byte	0x2
 15921 1638 90       		.byte	0x90
 15922 1639 4F       		.uleb128 0x4f
 15923 163a 0C030000 		.4byte	.LVL260
 15924 163e AE030000 		.4byte	.LVL270
 15925 1642 0200     		.2byte	0x2
 15926 1644 90       		.byte	0x90
 15927 1645 4F       		.uleb128 0x4f
 15928 1646 E2040000 		.4byte	.LVL293
 15929 164a 0E050000 		.4byte	.LVL295
 15930 164e 0200     		.2byte	0x2
 15931 1650 90       		.byte	0x90
 15932 1651 4F       		.uleb128 0x4f
 15933 1652 14050000 		.4byte	.LVL297
 15934 1656 3A050000 		.4byte	.LVL298
 15935 165a 0200     		.2byte	0x2
 15936 165c 90       		.byte	0x90
 15937 165d 4F       		.uleb128 0x4f
 15938 165e 98050000 		.4byte	.LVL305
 15939 1662 C0050000 		.4byte	.LVL313
 15940 1666 0200     		.2byte	0x2
 15941 1668 90       		.byte	0x90
 15942 1669 4F       		.uleb128 0x4f
 15943 166a 00000000 		.4byte	0
 15944 166e 00000000 		.4byte	0
 15945              	.LVUS141:
 15946 1672 00       		.uleb128 .LVU997
 15947 1673 00       		.uleb128 .LVU998
 15948 1674 00       		.uleb128 .LVU1032
 15949 1675 00       		.uleb128 .LVU1064
 15950 1676 00       		.uleb128 .LVU1138
 15951 1677 00       		.uleb128 .LVU1145
 15952 1678 00       		.uleb128 .LVU1147
 15953 1679 00       		.uleb128 .LVU1150
 15954 167a 00       		.uleb128 .LVU1168
 15955 167b 00       		.uleb128 .LVU1181
 15956              	.LLST141:
 15957 167c 44020000 		.4byte	.LVL249
 15958 1680 48020000 		.4byte	.LVL250
 15959 1684 0200     		.2byte	0x2
 15960 1686 90       		.byte	0x90
ARM GAS  /var/folders/cs/83z6p2tj4w57s6p2rt8nwfp00000gn/T//cc3yBana.s 			page 319


 15961 1687 4D       		.uleb128 0x4d
 15962 1688 10030000 		.4byte	.LVL261
 15963 168c AA030000 		.4byte	.LVL269
 15964 1690 0200     		.2byte	0x2
 15965 1692 90       		.byte	0x90
 15966 1693 4D       		.uleb128 0x4d
 15967 1694 E2040000 		.4byte	.LVL293
 15968 1698 0E050000 		.4byte	.LVL295
 15969 169c 0200     		.2byte	0x2
 15970 169e 90       		.byte	0x90
 15971 169f 4D       		.uleb128 0x4d
 15972 16a0 14050000 		.4byte	.LVL297
 15973 16a4 3A050000 		.4byte	.LVL298
 15974 16a8 0200     		.2byte	0x2
 15975 16aa 90       		.byte	0x90
 15976 16ab 4D       		.uleb128 0x4d
 15977 16ac A0050000 		.4byte	.LVL306
 15978 16b0 C0050000 		.4byte	.LVL313
 15979 16b4 0200     		.2byte	0x2
 15980 16b6 90       		.byte	0x90
 15981 16b7 4D       		.uleb128 0x4d
 15982 16b8 00000000 		.4byte	0
 15983 16bc 00000000 		.4byte	0
 15984              	.LVUS142:
 15985 16c0 00       		.uleb128 .LVU997
 15986 16c1 00       		.uleb128 .LVU1004
 15987 16c2 00       		.uleb128 .LVU1034
 15988 16c3 00       		.uleb128 .LVU1073
 15989 16c4 00       		.uleb128 .LVU1138
 15990 16c5 00       		.uleb128 .LVU1145
 15991 16c6 00       		.uleb128 .LVU1147
 15992 16c7 00       		.uleb128 .LVU1150
 15993 16c8 00       		.uleb128 .LVU1154
 15994 16c9 00       		.uleb128 .LVU1156
 15995 16ca 00       		.uleb128 .LVU1170
 15996 16cb 00       		.uleb128 .LVU1181
 15997              	.LLST142:
 15998 16cc 44020000 		.4byte	.LVL249
 15999 16d0 61020000 		.4byte	.LVL252-1
 16000 16d4 0200     		.2byte	0x2
 16001 16d6 90       		.byte	0x90
 16002 16d7 4C       		.uleb128 0x4c
 16003 16d8 14030000 		.4byte	.LVL262
 16004 16dc D8030000 		.4byte	.LVL272
 16005 16e0 0200     		.2byte	0x2
 16006 16e2 90       		.byte	0x90
 16007 16e3 4C       		.uleb128 0x4c
 16008 16e4 E2040000 		.4byte	.LVL293
 16009 16e8 0E050000 		.4byte	.LVL295
 16010 16ec 0200     		.2byte	0x2
 16011 16ee 90       		.byte	0x90
 16012 16ef 4C       		.uleb128 0x4c
 16013 16f0 14050000 		.4byte	.LVL297
 16014 16f4 3A050000 		.4byte	.LVL298
 16015 16f8 0200     		.2byte	0x2
 16016 16fa 90       		.byte	0x90
 16017 16fb 4C       		.uleb128 0x4c
ARM GAS  /var/folders/cs/83z6p2tj4w57s6p2rt8nwfp00000gn/T//cc3yBana.s 			page 320


 16018 16fc 44050000 		.4byte	.LVL300
 16019 1700 47050000 		.4byte	.LVL301-1
 16020 1704 0200     		.2byte	0x2
 16021 1706 90       		.byte	0x90
 16022 1707 4C       		.uleb128 0x4c
 16023 1708 A4050000 		.4byte	.LVL307
 16024 170c C0050000 		.4byte	.LVL313
 16025 1710 0200     		.2byte	0x2
 16026 1712 90       		.byte	0x90
 16027 1713 4C       		.uleb128 0x4c
 16028 1714 00000000 		.4byte	0
 16029 1718 00000000 		.4byte	0
 16030              	.LVUS143:
 16031 171c 00       		.uleb128 .LVU997
 16032 171d 00       		.uleb128 .LVU998
 16033 171e 00       		.uleb128 .LVU1036
 16034 171f 00       		.uleb128 .LVU1062
 16035 1720 00       		.uleb128 .LVU1138
 16036 1721 00       		.uleb128 .LVU1145
 16037 1722 00       		.uleb128 .LVU1147
 16038 1723 00       		.uleb128 .LVU1150
 16039 1724 00       		.uleb128 .LVU1172
 16040 1725 00       		.uleb128 .LVU1181
 16041              	.LLST143:
 16042 1726 44020000 		.4byte	.LVL249
 16043 172a 48020000 		.4byte	.LVL250
 16044 172e 0200     		.2byte	0x2
 16045 1730 90       		.byte	0x90
 16046 1731 4B       		.uleb128 0x4b
 16047 1732 18030000 		.4byte	.LVL263
 16048 1736 A2030000 		.4byte	.LVL267
 16049 173a 0200     		.2byte	0x2
 16050 173c 90       		.byte	0x90
 16051 173d 4B       		.uleb128 0x4b
 16052 173e E2040000 		.4byte	.LVL293
 16053 1742 0E050000 		.4byte	.LVL295
 16054 1746 0200     		.2byte	0x2
 16055 1748 90       		.byte	0x90
 16056 1749 4B       		.uleb128 0x4b
 16057 174a 14050000 		.4byte	.LVL297
 16058 174e 3A050000 		.4byte	.LVL298
 16059 1752 0200     		.2byte	0x2
 16060 1754 90       		.byte	0x90
 16061 1755 4B       		.uleb128 0x4b
 16062 1756 A8050000 		.4byte	.LVL308
 16063 175a C0050000 		.4byte	.LVL313
 16064 175e 0200     		.2byte	0x2
 16065 1760 90       		.byte	0x90
 16066 1761 4B       		.uleb128 0x4b
 16067 1762 00000000 		.4byte	0
 16068 1766 00000000 		.4byte	0
 16069              	.LVUS144:
 16070 176a 00       		.uleb128 .LVU997
 16071 176b 00       		.uleb128 .LVU998
 16072 176c 00       		.uleb128 .LVU1038
 16073 176d 00       		.uleb128 .LVU1063
 16074 176e 00       		.uleb128 .LVU1138
ARM GAS  /var/folders/cs/83z6p2tj4w57s6p2rt8nwfp00000gn/T//cc3yBana.s 			page 321


 16075 176f 00       		.uleb128 .LVU1145
 16076 1770 00       		.uleb128 .LVU1147
 16077 1771 00       		.uleb128 .LVU1150
 16078 1772 00       		.uleb128 .LVU1174
 16079 1773 00       		.uleb128 .LVU1180
 16080              	.LLST144:
 16081 1774 44020000 		.4byte	.LVL249
 16082 1778 48020000 		.4byte	.LVL250
 16083 177c 0200     		.2byte	0x2
 16084 177e 90       		.byte	0x90
 16085 177f 4E       		.uleb128 0x4e
 16086 1780 1C030000 		.4byte	.LVL264
 16087 1784 A6030000 		.4byte	.LVL268
 16088 1788 0200     		.2byte	0x2
 16089 178a 90       		.byte	0x90
 16090 178b 4E       		.uleb128 0x4e
 16091 178c E2040000 		.4byte	.LVL293
 16092 1790 0E050000 		.4byte	.LVL295
 16093 1794 0200     		.2byte	0x2
 16094 1796 90       		.byte	0x90
 16095 1797 4E       		.uleb128 0x4e
 16096 1798 14050000 		.4byte	.LVL297
 16097 179c 3A050000 		.4byte	.LVL298
 16098 17a0 0200     		.2byte	0x2
 16099 17a2 90       		.byte	0x90
 16100 17a3 4E       		.uleb128 0x4e
 16101 17a4 AC050000 		.4byte	.LVL309
 16102 17a8 B6050000 		.4byte	.LVL312
 16103 17ac 0200     		.2byte	0x2
 16104 17ae 90       		.byte	0x90
 16105 17af 4E       		.uleb128 0x4e
 16106 17b0 00000000 		.4byte	0
 16107 17b4 00000000 		.4byte	0
 16108              	.LVUS145:
 16109 17b8 00       		.uleb128 .LVU997
 16110 17b9 00       		.uleb128 .LVU1004
 16111 17ba 00       		.uleb128 .LVU1040
 16112 17bb 00       		.uleb128 .LVU1073
 16113 17bc 00       		.uleb128 .LVU1138
 16114 17bd 00       		.uleb128 .LVU1145
 16115 17be 00       		.uleb128 .LVU1147
 16116 17bf 00       		.uleb128 .LVU1150
 16117 17c0 00       		.uleb128 .LVU1154
 16118 17c1 00       		.uleb128 .LVU1156
 16119 17c2 00       		.uleb128 .LVU1176
 16120 17c3 00       		.uleb128 .LVU1181
 16121              	.LLST145:
 16122 17c4 44020000 		.4byte	.LVL249
 16123 17c8 61020000 		.4byte	.LVL252-1
 16124 17cc 0200     		.2byte	0x2
 16125 17ce 90       		.byte	0x90
 16126 17cf 49       		.uleb128 0x49
 16127 17d0 20030000 		.4byte	.LVL265
 16128 17d4 D8030000 		.4byte	.LVL272
 16129 17d8 0200     		.2byte	0x2
 16130 17da 90       		.byte	0x90
 16131 17db 49       		.uleb128 0x49
ARM GAS  /var/folders/cs/83z6p2tj4w57s6p2rt8nwfp00000gn/T//cc3yBana.s 			page 322


 16132 17dc E2040000 		.4byte	.LVL293
 16133 17e0 0E050000 		.4byte	.LVL295
 16134 17e4 0200     		.2byte	0x2
 16135 17e6 90       		.byte	0x90
 16136 17e7 49       		.uleb128 0x49
 16137 17e8 14050000 		.4byte	.LVL297
 16138 17ec 3A050000 		.4byte	.LVL298
 16139 17f0 0200     		.2byte	0x2
 16140 17f2 90       		.byte	0x90
 16141 17f3 49       		.uleb128 0x49
 16142 17f4 44050000 		.4byte	.LVL300
 16143 17f8 47050000 		.4byte	.LVL301-1
 16144 17fc 0200     		.2byte	0x2
 16145 17fe 90       		.byte	0x90
 16146 17ff 49       		.uleb128 0x49
 16147 1800 B0050000 		.4byte	.LVL310
 16148 1804 C0050000 		.4byte	.LVL313
 16149 1808 0200     		.2byte	0x2
 16150 180a 90       		.byte	0x90
 16151 180b 49       		.uleb128 0x49
 16152 180c 00000000 		.4byte	0
 16153 1810 00000000 		.4byte	0
 16154              	.LVUS146:
 16155 1814 01       		.uleb128 .LVU1041
 16156 1815 00       		.uleb128 .LVU1043
 16157 1816 01       		.uleb128 .LVU1177
 16158 1817 00       		.uleb128 .LVU1178
 16159              	.LLST146:
 16160 1818 20030000 		.4byte	.LVL265
 16161 181c 24030000 		.4byte	.LVL266
 16162 1820 0200     		.2byte	0x2
 16163 1822 90       		.byte	0x90
 16164 1823 4A       		.uleb128 0x4a
 16165 1824 B0050000 		.4byte	.LVL310
 16166 1828 B2050000 		.4byte	.LVL311
 16167 182c 0600     		.2byte	0x6
 16168 182e 9E       		.byte	0x9e
 16169 182f 04       		.uleb128 0x4
 16170 1830 00000000 		.4byte	0
 16171 1834 00000000 		.4byte	0
 16172 1838 00000000 		.4byte	0
 16173              	.LVUS147:
 16174 183c 00       		.uleb128 .LVU997
 16175 183d 00       		.uleb128 .LVU1004
 16176 183e 00       		.uleb128 .LVU1043
 16177 183f 00       		.uleb128 .LVU1073
 16178 1840 00       		.uleb128 .LVU1138
 16179 1841 00       		.uleb128 .LVU1145
 16180 1842 00       		.uleb128 .LVU1147
 16181 1843 00       		.uleb128 .LVU1150
 16182 1844 00       		.uleb128 .LVU1154
 16183 1845 00       		.uleb128 .LVU1156
 16184 1846 00       		.uleb128 .LVU1178
 16185 1847 00       		.uleb128 .LVU1181
 16186              	.LLST147:
 16187 1848 44020000 		.4byte	.LVL249
 16188 184c 61020000 		.4byte	.LVL252-1
ARM GAS  /var/folders/cs/83z6p2tj4w57s6p2rt8nwfp00000gn/T//cc3yBana.s 			page 323


 16189 1850 0200     		.2byte	0x2
 16190 1852 90       		.byte	0x90
 16191 1853 48       		.uleb128 0x48
 16192 1854 24030000 		.4byte	.LVL266
 16193 1858 D8030000 		.4byte	.LVL272
 16194 185c 0200     		.2byte	0x2
 16195 185e 90       		.byte	0x90
 16196 185f 48       		.uleb128 0x48
 16197 1860 E2040000 		.4byte	.LVL293
 16198 1864 0E050000 		.4byte	.LVL295
 16199 1868 0200     		.2byte	0x2
 16200 186a 90       		.byte	0x90
 16201 186b 48       		.uleb128 0x48
 16202 186c 14050000 		.4byte	.LVL297
 16203 1870 3A050000 		.4byte	.LVL298
 16204 1874 0200     		.2byte	0x2
 16205 1876 90       		.byte	0x90
 16206 1877 48       		.uleb128 0x48
 16207 1878 44050000 		.4byte	.LVL300
 16208 187c 47050000 		.4byte	.LVL301-1
 16209 1880 0200     		.2byte	0x2
 16210 1882 90       		.byte	0x90
 16211 1883 48       		.uleb128 0x48
 16212 1884 B2050000 		.4byte	.LVL311
 16213 1888 C0050000 		.4byte	.LVL313
 16214 188c 0200     		.2byte	0x2
 16215 188e 90       		.byte	0x90
 16216 188f 48       		.uleb128 0x48
 16217 1890 00000000 		.4byte	0
 16218 1894 00000000 		.4byte	0
 16219              	.LVUS148:
 16220 1898 00       		.uleb128 .LVU1066
 16221 1899 00       		.uleb128 .LVU1073
 16222 189a 00       		.uleb128 .LVU1180
 16223 189b 00       		.uleb128 .LVU1181
 16224              	.LLST148:
 16225 189c B6030000 		.4byte	.LVL271
 16226 18a0 D8030000 		.4byte	.LVL272
 16227 18a4 0200     		.2byte	0x2
 16228 18a6 90       		.byte	0x90
 16229 18a7 4E       		.uleb128 0x4e
 16230 18a8 B6050000 		.4byte	.LVL312
 16231 18ac C0050000 		.4byte	.LVL313
 16232 18b0 0200     		.2byte	0x2
 16233 18b2 90       		.byte	0x90
 16234 18b3 4E       		.uleb128 0x4e
 16235 18b4 00000000 		.4byte	0
 16236 18b8 00000000 		.4byte	0
 16237              	.LVUS7:
 16238 18bc 00       		.uleb128 0
 16239 18bd 00       		.uleb128 .LVU51
 16240 18be 00       		.uleb128 .LVU51
 16241 18bf 00       		.uleb128 0
 16242              	.LLST7:
 16243 18c0 00000000 		.4byte	.LVL16
 16244 18c4 18000000 		.4byte	.LVL17
 16245 18c8 0100     		.2byte	0x1
ARM GAS  /var/folders/cs/83z6p2tj4w57s6p2rt8nwfp00000gn/T//cc3yBana.s 			page 324


 16246 18ca 50       		.byte	0x50
 16247 18cb 18000000 		.4byte	.LVL17
 16248 18cf 1C000000 		.4byte	.LFE37
 16249 18d3 0400     		.2byte	0x4
 16250 18d5 F3       		.byte	0xf3
 16251 18d6 01       		.uleb128 0x1
 16252 18d7 50       		.byte	0x50
 16253 18d8 9F       		.byte	0x9f
 16254 18d9 00000000 		.4byte	0
 16255 18dd 00000000 		.4byte	0
 16256              	.LVUS8:
 16257 18e1 02       		.uleb128 .LVU45
 16258 18e2 00       		.uleb128 .LVU51
 16259 18e3 00       		.uleb128 .LVU51
 16260 18e4 00       		.uleb128 0
 16261              	.LLST8:
 16262 18e5 00000000 		.4byte	.LVL16
 16263 18e9 18000000 		.4byte	.LVL17
 16264 18ed 0200     		.2byte	0x2
 16265 18ef 70       		.byte	0x70
 16266 18f0 00       		.sleb128 0
 16267 18f1 18000000 		.4byte	.LVL17
 16268 18f5 1C000000 		.4byte	.LFE37
 16269 18f9 0100     		.2byte	0x1
 16270 18fb 52       		.byte	0x52
 16271 18fc 00000000 		.4byte	0
 16272 1900 00000000 		.4byte	0
 16273              	.LVUS9:
 16274 1904 03       		.uleb128 .LVU46
 16275 1905 00       		.uleb128 0
 16276              	.LLST9:
 16277 1906 00000000 		.4byte	.LVL16
 16278 190a 1C000000 		.4byte	.LFE37
 16279 190e 0200     		.2byte	0x2
 16280 1910 71       		.byte	0x71
 16281 1911 00       		.sleb128 0
 16282 1912 00000000 		.4byte	0
 16283 1916 00000000 		.4byte	0
 16284              	.LLST70:
 16285 191a 00000000 		.4byte	.LFB33
 16286 191e 20000000 		.4byte	.LCFI35
 16287 1922 0200     		.2byte	0x2
 16288 1924 7D       		.byte	0x7d
 16289 1925 00       		.sleb128 0
 16290 1926 20000000 		.4byte	.LCFI35
 16291 192a 24000000 		.4byte	.LCFI36
 16292 192e 0200     		.2byte	0x2
 16293 1930 7D       		.byte	0x7d
 16294 1931 24       		.sleb128 36
 16295 1932 24000000 		.4byte	.LCFI36
 16296 1936 26000000 		.4byte	.LCFI37
 16297 193a 0300     		.2byte	0x3
 16298 193c 7D       		.byte	0x7d
 16299 193d C400     		.sleb128 68
 16300 193f 26000000 		.4byte	.LCFI37
 16301 1943 B8020000 		.4byte	.LCFI38
 16302 1947 0300     		.2byte	0x3
ARM GAS  /var/folders/cs/83z6p2tj4w57s6p2rt8nwfp00000gn/T//cc3yBana.s 			page 325


 16303 1949 7D       		.byte	0x7d
 16304 194a A803     		.sleb128 424
 16305 194c B8020000 		.4byte	.LCFI38
 16306 1950 BC020000 		.4byte	.LCFI39
 16307 1954 0300     		.2byte	0x3
 16308 1956 7D       		.byte	0x7d
 16309 1957 C400     		.sleb128 68
 16310 1959 BC020000 		.4byte	.LCFI39
 16311 195d CC020000 		.4byte	.LFE33
 16312 1961 0200     		.2byte	0x2
 16313 1963 7D       		.byte	0x7d
 16314 1964 24       		.sleb128 36
 16315 1965 00000000 		.4byte	0
 16316 1969 00000000 		.4byte	0
 16317              	.LVUS71:
 16318 196d 00       		.uleb128 0
 16319 196e 00       		.uleb128 .LVU682
 16320 196f 00       		.uleb128 .LVU682
 16321 1970 00       		.uleb128 .LVU777
 16322 1971 00       		.uleb128 .LVU777
 16323 1972 00       		.uleb128 0
 16324              	.LLST71:
 16325 1973 00000000 		.4byte	.LVL164
 16326 1977 84000000 		.4byte	.LVL170
 16327 197b 0100     		.2byte	0x1
 16328 197d 50       		.byte	0x50
 16329 197e 84000000 		.4byte	.LVL170
 16330 1982 C0020000 		.4byte	.LVL197
 16331 1986 0100     		.2byte	0x1
 16332 1988 57       		.byte	0x57
 16333 1989 C0020000 		.4byte	.LVL197
 16334 198d CC020000 		.4byte	.LFE33
 16335 1991 0400     		.2byte	0x4
 16336 1993 F3       		.byte	0xf3
 16337 1994 01       		.uleb128 0x1
 16338 1995 50       		.byte	0x50
 16339 1996 9F       		.byte	0x9f
 16340 1997 00000000 		.4byte	0
 16341 199b 00000000 		.4byte	0
 16342              	.LVUS72:
 16343 199f 00       		.uleb128 .LVU654
 16344 19a0 00       		.uleb128 .LVU657
 16345 19a1 00       		.uleb128 .LVU657
 16346 19a2 00       		.uleb128 .LVU712
 16347 19a3 00       		.uleb128 .LVU712
 16348 19a4 00       		.uleb128 .LVU727
 16349 19a5 00       		.uleb128 .LVU727
 16350 19a6 00       		.uleb128 .LVU728
 16351 19a7 00       		.uleb128 .LVU728
 16352 19a8 00       		.uleb128 .LVU777
 16353 19a9 00       		.uleb128 .LVU777
 16354 19aa 00       		.uleb128 0
 16355              	.LLST72:
 16356 19ab 04000000 		.4byte	.LVL165
 16357 19af 14000000 		.4byte	.LVL166
 16358 19b3 0A00     		.2byte	0xa
 16359 19b5 90       		.byte	0x90
ARM GAS  /var/folders/cs/83z6p2tj4w57s6p2rt8nwfp00000gn/T//cc3yBana.s 			page 326


 16360 19b6 40       		.uleb128 0x40
 16361 19b7 93       		.byte	0x93
 16362 19b8 04       		.uleb128 0x4
 16363 19b9 90       		.byte	0x90
 16364 19ba 41       		.uleb128 0x41
 16365 19bb 93       		.byte	0x93
 16366 19bc 04       		.uleb128 0x4
 16367 19bd 93       		.byte	0x93
 16368 19be 04       		.uleb128 0x4
 16369 19bf 14000000 		.4byte	.LVL166
 16370 19c3 C6000000 		.4byte	.LVL173
 16371 19c7 0C00     		.2byte	0xc
 16372 19c9 90       		.byte	0x90
 16373 19ca 40       		.uleb128 0x40
 16374 19cb 93       		.byte	0x93
 16375 19cc 04       		.uleb128 0x4
 16376 19cd 90       		.byte	0x90
 16377 19ce 41       		.uleb128 0x41
 16378 19cf 93       		.byte	0x93
 16379 19d0 04       		.uleb128 0x4
 16380 19d1 90       		.byte	0x90
 16381 19d2 42       		.uleb128 0x42
 16382 19d3 93       		.byte	0x93
 16383 19d4 04       		.uleb128 0x4
 16384 19d5 C6000000 		.4byte	.LVL173
 16385 19d9 F6000000 		.4byte	.LVL177
 16386 19dd 0D00     		.2byte	0xd
 16387 19df 90       		.byte	0x90
 16388 19e0 40       		.uleb128 0x40
 16389 19e1 93       		.byte	0x93
 16390 19e2 04       		.uleb128 0x4
 16391 19e3 90       		.byte	0x90
 16392 19e4 41       		.uleb128 0x41
 16393 19e5 93       		.byte	0x93
 16394 19e6 04       		.uleb128 0x4
 16395 19e7 91       		.byte	0x91
 16396 19e8 947E     		.sleb128 -236
 16397 19ea 93       		.byte	0x93
 16398 19eb 04       		.uleb128 0x4
 16399 19ec F6000000 		.4byte	.LVL177
 16400 19f0 FA000000 		.4byte	.LVL178
 16401 19f4 0E00     		.2byte	0xe
 16402 19f6 91       		.byte	0x91
 16403 19f7 8C7E     		.sleb128 -244
 16404 19f9 93       		.byte	0x93
 16405 19fa 04       		.uleb128 0x4
 16406 19fb 90       		.byte	0x90
 16407 19fc 41       		.uleb128 0x41
 16408 19fd 93       		.byte	0x93
 16409 19fe 04       		.uleb128 0x4
 16410 19ff 91       		.byte	0x91
 16411 1a00 947E     		.sleb128 -236
 16412 1a02 93       		.byte	0x93
 16413 1a03 04       		.uleb128 0x4
 16414 1a04 FA000000 		.4byte	.LVL178
 16415 1a08 C0020000 		.4byte	.LVL197
 16416 1a0c 0F00     		.2byte	0xf
ARM GAS  /var/folders/cs/83z6p2tj4w57s6p2rt8nwfp00000gn/T//cc3yBana.s 			page 327


 16417 1a0e 91       		.byte	0x91
 16418 1a0f 8C7E     		.sleb128 -244
 16419 1a11 93       		.byte	0x93
 16420 1a12 04       		.uleb128 0x4
 16421 1a13 91       		.byte	0x91
 16422 1a14 907E     		.sleb128 -240
 16423 1a16 93       		.byte	0x93
 16424 1a17 04       		.uleb128 0x4
 16425 1a18 91       		.byte	0x91
 16426 1a19 947E     		.sleb128 -236
 16427 1a1b 93       		.byte	0x93
 16428 1a1c 04       		.uleb128 0x4
 16429 1a1d C0020000 		.4byte	.LVL197
 16430 1a21 CC020000 		.4byte	.LFE33
 16431 1a25 0F00     		.2byte	0xf
 16432 1a27 7D       		.byte	0x7d
 16433 1a28 8C7E     		.sleb128 -244
 16434 1a2a 93       		.byte	0x93
 16435 1a2b 04       		.uleb128 0x4
 16436 1a2c 7D       		.byte	0x7d
 16437 1a2d 907E     		.sleb128 -240
 16438 1a2f 93       		.byte	0x93
 16439 1a30 04       		.uleb128 0x4
 16440 1a31 7D       		.byte	0x7d
 16441 1a32 947E     		.sleb128 -236
 16442 1a34 93       		.byte	0x93
 16443 1a35 04       		.uleb128 0x4
 16444 1a36 00000000 		.4byte	0
 16445 1a3a 00000000 		.4byte	0
 16446              	.LVUS73:
 16447 1a3e 00       		.uleb128 0
 16448 1a3f 00       		.uleb128 .LVU659
 16449 1a40 00       		.uleb128 .LVU659
 16450 1a41 00       		.uleb128 0
 16451              	.LLST73:
 16452 1a42 00000000 		.4byte	.LVL164
 16453 1a46 18000000 		.4byte	.LVL167
 16454 1a4a 0200     		.2byte	0x2
 16455 1a4c 90       		.byte	0x90
 16456 1a4d 46       		.uleb128 0x46
 16457 1a4e 18000000 		.4byte	.LVL167
 16458 1a52 CC020000 		.4byte	.LFE33
 16459 1a56 0600     		.2byte	0x6
 16460 1a58 F3       		.byte	0xf3
 16461 1a59 03       		.uleb128 0x3
 16462 1a5a F5       		.byte	0xf5
 16463 1a5b 46       		.uleb128 0x46
 16464 1a5c 29       		.uleb128 0x29
 16465 1a5d 9F       		.byte	0x9f
 16466 1a5e 00000000 		.4byte	0
 16467 1a62 00000000 		.4byte	0
 16468              	.LVUS74:
 16469 1a66 00       		.uleb128 .LVU674
 16470 1a67 00       		.uleb128 .LVU677
 16471 1a68 00       		.uleb128 .LVU677
 16472 1a69 00       		.uleb128 .LVU711
 16473 1a6a 00       		.uleb128 .LVU711
ARM GAS  /var/folders/cs/83z6p2tj4w57s6p2rt8nwfp00000gn/T//cc3yBana.s 			page 328


 16474 1a6b 00       		.uleb128 .LVU724
 16475 1a6c 00       		.uleb128 .LVU724
 16476 1a6d 00       		.uleb128 .LVU776
 16477 1a6e 00       		.uleb128 .LVU776
 16478 1a6f 00       		.uleb128 .LVU777
 16479 1a70 00       		.uleb128 .LVU777
 16480 1a71 00       		.uleb128 0
 16481              	.LLST74:
 16482 1a72 6A000000 		.4byte	.LVL168
 16483 1a76 76000000 		.4byte	.LVL169
 16484 1a7a 0600     		.2byte	0x6
 16485 1a7c 90       		.byte	0x90
 16486 1a7d 47       		.uleb128 0x47
 16487 1a7e 93       		.byte	0x93
 16488 1a7f 04       		.uleb128 0x4
 16489 1a80 93       		.byte	0x93
 16490 1a81 08       		.uleb128 0x8
 16491 1a82 76000000 		.4byte	.LVL169
 16492 1a86 C2000000 		.4byte	.LVL172
 16493 1a8a 0A00     		.2byte	0xa
 16494 1a8c 90       		.byte	0x90
 16495 1a8d 47       		.uleb128 0x47
 16496 1a8e 93       		.byte	0x93
 16497 1a8f 04       		.uleb128 0x4
 16498 1a90 90       		.byte	0x90
 16499 1a91 48       		.uleb128 0x48
 16500 1a92 93       		.byte	0x93
 16501 1a93 04       		.uleb128 0x4
 16502 1a94 93       		.byte	0x93
 16503 1a95 04       		.uleb128 0x4
 16504 1a96 C2000000 		.4byte	.LVL172
 16505 1a9a DE000000 		.4byte	.LVL176
 16506 1a9e 0A00     		.2byte	0xa
 16507 1aa0 90       		.byte	0x90
 16508 1aa1 54       		.uleb128 0x54
 16509 1aa2 93       		.byte	0x93
 16510 1aa3 04       		.uleb128 0x4
 16511 1aa4 90       		.byte	0x90
 16512 1aa5 48       		.uleb128 0x48
 16513 1aa6 93       		.byte	0x93
 16514 1aa7 04       		.uleb128 0x4
 16515 1aa8 93       		.byte	0x93
 16516 1aa9 04       		.uleb128 0x4
 16517 1aaa DE000000 		.4byte	.LVL176
 16518 1aae BC020000 		.4byte	.LVL196
 16519 1ab2 0A00     		.2byte	0xa
 16520 1ab4 90       		.byte	0x90
 16521 1ab5 54       		.uleb128 0x54
 16522 1ab6 93       		.byte	0x93
 16523 1ab7 04       		.uleb128 0x4
 16524 1ab8 90       		.byte	0x90
 16525 1ab9 55       		.uleb128 0x55
 16526 1aba 93       		.byte	0x93
 16527 1abb 04       		.uleb128 0x4
 16528 1abc 93       		.byte	0x93
 16529 1abd 04       		.uleb128 0x4
 16530 1abe BC020000 		.4byte	.LVL196
ARM GAS  /var/folders/cs/83z6p2tj4w57s6p2rt8nwfp00000gn/T//cc3yBana.s 			page 329


 16531 1ac2 C0020000 		.4byte	.LVL197
 16532 1ac6 0B00     		.2byte	0xb
 16533 1ac8 91       		.byte	0x91
 16534 1ac9 F47D     		.sleb128 -268
 16535 1acb 93       		.byte	0x93
 16536 1acc 04       		.uleb128 0x4
 16537 1acd 90       		.byte	0x90
 16538 1ace 55       		.uleb128 0x55
 16539 1acf 93       		.byte	0x93
 16540 1ad0 04       		.uleb128 0x4
 16541 1ad1 93       		.byte	0x93
 16542 1ad2 04       		.uleb128 0x4
 16543 1ad3 C0020000 		.4byte	.LVL197
 16544 1ad7 CC020000 		.4byte	.LFE33
 16545 1adb 0B00     		.2byte	0xb
 16546 1add 7D       		.byte	0x7d
 16547 1ade F47D     		.sleb128 -268
 16548 1ae0 93       		.byte	0x93
 16549 1ae1 04       		.uleb128 0x4
 16550 1ae2 90       		.byte	0x90
 16551 1ae3 55       		.uleb128 0x55
 16552 1ae4 93       		.byte	0x93
 16553 1ae5 04       		.uleb128 0x4
 16554 1ae6 93       		.byte	0x93
 16555 1ae7 04       		.uleb128 0x4
 16556 1ae8 00000000 		.4byte	0
 16557 1aec 00000000 		.4byte	0
 16558              	.LVUS75:
 16559 1af0 01       		.uleb128 .LVU686
 16560 1af1 00       		.uleb128 .LVU729
 16561 1af2 01       		.uleb128 .LVU730
 16562 1af3 00       		.uleb128 .LVU731
 16563 1af4 00       		.uleb128 .LVU731
 16564 1af5 00       		.uleb128 .LVU744
 16565 1af6 00       		.uleb128 .LVU744
 16566 1af7 00       		.uleb128 .LVU748
 16567 1af8 00       		.uleb128 .LVU748
 16568 1af9 00       		.uleb128 .LVU749
 16569 1afa 00       		.uleb128 .LVU749
 16570 1afb 00       		.uleb128 .LVU750
 16571 1afc 00       		.uleb128 .LVU750
 16572 1afd 00       		.uleb128 .LVU751
 16573 1afe 00       		.uleb128 .LVU751
 16574 1aff 00       		.uleb128 .LVU772
 16575 1b00 00       		.uleb128 .LVU772
 16576 1b01 00       		.uleb128 .LVU775
 16577              	.LLST75:
 16578 1b02 96000000 		.4byte	.LVL171
 16579 1b06 01010000 		.4byte	.LVL179-1
 16580 1b0a 0900     		.2byte	0x9
 16581 1b0c 30       		.byte	0x30
 16582 1b0d 9F       		.byte	0x9f
 16583 1b0e 9D       		.byte	0x9d
 16584 1b0f 01       		.uleb128 0x1
 16585 1b10 00       		.uleb128 0
 16586 1b11 9D       		.byte	0x9d
 16587 1b12 9F03     		.uleb128 0x19f
ARM GAS  /var/folders/cs/83z6p2tj4w57s6p2rt8nwfp00000gn/T//cc3yBana.s 			page 330


 16588 1b14 00       		.uleb128 0
 16589 1b15 02010000 		.4byte	.LVL179
 16590 1b19 68010000 		.4byte	.LVL181
 16591 1b1d 0900     		.2byte	0x9
 16592 1b1f 30       		.byte	0x30
 16593 1b20 9F       		.byte	0x9f
 16594 1b21 9D       		.byte	0x9d
 16595 1b22 01       		.uleb128 0x1
 16596 1b23 00       		.uleb128 0
 16597 1b24 9D       		.byte	0x9d
 16598 1b25 9F03     		.uleb128 0x19f
 16599 1b27 00       		.uleb128 0
 16600 1b28 68010000 		.4byte	.LVL181
 16601 1b2c 02020000 		.4byte	.LVL184
 16602 1b30 0800     		.2byte	0x8
 16603 1b32 5A       		.byte	0x5a
 16604 1b33 9D       		.byte	0x9d
 16605 1b34 01       		.uleb128 0x1
 16606 1b35 00       		.uleb128 0
 16607 1b36 9D       		.byte	0x9d
 16608 1b37 9F03     		.uleb128 0x19f
 16609 1b39 00       		.uleb128 0
 16610 1b3a 02020000 		.4byte	.LVL184
 16611 1b3e 12020000 		.4byte	.LVL185
 16612 1b42 0900     		.2byte	0x9
 16613 1b44 76       		.byte	0x76
 16614 1b45 00       		.sleb128 0
 16615 1b46 9D       		.byte	0x9d
 16616 1b47 01       		.uleb128 0x1
 16617 1b48 00       		.uleb128 0
 16618 1b49 9D       		.byte	0x9d
 16619 1b4a 9F03     		.uleb128 0x19f
 16620 1b4c 00       		.uleb128 0
 16621 1b4d 12020000 		.4byte	.LVL185
 16622 1b51 16020000 		.4byte	.LVL186
 16623 1b55 0900     		.2byte	0x9
 16624 1b57 76       		.byte	0x76
 16625 1b58 70       		.sleb128 -16
 16626 1b59 9D       		.byte	0x9d
 16627 1b5a 01       		.uleb128 0x1
 16628 1b5b 00       		.uleb128 0
 16629 1b5c 9D       		.byte	0x9d
 16630 1b5d 9F03     		.uleb128 0x19f
 16631 1b5f 00       		.uleb128 0
 16632 1b60 16020000 		.4byte	.LVL186
 16633 1b64 1A020000 		.4byte	.LVL187
 16634 1b68 0900     		.2byte	0x9
 16635 1b6a 76       		.byte	0x76
 16636 1b6b 60       		.sleb128 -32
 16637 1b6c 9D       		.byte	0x9d
 16638 1b6d 01       		.uleb128 0x1
 16639 1b6e 00       		.uleb128 0
 16640 1b6f 9D       		.byte	0x9d
 16641 1b70 9F03     		.uleb128 0x19f
 16642 1b72 00       		.uleb128 0
 16643 1b73 1A020000 		.4byte	.LVL187
 16644 1b77 22020000 		.4byte	.LVL188
ARM GAS  /var/folders/cs/83z6p2tj4w57s6p2rt8nwfp00000gn/T//cc3yBana.s 			page 331


 16645 1b7b 0900     		.2byte	0x9
 16646 1b7d 76       		.byte	0x76
 16647 1b7e 50       		.sleb128 -48
 16648 1b7f 9D       		.byte	0x9d
 16649 1b80 01       		.uleb128 0x1
 16650 1b81 00       		.uleb128 0
 16651 1b82 9D       		.byte	0x9d
 16652 1b83 9F03     		.uleb128 0x19f
 16653 1b85 00       		.uleb128 0
 16654 1b86 22020000 		.4byte	.LVL188
 16655 1b8a AA020000 		.4byte	.LVL194
 16656 1b8e 0900     		.2byte	0x9
 16657 1b90 76       		.byte	0x76
 16658 1b91 00       		.sleb128 0
 16659 1b92 9D       		.byte	0x9d
 16660 1b93 01       		.uleb128 0x1
 16661 1b94 00       		.uleb128 0
 16662 1b95 9D       		.byte	0x9d
 16663 1b96 9F03     		.uleb128 0x19f
 16664 1b98 00       		.uleb128 0
 16665 1b99 AA020000 		.4byte	.LVL194
 16666 1b9d B6020000 		.4byte	.LVL195
 16667 1ba1 0A00     		.2byte	0xa
 16668 1ba3 91       		.byte	0x91
 16669 1ba4 9C7E     		.sleb128 -228
 16670 1ba6 9D       		.byte	0x9d
 16671 1ba7 01       		.uleb128 0x1
 16672 1ba8 00       		.uleb128 0
 16673 1ba9 9D       		.byte	0x9d
 16674 1baa 9F03     		.uleb128 0x19f
 16675 1bac 00       		.uleb128 0
 16676 1bad 00000000 		.4byte	0
 16677 1bb1 00000000 		.4byte	0
 16678              	.LVUS76:
 16679 1bb5 06       		.uleb128 .LVU691
 16680 1bb6 10       		.uleb128 .LVU701
 16681 1bb7 10       		.uleb128 .LVU701
 16682 1bb8 11       		.uleb128 .LVU702
 16683 1bb9 11       		.uleb128 .LVU702
 16684 1bba 12       		.uleb128 .LVU703
 16685 1bbb 12       		.uleb128 .LVU703
 16686 1bbc 00       		.uleb128 .LVU729
 16687 1bbd 00       		.uleb128 .LVU729
 16688 1bbe 00       		.uleb128 .LVU775
 16689              	.LLST76:
 16690 1bbf 96000000 		.4byte	.LVL171
 16691 1bc3 96000000 		.4byte	.LVL171
 16692 1bc7 0A00     		.2byte	0xa
 16693 1bc9 90       		.byte	0x90
 16694 1bca 4B       		.uleb128 0x4b
 16695 1bcb 93       		.byte	0x93
 16696 1bcc 04       		.uleb128 0x4
 16697 1bcd 93       		.byte	0x93
 16698 1bce 04       		.uleb128 0x4
 16699 1bcf 90       		.byte	0x90
 16700 1bd0 4D       		.uleb128 0x4d
 16701 1bd1 93       		.byte	0x93
ARM GAS  /var/folders/cs/83z6p2tj4w57s6p2rt8nwfp00000gn/T//cc3yBana.s 			page 332


 16702 1bd2 04       		.uleb128 0x4
 16703 1bd3 96000000 		.4byte	.LVL171
 16704 1bd7 96000000 		.4byte	.LVL171
 16705 1bdb 0A00     		.2byte	0xa
 16706 1bdd 90       		.byte	0x90
 16707 1bde 4E       		.uleb128 0x4e
 16708 1bdf 93       		.byte	0x93
 16709 1be0 04       		.uleb128 0x4
 16710 1be1 93       		.byte	0x93
 16711 1be2 04       		.uleb128 0x4
 16712 1be3 90       		.byte	0x90
 16713 1be4 4D       		.uleb128 0x4d
 16714 1be5 93       		.byte	0x93
 16715 1be6 04       		.uleb128 0x4
 16716 1be7 96000000 		.4byte	.LVL171
 16717 1beb 96000000 		.4byte	.LVL171
 16718 1bef 0C00     		.2byte	0xc
 16719 1bf1 90       		.byte	0x90
 16720 1bf2 4E       		.uleb128 0x4e
 16721 1bf3 93       		.byte	0x93
 16722 1bf4 04       		.uleb128 0x4
 16723 1bf5 90       		.byte	0x90
 16724 1bf6 56       		.uleb128 0x56
 16725 1bf7 93       		.byte	0x93
 16726 1bf8 04       		.uleb128 0x4
 16727 1bf9 90       		.byte	0x90
 16728 1bfa 4D       		.uleb128 0x4d
 16729 1bfb 93       		.byte	0x93
 16730 1bfc 04       		.uleb128 0x4
 16731 1bfd 96000000 		.4byte	.LVL171
 16732 1c01 01010000 		.4byte	.LVL179-1
 16733 1c05 0C00     		.2byte	0xc
 16734 1c07 90       		.byte	0x90
 16735 1c08 4E       		.uleb128 0x4e
 16736 1c09 93       		.byte	0x93
 16737 1c0a 04       		.uleb128 0x4
 16738 1c0b 90       		.byte	0x90
 16739 1c0c 56       		.uleb128 0x56
 16740 1c0d 93       		.byte	0x93
 16741 1c0e 04       		.uleb128 0x4
 16742 1c0f 90       		.byte	0x90
 16743 1c10 4C       		.uleb128 0x4c
 16744 1c11 93       		.byte	0x93
 16745 1c12 04       		.uleb128 0x4
 16746 1c13 01010000 		.4byte	.LVL179-1
 16747 1c17 B6020000 		.4byte	.LVL195
 16748 1c1b 0800     		.2byte	0x8
 16749 1c1d 93       		.byte	0x93
 16750 1c1e 04       		.uleb128 0x4
 16751 1c1f 90       		.byte	0x90
 16752 1c20 56       		.uleb128 0x56
 16753 1c21 93       		.byte	0x93
 16754 1c22 04       		.uleb128 0x4
 16755 1c23 93       		.byte	0x93
 16756 1c24 04       		.uleb128 0x4
 16757 1c25 00000000 		.4byte	0
 16758 1c29 00000000 		.4byte	0
ARM GAS  /var/folders/cs/83z6p2tj4w57s6p2rt8nwfp00000gn/T//cc3yBana.s 			page 333


 16759              	.LVUS77:
 16760 1c2d 0E       		.uleb128 .LVU699
 16761 1c2e 00       		.uleb128 .LVU729
 16762 1c2f 01       		.uleb128 .LVU764
 16763 1c30 00       		.uleb128 .LVU769
 16764              	.LLST77:
 16765 1c31 96000000 		.4byte	.LVL171
 16766 1c35 01010000 		.4byte	.LVL179-1
 16767 1c39 0200     		.2byte	0x2
 16768 1c3b 90       		.byte	0x90
 16769 1c3c 4F       		.uleb128 0x4f
 16770 1c3d 40020000 		.4byte	.LVL190
 16771 1c41 52020000 		.4byte	.LVL191
 16772 1c45 0200     		.2byte	0x2
 16773 1c47 90       		.byte	0x90
 16774 1c48 41       		.uleb128 0x41
 16775 1c49 00000000 		.4byte	0
 16776 1c4d 00000000 		.4byte	0
 16777              	.LVUS78:
 16778 1c51 14       		.uleb128 .LVU705
 16779 1c52 01       		.uleb128 .LVU721
 16780 1c53 01       		.uleb128 .LVU721
 16781 1c54 00       		.uleb128 0
 16782              	.LLST78:
 16783 1c55 96000000 		.4byte	.LVL171
 16784 1c59 DA000000 		.4byte	.LVL175
 16785 1c5d 0600     		.2byte	0x6
 16786 1c5f 9E       		.byte	0x9e
 16787 1c60 04       		.uleb128 0x4
 16788 1c61 00000000 		.4byte	0
 16789 1c65 DA000000 		.4byte	.LVL175
 16790 1c69 CC020000 		.4byte	.LFE33
 16791 1c6d 0200     		.2byte	0x2
 16792 1c6f 90       		.byte	0x90
 16793 1c70 51       		.uleb128 0x51
 16794 1c71 00000000 		.4byte	0
 16795 1c75 00000000 		.4byte	0
 16796              	.LVUS81:
 16797 1c79 00       		.uleb128 .LVU715
 16798 1c7a 00       		.uleb128 .LVU720
 16799              	.LLST81:
 16800 1c7b D4000000 		.4byte	.LVL174
 16801 1c7f DA000000 		.4byte	.LVL175
 16802 1c83 0200     		.2byte	0x2
 16803 1c85 90       		.byte	0x90
 16804 1c86 51       		.uleb128 0x51
 16805 1c87 00000000 		.4byte	0
 16806 1c8b 00000000 		.4byte	0
 16807              	.LVUS82:
 16808 1c8f 00       		.uleb128 .LVU720
 16809 1c90 01       		.uleb128 .LVU721
 16810              	.LLST82:
 16811 1c91 DA000000 		.4byte	.LVL175
 16812 1c95 DA000000 		.4byte	.LVL175
 16813 1c99 0200     		.2byte	0x2
 16814 1c9b 90       		.byte	0x90
 16815 1c9c 51       		.uleb128 0x51
ARM GAS  /var/folders/cs/83z6p2tj4w57s6p2rt8nwfp00000gn/T//cc3yBana.s 			page 334


 16816 1c9d 00000000 		.4byte	0
 16817 1ca1 00000000 		.4byte	0
 16818              	.LVUS83:
 16819 1ca5 00       		.uleb128 .LVU758
 16820 1ca6 00       		.uleb128 .LVU763
 16821              	.LLST83:
 16822 1ca7 3A020000 		.4byte	.LVL189
 16823 1cab 40020000 		.4byte	.LVL190
 16824 1caf 0200     		.2byte	0x2
 16825 1cb1 90       		.byte	0x90
 16826 1cb2 41       		.uleb128 0x41
 16827 1cb3 00000000 		.4byte	0
 16828 1cb7 00000000 		.4byte	0
 16829              	.LVUS84:
 16830 1cbb 00       		.uleb128 .LVU763
 16831 1cbc 01       		.uleb128 .LVU764
 16832              	.LLST84:
 16833 1cbd 40020000 		.4byte	.LVL190
 16834 1cc1 40020000 		.4byte	.LVL190
 16835 1cc5 0200     		.2byte	0x2
 16836 1cc7 90       		.byte	0x90
 16837 1cc8 41       		.uleb128 0x41
 16838 1cc9 00000000 		.4byte	0
 16839 1ccd 00000000 		.4byte	0
 16840              	.LVUS79:
 16841 1cd1 07       		.uleb128 .LVU692
 16842 1cd2 09       		.uleb128 .LVU694
 16843              	.LLST79:
 16844 1cd3 96000000 		.4byte	.LVL171
 16845 1cd7 96000000 		.4byte	.LVL171
 16846 1cdb 0600     		.2byte	0x6
 16847 1cdd F2       		.byte	0xf2
 16848 1cde 4C1B0000 		.4byte	.Ldebug_info0+6988
 16849 1ce2 00       		.sleb128 0
 16850 1ce3 00000000 		.4byte	0
 16851 1ce7 00000000 		.4byte	0
 16852              	.LVUS80:
 16853 1ceb 0D       		.uleb128 .LVU698
 16854 1cec 0E       		.uleb128 .LVU699
 16855              	.LLST80:
 16856 1ced 96000000 		.4byte	.LVL171
 16857 1cf1 96000000 		.4byte	.LVL171
 16858 1cf5 0200     		.2byte	0x2
 16859 1cf7 90       		.byte	0x90
 16860 1cf8 4F       		.uleb128 0x4f
 16861 1cf9 00000000 		.4byte	0
 16862 1cfd 00000000 		.4byte	0
 16863              	.LLST0:
 16864 1d01 00000000 		.4byte	.LFB32
 16865 1d05 0A000000 		.4byte	.LCFI0
 16866 1d09 0200     		.2byte	0x2
 16867 1d0b 7D       		.byte	0x7d
 16868 1d0c 00       		.sleb128 0
 16869 1d0d 0A000000 		.4byte	.LCFI0
 16870 1d11 80000000 		.4byte	.LFE32
 16871 1d15 0200     		.2byte	0x2
 16872 1d17 7D       		.byte	0x7d
ARM GAS  /var/folders/cs/83z6p2tj4w57s6p2rt8nwfp00000gn/T//cc3yBana.s 			page 335


 16873 1d18 18       		.sleb128 24
 16874 1d19 00000000 		.4byte	0
 16875 1d1d 00000000 		.4byte	0
 16876              	.LVUS1:
 16877 1d21 00       		.uleb128 0
 16878 1d22 00       		.uleb128 .LVU11
 16879 1d23 00       		.uleb128 .LVU11
 16880 1d24 00       		.uleb128 .LVU41
 16881 1d25 00       		.uleb128 .LVU41
 16882 1d26 00       		.uleb128 0
 16883              	.LLST1:
 16884 1d27 00000000 		.4byte	.LVL0
 16885 1d2b 18000000 		.4byte	.LVL2
 16886 1d2f 0100     		.2byte	0x1
 16887 1d31 50       		.byte	0x50
 16888 1d32 18000000 		.4byte	.LVL2
 16889 1d36 74000000 		.4byte	.LVL14
 16890 1d3a 0100     		.2byte	0x1
 16891 1d3c 56       		.byte	0x56
 16892 1d3d 74000000 		.4byte	.LVL14
 16893 1d41 80000000 		.4byte	.LFE32
 16894 1d45 0400     		.2byte	0x4
 16895 1d47 F3       		.byte	0xf3
 16896 1d48 01       		.uleb128 0x1
 16897 1d49 50       		.byte	0x50
 16898 1d4a 9F       		.byte	0x9f
 16899 1d4b 00000000 		.4byte	0
 16900 1d4f 00000000 		.4byte	0
 16901              	.LVUS2:
 16902 1d53 00       		.uleb128 0
 16903 1d54 00       		.uleb128 .LVU14
 16904 1d55 00       		.uleb128 .LVU14
 16905 1d56 00       		.uleb128 .LVU41
 16906 1d57 00       		.uleb128 .LVU41
 16907 1d58 00       		.uleb128 0
 16908              	.LLST2:
 16909 1d59 00000000 		.4byte	.LVL0
 16910 1d5d 22000000 		.4byte	.LVL3
 16911 1d61 0100     		.2byte	0x1
 16912 1d63 51       		.byte	0x51
 16913 1d64 22000000 		.4byte	.LVL3
 16914 1d68 74000000 		.4byte	.LVL14
 16915 1d6c 0100     		.2byte	0x1
 16916 1d6e 57       		.byte	0x57
 16917 1d6f 74000000 		.4byte	.LVL14
 16918 1d73 80000000 		.4byte	.LFE32
 16919 1d77 0400     		.2byte	0x4
 16920 1d79 F3       		.byte	0xf3
 16921 1d7a 01       		.uleb128 0x1
 16922 1d7b 51       		.byte	0x51
 16923 1d7c 9F       		.byte	0x9f
 16924 1d7d 00000000 		.4byte	0
 16925 1d81 00000000 		.4byte	0
 16926              	.LVUS3:
 16927 1d85 00       		.uleb128 0
 16928 1d86 00       		.uleb128 .LVU14
 16929 1d87 00       		.uleb128 .LVU14
ARM GAS  /var/folders/cs/83z6p2tj4w57s6p2rt8nwfp00000gn/T//cc3yBana.s 			page 336


 16930 1d88 00       		.uleb128 .LVU19
 16931 1d89 00       		.uleb128 .LVU19
 16932 1d8a 01       		.uleb128 .LVU25
 16933 1d8b 01       		.uleb128 .LVU25
 16934 1d8c 00       		.uleb128 .LVU38
 16935 1d8d 00       		.uleb128 .LVU38
 16936 1d8e 00       		.uleb128 .LVU41
 16937 1d8f 00       		.uleb128 .LVU41
 16938 1d90 00       		.uleb128 .LVU42
 16939 1d91 00       		.uleb128 .LVU42
 16940 1d92 00       		.uleb128 0
 16941              	.LLST3:
 16942 1d93 00000000 		.4byte	.LVL0
 16943 1d97 22000000 		.4byte	.LVL3
 16944 1d9b 0100     		.2byte	0x1
 16945 1d9d 52       		.byte	0x52
 16946 1d9e 22000000 		.4byte	.LVL3
 16947 1da2 2C000000 		.4byte	.LVL4
 16948 1da6 0100     		.2byte	0x1
 16949 1da8 54       		.byte	0x54
 16950 1da9 2C000000 		.4byte	.LVL4
 16951 1dad 46000000 		.4byte	.LVL7
 16952 1db1 0300     		.2byte	0x3
 16953 1db3 74       		.byte	0x74
 16954 1db4 7F       		.sleb128 -1
 16955 1db5 9F       		.byte	0x9f
 16956 1db6 46000000 		.4byte	.LVL7
 16957 1dba 70000000 		.4byte	.LVL13
 16958 1dbe 0100     		.2byte	0x1
 16959 1dc0 54       		.byte	0x54
 16960 1dc1 70000000 		.4byte	.LVL13
 16961 1dc5 74000000 		.4byte	.LVL14
 16962 1dc9 0100     		.2byte	0x1
 16963 1dcb 50       		.byte	0x50
 16964 1dcc 74000000 		.4byte	.LVL14
 16965 1dd0 7A000000 		.4byte	.LVL15
 16966 1dd4 0100     		.2byte	0x1
 16967 1dd6 54       		.byte	0x54
 16968 1dd7 7A000000 		.4byte	.LVL15
 16969 1ddb 80000000 		.4byte	.LFE32
 16970 1ddf 0100     		.2byte	0x1
 16971 1de1 50       		.byte	0x50
 16972 1de2 00000000 		.4byte	0
 16973 1de6 00000000 		.4byte	0
 16974              	.LVUS4:
 16975 1dea 00       		.uleb128 .LVU9
 16976 1deb 00       		.uleb128 .LVU32
 16977              	.LLST4:
 16978 1dec 10000000 		.4byte	.LVL1
 16979 1df0 5C000000 		.4byte	.LVL10
 16980 1df4 0100     		.2byte	0x1
 16981 1df6 55       		.byte	0x55
 16982 1df7 00000000 		.4byte	0
 16983 1dfb 00000000 		.4byte	0
 16984              	.LVUS5:
 16985 1dff 00       		.uleb128 .LVU11
 16986 1e00 00       		.uleb128 .LVU22
ARM GAS  /var/folders/cs/83z6p2tj4w57s6p2rt8nwfp00000gn/T//cc3yBana.s 			page 337


 16987 1e01 00       		.uleb128 .LVU24
 16988 1e02 00       		.uleb128 .LVU32
 16989              	.LLST5:
 16990 1e03 18000000 		.4byte	.LVL2
 16991 1e07 3A000000 		.4byte	.LVL5
 16992 1e0b 0100     		.2byte	0x1
 16993 1e0d 50       		.byte	0x50
 16994 1e0e 46000000 		.4byte	.LVL7
 16995 1e12 5C000000 		.4byte	.LVL10
 16996 1e16 0100     		.2byte	0x1
 16997 1e18 50       		.byte	0x50
 16998 1e19 00000000 		.4byte	0
 16999 1e1d 00000000 		.4byte	0
 17000              	.LVUS6:
 17001 1e21 00       		.uleb128 .LVU29
 17002 1e22 00       		.uleb128 .LVU32
 17003 1e23 00       		.uleb128 .LVU32
 17004 1e24 00       		.uleb128 .LVU35
 17005 1e25 00       		.uleb128 .LVU35
 17006 1e26 01       		.uleb128 .LVU39
 17007 1e27 01       		.uleb128 .LVU39
 17008 1e28 00       		.uleb128 .LVU41
 17009              	.LLST6:
 17010 1e29 54000000 		.4byte	.LVL9
 17011 1e2d 5C000000 		.4byte	.LVL10
 17012 1e31 0200     		.2byte	0x2
 17013 1e33 30       		.byte	0x30
 17014 1e34 9F       		.byte	0x9f
 17015 1e35 5C000000 		.4byte	.LVL10
 17016 1e39 68000000 		.4byte	.LVL11
 17017 1e3d 0100     		.2byte	0x1
 17018 1e3f 55       		.byte	0x55
 17019 1e40 68000000 		.4byte	.LVL11
 17020 1e44 70000000 		.4byte	.LVL13
 17021 1e48 0300     		.2byte	0x3
 17022 1e4a 75       		.byte	0x75
 17023 1e4b 7F       		.sleb128 -1
 17024 1e4c 9F       		.byte	0x9f
 17025 1e4d 70000000 		.4byte	.LVL13
 17026 1e51 74000000 		.4byte	.LVL14
 17027 1e55 0100     		.2byte	0x1
 17028 1e57 55       		.byte	0x55
 17029 1e58 00000000 		.4byte	0
 17030 1e5c 00000000 		.4byte	0
 17031              	.LVUS69:
 17032 1e60 00       		.uleb128 0
 17033 1e61 00       		.uleb128 .LVU651
 17034 1e62 00       		.uleb128 .LVU651
 17035 1e63 00       		.uleb128 0
 17036              	.LLST69:
 17037 1e64 00000000 		.4byte	.LVL162
 17038 1e68 02000000 		.4byte	.LVL163
 17039 1e6c 0100     		.2byte	0x1
 17040 1e6e 50       		.byte	0x50
 17041 1e6f 02000000 		.4byte	.LVL163
 17042 1e73 04000000 		.4byte	.LFE31
 17043 1e77 0400     		.2byte	0x4
ARM GAS  /var/folders/cs/83z6p2tj4w57s6p2rt8nwfp00000gn/T//cc3yBana.s 			page 338


 17044 1e79 70       		.byte	0x70
 17045 1e7a B07F     		.sleb128 -80
 17046 1e7c 9F       		.byte	0x9f
 17047 1e7d 00000000 		.4byte	0
 17048 1e81 00000000 		.4byte	0
 17049              	.LLST65:
 17050 1e85 00000000 		.4byte	.LFB28
 17051 1e89 02000000 		.4byte	.LCFI31
 17052 1e8d 0200     		.2byte	0x2
 17053 1e8f 7D       		.byte	0x7d
 17054 1e90 00       		.sleb128 0
 17055 1e91 02000000 		.4byte	.LCFI31
 17056 1e95 1A000000 		.4byte	.LCFI32
 17057 1e99 0200     		.2byte	0x2
 17058 1e9b 7D       		.byte	0x7d
 17059 1e9c 08       		.sleb128 8
 17060 1e9d 1A000000 		.4byte	.LCFI32
 17061 1ea1 24000000 		.4byte	.LFE28
 17062 1ea5 0200     		.2byte	0x2
 17063 1ea7 7D       		.byte	0x7d
 17064 1ea8 00       		.sleb128 0
 17065 1ea9 00000000 		.4byte	0
 17066 1ead 00000000 		.4byte	0
 17067              	.LVUS66:
 17068 1eb1 00       		.uleb128 0
 17069 1eb2 00       		.uleb128 .LVU628
 17070 1eb3 00       		.uleb128 .LVU628
 17071 1eb4 00       		.uleb128 .LVU632
 17072 1eb5 00       		.uleb128 .LVU632
 17073 1eb6 00       		.uleb128 .LVU633
 17074 1eb7 00       		.uleb128 .LVU633
 17075 1eb8 00       		.uleb128 0
 17076              	.LLST66:
 17077 1eb9 00000000 		.4byte	.LVL154
 17078 1ebd 08000000 		.4byte	.LVL155
 17079 1ec1 0100     		.2byte	0x1
 17080 1ec3 50       		.byte	0x50
 17081 1ec4 08000000 		.4byte	.LVL155
 17082 1ec8 1A000000 		.4byte	.LVL157
 17083 1ecc 0100     		.2byte	0x1
 17084 1ece 54       		.byte	0x54
 17085 1ecf 1A000000 		.4byte	.LVL157
 17086 1ed3 1D000000 		.4byte	.LVL158-1
 17087 1ed7 0400     		.2byte	0x4
 17088 1ed9 70       		.byte	0x70
 17089 1eda B07F     		.sleb128 -80
 17090 1edc 9F       		.byte	0x9f
 17091 1edd 1D000000 		.4byte	.LVL158-1
 17092 1ee1 24000000 		.4byte	.LFE28
 17093 1ee5 0400     		.2byte	0x4
 17094 1ee7 F3       		.byte	0xf3
 17095 1ee8 01       		.uleb128 0x1
 17096 1ee9 50       		.byte	0x50
 17097 1eea 9F       		.byte	0x9f
 17098 1eeb 00000000 		.4byte	0
 17099 1eef 00000000 		.4byte	0
 17100              	.LLST85:
ARM GAS  /var/folders/cs/83z6p2tj4w57s6p2rt8nwfp00000gn/T//cc3yBana.s 			page 339


 17101 1ef3 00000000 		.4byte	.LFB27
 17102 1ef7 08000000 		.4byte	.LCFI40
 17103 1efb 0200     		.2byte	0x2
 17104 1efd 7D       		.byte	0x7d
 17105 1efe 00       		.sleb128 0
 17106 1eff 08000000 		.4byte	.LCFI40
 17107 1f03 22000000 		.4byte	.LCFI41
 17108 1f07 0200     		.2byte	0x2
 17109 1f09 7D       		.byte	0x7d
 17110 1f0a 14       		.sleb128 20
 17111 1f0b 22000000 		.4byte	.LCFI41
 17112 1f0f 28000000 		.4byte	.LCFI42
 17113 1f13 0200     		.2byte	0x2
 17114 1f15 7D       		.byte	0x7d
 17115 1f16 1C       		.sleb128 28
 17116 1f17 28000000 		.4byte	.LCFI42
 17117 1f1b 9C000000 		.4byte	.LCFI43
 17118 1f1f 0300     		.2byte	0x3
 17119 1f21 7D       		.byte	0x7d
 17120 1f22 C800     		.sleb128 72
 17121 1f24 9C000000 		.4byte	.LCFI43
 17122 1f28 A0000000 		.4byte	.LCFI44
 17123 1f2c 0200     		.2byte	0x2
 17124 1f2e 7D       		.byte	0x7d
 17125 1f2f 1C       		.sleb128 28
 17126 1f30 A0000000 		.4byte	.LCFI44
 17127 1f34 B0000000 		.4byte	.LFE27
 17128 1f38 0200     		.2byte	0x2
 17129 1f3a 7D       		.byte	0x7d
 17130 1f3b 14       		.sleb128 20
 17131 1f3c 00000000 		.4byte	0
 17132 1f40 00000000 		.4byte	0
 17133              	.LVUS86:
 17134 1f44 00       		.uleb128 0
 17135 1f45 00       		.uleb128 .LVU794
 17136 1f46 00       		.uleb128 .LVU794
 17137 1f47 00       		.uleb128 .LVU839
 17138 1f48 00       		.uleb128 .LVU839
 17139 1f49 00       		.uleb128 0
 17140              	.LLST86:
 17141 1f4a 00000000 		.4byte	.LVL198
 17142 1f4e 49000000 		.4byte	.LVL199-1
 17143 1f52 0100     		.2byte	0x1
 17144 1f54 50       		.byte	0x50
 17145 1f55 49000000 		.4byte	.LVL199-1
 17146 1f59 A2000000 		.4byte	.LVL205
 17147 1f5d 0100     		.2byte	0x1
 17148 1f5f 54       		.byte	0x54
 17149 1f60 A2000000 		.4byte	.LVL205
 17150 1f64 B0000000 		.4byte	.LFE27
 17151 1f68 0400     		.2byte	0x4
 17152 1f6a F3       		.byte	0xf3
 17153 1f6b 01       		.uleb128 0x1
 17154 1f6c 50       		.byte	0x50
 17155 1f6d 9F       		.byte	0x9f
 17156 1f6e 00000000 		.4byte	0
 17157 1f72 00000000 		.4byte	0
ARM GAS  /var/folders/cs/83z6p2tj4w57s6p2rt8nwfp00000gn/T//cc3yBana.s 			page 340


 17158              	.LVUS87:
 17159 1f76 07       		.uleb128 .LVU810
 17160 1f77 00       		.uleb128 .LVU813
 17161 1f78 00       		.uleb128 .LVU813
 17162 1f79 00       		.uleb128 .LVU814
 17163 1f7a 00       		.uleb128 .LVU814
 17164 1f7b 00       		.uleb128 .LVU815
 17165 1f7c 00       		.uleb128 .LVU815
 17166 1f7d 00       		.uleb128 .LVU835
 17167              	.LLST87:
 17168 1f7e 5E000000 		.4byte	.LVL200
 17169 1f82 62000000 		.4byte	.LVL201
 17170 1f86 0100     		.2byte	0x1
 17171 1f88 55       		.byte	0x55
 17172 1f89 62000000 		.4byte	.LVL201
 17173 1f8d 66000000 		.4byte	.LVL202
 17174 1f91 0300     		.2byte	0x3
 17175 1f93 75       		.byte	0x75
 17176 1f94 70       		.sleb128 -16
 17177 1f95 9F       		.byte	0x9f
 17178 1f96 66000000 		.4byte	.LVL202
 17179 1f9a 6C000000 		.4byte	.LVL203
 17180 1f9e 0300     		.2byte	0x3
 17181 1fa0 75       		.byte	0x75
 17182 1fa1 60       		.sleb128 -32
 17183 1fa2 9F       		.byte	0x9f
 17184 1fa3 6C000000 		.4byte	.LVL203
 17185 1fa7 9A000000 		.4byte	.LVL204
 17186 1fab 0300     		.2byte	0x3
 17187 1fad 75       		.byte	0x75
 17188 1fae 50       		.sleb128 -48
 17189 1faf 9F       		.byte	0x9f
 17190 1fb0 00000000 		.4byte	0
 17191 1fb4 00000000 		.4byte	0
 17192              	.LVUS88:
 17193 1fb8 01       		.uleb128 .LVU795
 17194 1fb9 00       		.uleb128 .LVU803
 17195              	.LLST88:
 17196 1fba 4A000000 		.4byte	.LVL199
 17197 1fbe 5E000000 		.4byte	.LVL200
 17198 1fc2 1800     		.2byte	0x18
 17199 1fc4 9E       		.byte	0x9e
 17200 1fc5 04       		.uleb128 0x4
 17201 1fc6 00000000 		.4byte	0
 17202 1fca 93       		.byte	0x93
 17203 1fcb 04       		.uleb128 0x4
 17204 1fcc 9E       		.byte	0x9e
 17205 1fcd 04       		.uleb128 0x4
 17206 1fce 000080BF 		.4byte	0xbf800000
 17207 1fd2 93       		.byte	0x93
 17208 1fd3 04       		.uleb128 0x4
 17209 1fd4 9E       		.byte	0x9e
 17210 1fd5 04       		.uleb128 0x4
 17211 1fd6 00000000 		.4byte	0
 17212 1fda 93       		.byte	0x93
 17213 1fdb 04       		.uleb128 0x4
 17214 1fdc 00000000 		.4byte	0
ARM GAS  /var/folders/cs/83z6p2tj4w57s6p2rt8nwfp00000gn/T//cc3yBana.s 			page 341


 17215 1fe0 00000000 		.4byte	0
 17216              	.LVUS89:
 17217 1fe4 01       		.uleb128 .LVU795
 17218 1fe5 00       		.uleb128 .LVU803
 17219              	.LLST89:
 17220 1fe6 4A000000 		.4byte	.LVL199
 17221 1fea 5E000000 		.4byte	.LVL200
 17222 1fee 0100     		.2byte	0x1
 17223 1ff0 54       		.byte	0x54
 17224 1ff1 00000000 		.4byte	0
 17225 1ff5 00000000 		.4byte	0
 17226              	.LVUS90:
 17227 1ff9 02       		.uleb128 .LVU805
 17228 1ffa 05       		.uleb128 .LVU808
 17229              	.LLST90:
 17230 1ffb 5E000000 		.4byte	.LVL200
 17231 1fff 5E000000 		.4byte	.LVL200
 17232 2003 0600     		.2byte	0x6
 17233 2005 9E       		.byte	0x9e
 17234 2006 04       		.uleb128 0x4
 17235 2007 0000003F 		.4byte	0x3f000000
 17236 200b 00000000 		.4byte	0
 17237 200f 00000000 		.4byte	0
 17238              	.LVUS92:
 17239 2013 02       		.uleb128 .LVU805
 17240 2014 05       		.uleb128 .LVU808
 17241              	.LLST92:
 17242 2015 5E000000 		.4byte	.LVL200
 17243 2019 5E000000 		.4byte	.LVL200
 17244 201d 0100     		.2byte	0x1
 17245 201f 54       		.byte	0x54
 17246 2020 00000000 		.4byte	0
 17247 2024 00000000 		.4byte	0
 17248              	.LLST44:
 17249 2028 00000000 		.4byte	.LFB26
 17250 202c 02000000 		.4byte	.LCFI22
 17251 2030 0200     		.2byte	0x2
 17252 2032 7D       		.byte	0x7d
 17253 2033 00       		.sleb128 0
 17254 2034 02000000 		.4byte	.LCFI22
 17255 2038 06000000 		.4byte	.LCFI23
 17256 203c 0200     		.2byte	0x2
 17257 203e 7D       		.byte	0x7d
 17258 203f 08       		.sleb128 8
 17259 2040 06000000 		.4byte	.LCFI23
 17260 2044 14000000 		.4byte	.LCFI24
 17261 2048 0200     		.2byte	0x2
 17262 204a 7D       		.byte	0x7d
 17263 204b 2C       		.sleb128 44
 17264 204c 14000000 		.4byte	.LCFI24
 17265 2050 16000000 		.4byte	.LCFI25
 17266 2054 0300     		.2byte	0x3
 17267 2056 7D       		.byte	0x7d
 17268 2057 C400     		.sleb128 68
 17269 2059 16000000 		.4byte	.LCFI25
 17270 205d 30030000 		.4byte	.LCFI26
 17271 2061 0300     		.2byte	0x3
ARM GAS  /var/folders/cs/83z6p2tj4w57s6p2rt8nwfp00000gn/T//cc3yBana.s 			page 342


 17272 2063 7D       		.byte	0x7d
 17273 2064 8802     		.sleb128 264
 17274 2066 30030000 		.4byte	.LCFI26
 17275 206a 34030000 		.4byte	.LCFI27
 17276 206e 0300     		.2byte	0x3
 17277 2070 7D       		.byte	0x7d
 17278 2071 C400     		.sleb128 68
 17279 2073 34030000 		.4byte	.LCFI27
 17280 2077 38030000 		.4byte	.LCFI28
 17281 207b 0200     		.2byte	0x2
 17282 207d 7D       		.byte	0x7d
 17283 207e 2C       		.sleb128 44
 17284 207f 38030000 		.4byte	.LCFI28
 17285 2083 3A030000 		.4byte	.LCFI29
 17286 2087 0200     		.2byte	0x2
 17287 2089 7D       		.byte	0x7d
 17288 208a 08       		.sleb128 8
 17289 208b 3A030000 		.4byte	.LCFI29
 17290 208f 50030000 		.4byte	.LCFI30
 17291 2093 0200     		.2byte	0x2
 17292 2095 7D       		.byte	0x7d
 17293 2096 00       		.sleb128 0
 17294 2097 50030000 		.4byte	.LCFI30
 17295 209b 4A040000 		.4byte	.LFE26
 17296 209f 0300     		.2byte	0x3
 17297 20a1 7D       		.byte	0x7d
 17298 20a2 8802     		.sleb128 264
 17299 20a4 00000000 		.4byte	0
 17300 20a8 00000000 		.4byte	0
 17301              	.LVUS45:
 17302 20ac 00       		.uleb128 0
 17303 20ad 00       		.uleb128 .LVU395
 17304 20ae 00       		.uleb128 .LVU395
 17305 20af 00       		.uleb128 .LVU560
 17306 20b0 00       		.uleb128 .LVU560
 17307 20b1 00       		.uleb128 .LVU561
 17308 20b2 00       		.uleb128 .LVU561
 17309 20b3 00       		.uleb128 0
 17310              	.LLST45:
 17311 20b4 00000000 		.4byte	.LVL104
 17312 20b8 1C000000 		.4byte	.LVL106
 17313 20bc 0100     		.2byte	0x1
 17314 20be 50       		.byte	0x50
 17315 20bf 1C000000 		.4byte	.LVL106
 17316 20c3 38030000 		.4byte	.LVL138
 17317 20c7 0100     		.2byte	0x1
 17318 20c9 56       		.byte	0x56
 17319 20ca 38030000 		.4byte	.LVL138
 17320 20ce 50030000 		.4byte	.LVL139
 17321 20d2 0400     		.2byte	0x4
 17322 20d4 F3       		.byte	0xf3
 17323 20d5 01       		.uleb128 0x1
 17324 20d6 50       		.byte	0x50
 17325 20d7 9F       		.byte	0x9f
 17326 20d8 50030000 		.4byte	.LVL139
 17327 20dc 4A040000 		.4byte	.LFE26
 17328 20e0 0100     		.2byte	0x1
ARM GAS  /var/folders/cs/83z6p2tj4w57s6p2rt8nwfp00000gn/T//cc3yBana.s 			page 343


 17329 20e2 56       		.byte	0x56
 17330 20e3 00000000 		.4byte	0
 17331 20e7 00000000 		.4byte	0
 17332              	.LVUS46:
 17333 20eb 00       		.uleb128 0
 17334 20ec 00       		.uleb128 .LVU391
 17335 20ed 00       		.uleb128 .LVU391
 17336 20ee 00       		.uleb128 .LVU422
 17337 20ef 00       		.uleb128 .LVU422
 17338 20f0 00       		.uleb128 .LVU556
 17339 20f1 00       		.uleb128 .LVU556
 17340 20f2 00       		.uleb128 .LVU559
 17341 20f3 00       		.uleb128 .LVU559
 17342 20f4 00       		.uleb128 .LVU561
 17343 20f5 00       		.uleb128 .LVU561
 17344 20f6 00       		.uleb128 .LVU605
 17345 20f7 00       		.uleb128 .LVU605
 17346 20f8 00       		.uleb128 .LVU614
 17347 20f9 00       		.uleb128 .LVU614
 17348 20fa 00       		.uleb128 0
 17349              	.LLST46:
 17350 20fb 00000000 		.4byte	.LVL104
 17351 20ff 0C000000 		.4byte	.LVL105
 17352 2103 0100     		.2byte	0x1
 17353 2105 51       		.byte	0x51
 17354 2106 0C000000 		.4byte	.LVL105
 17355 210a AC000000 		.4byte	.LVL112
 17356 210e 0100     		.2byte	0x1
 17357 2110 5A       		.byte	0x5a
 17358 2111 AC000000 		.4byte	.LVL112
 17359 2115 26030000 		.4byte	.LVL136
 17360 2119 0300     		.2byte	0x3
 17361 211b 91       		.byte	0x91
 17362 211c D47E     		.sleb128 -172
 17363 211e 26030000 		.4byte	.LVL136
 17364 2122 2E030000 		.4byte	.LVL137
 17365 2126 0100     		.2byte	0x1
 17366 2128 5A       		.byte	0x5a
 17367 2129 2E030000 		.4byte	.LVL137
 17368 212d 50030000 		.4byte	.LVL139
 17369 2131 0400     		.2byte	0x4
 17370 2133 F3       		.byte	0xf3
 17371 2134 01       		.uleb128 0x1
 17372 2135 51       		.byte	0x51
 17373 2136 9F       		.byte	0x9f
 17374 2137 50030000 		.4byte	.LVL139
 17375 213b D8030000 		.4byte	.LVL147
 17376 213f 0300     		.2byte	0x3
 17377 2141 91       		.byte	0x91
 17378 2142 D47E     		.sleb128 -172
 17379 2144 D8030000 		.4byte	.LVL147
 17380 2148 26040000 		.4byte	.LVL151
 17381 214c 0400     		.2byte	0x4
 17382 214e F3       		.byte	0xf3
 17383 214f 01       		.uleb128 0x1
 17384 2150 51       		.byte	0x51
 17385 2151 9F       		.byte	0x9f
ARM GAS  /var/folders/cs/83z6p2tj4w57s6p2rt8nwfp00000gn/T//cc3yBana.s 			page 344


 17386 2152 26040000 		.4byte	.LVL151
 17387 2156 4A040000 		.4byte	.LFE26
 17388 215a 0300     		.2byte	0x3
 17389 215c 91       		.byte	0x91
 17390 215d D47E     		.sleb128 -172
 17391 215f 00000000 		.4byte	0
 17392 2163 00000000 		.4byte	0
 17393              	.LVUS47:
 17394 2167 00       		.uleb128 0
 17395 2168 00       		.uleb128 .LVU408
 17396 2169 00       		.uleb128 .LVU408
 17397 216a 00       		.uleb128 .LVU556
 17398 216b 00       		.uleb128 .LVU556
 17399 216c 00       		.uleb128 .LVU559
 17400 216d 00       		.uleb128 .LVU561
 17401 216e 00       		.uleb128 0
 17402              	.LLST47:
 17403 216f 00000000 		.4byte	.LVL104
 17404 2173 73000000 		.4byte	.LVL109-1
 17405 2177 0200     		.2byte	0x2
 17406 2179 90       		.byte	0x90
 17407 217a 40       		.uleb128 0x40
 17408 217b 73000000 		.4byte	.LVL109-1
 17409 217f 26030000 		.4byte	.LVL136
 17410 2183 0200     		.2byte	0x2
 17411 2185 90       		.byte	0x90
 17412 2186 51       		.uleb128 0x51
 17413 2187 26030000 		.4byte	.LVL136
 17414 218b 2E030000 		.4byte	.LVL137
 17415 218f 0200     		.2byte	0x2
 17416 2191 90       		.byte	0x90
 17417 2192 40       		.uleb128 0x40
 17418 2193 50030000 		.4byte	.LVL139
 17419 2197 4A040000 		.4byte	.LFE26
 17420 219b 0200     		.2byte	0x2
 17421 219d 90       		.byte	0x90
 17422 219e 51       		.uleb128 0x51
 17423 219f 00000000 		.4byte	0
 17424 21a3 00000000 		.4byte	0
 17425              	.LVUS48:
 17426 21a7 00       		.uleb128 0
 17427 21a8 00       		.uleb128 .LVU417
 17428 21a9 00       		.uleb128 .LVU417
 17429 21aa 00       		.uleb128 .LVU556
 17430 21ab 00       		.uleb128 .LVU556
 17431 21ac 00       		.uleb128 .LVU559
 17432 21ad 00       		.uleb128 .LVU561
 17433 21ae 00       		.uleb128 0
 17434              	.LLST48:
 17435 21af 00000000 		.4byte	.LVL104
 17436 21b3 8E000000 		.4byte	.LVL111
 17437 21b7 0200     		.2byte	0x2
 17438 21b9 91       		.byte	0x91
 17439 21ba 2C       		.sleb128 44
 17440 21bb 8E000000 		.4byte	.LVL111
 17441 21bf 26030000 		.4byte	.LVL136
 17442 21c3 0300     		.2byte	0x3
ARM GAS  /var/folders/cs/83z6p2tj4w57s6p2rt8nwfp00000gn/T//cc3yBana.s 			page 345


 17443 21c5 91       		.byte	0x91
 17444 21c6 CC7E     		.sleb128 -180
 17445 21c8 26030000 		.4byte	.LVL136
 17446 21cc 2E030000 		.4byte	.LVL137
 17447 21d0 0200     		.2byte	0x2
 17448 21d2 91       		.byte	0x91
 17449 21d3 2C       		.sleb128 44
 17450 21d4 50030000 		.4byte	.LVL139
 17451 21d8 4A040000 		.4byte	.LFE26
 17452 21dc 0300     		.2byte	0x3
 17453 21de 91       		.byte	0x91
 17454 21df CC7E     		.sleb128 -180
 17455 21e1 00000000 		.4byte	0
 17456 21e5 00000000 		.4byte	0
 17457              	.LVUS49:
 17458 21e9 00       		.uleb128 0
 17459 21ea 01       		.uleb128 .LVU400
 17460 21eb 01       		.uleb128 .LVU400
 17461 21ec 01       		.uleb128 .LVU406
 17462 21ed 00       		.uleb128 .LVU556
 17463 21ee 00       		.uleb128 .LVU559
 17464              	.LLST49:
 17465 21ef 00000000 		.4byte	.LVL104
 17466 21f3 30000000 		.4byte	.LVL107
 17467 21f7 0200     		.2byte	0x2
 17468 21f9 91       		.byte	0x91
 17469 21fa 30       		.sleb128 48
 17470 21fb 30000000 		.4byte	.LVL107
 17471 21ff 3C000000 		.4byte	.LVL108
 17472 2203 0200     		.2byte	0x2
 17473 2205 31       		.byte	0x31
 17474 2206 9F       		.byte	0x9f
 17475 2207 26030000 		.4byte	.LVL136
 17476 220b 2E030000 		.4byte	.LVL137
 17477 220f 0200     		.2byte	0x2
 17478 2211 91       		.byte	0x91
 17479 2212 20       		.sleb128 32
 17480 2213 00000000 		.4byte	0
 17481 2217 00000000 		.4byte	0
 17482              	.LVUS50:
 17483 221b 01       		.uleb128 .LVU418
 17484 221c 00       		.uleb128 .LVU556
 17485 221d 00       		.uleb128 .LVU561
 17486 221e 00       		.uleb128 .LVU608
 17487 221f 00       		.uleb128 .LVU614
 17488 2220 00       		.uleb128 0
 17489              	.LLST50:
 17490 2221 8E000000 		.4byte	.LVL111
 17491 2225 26030000 		.4byte	.LVL136
 17492 2229 0100     		.2byte	0x1
 17493 222b 54       		.byte	0x54
 17494 222c 50030000 		.4byte	.LVL139
 17495 2230 EA030000 		.4byte	.LVL148
 17496 2234 0100     		.2byte	0x1
 17497 2236 54       		.byte	0x54
 17498 2237 26040000 		.4byte	.LVL151
 17499 223b 4A040000 		.4byte	.LFE26
ARM GAS  /var/folders/cs/83z6p2tj4w57s6p2rt8nwfp00000gn/T//cc3yBana.s 			page 346


 17500 223f 0100     		.2byte	0x1
 17501 2241 54       		.byte	0x54
 17502 2242 00000000 		.4byte	0
 17503 2246 00000000 		.4byte	0
 17504              	.LVUS51:
 17505 224a 00       		.uleb128 .LVU605
 17506 224b 00       		.uleb128 .LVU608
 17507 224c 00       		.uleb128 .LVU608
 17508 224d 00       		.uleb128 .LVU610
 17509 224e 00       		.uleb128 .LVU610
 17510 224f 01       		.uleb128 .LVU612
 17511 2250 01       		.uleb128 .LVU612
 17512 2251 00       		.uleb128 .LVU614
 17513              	.LLST51:
 17514 2252 D8030000 		.4byte	.LVL147
 17515 2256 EA030000 		.4byte	.LVL148
 17516 225a 0200     		.2byte	0x2
 17517 225c 30       		.byte	0x30
 17518 225d 9F       		.byte	0x9f
 17519 225e EA030000 		.4byte	.LVL148
 17520 2262 FC030000 		.4byte	.LVL149
 17521 2266 0100     		.2byte	0x1
 17522 2268 57       		.byte	0x57
 17523 2269 FC030000 		.4byte	.LVL149
 17524 226d 1C040000 		.4byte	.LVL150
 17525 2271 0300     		.2byte	0x3
 17526 2273 77       		.byte	0x77
 17527 2274 7F       		.sleb128 -1
 17528 2275 9F       		.byte	0x9f
 17529 2276 1C040000 		.4byte	.LVL150
 17530 227a 26040000 		.4byte	.LVL151
 17531 227e 0100     		.2byte	0x1
 17532 2280 57       		.byte	0x57
 17533 2281 00000000 		.4byte	0
 17534 2285 00000000 		.4byte	0
 17535              	.LVUS52:
 17536 2289 00       		.uleb128 .LVU427
 17537 228a 00       		.uleb128 .LVU435
 17538 228b 00       		.uleb128 .LVU435
 17539 228c 00       		.uleb128 .LVU556
 17540 228d 00       		.uleb128 .LVU561
 17541 228e 00       		.uleb128 .LVU596
 17542 228f 00       		.uleb128 .LVU614
 17543 2290 00       		.uleb128 0
 17544              	.LLST52:
 17545 2291 D2000000 		.4byte	.LVL113
 17546 2295 E0000000 		.4byte	.LVL114
 17547 2299 1300     		.2byte	0x13
 17548 229b 9D       		.byte	0x9d
 17549 229c 01       		.uleb128 0x1
 17550 229d 00       		.uleb128 0
 17551 229e 7C       		.byte	0x7c
 17552 229f 50       		.sleb128 -48
 17553 22a0 94       		.byte	0x94
 17554 22a1 01       		.byte	0x1
 17555 22a2 32       		.byte	0x32
 17556 22a3 24       		.byte	0x24
ARM GAS  /var/folders/cs/83z6p2tj4w57s6p2rt8nwfp00000gn/T//cc3yBana.s 			page 347


 17557 22a4 33       		.byte	0x33
 17558 22a5 25       		.byte	0x25
 17559 22a6 9F       		.byte	0x9f
 17560 22a7 9D       		.byte	0x9d
 17561 22a8 01       		.uleb128 0x1
 17562 22a9 00       		.uleb128 0
 17563 22aa 9D       		.byte	0x9d
 17564 22ab 9E03     		.uleb128 0x19e
 17565 22ad 00       		.uleb128 0
 17566 22ae E0000000 		.4byte	.LVL114
 17567 22b2 26030000 		.4byte	.LVL136
 17568 22b6 1300     		.2byte	0x13
 17569 22b8 9D       		.byte	0x9d
 17570 22b9 01       		.uleb128 0x1
 17571 22ba 00       		.uleb128 0
 17572 22bb 91       		.byte	0x91
 17573 22bc 68       		.sleb128 -24
 17574 22bd 94       		.byte	0x94
 17575 22be 01       		.byte	0x1
 17576 22bf 32       		.byte	0x32
 17577 22c0 24       		.byte	0x24
 17578 22c1 33       		.byte	0x33
 17579 22c2 25       		.byte	0x25
 17580 22c3 9F       		.byte	0x9f
 17581 22c4 9D       		.byte	0x9d
 17582 22c5 01       		.uleb128 0x1
 17583 22c6 00       		.uleb128 0
 17584 22c7 9D       		.byte	0x9d
 17585 22c8 9E03     		.uleb128 0x19e
 17586 22ca 00       		.uleb128 0
 17587 22cb 50030000 		.4byte	.LVL139
 17588 22cf B6030000 		.4byte	.LVL145
 17589 22d3 1300     		.2byte	0x13
 17590 22d5 9D       		.byte	0x9d
 17591 22d6 01       		.uleb128 0x1
 17592 22d7 00       		.uleb128 0
 17593 22d8 91       		.byte	0x91
 17594 22d9 68       		.sleb128 -24
 17595 22da 94       		.byte	0x94
 17596 22db 01       		.byte	0x1
 17597 22dc 32       		.byte	0x32
 17598 22dd 24       		.byte	0x24
 17599 22de 33       		.byte	0x33
 17600 22df 25       		.byte	0x25
 17601 22e0 9F       		.byte	0x9f
 17602 22e1 9D       		.byte	0x9d
 17603 22e2 01       		.uleb128 0x1
 17604 22e3 00       		.uleb128 0
 17605 22e4 9D       		.byte	0x9d
 17606 22e5 9E03     		.uleb128 0x19e
 17607 22e7 00       		.uleb128 0
 17608 22e8 26040000 		.4byte	.LVL151
 17609 22ec 4A040000 		.4byte	.LFE26
 17610 22f0 1300     		.2byte	0x13
 17611 22f2 9D       		.byte	0x9d
 17612 22f3 01       		.uleb128 0x1
 17613 22f4 00       		.uleb128 0
ARM GAS  /var/folders/cs/83z6p2tj4w57s6p2rt8nwfp00000gn/T//cc3yBana.s 			page 348


 17614 22f5 91       		.byte	0x91
 17615 22f6 68       		.sleb128 -24
 17616 22f7 94       		.byte	0x94
 17617 22f8 01       		.byte	0x1
 17618 22f9 32       		.byte	0x32
 17619 22fa 24       		.byte	0x24
 17620 22fb 33       		.byte	0x33
 17621 22fc 25       		.byte	0x25
 17622 22fd 9F       		.byte	0x9f
 17623 22fe 9D       		.byte	0x9d
 17624 22ff 01       		.uleb128 0x1
 17625 2300 00       		.uleb128 0
 17626 2301 9D       		.byte	0x9d
 17627 2302 9E03     		.uleb128 0x19e
 17628 2304 00       		.uleb128 0
 17629 2305 00000000 		.4byte	0
 17630 2309 00000000 		.4byte	0
 17631              	.LVUS53:
 17632 230d 02       		.uleb128 .LVU424
 17633 230e 00       		.uleb128 .LVU556
 17634 230f 00       		.uleb128 .LVU561
 17635 2310 00       		.uleb128 .LVU596
 17636 2311 00       		.uleb128 .LVU614
 17637 2312 00       		.uleb128 0
 17638              	.LLST53:
 17639 2313 AC000000 		.4byte	.LVL112
 17640 2317 26030000 		.4byte	.LVL136
 17641 231b 0100     		.2byte	0x1
 17642 231d 54       		.byte	0x54
 17643 231e 50030000 		.4byte	.LVL139
 17644 2322 B6030000 		.4byte	.LVL145
 17645 2326 0100     		.2byte	0x1
 17646 2328 54       		.byte	0x54
 17647 2329 26040000 		.4byte	.LVL151
 17648 232d 4A040000 		.4byte	.LFE26
 17649 2331 0100     		.2byte	0x1
 17650 2333 54       		.byte	0x54
 17651 2334 00000000 		.4byte	0
 17652 2338 00000000 		.4byte	0
 17653              	.LVUS54:
 17654 233c 03       		.uleb128 .LVU430
 17655 233d 00       		.uleb128 .LVU491
 17656 233e 00       		.uleb128 .LVU614
 17657 233f 00       		.uleb128 0
 17658              	.LLST54:
 17659 2340 D2000000 		.4byte	.LVL113
 17660 2344 36020000 		.4byte	.LVL125
 17661 2348 0100     		.2byte	0x1
 17662 234a 59       		.byte	0x59
 17663 234b 26040000 		.4byte	.LVL151
 17664 234f 4A040000 		.4byte	.LFE26
 17665 2353 0100     		.2byte	0x1
 17666 2355 59       		.byte	0x59
 17667 2356 00000000 		.4byte	0
 17668 235a 00000000 		.4byte	0
 17669              	.LVUS55:
 17670 235e 05       		.uleb128 .LVU432
ARM GAS  /var/folders/cs/83z6p2tj4w57s6p2rt8nwfp00000gn/T//cc3yBana.s 			page 349


 17671 235f 00       		.uleb128 .LVU435
 17672 2360 00       		.uleb128 .LVU435
 17673 2361 00       		.uleb128 .LVU438
 17674 2362 00       		.uleb128 .LVU438
 17675 2363 01       		.uleb128 .LVU449
 17676 2364 01       		.uleb128 .LVU449
 17677 2365 00       		.uleb128 .LVU451
 17678 2366 01       		.uleb128 .LVU485
 17679 2367 00       		.uleb128 .LVU491
 17680 2368 00       		.uleb128 .LVU491
 17681 2369 00       		.uleb128 .LVU494
 17682 236a 00       		.uleb128 .LVU494
 17683 236b 02       		.uleb128 .LVU516
 17684 236c 02       		.uleb128 .LVU516
 17685 236d 00       		.uleb128 .LVU519
 17686 236e 00       		.uleb128 .LVU519
 17687 236f 00       		.uleb128 .LVU522
 17688 2370 01       		.uleb128 .LVU568
 17689 2371 00       		.uleb128 .LVU572
 17690 2372 00       		.uleb128 .LVU572
 17691 2373 00       		.uleb128 .LVU575
 17692 2374 00       		.uleb128 .LVU575
 17693 2375 01       		.uleb128 .LVU594
 17694 2376 01       		.uleb128 .LVU594
 17695 2377 00       		.uleb128 .LVU596
 17696 2378 01       		.uleb128 .LVU617
 17697 2379 00       		.uleb128 0
 17698              	.LLST55:
 17699 237a D2000000 		.4byte	.LVL113
 17700 237e E0000000 		.4byte	.LVL114
 17701 2382 0200     		.2byte	0x2
 17702 2384 30       		.byte	0x30
 17703 2385 9F       		.byte	0x9f
 17704 2386 E0000000 		.4byte	.LVL114
 17705 238a F4000000 		.4byte	.LVL115
 17706 238e 0100     		.2byte	0x1
 17707 2390 5B       		.byte	0x5b
 17708 2391 F4000000 		.4byte	.LVL115
 17709 2395 76010000 		.4byte	.LVL118
 17710 2399 0300     		.2byte	0x3
 17711 239b 7B       		.byte	0x7b
 17712 239c 7F       		.sleb128 -1
 17713 239d 9F       		.byte	0x9f
 17714 239e 76010000 		.4byte	.LVL118
 17715 23a2 78010000 		.4byte	.LVL119
 17716 23a6 0100     		.2byte	0x1
 17717 23a8 5B       		.byte	0x5b
 17718 23a9 20020000 		.4byte	.LVL124
 17719 23ad 36020000 		.4byte	.LVL125
 17720 23b1 0200     		.2byte	0x2
 17721 23b3 30       		.byte	0x30
 17722 23b4 9F       		.byte	0x9f
 17723 23b5 36020000 		.4byte	.LVL125
 17724 23b9 3E020000 		.4byte	.LVL126
 17725 23bd 0100     		.2byte	0x1
 17726 23bf 5B       		.byte	0x5b
 17727 23c0 3E020000 		.4byte	.LVL126
ARM GAS  /var/folders/cs/83z6p2tj4w57s6p2rt8nwfp00000gn/T//cc3yBana.s 			page 350


 17728 23c4 94020000 		.4byte	.LVL131
 17729 23c8 0300     		.2byte	0x3
 17730 23ca 7B       		.byte	0x7b
 17731 23cb 7F       		.sleb128 -1
 17732 23cc 9F       		.byte	0x9f
 17733 23cd 94020000 		.4byte	.LVL131
 17734 23d1 9E020000 		.4byte	.LVL132
 17735 23d5 0100     		.2byte	0x1
 17736 23d7 5B       		.byte	0x5b
 17737 23d8 9E020000 		.4byte	.LVL132
 17738 23dc B0020000 		.4byte	.LVL133
 17739 23e0 0200     		.2byte	0x2
 17740 23e2 30       		.byte	0x30
 17741 23e3 9F       		.byte	0x9f
 17742 23e4 5E030000 		.4byte	.LVL140
 17743 23e8 70030000 		.4byte	.LVL141
 17744 23ec 0200     		.2byte	0x2
 17745 23ee 30       		.byte	0x30
 17746 23ef 9F       		.byte	0x9f
 17747 23f0 70030000 		.4byte	.LVL141
 17748 23f4 74030000 		.4byte	.LVL142
 17749 23f8 0100     		.2byte	0x1
 17750 23fa 57       		.byte	0x57
 17751 23fb 74030000 		.4byte	.LVL142
 17752 23ff B4030000 		.4byte	.LVL144
 17753 2403 0300     		.2byte	0x3
 17754 2405 77       		.byte	0x77
 17755 2406 7F       		.sleb128 -1
 17756 2407 9F       		.byte	0x9f
 17757 2408 B4030000 		.4byte	.LVL144
 17758 240c B6030000 		.4byte	.LVL145
 17759 2410 0100     		.2byte	0x1
 17760 2412 57       		.byte	0x57
 17761 2413 30040000 		.4byte	.LVL152
 17762 2417 4A040000 		.4byte	.LFE26
 17763 241b 0200     		.2byte	0x2
 17764 241d 30       		.byte	0x30
 17765 241e 9F       		.byte	0x9f
 17766 241f 00000000 		.4byte	0
 17767 2423 00000000 		.4byte	0
 17768              	.LVUS56:
 17769 2427 04       		.uleb128 .LVU470
 17770 2428 00       		.uleb128 .LVU491
 17771 2429 00       		.uleb128 .LVU491
 17772 242a 00       		.uleb128 .LVU519
 17773 242b 00       		.uleb128 .LVU614
 17774 242c 00       		.uleb128 .LVU622
 17775              	.LLST56:
 17776 242d 02020000 		.4byte	.LVL122
 17777 2431 36020000 		.4byte	.LVL125
 17778 2435 0600     		.2byte	0x6
 17779 2437 9E       		.byte	0x9e
 17780 2438 04       		.uleb128 0x4
 17781 2439 1668A965 		.4byte	0x65a96816
 17782 243d 36020000 		.4byte	.LVL125
 17783 2441 9E020000 		.4byte	.LVL132
 17784 2445 0200     		.2byte	0x2
ARM GAS  /var/folders/cs/83z6p2tj4w57s6p2rt8nwfp00000gn/T//cc3yBana.s 			page 351


 17785 2447 90       		.byte	0x90
 17786 2448 54       		.uleb128 0x54
 17787 2449 26040000 		.4byte	.LVL151
 17788 244d 42040000 		.4byte	.LVL153
 17789 2451 0600     		.2byte	0x6
 17790 2453 9E       		.byte	0x9e
 17791 2454 04       		.uleb128 0x4
 17792 2455 1668A965 		.4byte	0x65a96816
 17793 2459 00000000 		.4byte	0
 17794 245d 00000000 		.4byte	0
 17795              	.LVUS57:
 17796 2461 05       		.uleb128 .LVU471
 17797 2462 00       		.uleb128 .LVU491
 17798 2463 00       		.uleb128 .LVU491
 17799 2464 00       		.uleb128 .LVU519
 17800 2465 00       		.uleb128 .LVU614
 17801 2466 00       		.uleb128 .LVU622
 17802              	.LLST57:
 17803 2467 02020000 		.4byte	.LVL122
 17804 246b 36020000 		.4byte	.LVL125
 17805 246f 0600     		.2byte	0x6
 17806 2471 9E       		.byte	0x9e
 17807 2472 04       		.uleb128 0x4
 17808 2473 00000000 		.4byte	0
 17809 2477 36020000 		.4byte	.LVL125
 17810 247b 9E020000 		.4byte	.LVL132
 17811 247f 0200     		.2byte	0x2
 17812 2481 90       		.byte	0x90
 17813 2482 50       		.uleb128 0x50
 17814 2483 26040000 		.4byte	.LVL151
 17815 2487 42040000 		.4byte	.LVL153
 17816 248b 0600     		.2byte	0x6
 17817 248d 9E       		.byte	0x9e
 17818 248e 04       		.uleb128 0x4
 17819 248f 00000000 		.4byte	0
 17820 2493 00000000 		.4byte	0
 17821 2497 00000000 		.4byte	0
 17822              	.LVUS58:
 17823 249b 06       		.uleb128 .LVU472
 17824 249c 00       		.uleb128 .LVU556
 17825 249d 00       		.uleb128 .LVU561
 17826 249e 00       		.uleb128 .LVU572
 17827 249f 00       		.uleb128 .LVU614
 17828 24a0 00       		.uleb128 .LVU622
 17829              	.LLST58:
 17830 24a1 02020000 		.4byte	.LVL122
 17831 24a5 26030000 		.4byte	.LVL136
 17832 24a9 0100     		.2byte	0x1
 17833 24ab 57       		.byte	0x57
 17834 24ac 50030000 		.4byte	.LVL139
 17835 24b0 70030000 		.4byte	.LVL141
 17836 24b4 0100     		.2byte	0x1
 17837 24b6 57       		.byte	0x57
 17838 24b7 26040000 		.4byte	.LVL151
 17839 24bb 42040000 		.4byte	.LVL153
 17840 24bf 0100     		.2byte	0x1
 17841 24c1 57       		.byte	0x57
ARM GAS  /var/folders/cs/83z6p2tj4w57s6p2rt8nwfp00000gn/T//cc3yBana.s 			page 352


 17842 24c2 00000000 		.4byte	0
 17843 24c6 00000000 		.4byte	0
 17844              	.LVUS59:
 17845 24ca 00       		.uleb128 .LVU522
 17846 24cb 00       		.uleb128 .LVU540
 17847 24cc 00       		.uleb128 .LVU540
 17848 24cd 00       		.uleb128 .LVU543
 17849 24ce 01       		.uleb128 .LVU544
 17850 24cf 00       		.uleb128 .LVU556
 17851              	.LLST59:
 17852 24d0 B0020000 		.4byte	.LVL133
 17853 24d4 EA020000 		.4byte	.LVL134
 17854 24d8 0100     		.2byte	0x1
 17855 24da 53       		.byte	0x53
 17856 24db EA020000 		.4byte	.LVL134
 17857 24df FC020000 		.4byte	.LVL135
 17858 24e3 0300     		.2byte	0x3
 17859 24e5 73       		.byte	0x73
 17860 24e6 74       		.sleb128 -12
 17861 24e7 9F       		.byte	0x9f
 17862 24e8 FC020000 		.4byte	.LVL135
 17863 24ec 26030000 		.4byte	.LVL136
 17864 24f0 0100     		.2byte	0x1
 17865 24f2 53       		.byte	0x53
 17866 24f3 00000000 		.4byte	0
 17867 24f7 00000000 		.4byte	0
 17868              	.LVUS60:
 17869 24fb 00       		.uleb128 .LVU567
 17870 24fc 00       		.uleb128 .LVU596
 17871              	.LLST60:
 17872 24fd 5E030000 		.4byte	.LVL140
 17873 2501 B6030000 		.4byte	.LVL145
 17874 2505 0200     		.2byte	0x2
 17875 2507 90       		.byte	0x90
 17876 2508 50       		.uleb128 0x50
 17877 2509 00000000 		.4byte	0
 17878 250d 00000000 		.4byte	0
 17879              	.LVUS61:
 17880 2511 00       		.uleb128 .LVU576
 17881 2512 00       		.uleb128 .LVU596
 17882              	.LLST61:
 17883 2513 76030000 		.4byte	.LVL143
 17884 2517 B6030000 		.4byte	.LVL145
 17885 251b 0100     		.2byte	0x1
 17886 251d 52       		.byte	0x52
 17887 251e 00000000 		.4byte	0
 17888 2522 00000000 		.4byte	0
 17889              	.LVUS62:
 17890 2526 01       		.uleb128 .LVU577
 17891 2527 00       		.uleb128 .LVU596
 17892              	.LLST62:
 17893 2528 76030000 		.4byte	.LVL143
 17894 252c B6030000 		.4byte	.LVL145
 17895 2530 2B00     		.2byte	0x2b
 17896 2532 72       		.byte	0x72
 17897 2533 00       		.sleb128 0
 17898 2534 06       		.byte	0x6
ARM GAS  /var/folders/cs/83z6p2tj4w57s6p2rt8nwfp00000gn/T//cc3yBana.s 			page 353


 17899 2535 23       		.byte	0x23
 17900 2536 08       		.uleb128 0x8
 17901 2537 F6       		.byte	0xf6
 17902 2538 04       		.byte	0x4
 17903 2539 29       		.uleb128 0x29
 17904 253a 72       		.byte	0x72
 17905 253b 04       		.sleb128 4
 17906 253c 06       		.byte	0x6
 17907 253d 23       		.byte	0x23
 17908 253e 08       		.uleb128 0x8
 17909 253f F6       		.byte	0xf6
 17910 2540 04       		.byte	0x4
 17911 2541 29       		.uleb128 0x29
 17912 2542 22       		.byte	0x22
 17913 2543 72       		.byte	0x72
 17914 2544 08       		.sleb128 8
 17915 2545 06       		.byte	0x6
 17916 2546 23       		.byte	0x23
 17917 2547 08       		.uleb128 0x8
 17918 2548 F6       		.byte	0xf6
 17919 2549 04       		.byte	0x4
 17920 254a 29       		.uleb128 0x29
 17921 254b 22       		.byte	0x22
 17922 254c F5       		.byte	0xf5
 17923 254d 54       		.uleb128 0x54
 17924 254e 29       		.uleb128 0x29
 17925 254f 1C       		.byte	0x1c
 17926 2550 F5       		.byte	0xf5
 17927 2551 4E       		.uleb128 0x4e
 17928 2552 29       		.uleb128 0x29
 17929 2553 1E       		.byte	0x1e
 17930 2554 F5       		.byte	0xf5
 17931 2555 50       		.uleb128 0x50
 17932 2556 29       		.uleb128 0x29
 17933 2557 1B       		.byte	0x1b
 17934 2558 F7       		.byte	0xf7
 17935 2559 30       		.uleb128 0x30
 17936 255a F7       		.byte	0xf7
 17937 255b 00       		.uleb128 0
 17938 255c 9F       		.byte	0x9f
 17939 255d 00000000 		.4byte	0
 17940 2561 00000000 		.4byte	0
 17941              	.LVUS63:
 17942 2565 00       		.uleb128 .LVU495
 17943 2566 00       		.uleb128 .LVU519
 17944              	.LLST63:
 17945 2567 42020000 		.4byte	.LVL127
 17946 256b 9E020000 		.4byte	.LVL132
 17947 256f 0100     		.2byte	0x1
 17948 2571 55       		.byte	0x55
 17949 2572 00000000 		.4byte	0
 17950 2576 00000000 		.4byte	0
 17951              	.LVUS64:
 17952 257a 00       		.uleb128 .LVU508
 17953 257b 00       		.uleb128 .LVU514
 17954              	.LLST64:
 17955 257c 7A020000 		.4byte	.LVL129
ARM GAS  /var/folders/cs/83z6p2tj4w57s6p2rt8nwfp00000gn/T//cc3yBana.s 			page 354


 17956 2580 94020000 		.4byte	.LVL131
 17957 2584 0200     		.2byte	0x2
 17958 2586 90       		.byte	0x90
 17959 2587 4F       		.uleb128 0x4f
 17960 2588 00000000 		.4byte	0
 17961 258c 00000000 		.4byte	0
 17962              	.LLST40:
 17963 2590 00000000 		.4byte	.LFB24
 17964 2594 02000000 		.4byte	.LCFI21
 17965 2598 0200     		.2byte	0x2
 17966 259a 7D       		.byte	0x7d
 17967 259b 00       		.sleb128 0
 17968 259c 02000000 		.4byte	.LCFI21
 17969 25a0 74000000 		.4byte	.LFE24
 17970 25a4 0200     		.2byte	0x2
 17971 25a6 7D       		.byte	0x7d
 17972 25a7 18       		.sleb128 24
 17973 25a8 00000000 		.4byte	0
 17974 25ac 00000000 		.4byte	0
 17975              	.LVUS41:
 17976 25b0 00       		.uleb128 0
 17977 25b1 00       		.uleb128 .LVU347
 17978 25b2 00       		.uleb128 .LVU347
 17979 25b3 00       		.uleb128 .LVU386
 17980 25b4 00       		.uleb128 .LVU386
 17981 25b5 00       		.uleb128 0
 17982              	.LLST41:
 17983 25b6 00000000 		.4byte	.LVL95
 17984 25ba 0E000000 		.4byte	.LVL96
 17985 25be 0100     		.2byte	0x1
 17986 25c0 50       		.byte	0x50
 17987 25c1 0E000000 		.4byte	.LVL96
 17988 25c5 6C000000 		.4byte	.LVL103
 17989 25c9 0100     		.2byte	0x1
 17990 25cb 57       		.byte	0x57
 17991 25cc 6C000000 		.4byte	.LVL103
 17992 25d0 74000000 		.4byte	.LFE24
 17993 25d4 0200     		.2byte	0x2
 17994 25d6 70       		.byte	0x70
 17995 25d7 34       		.sleb128 52
 17996 25d8 00000000 		.4byte	0
 17997 25dc 00000000 		.4byte	0
 17998              	.LVUS42:
 17999 25e0 00       		.uleb128 .LVU353
 18000 25e1 00       		.uleb128 .LVU359
 18001 25e2 00       		.uleb128 .LVU359
 18002 25e3 00       		.uleb128 .LVU360
 18003 25e4 00       		.uleb128 .LVU360
 18004 25e5 00       		.uleb128 .LVU386
 18005 25e6 00       		.uleb128 .LVU386
 18006 25e7 00       		.uleb128 0
 18007              	.LLST42:
 18008 25e8 20000000 		.4byte	.LVL99
 18009 25ec 2C000000 		.4byte	.LVL100
 18010 25f0 0100     		.2byte	0x1
 18011 25f2 50       		.byte	0x50
 18012 25f3 2C000000 		.4byte	.LVL100
ARM GAS  /var/folders/cs/83z6p2tj4w57s6p2rt8nwfp00000gn/T//cc3yBana.s 			page 355


 18013 25f7 2E000000 		.4byte	.LVL101
 18014 25fb 0100     		.2byte	0x1
 18015 25fd 54       		.byte	0x54
 18016 25fe 2E000000 		.4byte	.LVL101
 18017 2602 6C000000 		.4byte	.LVL103
 18018 2606 0100     		.2byte	0x1
 18019 2608 56       		.byte	0x56
 18020 2609 6C000000 		.4byte	.LVL103
 18021 260d 74000000 		.4byte	.LFE24
 18022 2611 0100     		.2byte	0x1
 18023 2613 50       		.byte	0x50
 18024 2614 00000000 		.4byte	0
 18025 2618 00000000 		.4byte	0
 18026              	.LVUS43:
 18027 261c 01       		.uleb128 .LVU354
 18028 261d 00       		.uleb128 .LVU359
 18029 261e 00       		.uleb128 .LVU359
 18030 261f 00       		.uleb128 .LVU360
 18031 2620 00       		.uleb128 .LVU360
 18032 2621 00       		.uleb128 .LVU377
 18033              	.LLST43:
 18034 2622 20000000 		.4byte	.LVL99
 18035 2626 2C000000 		.4byte	.LVL100
 18036 262a 0100     		.2byte	0x1
 18037 262c 50       		.byte	0x50
 18038 262d 2C000000 		.4byte	.LVL100
 18039 2631 2E000000 		.4byte	.LVL101
 18040 2635 0100     		.2byte	0x1
 18041 2637 54       		.byte	0x54
 18042 2638 2E000000 		.4byte	.LVL101
 18043 263c 5C000000 		.4byte	.LVL102
 18044 2640 0100     		.2byte	0x1
 18045 2642 56       		.byte	0x56
 18046 2643 00000000 		.4byte	0
 18047 2647 00000000 		.4byte	0
 18048              	.LLST37:
 18049 264b 00000000 		.4byte	.LFB23
 18050 264f 02000000 		.4byte	.LCFI18
 18051 2653 0200     		.2byte	0x2
 18052 2655 7D       		.byte	0x7d
 18053 2656 00       		.sleb128 0
 18054 2657 02000000 		.4byte	.LCFI18
 18055 265b 06000000 		.4byte	.LCFI19
 18056 265f 0200     		.2byte	0x2
 18057 2661 7D       		.byte	0x7d
 18058 2662 14       		.sleb128 20
 18059 2663 06000000 		.4byte	.LCFI19
 18060 2667 2E000000 		.4byte	.LCFI20
 18061 266b 0300     		.2byte	0x3
 18062 266d 7D       		.byte	0x7d
 18063 266e C800     		.sleb128 72
 18064 2670 2E000000 		.4byte	.LCFI20
 18065 2674 34000000 		.4byte	.LFE23
 18066 2678 0200     		.2byte	0x2
 18067 267a 7D       		.byte	0x7d
 18068 267b 14       		.sleb128 20
 18069 267c 00000000 		.4byte	0
ARM GAS  /var/folders/cs/83z6p2tj4w57s6p2rt8nwfp00000gn/T//cc3yBana.s 			page 356


 18070 2680 00000000 		.4byte	0
 18071              	.LVUS38:
 18072 2684 00       		.uleb128 0
 18073 2685 00       		.uleb128 .LVU337
 18074 2686 00       		.uleb128 .LVU337
 18075 2687 00       		.uleb128 .LVU339
 18076 2688 00       		.uleb128 .LVU339
 18077 2689 00       		.uleb128 0
 18078              	.LLST38:
 18079 268a 00000000 		.4byte	.LVL91
 18080 268e 12000000 		.4byte	.LVL92
 18081 2692 0100     		.2byte	0x1
 18082 2694 50       		.byte	0x50
 18083 2695 12000000 		.4byte	.LVL92
 18084 2699 30000000 		.4byte	.LVL94
 18085 269d 0100     		.2byte	0x1
 18086 269f 57       		.byte	0x57
 18087 26a0 30000000 		.4byte	.LVL94
 18088 26a4 34000000 		.4byte	.LFE23
 18089 26a8 0400     		.2byte	0x4
 18090 26aa F3       		.byte	0xf3
 18091 26ab 01       		.uleb128 0x1
 18092 26ac 50       		.byte	0x50
 18093 26ad 9F       		.byte	0x9f
 18094 26ae 00000000 		.4byte	0
 18095 26b2 00000000 		.4byte	0
 18096              	.LVUS39:
 18097 26b6 00       		.uleb128 0
 18098 26b7 00       		.uleb128 .LVU337
 18099 26b8 00       		.uleb128 .LVU337
 18100 26b9 00       		.uleb128 .LVU338
 18101 26ba 00       		.uleb128 .LVU338
 18102 26bb 00       		.uleb128 0
 18103              	.LLST39:
 18104 26bc 00000000 		.4byte	.LVL91
 18105 26c0 12000000 		.4byte	.LVL92
 18106 26c4 0100     		.2byte	0x1
 18107 26c6 51       		.byte	0x51
 18108 26c7 12000000 		.4byte	.LVL92
 18109 26cb 2B000000 		.4byte	.LVL93-1
 18110 26cf 0100     		.2byte	0x1
 18111 26d1 5C       		.byte	0x5c
 18112 26d2 2B000000 		.4byte	.LVL93-1
 18113 26d6 34000000 		.4byte	.LFE23
 18114 26da 0400     		.2byte	0x4
 18115 26dc F3       		.byte	0xf3
 18116 26dd 01       		.uleb128 0x1
 18117 26de 51       		.byte	0x51
 18118 26df 9F       		.byte	0x9f
 18119 26e0 00000000 		.4byte	0
 18120 26e4 00000000 		.4byte	0
 18121              	.LLST34:
 18122 26e8 00000000 		.4byte	.LFB22
 18123 26ec 04000000 		.4byte	.LCFI15
 18124 26f0 0200     		.2byte	0x2
 18125 26f2 7D       		.byte	0x7d
 18126 26f3 00       		.sleb128 0
ARM GAS  /var/folders/cs/83z6p2tj4w57s6p2rt8nwfp00000gn/T//cc3yBana.s 			page 357


 18127 26f4 04000000 		.4byte	.LCFI15
 18128 26f8 06000000 		.4byte	.LCFI16
 18129 26fc 0200     		.2byte	0x2
 18130 26fe 7D       		.byte	0x7d
 18131 26ff 18       		.sleb128 24
 18132 2700 06000000 		.4byte	.LCFI16
 18133 2704 40000000 		.4byte	.LCFI17
 18134 2708 0300     		.2byte	0x3
 18135 270a 7D       		.byte	0x7d
 18136 270b 9001     		.sleb128 144
 18137 270d 40000000 		.4byte	.LCFI17
 18138 2711 44000000 		.4byte	.LFE22
 18139 2715 0200     		.2byte	0x2
 18140 2717 7D       		.byte	0x7d
 18141 2718 18       		.sleb128 24
 18142 2719 00000000 		.4byte	0
 18143 271d 00000000 		.4byte	0
 18144              	.LVUS35:
 18145 2721 00       		.uleb128 0
 18146 2722 00       		.uleb128 .LVU325
 18147 2723 00       		.uleb128 .LVU325
 18148 2724 00       		.uleb128 0
 18149              	.LLST35:
 18150 2725 00000000 		.4byte	.LVL87
 18151 2729 16000000 		.4byte	.LVL88
 18152 272d 0100     		.2byte	0x1
 18153 272f 50       		.byte	0x50
 18154 2730 16000000 		.4byte	.LVL88
 18155 2734 44000000 		.4byte	.LFE22
 18156 2738 0100     		.2byte	0x1
 18157 273a 57       		.byte	0x57
 18158 273b 00000000 		.4byte	0
 18159 273f 00000000 		.4byte	0
 18160              	.LVUS36:
 18161 2743 00       		.uleb128 0
 18162 2744 00       		.uleb128 .LVU327
 18163 2745 00       		.uleb128 .LVU327
 18164 2746 00       		.uleb128 0
 18165              	.LLST36:
 18166 2747 00000000 		.4byte	.LVL87
 18167 274b 21000000 		.4byte	.LVL89-1
 18168 274f 0100     		.2byte	0x1
 18169 2751 51       		.byte	0x51
 18170 2752 21000000 		.4byte	.LVL89-1
 18171 2756 44000000 		.4byte	.LFE22
 18172 275a 0100     		.2byte	0x1
 18173 275c 58       		.byte	0x58
 18174 275d 00000000 		.4byte	0
 18175 2761 00000000 		.4byte	0
 18176              	.LLST28:
 18177 2765 00000000 		.4byte	.LFB21
 18178 2769 02000000 		.4byte	.LCFI9
 18179 276d 0200     		.2byte	0x2
 18180 276f 7D       		.byte	0x7d
 18181 2770 00       		.sleb128 0
 18182 2771 02000000 		.4byte	.LCFI9
 18183 2775 06000000 		.4byte	.LCFI10
ARM GAS  /var/folders/cs/83z6p2tj4w57s6p2rt8nwfp00000gn/T//cc3yBana.s 			page 358


 18184 2779 0200     		.2byte	0x2
 18185 277b 7D       		.byte	0x7d
 18186 277c 08       		.sleb128 8
 18187 277d 06000000 		.4byte	.LCFI10
 18188 2781 08000000 		.4byte	.LCFI11
 18189 2785 0200     		.2byte	0x2
 18190 2787 7D       		.byte	0x7d
 18191 2788 2C       		.sleb128 44
 18192 2789 08000000 		.4byte	.LCFI11
 18193 278d 4C010000 		.4byte	.LCFI12
 18194 2791 0300     		.2byte	0x3
 18195 2793 7D       		.byte	0x7d
 18196 2794 E000     		.sleb128 96
 18197 2796 4C010000 		.4byte	.LCFI12
 18198 279a 50010000 		.4byte	.LCFI13
 18199 279e 0200     		.2byte	0x2
 18200 27a0 7D       		.byte	0x7d
 18201 27a1 2C       		.sleb128 44
 18202 27a2 50010000 		.4byte	.LCFI13
 18203 27a6 52010000 		.4byte	.LCFI14
 18204 27aa 0200     		.2byte	0x2
 18205 27ac 7D       		.byte	0x7d
 18206 27ad 08       		.sleb128 8
 18207 27ae 52010000 		.4byte	.LCFI14
 18208 27b2 58010000 		.4byte	.LFE21
 18209 27b6 0200     		.2byte	0x2
 18210 27b8 7D       		.byte	0x7d
 18211 27b9 00       		.sleb128 0
 18212 27ba 00000000 		.4byte	0
 18213 27be 00000000 		.4byte	0
 18214              	.LVUS29:
 18215 27c2 00       		.uleb128 0
 18216 27c3 00       		.uleb128 .LVU214
 18217 27c4 00       		.uleb128 .LVU214
 18218 27c5 00       		.uleb128 .LVU218
 18219 27c6 00       		.uleb128 .LVU218
 18220 27c7 00       		.uleb128 .LVU292
 18221 27c8 00       		.uleb128 .LVU292
 18222 27c9 00       		.uleb128 .LVU295
 18223 27ca 00       		.uleb128 .LVU295
 18224 27cb 00       		.uleb128 .LVU298
 18225 27cc 00       		.uleb128 .LVU298
 18226 27cd 00       		.uleb128 .LVU299
 18227 27ce 00       		.uleb128 .LVU299
 18228 27cf 00       		.uleb128 0
 18229              	.LLST29:
 18230 27d0 00000000 		.4byte	.LVL65
 18231 27d4 10000000 		.4byte	.LVL66
 18232 27d8 0100     		.2byte	0x1
 18233 27da 50       		.byte	0x50
 18234 27db 10000000 		.4byte	.LVL66
 18235 27df 1E000000 		.4byte	.LVL68
 18236 27e3 0100     		.2byte	0x1
 18237 27e5 55       		.byte	0x55
 18238 27e6 1E000000 		.4byte	.LVL68
 18239 27ea EC000000 		.4byte	.LVL82
 18240 27ee 0300     		.2byte	0x3
ARM GAS  /var/folders/cs/83z6p2tj4w57s6p2rt8nwfp00000gn/T//cc3yBana.s 			page 359


 18241 27f0 91       		.byte	0x91
 18242 27f1 BC7F     		.sleb128 -68
 18243 27f3 EC000000 		.4byte	.LVL82
 18244 27f7 00010000 		.4byte	.LVL83
 18245 27fb 0200     		.2byte	0x2
 18246 27fd 7E       		.byte	0x7e
 18247 27fe 44       		.sleb128 -60
 18248 27ff 00010000 		.4byte	.LVL83
 18249 2803 0A010000 		.4byte	.LVL84
 18250 2807 0300     		.2byte	0x3
 18251 2809 7E       		.byte	0x7e
 18252 280a B47F     		.sleb128 -76
 18253 280c 0A010000 		.4byte	.LVL84
 18254 2810 25010000 		.4byte	.LVL85-1
 18255 2814 0300     		.2byte	0x3
 18256 2816 7E       		.byte	0x7e
 18257 2817 A47F     		.sleb128 -92
 18258 2819 25010000 		.4byte	.LVL85-1
 18259 281d 58010000 		.4byte	.LFE21
 18260 2821 0300     		.2byte	0x3
 18261 2823 91       		.byte	0x91
 18262 2824 BC7F     		.sleb128 -68
 18263 2826 00000000 		.4byte	0
 18264 282a 00000000 		.4byte	0
 18265              	.LVUS30:
 18266 282e 00       		.uleb128 0
 18267 282f 00       		.uleb128 .LVU216
 18268 2830 00       		.uleb128 .LVU216
 18269 2831 00       		.uleb128 .LVU317
 18270 2832 00       		.uleb128 .LVU317
 18271 2833 00       		.uleb128 0
 18272              	.LLST30:
 18273 2834 00000000 		.4byte	.LVL65
 18274 2838 1A000000 		.4byte	.LVL67
 18275 283c 0100     		.2byte	0x1
 18276 283e 51       		.byte	0x51
 18277 283f 1A000000 		.4byte	.LVL67
 18278 2843 50010000 		.4byte	.LVL86
 18279 2847 0100     		.2byte	0x1
 18280 2849 57       		.byte	0x57
 18281 284a 50010000 		.4byte	.LVL86
 18282 284e 58010000 		.4byte	.LFE21
 18283 2852 0400     		.2byte	0x4
 18284 2854 F3       		.byte	0xf3
 18285 2855 01       		.uleb128 0x1
 18286 2856 51       		.byte	0x51
 18287 2857 9F       		.byte	0x9f
 18288 2858 00000000 		.4byte	0
 18289 285c 00000000 		.4byte	0
 18290              	.LVUS31:
 18291 2860 00       		.uleb128 .LVU221
 18292 2861 00       		.uleb128 .LVU317
 18293 2862 00       		.uleb128 .LVU317
 18294 2863 00       		.uleb128 0
 18295              	.LLST31:
 18296 2864 28000000 		.4byte	.LVL70
 18297 2868 50010000 		.4byte	.LVL86
ARM GAS  /var/folders/cs/83z6p2tj4w57s6p2rt8nwfp00000gn/T//cc3yBana.s 			page 360


 18298 286c 0100     		.2byte	0x1
 18299 286e 56       		.byte	0x56
 18300 286f 50010000 		.4byte	.LVL86
 18301 2873 58010000 		.4byte	.LFE21
 18302 2877 0600     		.2byte	0x6
 18303 2879 91       		.byte	0x91
 18304 287a BC7F     		.sleb128 -68
 18305 287c 06       		.byte	0x6
 18306 287d 23       		.byte	0x23
 18307 287e 44       		.uleb128 0x44
 18308 287f 00000000 		.4byte	0
 18309 2883 00000000 		.4byte	0
 18310              	.LVUS32:
 18311 2887 01       		.uleb128 .LVU243
 18312 2888 00       		.uleb128 .LVU247
 18313 2889 00       		.uleb128 .LVU247
 18314 288a 00       		.uleb128 .LVU254
 18315 288b 00       		.uleb128 .LVU254
 18316 288c 01       		.uleb128 .LVU287
 18317 288d 01       		.uleb128 .LVU287
 18318 288e 00       		.uleb128 .LVU289
 18319              	.LLST32:
 18320 288f 60000000 		.4byte	.LVL74
 18321 2893 6E000000 		.4byte	.LVL75
 18322 2897 0200     		.2byte	0x2
 18323 2899 30       		.byte	0x30
 18324 289a 9F       		.byte	0x9f
 18325 289b 6E000000 		.4byte	.LVL75
 18326 289f 7E000000 		.4byte	.LVL77
 18327 28a3 0100     		.2byte	0x1
 18328 28a5 59       		.byte	0x59
 18329 28a6 7E000000 		.4byte	.LVL77
 18330 28aa E2000000 		.4byte	.LVL80
 18331 28ae 0300     		.2byte	0x3
 18332 28b0 79       		.byte	0x79
 18333 28b1 7F       		.sleb128 -1
 18334 28b2 9F       		.byte	0x9f
 18335 28b3 E2000000 		.4byte	.LVL80
 18336 28b7 E4000000 		.4byte	.LVL81
 18337 28bb 0100     		.2byte	0x1
 18338 28bd 59       		.byte	0x59
 18339 28be 00000000 		.4byte	0
 18340 28c2 00000000 		.4byte	0
 18341              	.LVUS33:
 18342 28c6 00       		.uleb128 .LVU247
 18343 28c7 00       		.uleb128 .LVU248
 18344 28c8 00       		.uleb128 .LVU257
 18345 28c9 00       		.uleb128 .LVU289
 18346              	.LLST33:
 18347 28ca 6E000000 		.4byte	.LVL75
 18348 28ce 72000000 		.4byte	.LVL76
 18349 28d2 0100     		.2byte	0x1
 18350 28d4 54       		.byte	0x54
 18351 28d5 88000000 		.4byte	.LVL78
 18352 28d9 E4000000 		.4byte	.LVL81
 18353 28dd 0100     		.2byte	0x1
 18354 28df 54       		.byte	0x54
ARM GAS  /var/folders/cs/83z6p2tj4w57s6p2rt8nwfp00000gn/T//cc3yBana.s 			page 361


 18355 28e0 00000000 		.4byte	0
 18356 28e4 00000000 		.4byte	0
 18357              	.LVUS27:
 18358 28e8 00       		.uleb128 0
 18359 28e9 00       		.uleb128 .LVU206
 18360 28ea 00       		.uleb128 .LVU206
 18361 28eb 00       		.uleb128 0
 18362              	.LLST27:
 18363 28ec 00000000 		.4byte	.LVL63
 18364 28f0 04000000 		.4byte	.LVL64
 18365 28f4 0100     		.2byte	0x1
 18366 28f6 51       		.byte	0x51
 18367 28f7 04000000 		.4byte	.LVL64
 18368 28fb 1A000000 		.4byte	.LFE20
 18369 28ff 0400     		.2byte	0x4
 18370 2901 F3       		.byte	0xf3
 18371 2902 01       		.uleb128 0x1
 18372 2903 51       		.byte	0x51
 18373 2904 9F       		.byte	0x9f
 18374 2905 00000000 		.4byte	0
 18375 2909 00000000 		.4byte	0
 18376              	.LVUS26:
 18377 290d 00       		.uleb128 0
 18378 290e 00       		.uleb128 .LVU200
 18379 290f 00       		.uleb128 .LVU200
 18380 2910 00       		.uleb128 0
 18381              	.LLST26:
 18382 2911 00000000 		.4byte	.LVL61
 18383 2915 08000000 		.4byte	.LVL62
 18384 2919 0100     		.2byte	0x1
 18385 291b 51       		.byte	0x51
 18386 291c 08000000 		.4byte	.LVL62
 18387 2920 18000000 		.4byte	.LFE19
 18388 2924 0400     		.2byte	0x4
 18389 2926 F3       		.byte	0xf3
 18390 2927 01       		.uleb128 0x1
 18391 2928 51       		.byte	0x51
 18392 2929 9F       		.byte	0x9f
 18393 292a 00000000 		.4byte	0
 18394 292e 00000000 		.4byte	0
 18395              	.LVUS25:
 18396 2932 00       		.uleb128 0
 18397 2933 00       		.uleb128 .LVU192
 18398 2934 00       		.uleb128 .LVU192
 18399 2935 00       		.uleb128 .LVU195
 18400              	.LLST25:
 18401 2936 00000000 		.4byte	.LVL58
 18402 293a 0A000000 		.4byte	.LVL59
 18403 293e 0100     		.2byte	0x1
 18404 2940 50       		.byte	0x50
 18405 2941 0A000000 		.4byte	.LVL59
 18406 2945 12000000 		.4byte	.LVL60
 18407 2949 0100     		.2byte	0x1
 18408 294b 50       		.byte	0x50
 18409 294c 00000000 		.4byte	0
 18410 2950 00000000 		.4byte	0
 18411              	.LLST20:
ARM GAS  /var/folders/cs/83z6p2tj4w57s6p2rt8nwfp00000gn/T//cc3yBana.s 			page 362


 18412 2954 00000000 		.4byte	.LFB15
 18413 2958 02000000 		.4byte	.LCFI6
 18414 295c 0200     		.2byte	0x2
 18415 295e 7D       		.byte	0x7d
 18416 295f 00       		.sleb128 0
 18417 2960 02000000 		.4byte	.LCFI6
 18418 2964 06000000 		.4byte	.LCFI7
 18419 2968 0200     		.2byte	0x2
 18420 296a 7D       		.byte	0x7d
 18421 296b 14       		.sleb128 20
 18422 296c 06000000 		.4byte	.LCFI7
 18423 2970 66000000 		.4byte	.LCFI8
 18424 2974 0300     		.2byte	0x3
 18425 2976 7D       		.byte	0x7d
 18426 2977 B001     		.sleb128 176
 18427 2979 66000000 		.4byte	.LCFI8
 18428 297d 68000000 		.4byte	.LFE15
 18429 2981 0200     		.2byte	0x2
 18430 2983 7D       		.byte	0x7d
 18431 2984 14       		.sleb128 20
 18432 2985 00000000 		.4byte	0
 18433 2989 00000000 		.4byte	0
 18434              	.LVUS21:
 18435 298d 00       		.uleb128 0
 18436 298e 00       		.uleb128 .LVU146
 18437 298f 00       		.uleb128 .LVU146
 18438 2990 02       		.uleb128 .LVU164
 18439 2991 02       		.uleb128 .LVU164
 18440 2992 00       		.uleb128 0
 18441              	.LLST21:
 18442 2993 00000000 		.4byte	.LVL44
 18443 2997 0E000000 		.4byte	.LVL45
 18444 299b 0100     		.2byte	0x1
 18445 299d 50       		.byte	0x50
 18446 299e 0E000000 		.4byte	.LVL45
 18447 29a2 52000000 		.4byte	.LVL54
 18448 29a6 0100     		.2byte	0x1
 18449 29a8 54       		.byte	0x54
 18450 29a9 52000000 		.4byte	.LVL54
 18451 29ad 68000000 		.4byte	.LFE15
 18452 29b1 0300     		.2byte	0x3
 18453 29b3 76       		.byte	0x76
 18454 29b4 50       		.sleb128 -48
 18455 29b5 9F       		.byte	0x9f
 18456 29b6 00000000 		.4byte	0
 18457 29ba 00000000 		.4byte	0
 18458              	.LVUS22:
 18459 29be 00       		.uleb128 0
 18460 29bf 00       		.uleb128 .LVU146
 18461 29c0 00       		.uleb128 .LVU146
 18462 29c1 00       		.uleb128 .LVU147
 18463 29c2 00       		.uleb128 .LVU147
 18464 29c3 00       		.uleb128 .LVU148
 18465 29c4 00       		.uleb128 .LVU148
 18466 29c5 00       		.uleb128 .LVU149
 18467 29c6 00       		.uleb128 .LVU149
 18468 29c7 00       		.uleb128 0
ARM GAS  /var/folders/cs/83z6p2tj4w57s6p2rt8nwfp00000gn/T//cc3yBana.s 			page 363


 18469              	.LLST22:
 18470 29c8 00000000 		.4byte	.LVL44
 18471 29cc 0E000000 		.4byte	.LVL45
 18472 29d0 0100     		.2byte	0x1
 18473 29d2 51       		.byte	0x51
 18474 29d3 0E000000 		.4byte	.LVL45
 18475 29d7 12000000 		.4byte	.LVL46
 18476 29db 0300     		.2byte	0x3
 18477 29dd 75       		.byte	0x75
 18478 29de 70       		.sleb128 -16
 18479 29df 9F       		.byte	0x9f
 18480 29e0 12000000 		.4byte	.LVL46
 18481 29e4 16000000 		.4byte	.LVL47
 18482 29e8 0300     		.2byte	0x3
 18483 29ea 75       		.byte	0x75
 18484 29eb 60       		.sleb128 -32
 18485 29ec 9F       		.byte	0x9f
 18486 29ed 16000000 		.4byte	.LVL47
 18487 29f1 1E000000 		.4byte	.LVL48
 18488 29f5 0300     		.2byte	0x3
 18489 29f7 75       		.byte	0x75
 18490 29f8 50       		.sleb128 -48
 18491 29f9 9F       		.byte	0x9f
 18492 29fa 1E000000 		.4byte	.LVL48
 18493 29fe 68000000 		.4byte	.LFE15
 18494 2a02 0400     		.2byte	0x4
 18495 2a04 F3       		.byte	0xf3
 18496 2a05 01       		.uleb128 0x1
 18497 2a06 51       		.byte	0x51
 18498 2a07 9F       		.byte	0x9f
 18499 2a08 00000000 		.4byte	0
 18500 2a0c 00000000 		.4byte	0
 18501              	.LVUS23:
 18502 2a10 01       		.uleb128 .LVU155
 18503 2a11 00       		.uleb128 .LVU158
 18504 2a12 00       		.uleb128 .LVU158
 18505 2a13 00       		.uleb128 .LVU159
 18506 2a14 00       		.uleb128 .LVU159
 18507 2a15 00       		.uleb128 .LVU160
 18508 2a16 00       		.uleb128 .LVU160
 18509 2a17 00       		.uleb128 .LVU161
 18510 2a18 00       		.uleb128 .LVU161
 18511 2a19 00       		.uleb128 0
 18512              	.LLST23:
 18513 2a1a 42000000 		.4byte	.LVL49
 18514 2a1e 44000000 		.4byte	.LVL50
 18515 2a22 0100     		.2byte	0x1
 18516 2a24 55       		.byte	0x55
 18517 2a25 44000000 		.4byte	.LVL50
 18518 2a29 48000000 		.4byte	.LVL51
 18519 2a2d 0300     		.2byte	0x3
 18520 2a2f 75       		.byte	0x75
 18521 2a30 70       		.sleb128 -16
 18522 2a31 9F       		.byte	0x9f
 18523 2a32 48000000 		.4byte	.LVL51
 18524 2a36 4C000000 		.4byte	.LVL52
 18525 2a3a 0300     		.2byte	0x3
ARM GAS  /var/folders/cs/83z6p2tj4w57s6p2rt8nwfp00000gn/T//cc3yBana.s 			page 364


 18526 2a3c 75       		.byte	0x75
 18527 2a3d 60       		.sleb128 -32
 18528 2a3e 9F       		.byte	0x9f
 18529 2a3f 4C000000 		.4byte	.LVL52
 18530 2a43 4E000000 		.4byte	.LVL53
 18531 2a47 0300     		.2byte	0x3
 18532 2a49 75       		.byte	0x75
 18533 2a4a 50       		.sleb128 -48
 18534 2a4b 9F       		.byte	0x9f
 18535 2a4c 4E000000 		.4byte	.LVL53
 18536 2a50 68000000 		.4byte	.LFE15
 18537 2a54 0400     		.2byte	0x4
 18538 2a56 91       		.byte	0x91
 18539 2a57 B47F     		.sleb128 -76
 18540 2a59 9F       		.byte	0x9f
 18541 2a5a 00000000 		.4byte	0
 18542 2a5e 00000000 		.4byte	0
 18543              	.LVUS24:
 18544 2a62 01       		.uleb128 .LVU155
 18545 2a63 00       		.uleb128 0
 18546              	.LLST24:
 18547 2a64 42000000 		.4byte	.LVL49
 18548 2a68 68000000 		.4byte	.LFE15
 18549 2a6c 0100     		.2byte	0x1
 18550 2a6e 54       		.byte	0x54
 18551 2a6f 00000000 		.4byte	0
 18552 2a73 00000000 		.4byte	0
 18553              	.LLST12:
 18554 2a77 00000000 		.4byte	.LFB13
 18555 2a7b 02000000 		.4byte	.LCFI3
 18556 2a7f 0200     		.2byte	0x2
 18557 2a81 7D       		.byte	0x7d
 18558 2a82 00       		.sleb128 0
 18559 2a83 02000000 		.4byte	.LCFI3
 18560 2a87 78000000 		.4byte	.LFE13
 18561 2a8b 0200     		.2byte	0x2
 18562 2a8d 7D       		.byte	0x7d
 18563 2a8e 18       		.sleb128 24
 18564 2a8f 00000000 		.4byte	0
 18565 2a93 00000000 		.4byte	0
 18566              	.LVUS13:
 18567 2a97 00       		.uleb128 0
 18568 2a98 00       		.uleb128 .LVU90
 18569 2a99 00       		.uleb128 .LVU90
 18570 2a9a 00       		.uleb128 .LVU120
 18571 2a9b 00       		.uleb128 .LVU120
 18572 2a9c 00       		.uleb128 0
 18573              	.LLST13:
 18574 2a9d 00000000 		.4byte	.LVL22
 18575 2aa1 0A000000 		.4byte	.LVL24
 18576 2aa5 0100     		.2byte	0x1
 18577 2aa7 50       		.byte	0x50
 18578 2aa8 0A000000 		.4byte	.LVL24
 18579 2aac 74000000 		.4byte	.LVL37
 18580 2ab0 0100     		.2byte	0x1
 18581 2ab2 57       		.byte	0x57
 18582 2ab3 74000000 		.4byte	.LVL37
ARM GAS  /var/folders/cs/83z6p2tj4w57s6p2rt8nwfp00000gn/T//cc3yBana.s 			page 365


 18583 2ab7 78000000 		.4byte	.LFE13
 18584 2abb 0400     		.2byte	0x4
 18585 2abd F3       		.byte	0xf3
 18586 2abe 01       		.uleb128 0x1
 18587 2abf 50       		.byte	0x50
 18588 2ac0 9F       		.byte	0x9f
 18589 2ac1 00000000 		.4byte	0
 18590 2ac5 00000000 		.4byte	0
 18591              	.LVUS14:
 18592 2ac9 00       		.uleb128 .LVU86
 18593 2aca 00       		.uleb128 .LVU92
 18594 2acb 00       		.uleb128 .LVU92
 18595 2acc 01       		.uleb128 .LVU97
 18596 2acd 01       		.uleb128 .LVU97
 18597 2ace 00       		.uleb128 .LVU120
 18598              	.LLST14:
 18599 2acf 04000000 		.4byte	.LVL23
 18600 2ad3 0E000000 		.4byte	.LVL25
 18601 2ad7 0100     		.2byte	0x1
 18602 2ad9 55       		.byte	0x55
 18603 2ada 0E000000 		.4byte	.LVL25
 18604 2ade 2C000000 		.4byte	.LVL29
 18605 2ae2 0100     		.2byte	0x1
 18606 2ae4 54       		.byte	0x54
 18607 2ae5 2C000000 		.4byte	.LVL29
 18608 2ae9 74000000 		.4byte	.LVL37
 18609 2aed 0100     		.2byte	0x1
 18610 2aef 55       		.byte	0x55
 18611 2af0 00000000 		.4byte	0
 18612 2af4 00000000 		.4byte	0
 18613              	.LVUS15:
 18614 2af8 00       		.uleb128 .LVU103
 18615 2af9 00       		.uleb128 .LVU106
 18616 2afa 00       		.uleb128 .LVU106
 18617 2afb 00       		.uleb128 .LVU109
 18618 2afc 00       		.uleb128 .LVU109
 18619 2afd 01       		.uleb128 .LVU111
 18620 2afe 01       		.uleb128 .LVU111
 18621 2aff 00       		.uleb128 .LVU113
 18622              	.LLST15:
 18623 2b00 3A000000 		.4byte	.LVL30
 18624 2b04 44000000 		.4byte	.LVL31
 18625 2b08 0200     		.2byte	0x2
 18626 2b0a 30       		.byte	0x30
 18627 2b0b 9F       		.byte	0x9f
 18628 2b0c 44000000 		.4byte	.LVL31
 18629 2b10 5A000000 		.4byte	.LVL33
 18630 2b14 0100     		.2byte	0x1
 18631 2b16 54       		.byte	0x54
 18632 2b17 5A000000 		.4byte	.LVL33
 18633 2b1b 5C000000 		.4byte	.LVL34
 18634 2b1f 0300     		.2byte	0x3
 18635 2b21 74       		.byte	0x74
 18636 2b22 7F       		.sleb128 -1
 18637 2b23 9F       		.byte	0x9f
 18638 2b24 5C000000 		.4byte	.LVL34
 18639 2b28 62000000 		.4byte	.LVL35
ARM GAS  /var/folders/cs/83z6p2tj4w57s6p2rt8nwfp00000gn/T//cc3yBana.s 			page 366


 18640 2b2c 0100     		.2byte	0x1
 18641 2b2e 54       		.byte	0x54
 18642 2b2f 00000000 		.4byte	0
 18643 2b33 00000000 		.4byte	0
 18644              	.LVUS16:
 18645 2b37 00       		.uleb128 .LVU92
 18646 2b38 00       		.uleb128 .LVU103
 18647              	.LLST16:
 18648 2b39 0E000000 		.4byte	.LVL25
 18649 2b3d 3A000000 		.4byte	.LVL30
 18650 2b41 0100     		.2byte	0x1
 18651 2b43 55       		.byte	0x55
 18652 2b44 00000000 		.4byte	0
 18653 2b48 00000000 		.4byte	0
 18654              	.LLST10:
 18655 2b4c 00000000 		.4byte	.LFB12
 18656 2b50 02000000 		.4byte	.LCFI1
 18657 2b54 0200     		.2byte	0x2
 18658 2b56 7D       		.byte	0x7d
 18659 2b57 00       		.sleb128 0
 18660 2b58 02000000 		.4byte	.LCFI1
 18661 2b5c 40000000 		.4byte	.LCFI2
 18662 2b60 0200     		.2byte	0x2
 18663 2b62 7D       		.byte	0x7d
 18664 2b63 10       		.sleb128 16
 18665 2b64 40000000 		.4byte	.LCFI2
 18666 2b68 48000000 		.4byte	.LFE12
 18667 2b6c 0200     		.2byte	0x2
 18668 2b6e 7D       		.byte	0x7d
 18669 2b6f 00       		.sleb128 0
 18670 2b70 00000000 		.4byte	0
 18671 2b74 00000000 		.4byte	0
 18672              	.LVUS11:
 18673 2b78 00       		.uleb128 0
 18674 2b79 00       		.uleb128 .LVU60
 18675 2b7a 00       		.uleb128 .LVU60
 18676 2b7b 00       		.uleb128 .LVU61
 18677 2b7c 00       		.uleb128 .LVU61
 18678 2b7d 00       		.uleb128 .LVU81
 18679 2b7e 00       		.uleb128 .LVU81
 18680 2b7f 00       		.uleb128 0
 18681              	.LLST11:
 18682 2b80 00000000 		.4byte	.LVL18
 18683 2b84 10000000 		.4byte	.LVL19
 18684 2b88 0100     		.2byte	0x1
 18685 2b8a 50       		.byte	0x50
 18686 2b8b 10000000 		.4byte	.LVL19
 18687 2b8f 12000000 		.4byte	.LVL20
 18688 2b93 0100     		.2byte	0x1
 18689 2b95 54       		.byte	0x54
 18690 2b96 12000000 		.4byte	.LVL20
 18691 2b9a 40000000 		.4byte	.LVL21
 18692 2b9e 0100     		.2byte	0x1
 18693 2ba0 56       		.byte	0x56
 18694 2ba1 40000000 		.4byte	.LVL21
 18695 2ba5 48000000 		.4byte	.LFE12
 18696 2ba9 0400     		.2byte	0x4
ARM GAS  /var/folders/cs/83z6p2tj4w57s6p2rt8nwfp00000gn/T//cc3yBana.s 			page 367


 18697 2bab F3       		.byte	0xf3
 18698 2bac 01       		.uleb128 0x1
 18699 2bad 50       		.byte	0x50
 18700 2bae 9F       		.byte	0x9f
 18701 2baf 00000000 		.4byte	0
 18702 2bb3 00000000 		.4byte	0
 18703              	.LLST17:
 18704 2bb7 00000000 		.4byte	.LFB14
 18705 2bbb 02000000 		.4byte	.LCFI4
 18706 2bbf 0200     		.2byte	0x2
 18707 2bc1 7D       		.byte	0x7d
 18708 2bc2 00       		.sleb128 0
 18709 2bc3 02000000 		.4byte	.LCFI4
 18710 2bc7 2C000000 		.4byte	.LCFI5
 18711 2bcb 0200     		.2byte	0x2
 18712 2bcd 7D       		.byte	0x7d
 18713 2bce 0C       		.sleb128 12
 18714 2bcf 2C000000 		.4byte	.LCFI5
 18715 2bd3 2E000000 		.4byte	.LFE14
 18716 2bd7 0200     		.2byte	0x2
 18717 2bd9 7D       		.byte	0x7d
 18718 2bda 00       		.sleb128 0
 18719 2bdb 00000000 		.4byte	0
 18720 2bdf 00000000 		.4byte	0
 18721              	.LVUS18:
 18722 2be3 00       		.uleb128 0
 18723 2be4 00       		.uleb128 .LVU127
 18724 2be5 00       		.uleb128 .LVU127
 18725 2be6 00       		.uleb128 .LVU138
 18726              	.LLST18:
 18727 2be7 00000000 		.4byte	.LVL38
 18728 2beb 0A000000 		.4byte	.LVL39
 18729 2bef 0100     		.2byte	0x1
 18730 2bf1 50       		.byte	0x50
 18731 2bf2 0A000000 		.4byte	.LVL39
 18732 2bf6 2C000000 		.4byte	.LVL43
 18733 2bfa 0100     		.2byte	0x1
 18734 2bfc 54       		.byte	0x54
 18735 2bfd 00000000 		.4byte	0
 18736 2c01 00000000 		.4byte	0
 18737              	.LVUS19:
 18738 2c05 00       		.uleb128 0
 18739 2c06 00       		.uleb128 .LVU127
 18740 2c07 00       		.uleb128 .LVU127
 18741 2c08 00       		.uleb128 .LVU128
 18742 2c09 00       		.uleb128 .LVU128
 18743 2c0a 00       		.uleb128 .LVU129
 18744 2c0b 00       		.uleb128 .LVU129
 18745 2c0c 00       		.uleb128 .LVU138
 18746 2c0d 00       		.uleb128 .LVU138
 18747 2c0e 00       		.uleb128 0
 18748              	.LLST19:
 18749 2c0f 00000000 		.4byte	.LVL38
 18750 2c13 0A000000 		.4byte	.LVL39
 18751 2c17 0100     		.2byte	0x1
 18752 2c19 51       		.byte	0x51
 18753 2c1a 0A000000 		.4byte	.LVL39
ARM GAS  /var/folders/cs/83z6p2tj4w57s6p2rt8nwfp00000gn/T//cc3yBana.s 			page 368


 18754 2c1e 0E000000 		.4byte	.LVL40
 18755 2c22 0300     		.2byte	0x3
 18756 2c24 75       		.byte	0x75
 18757 2c25 70       		.sleb128 -16
 18758 2c26 9F       		.byte	0x9f
 18759 2c27 0E000000 		.4byte	.LVL40
 18760 2c2b 12000000 		.4byte	.LVL41
 18761 2c2f 0300     		.2byte	0x3
 18762 2c31 75       		.byte	0x75
 18763 2c32 60       		.sleb128 -32
 18764 2c33 9F       		.byte	0x9f
 18765 2c34 12000000 		.4byte	.LVL41
 18766 2c38 2C000000 		.4byte	.LVL43
 18767 2c3c 0300     		.2byte	0x3
 18768 2c3e 75       		.byte	0x75
 18769 2c3f 50       		.sleb128 -48
 18770 2c40 9F       		.byte	0x9f
 18771 2c41 2C000000 		.4byte	.LVL43
 18772 2c45 2E000000 		.4byte	.LFE14
 18773 2c49 0400     		.2byte	0x4
 18774 2c4b F3       		.byte	0xf3
 18775 2c4c 01       		.uleb128 0x1
 18776 2c4d 51       		.byte	0x51
 18777 2c4e 9F       		.byte	0x9f
 18778 2c4f 00000000 		.4byte	0
 18779 2c53 00000000 		.4byte	0
 18780              	.LLST67:
 18781 2c57 00000000 		.4byte	.LFB29
 18782 2c5b 02000000 		.4byte	.LCFI33
 18783 2c5f 0200     		.2byte	0x2
 18784 2c61 7D       		.byte	0x7d
 18785 2c62 00       		.sleb128 0
 18786 2c63 02000000 		.4byte	.LCFI33
 18787 2c67 1E000000 		.4byte	.LCFI34
 18788 2c6b 0200     		.2byte	0x2
 18789 2c6d 7D       		.byte	0x7d
 18790 2c6e 10       		.sleb128 16
 18791 2c6f 1E000000 		.4byte	.LCFI34
 18792 2c73 20000000 		.4byte	.LFE29
 18793 2c77 0200     		.2byte	0x2
 18794 2c79 7D       		.byte	0x7d
 18795 2c7a 00       		.sleb128 0
 18796 2c7b 00000000 		.4byte	0
 18797 2c7f 00000000 		.4byte	0
 18798              	.LVUS68:
 18799 2c83 00       		.uleb128 0
 18800 2c84 00       		.uleb128 .LVU640
 18801 2c85 00       		.uleb128 .LVU640
 18802 2c86 00       		.uleb128 0
 18803              	.LLST68:
 18804 2c87 00000000 		.4byte	.LVL159
 18805 2c8b 18000000 		.4byte	.LVL160
 18806 2c8f 0100     		.2byte	0x1
 18807 2c91 50       		.byte	0x50
 18808 2c92 18000000 		.4byte	.LVL160
 18809 2c96 20000000 		.4byte	.LFE29
 18810 2c9a 0300     		.2byte	0x3
ARM GAS  /var/folders/cs/83z6p2tj4w57s6p2rt8nwfp00000gn/T//cc3yBana.s 			page 369


 18811 2c9c 73       		.byte	0x73
 18812 2c9d 48       		.sleb128 -56
 18813 2c9e 9F       		.byte	0x9f
 18814 2c9f 00000000 		.4byte	0
 18815 2ca3 00000000 		.4byte	0
 18816              		.section	.debug_aranges,"",%progbits
 18817 0000 D4000000 		.4byte	0xd4
 18818 0004 0200     		.2byte	0x2
 18819 0006 00000000 		.4byte	.Ldebug_info0
 18820 000a 04       		.byte	0x4
 18821 000b 00       		.byte	0
 18822 000c 0000     		.2byte	0
 18823 000e 0000     		.2byte	0
 18824 0010 00000000 		.4byte	.LFB32
 18825 0014 80000000 		.4byte	.LFE32-.LFB32
 18826 0018 00000000 		.4byte	.LFB37
 18827 001c 1C000000 		.4byte	.LFE37-.LFB37
 18828 0020 00000000 		.4byte	.LFB12
 18829 0024 48000000 		.4byte	.LFE12-.LFB12
 18830 0028 00000000 		.4byte	.LFB13
 18831 002c 78000000 		.4byte	.LFE13-.LFB13
 18832 0030 00000000 		.4byte	.LFB14
 18833 0034 2E000000 		.4byte	.LFE14-.LFB14
 18834 0038 00000000 		.4byte	.LFB15
 18835 003c 68000000 		.4byte	.LFE15-.LFB15
 18836 0040 00000000 		.4byte	.LFB16
 18837 0044 12000000 		.4byte	.LFE16-.LFB16
 18838 0048 00000000 		.4byte	.LFB17
 18839 004c 12000000 		.4byte	.LFE17-.LFB17
 18840 0050 00000000 		.4byte	.LFB18
 18841 0054 14000000 		.4byte	.LFE18-.LFB18
 18842 0058 00000000 		.4byte	.LFB19
 18843 005c 18000000 		.4byte	.LFE19-.LFB19
 18844 0060 00000000 		.4byte	.LFB20
 18845 0064 1A000000 		.4byte	.LFE20-.LFB20
 18846 0068 00000000 		.4byte	.LFB21
 18847 006c 58010000 		.4byte	.LFE21-.LFB21
 18848 0070 00000000 		.4byte	.LFB22
 18849 0074 44000000 		.4byte	.LFE22-.LFB22
 18850 0078 00000000 		.4byte	.LFB23
 18851 007c 34000000 		.4byte	.LFE23-.LFB23
 18852 0080 00000000 		.4byte	.LFB24
 18853 0084 74000000 		.4byte	.LFE24-.LFB24
 18854 0088 00000000 		.4byte	.LFB26
 18855 008c 4A040000 		.4byte	.LFE26-.LFB26
 18856 0090 00000000 		.4byte	.LFB28
 18857 0094 24000000 		.4byte	.LFE28-.LFB28
 18858 0098 00000000 		.4byte	.LFB29
 18859 009c 20000000 		.4byte	.LFE29-.LFB29
 18860 00a0 00000000 		.4byte	.LFB30
 18861 00a4 0A000000 		.4byte	.LFE30-.LFB30
 18862 00a8 00000000 		.4byte	.LFB31
 18863 00ac 04000000 		.4byte	.LFE31-.LFB31
 18864 00b0 00000000 		.4byte	.LFB33
 18865 00b4 CC020000 		.4byte	.LFE33-.LFB33
 18866 00b8 00000000 		.4byte	.LFB27
 18867 00bc B0000000 		.4byte	.LFE27-.LFB27
ARM GAS  /var/folders/cs/83z6p2tj4w57s6p2rt8nwfp00000gn/T//cc3yBana.s 			page 370


 18868 00c0 00000000 		.4byte	.LFB38
 18869 00c4 E8080000 		.4byte	.LFE38-.LFB38
 18870 00c8 00000000 		.4byte	.LFB39
 18871 00cc 68000000 		.4byte	.LFE39-.LFB39
 18872 00d0 00000000 		.4byte	0
 18873 00d4 00000000 		.4byte	0
 18874              		.section	.debug_ranges,"",%progbits
 18875              	.Ldebug_ranges0:
 18876 0000 24000000 		.4byte	.LBB30
 18877 0004 26000000 		.4byte	.LBE30
 18878 0008 32000000 		.4byte	.LBB34
 18879 000c 34000000 		.4byte	.LBE34
 18880 0010 42000000 		.4byte	.LBB35
 18881 0014 64000000 		.4byte	.LBE35
 18882 0018 00000000 		.4byte	0
 18883 001c 00000000 		.4byte	0
 18884 0020 66000000 		.4byte	.LBB36
 18885 0024 6A000000 		.4byte	.LBE36
 18886 0028 72000000 		.4byte	.LBB37
 18887 002c 7A000000 		.4byte	.LBE37
 18888 0030 7E000000 		.4byte	.LBB38
 18889 0034 D2000000 		.4byte	.LBE38
 18890 0038 D4000000 		.4byte	.LBB39
 18891 003c D8000000 		.4byte	.LBE39
 18892 0040 DA000000 		.4byte	.LBB40
 18893 0044 E2000000 		.4byte	.LBE40
 18894 0048 00000000 		.4byte	0
 18895 004c 00000000 		.4byte	0
 18896 0050 06000000 		.4byte	.LBB41
 18897 0054 08000000 		.4byte	.LBE41
 18898 0058 20000000 		.4byte	.LBB45
 18899 005c 3A000000 		.4byte	.LBE45
 18900 0060 3C000000 		.4byte	.LBB46
 18901 0064 5C000000 		.4byte	.LBE46
 18902 0068 00000000 		.4byte	0
 18903 006c 00000000 		.4byte	0
 18904 0070 3C000000 		.4byte	.LBB55
 18905 0074 26030000 		.4byte	.LBE55
 18906 0078 50030000 		.4byte	.LBB79
 18907 007c 4A040000 		.4byte	.LBE79
 18908 0080 00000000 		.4byte	0
 18909 0084 00000000 		.4byte	0
 18910 0088 A0000000 		.4byte	.LBB56
 18911 008c AC000000 		.4byte	.LBE56
 18912 0090 B2000000 		.4byte	.LBB76
 18913 0094 26030000 		.4byte	.LBE76
 18914 0098 50030000 		.4byte	.LBB77
 18915 009c B6030000 		.4byte	.LBE77
 18916 00a0 26040000 		.4byte	.LBB78
 18917 00a4 4A040000 		.4byte	.LBE78
 18918 00a8 00000000 		.4byte	0
 18919 00ac 00000000 		.4byte	0
 18920 00b0 A0000000 		.4byte	.LBB57
 18921 00b4 AC000000 		.4byte	.LBE57
 18922 00b8 B2000000 		.4byte	.LBB72
 18923 00bc D2000000 		.4byte	.LBE72
 18924 00c0 D2000000 		.4byte	.LBB73
ARM GAS  /var/folders/cs/83z6p2tj4w57s6p2rt8nwfp00000gn/T//cc3yBana.s 			page 371


 18925 00c4 26030000 		.4byte	.LBE73
 18926 00c8 50030000 		.4byte	.LBB74
 18927 00cc B6030000 		.4byte	.LBE74
 18928 00d0 26040000 		.4byte	.LBB75
 18929 00d4 4A040000 		.4byte	.LBE75
 18930 00d8 00000000 		.4byte	0
 18931 00dc 00000000 		.4byte	0
 18932 00e0 A0000000 		.4byte	.LBB58
 18933 00e4 A4000000 		.4byte	.LBE58
 18934 00e8 B0020000 		.4byte	.LBB68
 18935 00ec E4020000 		.4byte	.LBE68
 18936 00f0 E4020000 		.4byte	.LBB69
 18937 00f4 F8020000 		.4byte	.LBE69
 18938 00f8 FC020000 		.4byte	.LBB70
 18939 00fc 26030000 		.4byte	.LBE70
 18940 0100 00000000 		.4byte	0
 18941 0104 00000000 		.4byte	0
 18942 0108 A4000000 		.4byte	.LBB59
 18943 010c AC000000 		.4byte	.LBE59
 18944 0110 54030000 		.4byte	.LBB71
 18945 0114 B6030000 		.4byte	.LBE71
 18946 0118 00000000 		.4byte	0
 18947 011c 00000000 		.4byte	0
 18948 0120 64030000 		.4byte	.LBB60
 18949 0124 6E030000 		.4byte	.LBE60
 18950 0128 70030000 		.4byte	.LBB61
 18951 012c 72030000 		.4byte	.LBE61
 18952 0130 74030000 		.4byte	.LBB62
 18953 0134 78030000 		.4byte	.LBE62
 18954 0138 7E030000 		.4byte	.LBB63
 18955 013c B4030000 		.4byte	.LBE63
 18956 0140 00000000 		.4byte	0
 18957 0144 00000000 		.4byte	0
 18958 0148 36020000 		.4byte	.LBB64
 18959 014c 3A020000 		.4byte	.LBE64
 18960 0150 3E020000 		.4byte	.LBB67
 18961 0154 94020000 		.4byte	.LBE67
 18962 0158 00000000 		.4byte	0
 18963 015c 00000000 		.4byte	0
 18964 0160 4E020000 		.4byte	.LBB65
 18965 0164 4E020000 		.4byte	.LBE65
 18966 0168 5E020000 		.4byte	.LBB66
 18967 016c 94020000 		.4byte	.LBE66
 18968 0170 00000000 		.4byte	0
 18969 0174 00000000 		.4byte	0
 18970 0178 10000000 		.4byte	.LBB80
 18971 017c 14000000 		.4byte	.LBE80
 18972 0180 18000000 		.4byte	.LBB85
 18973 0184 1C000000 		.4byte	.LBE85
 18974 0188 28000000 		.4byte	.LBB86
 18975 018c 2C000000 		.4byte	.LBE86
 18976 0190 96000000 		.4byte	.LBB90
 18977 0194 96000000 		.4byte	.LBE90
 18978 0198 00000000 		.4byte	0
 18979 019c 00000000 		.4byte	0
 18980 01a0 2E000000 		.4byte	.LBB87
 18981 01a4 32000000 		.4byte	.LBE87
ARM GAS  /var/folders/cs/83z6p2tj4w57s6p2rt8nwfp00000gn/T//cc3yBana.s 			page 372


 18982 01a8 96000000 		.4byte	.LBB91
 18983 01ac 96000000 		.4byte	.LBE91
 18984 01b0 00000000 		.4byte	0
 18985 01b4 00000000 		.4byte	0
 18986 01b8 D4000000 		.4byte	.LBB93
 18987 01bc D4000000 		.4byte	.LBE93
 18988 01c0 D6000000 		.4byte	.LBB96
 18989 01c4 DA000000 		.4byte	.LBE96
 18990 01c8 00000000 		.4byte	0
 18991 01cc 00000000 		.4byte	0
 18992 01d0 3A020000 		.4byte	.LBB98
 18993 01d4 3A020000 		.4byte	.LBE98
 18994 01d8 3C020000 		.4byte	.LBB101
 18995 01dc 40020000 		.4byte	.LBE101
 18996 01e0 00000000 		.4byte	0
 18997 01e4 00000000 		.4byte	0
 18998 01e8 16000000 		.4byte	.LBB102
 18999 01ec 1E000000 		.4byte	.LBE102
 19000 01f0 5E000000 		.4byte	.LBB122
 19001 01f4 92000000 		.4byte	.LBE122
 19002 01f8 96000000 		.4byte	.LBB123
 19003 01fc 9A000000 		.4byte	.LBE123
 19004 0200 00000000 		.4byte	0
 19005 0204 00000000 		.4byte	0
 19006 0208 4A000000 		.4byte	.LBB106
 19007 020c 4A000000 		.4byte	.LBE106
 19008 0210 4E000000 		.4byte	.LBB116
 19009 0214 50000000 		.4byte	.LBE116
 19010 0218 52000000 		.4byte	.LBB118
 19011 021c 54000000 		.4byte	.LBE118
 19012 0220 56000000 		.4byte	.LBB120
 19013 0224 5E000000 		.4byte	.LBE120
 19014 0228 00000000 		.4byte	0
 19015 022c 00000000 		.4byte	0
 19016 0230 4A000000 		.4byte	.LBB111
 19017 0234 4E000000 		.4byte	.LBE111
 19018 0238 50000000 		.4byte	.LBB117
 19019 023c 52000000 		.4byte	.LBE117
 19020 0240 54000000 		.4byte	.LBB119
 19021 0244 56000000 		.4byte	.LBE119
 19022 0248 5E000000 		.4byte	.LBB121
 19023 024c 5E000000 		.4byte	.LBE121
 19024 0250 00000000 		.4byte	0
 19025 0254 00000000 		.4byte	0
 19026 0258 24000000 		.4byte	.LBB148
 19027 025c 30000000 		.4byte	.LBE148
 19028 0260 34000000 		.4byte	.LBB246
 19029 0264 3A000000 		.4byte	.LBE246
 19030 0268 48000000 		.4byte	.LBB247
 19031 026c D8030000 		.4byte	.LBE247
 19032 0270 E2030000 		.4byte	.LBB248
 19033 0274 B8080000 		.4byte	.LBE248
 19034 0278 CA080000 		.4byte	.LBB249
 19035 027c E8080000 		.4byte	.LBE249
 19036 0280 00000000 		.4byte	0
 19037 0284 00000000 		.4byte	0
 19038 0288 24000000 		.4byte	.LBB149
ARM GAS  /var/folders/cs/83z6p2tj4w57s6p2rt8nwfp00000gn/T//cc3yBana.s 			page 373


 19039 028c 30000000 		.4byte	.LBE149
 19040 0290 5A000000 		.4byte	.LBB223
 19041 0294 F8010000 		.4byte	.LBE223
 19042 0298 E2030000 		.4byte	.LBB238
 19043 029c E2040000 		.4byte	.LBE238
 19044 02a0 3A050000 		.4byte	.LBB240
 19045 02a4 44050000 		.4byte	.LBE240
 19046 02a8 C0050000 		.4byte	.LBB242
 19047 02ac C4070000 		.4byte	.LBE242
 19048 02b0 F8070000 		.4byte	.LBB244
 19049 02b4 B8080000 		.4byte	.LBE244
 19050 02b8 CA080000 		.4byte	.LBB245
 19051 02bc E8080000 		.4byte	.LBE245
 19052 02c0 00000000 		.4byte	0
 19053 02c4 00000000 		.4byte	0
 19054 02c8 24000000 		.4byte	.LBB151
 19055 02cc 30000000 		.4byte	.LBE151
 19056 02d0 62000000 		.4byte	.LBB183
 19057 02d4 F8010000 		.4byte	.LBE183
 19058 02d8 E2030000 		.4byte	.LBB184
 19059 02dc E2040000 		.4byte	.LBE184
 19060 02e0 3A050000 		.4byte	.LBB185
 19061 02e4 44050000 		.4byte	.LBE185
 19062 02e8 82070000 		.4byte	.LBB213
 19063 02ec 90070000 		.4byte	.LBE213
 19064 02f0 00000000 		.4byte	0
 19065 02f4 00000000 		.4byte	0
 19066 02f8 24000000 		.4byte	.LBB152
 19067 02fc 30000000 		.4byte	.LBE152
 19068 0300 64000000 		.4byte	.LBB179
 19069 0304 F0010000 		.4byte	.LBE179
 19070 0308 E2030000 		.4byte	.LBB180
 19071 030c E2040000 		.4byte	.LBE180
 19072 0310 3A050000 		.4byte	.LBB181
 19073 0314 44050000 		.4byte	.LBE181
 19074 0318 82070000 		.4byte	.LBB182
 19075 031c 90070000 		.4byte	.LBE182
 19076 0320 00000000 		.4byte	0
 19077 0324 00000000 		.4byte	0
 19078 0328 24000000 		.4byte	.LBB153
 19079 032c 30000000 		.4byte	.LBE153
 19080 0330 64000000 		.4byte	.LBB173
 19081 0334 72000000 		.4byte	.LBE173
 19082 0338 80000000 		.4byte	.LBB174
 19083 033c CE000000 		.4byte	.LBE174
 19084 0340 D6000000 		.4byte	.LBB175
 19085 0344 E8010000 		.4byte	.LBE175
 19086 0348 E2030000 		.4byte	.LBB176
 19087 034c E2040000 		.4byte	.LBE176
 19088 0350 3A050000 		.4byte	.LBB177
 19089 0354 44050000 		.4byte	.LBE177
 19090 0358 82070000 		.4byte	.LBB178
 19091 035c 90070000 		.4byte	.LBE178
 19092 0360 00000000 		.4byte	0
 19093 0364 00000000 		.4byte	0
 19094 0368 A6010000 		.4byte	.LBB155
 19095 036c E8010000 		.4byte	.LBE155
ARM GAS  /var/folders/cs/83z6p2tj4w57s6p2rt8nwfp00000gn/T//cc3yBana.s 			page 374


 19096 0370 6C040000 		.4byte	.LBB156
 19097 0374 72040000 		.4byte	.LBE156
 19098 0378 00000000 		.4byte	0
 19099 037c 00000000 		.4byte	0
 19100 0380 72040000 		.4byte	.LBB157
 19101 0384 76040000 		.4byte	.LBE157
 19102 0388 7A040000 		.4byte	.LBB162
 19103 038c 7E040000 		.4byte	.LBE162
 19104 0390 80040000 		.4byte	.LBB163
 19105 0394 84040000 		.4byte	.LBE163
 19106 0398 88040000 		.4byte	.LBB164
 19107 039c A0040000 		.4byte	.LBE164
 19108 03a0 00000000 		.4byte	0
 19109 03a4 00000000 		.4byte	0
 19110 03a8 C0050000 		.4byte	.LBB186
 19111 03ac 82070000 		.4byte	.LBE186
 19112 03b0 90070000 		.4byte	.LBB214
 19113 03b4 C4070000 		.4byte	.LBE214
 19114 03b8 F8070000 		.4byte	.LBB215
 19115 03bc B8080000 		.4byte	.LBE215
 19116 03c0 CA080000 		.4byte	.LBB216
 19117 03c4 E8080000 		.4byte	.LBE216
 19118 03c8 00000000 		.4byte	0
 19119 03cc 00000000 		.4byte	0
 19120 03d0 CE050000 		.4byte	.LBB187
 19121 03d4 D6050000 		.4byte	.LBE187
 19122 03d8 DC050000 		.4byte	.LBB207
 19123 03dc E0050000 		.4byte	.LBE207
 19124 03e0 E4050000 		.4byte	.LBB208
 19125 03e4 DC060000 		.4byte	.LBE208
 19126 03e8 E6060000 		.4byte	.LBB209
 19127 03ec 82070000 		.4byte	.LBE209
 19128 03f0 90070000 		.4byte	.LBB210
 19129 03f4 C4070000 		.4byte	.LBE210
 19130 03f8 F8070000 		.4byte	.LBB211
 19131 03fc B8080000 		.4byte	.LBE211
 19132 0400 CA080000 		.4byte	.LBB212
 19133 0404 E8080000 		.4byte	.LBE212
 19134 0408 00000000 		.4byte	0
 19135 040c 00000000 		.4byte	0
 19136 0410 E6060000 		.4byte	.LBB189
 19137 0414 26070000 		.4byte	.LBE189
 19138 0418 BE070000 		.4byte	.LBB190
 19139 041c C4070000 		.4byte	.LBE190
 19140 0420 00000000 		.4byte	0
 19141 0424 00000000 		.4byte	0
 19142 0428 F8070000 		.4byte	.LBB191
 19143 042c FC070000 		.4byte	.LBE191
 19144 0430 00080000 		.4byte	.LBB196
 19145 0434 04080000 		.4byte	.LBE196
 19146 0438 08080000 		.4byte	.LBB197
 19147 043c 0C080000 		.4byte	.LBE197
 19148 0440 10080000 		.4byte	.LBB198
 19149 0444 28080000 		.4byte	.LBE198
 19150 0448 00000000 		.4byte	0
 19151 044c 00000000 		.4byte	0
 19152 0450 FE010000 		.4byte	.LBB224
ARM GAS  /var/folders/cs/83z6p2tj4w57s6p2rt8nwfp00000gn/T//cc3yBana.s 			page 375


 19153 0454 D8030000 		.4byte	.LBE224
 19154 0458 E2040000 		.4byte	.LBB239
 19155 045c 3A050000 		.4byte	.LBE239
 19156 0460 44050000 		.4byte	.LBB241
 19157 0464 C0050000 		.4byte	.LBE241
 19158 0468 C4070000 		.4byte	.LBB243
 19159 046c F8070000 		.4byte	.LBE243
 19160 0470 00000000 		.4byte	0
 19161 0474 00000000 		.4byte	0
 19162 0478 0E020000 		.4byte	.LBB226
 19163 047c 16020000 		.4byte	.LBE226
 19164 0480 18020000 		.4byte	.LBB229
 19165 0484 A8020000 		.4byte	.LBE229
 19166 0488 B0020000 		.4byte	.LBB230
 19167 048c D8030000 		.4byte	.LBE230
 19168 0490 E2040000 		.4byte	.LBB231
 19169 0494 06050000 		.4byte	.LBE231
 19170 0498 14050000 		.4byte	.LBB232
 19171 049c 3A050000 		.4byte	.LBE232
 19172 04a0 44050000 		.4byte	.LBB233
 19173 04a4 C0050000 		.4byte	.LBE233
 19174 04a8 C4070000 		.4byte	.LBB234
 19175 04ac F8070000 		.4byte	.LBE234
 19176 04b0 00000000 		.4byte	0
 19177 04b4 00000000 		.4byte	0
 19178 04b8 94030000 		.4byte	.LBB227
 19179 04bc D8030000 		.4byte	.LBE227
 19180 04c0 B2050000 		.4byte	.LBB228
 19181 04c4 C0050000 		.4byte	.LBE228
 19182 04c8 00000000 		.4byte	0
 19183 04cc 00000000 		.4byte	0
 19184 04d0 00000000 		.4byte	.LFB32
 19185 04d4 80000000 		.4byte	.LFE32
 19186 04d8 00000000 		.4byte	.LFB37
 19187 04dc 1C000000 		.4byte	.LFE37
 19188 04e0 00000000 		.4byte	.LFB12
 19189 04e4 48000000 		.4byte	.LFE12
 19190 04e8 00000000 		.4byte	.LFB13
 19191 04ec 78000000 		.4byte	.LFE13
 19192 04f0 00000000 		.4byte	.LFB14
 19193 04f4 2E000000 		.4byte	.LFE14
 19194 04f8 00000000 		.4byte	.LFB15
 19195 04fc 68000000 		.4byte	.LFE15
 19196 0500 00000000 		.4byte	.LFB16
 19197 0504 12000000 		.4byte	.LFE16
 19198 0508 00000000 		.4byte	.LFB17
 19199 050c 12000000 		.4byte	.LFE17
 19200 0510 00000000 		.4byte	.LFB18
 19201 0514 14000000 		.4byte	.LFE18
 19202 0518 00000000 		.4byte	.LFB19
 19203 051c 18000000 		.4byte	.LFE19
 19204 0520 00000000 		.4byte	.LFB20
 19205 0524 1A000000 		.4byte	.LFE20
 19206 0528 00000000 		.4byte	.LFB21
 19207 052c 58010000 		.4byte	.LFE21
 19208 0530 00000000 		.4byte	.LFB22
 19209 0534 44000000 		.4byte	.LFE22
ARM GAS  /var/folders/cs/83z6p2tj4w57s6p2rt8nwfp00000gn/T//cc3yBana.s 			page 376


 19210 0538 00000000 		.4byte	.LFB23
 19211 053c 34000000 		.4byte	.LFE23
 19212 0540 00000000 		.4byte	.LFB24
 19213 0544 74000000 		.4byte	.LFE24
 19214 0548 00000000 		.4byte	.LFB26
 19215 054c 4A040000 		.4byte	.LFE26
 19216 0550 00000000 		.4byte	.LFB28
 19217 0554 24000000 		.4byte	.LFE28
 19218 0558 00000000 		.4byte	.LFB29
 19219 055c 20000000 		.4byte	.LFE29
 19220 0560 00000000 		.4byte	.LFB30
 19221 0564 0A000000 		.4byte	.LFE30
 19222 0568 00000000 		.4byte	.LFB31
 19223 056c 04000000 		.4byte	.LFE31
 19224 0570 00000000 		.4byte	.LFB33
 19225 0574 CC020000 		.4byte	.LFE33
 19226 0578 00000000 		.4byte	.LFB27
 19227 057c B0000000 		.4byte	.LFE27
 19228 0580 00000000 		.4byte	.LFB38
 19229 0584 E8080000 		.4byte	.LFE38
 19230 0588 00000000 		.4byte	.LFB39
 19231 058c 68000000 		.4byte	.LFE39
 19232 0590 00000000 		.4byte	0
 19233 0594 00000000 		.4byte	0
 19234              		.section	.debug_line,"",%progbits
 19235              	.Ldebug_line0:
 19236 0000 34160000 		.section	.debug_str,"MS",%progbits,1
 19236      03001B02 
 19236      00000201 
 19236      FB0E0D00 
 19236      01010101 
 19237              	.LASF173:
 19238 0000 73686170 		.ascii	"shapes\000"
 19238      657300
 19239              	.LASF166:
 19240 0007 7573655A 		.ascii	"useZBuffer\000"
 19240      42756666 
 19240      657200
 19241              	.LASF131:
 19242 0012 5F5F6664 		.ascii	"__fdlibm_xopen\000"
 19242      6C69626D 
 19242      5F786F70 
 19242      656E00
 19243              	.LASF244:
 19244 0021 5363656E 		.ascii	"Scene3DNode_deinit\000"
 19244      6533444E 
 19244      6F64655F 
 19244      6465696E 
 19244      697400
 19245              	.LASF149:
 19246 0034 6973436C 		.ascii	"isClosed\000"
 19246      6F736564 
 19246      00
 19247              	.LASF209:
 19248 003d 6C6F6F6B 		.ascii	"lookAt\000"
 19248      417400
 19249              	.LASF144:
ARM GAS  /var/folders/cs/83z6p2tj4w57s6p2rt8nwfp00000gn/T//cc3yBana.s 			page 377


 19250 0044 6E506F69 		.ascii	"nPoints\000"
 19250      6E747300 
 19251              	.LASF41:
 19252 004c 5F6F6E5F 		.ascii	"_on_exit_args\000"
 19252      65786974 
 19252      5F617267 
 19252      7300
 19253              	.LASF167:
 19254 005a 6F726465 		.ascii	"orderTable\000"
 19254      72546162 
 19254      6C6500
 19255              	.LASF221:
 19256 0065 75706461 		.ascii	"update\000"
 19256      746500
 19257              	.LASF218:
 19258 006c 5363656E 		.ascii	"Scene3D_init\000"
 19258      6533445F 
 19258      696E6974 
 19258      00
 19259              	.LASF108:
 19260 0079 5F776374 		.ascii	"_wctomb_state\000"
 19260      6F6D625F 
 19260      73746174 
 19260      6500
 19261              	.LASF168:
 19262 0087 5363656E 		.ascii	"Scene3DNode\000"
 19262      6533444E 
 19262      6F646500 
 19263              	.LASF180:
 19264 0093 63656E74 		.ascii	"centerx\000"
 19264      65727800 
 19265              	.LASF181:
 19266 009b 63656E74 		.ascii	"centery\000"
 19266      65727900 
 19267              	.LASF105:
 19268 00a3 5F723438 		.ascii	"_r48\000"
 19268      00
 19269              	.LASF195:
 19270 00a8 6E6F6465 		.ascii	"node\000"
 19270      00
 19271              	.LASF110:
 19272 00ad 5F736967 		.ascii	"_signal_buf\000"
 19272      6E616C5F 
 19272      62756600 
 19273              	.LASF1:
 19274 00b9 756E7369 		.ascii	"unsigned int\000"
 19274      676E6564 
 19274      20696E74 
 19274      00
 19275              	.LASF154:
 19276 00c6 6E657874 		.ascii	"next\000"
 19276      00
 19277              	.LASF150:
 19278 00cb 6F726465 		.ascii	"orderTableSize\000"
 19278      72546162 
 19278      6C655369 
 19278      7A6500
ARM GAS  /var/folders/cs/83z6p2tj4w57s6p2rt8nwfp00000gn/T//cc3yBana.s 			page 378


 19279              	.LASF55:
 19280 00da 5F6C6266 		.ascii	"_lbfsize\000"
 19280      73697A65 
 19280      00
 19281              	.LASF53:
 19282 00e3 5F666C61 		.ascii	"_flags\000"
 19282      677300
 19283              	.LASF70:
 19284 00ea 5F657272 		.ascii	"_errno\000"
 19284      6E6F00
 19285              	.LASF238:
 19286 00f1 5363656E 		.ascii	"Scene3DNode_getRenderStyle\000"
 19286      6533444E 
 19286      6F64655F 
 19286      67657452 
 19286      656E6465 
 19287              	.LASF191:
 19288 010c 6D696E69 		.ascii	"mini3d/scene.c\000"
 19288      33642F73 
 19288      63656E65 
 19288      2E6300
 19289              	.LASF235:
 19290 011b 666C6167 		.ascii	"flag\000"
 19290      00
 19291              	.LASF184:
 19292 0120 73686170 		.ascii	"shapelist\000"
 19292      656C6973 
 19292      7400
 19293              	.LASF193:
 19294 012a 5363656E 		.ascii	"Scene3D_draw\000"
 19294      6533445F 
 19294      64726177 
 19294      00
 19295              	.LASF67:
 19296 0137 5F6D6273 		.ascii	"_mbstate\000"
 19296      74617465 
 19296      00
 19297              	.LASF57:
 19298 0140 5F726561 		.ascii	"_read\000"
 19298      6400
 19299              	.LASF112:
 19300 0146 5F6D6272 		.ascii	"_mbrlen_state\000"
 19300      6C656E5F 
 19300      73746174 
 19300      6500
 19301              	.LASF178:
 19302 0154 63616D65 		.ascii	"camera\000"
 19302      726100
 19303              	.LASF72:
 19304 015b 5F737464 		.ascii	"_stdout\000"
 19304      6F757400 
 19305              	.LASF143:
 19306 0163 72657461 		.ascii	"retainCount\000"
 19306      696E436F 
 19306      756E7400 
 19307              	.LASF16:
 19308 016f 5F66706F 		.ascii	"_fpos_t\000"
ARM GAS  /var/folders/cs/83z6p2tj4w57s6p2rt8nwfp00000gn/T//cc3yBana.s 			page 379


 19308      735F7400 
 19309              	.LASF137:
 19310 0177 696E7665 		.ascii	"inverting\000"
 19310      7274696E 
 19310      6700
 19311              	.LASF48:
 19312 0181 5F666E73 		.ascii	"_fns\000"
 19312      00
 19313              	.LASF56:
 19314 0186 5F636F6F 		.ascii	"_cookie\000"
 19314      6B696500 
 19315              	.LASF30:
 19316 018e 5F426967 		.ascii	"_Bigint\000"
 19316      696E7400 
 19317              	.LASF38:
 19318 0196 5F5F746D 		.ascii	"__tm_wday\000"
 19318      5F776461 
 19318      7900
 19319              	.LASF169:
 19320 01a0 70617265 		.ascii	"parentNode\000"
 19320      6E744E6F 
 19320      646500
 19321              	.LASF80:
 19322 01ab 5F726573 		.ascii	"_result\000"
 19322      756C7400 
 19323              	.LASF213:
 19324 01b3 636F6D70 		.ascii	"compareZ\000"
 19324      6172655A 
 19324      00
 19325              	.LASF34:
 19326 01bc 5F5F746D 		.ascii	"__tm_hour\000"
 19326      5F686F75 
 19326      7200
 19327              	.LASF156:
 19328 01c6 6B52656E 		.ascii	"kRenderFilled\000"
 19328      64657246 
 19328      696C6C65 
 19328      6400
 19329              	.LASF20:
 19330 01d4 5F5F636F 		.ascii	"__count\000"
 19330      756E7400 
 19331              	.LASF0:
 19332 01dc 666C6F61 		.ascii	"float\000"
 19332      7400
 19333              	.LASF33:
 19334 01e2 5F5F746D 		.ascii	"__tm_min\000"
 19334      5F6D696E 
 19334      00
 19335              	.LASF123:
 19336 01eb 5F696D70 		.ascii	"_impure_ptr\000"
 19336      7572655F 
 19336      70747200 
 19337              	.LASF247:
 19338 01f7 56656374 		.ascii	"Vector3DDot\000"
 19338      6F723344 
 19338      446F7400 
 19339              	.LASF118:
ARM GAS  /var/folders/cs/83z6p2tj4w57s6p2rt8nwfp00000gn/T//cc3yBana.s 			page 380


 19340 0203 5F6E6578 		.ascii	"_nextf\000"
 19340      746600
 19341              	.LASF241:
 19342 020a 62696173 		.ascii	"bias\000"
 19342      00
 19343              	.LASF246:
 19344 020f 56656374 		.ascii	"Vector3D_lengthSquared\000"
 19344      6F723344 
 19344      5F6C656E 
 19344      67746853 
 19344      71756172 
 19345              	.LASF95:
 19346 0226 5F72616E 		.ascii	"_rand48\000"
 19346      64343800 
 19347              	.LASF250:
 19348 022e 72657375 		.ascii	"result\000"
 19348      6C7400
 19349              	.LASF81:
 19350 0235 5F726573 		.ascii	"_result_k\000"
 19350      756C745F 
 19350      6B00
 19351              	.LASF13:
 19352 023f 6C6F6E67 		.ascii	"long long unsigned int\000"
 19352      206C6F6E 
 19352      6720756E 
 19352      7369676E 
 19352      65642069 
 19353              	.LASF101:
 19354 0256 5F617363 		.ascii	"_asctime_buf\000"
 19354      74696D65 
 19354      5F627566 
 19354      00
 19355              	.LASF52:
 19356 0263 5F5F7346 		.ascii	"__sFILE\000"
 19356      494C4500 
 19357              	.LASF29:
 19358 026b 5F776473 		.ascii	"_wds\000"
 19358      00
 19359              	.LASF187:
 19360 0270 7363656E 		.ascii	"scene\000"
 19360      6500
 19361              	.LASF9:
 19362 0276 5F5F7569 		.ascii	"__uint16_t\000"
 19362      6E743136 
 19362      5F7400
 19363              	.LASF91:
 19364 0281 5F5F4649 		.ascii	"__FILE\000"
 19364      4C4500
 19365              	.LASF132:
 19366 0288 5F5F6664 		.ascii	"__fdlibm_posix\000"
 19366      6C69626D 
 19366      5F706F73 
 19366      697800
 19367              	.LASF194:
 19368 0297 5363656E 		.ascii	"Scene3D_drawNode\000"
 19368      6533445F 
 19368      64726177 
ARM GAS  /var/folders/cs/83z6p2tj4w57s6p2rt8nwfp00000gn/T//cc3yBana.s 			page 381


 19368      4E6F6465 
 19368      00
 19369              	.LASF64:
 19370 02a8 5F6F6666 		.ascii	"_offset\000"
 19370      73657400 
 19371              	.LASF228:
 19372 02b0 6368696C 		.ascii	"child\000"
 19372      6400
 19373              	.LASF75:
 19374 02b6 5F656D65 		.ascii	"_emergency\000"
 19374      7267656E 
 19374      637900
 19375              	.LASF201:
 19376 02c1 636F6C6F 		.ascii	"color\000"
 19376      7200
 19377              	.LASF216:
 19378 02c7 5363656E 		.ascii	"Scene3D_setGlobalLight\000"
 19378      6533445F 
 19378      73657447 
 19378      6C6F6261 
 19378      6C4C6967 
 19379              	.LASF5:
 19380 02de 73697A65 		.ascii	"size_t\000"
 19380      5F7400
 19381              	.LASF176:
 19382 02e5 7A6D696E 		.ascii	"zmin\000"
 19382      00
 19383              	.LASF231:
 19384 02ea 6F666673 		.ascii	"offset\000"
 19384      657400
 19385              	.LASF32:
 19386 02f1 5F5F746D 		.ascii	"__tm_sec\000"
 19386      5F736563 
 19386      00
 19387              	.LASF125:
 19388 02fa 7375626F 		.ascii	"suboptarg\000"
 19388      70746172 
 19388      6700
 19389              	.LASF39:
 19390 0304 5F5F746D 		.ascii	"__tm_yday\000"
 19390      5F796461 
 19390      7900
 19391              	.LASF74:
 19392 030e 5F696E63 		.ascii	"_inc\000"
 19392      00
 19393              	.LASF47:
 19394 0313 5F696E64 		.ascii	"_ind\000"
 19394      00
 19395              	.LASF264:
 19396 0318 53686170 		.ascii	"Shape3D_retain\000"
 19396      6533445F 
 19396      72657461 
 19396      696E00
 19397              	.LASF26:
 19398 0327 5F6E6578 		.ascii	"_next\000"
 19398      7400
 19399              	.LASF114:
ARM GAS  /var/folders/cs/83z6p2tj4w57s6p2rt8nwfp00000gn/T//cc3yBana.s 			page 382


 19400 032d 5F6D6273 		.ascii	"_mbsrtowcs_state\000"
 19400      72746F77 
 19400      63735F73 
 19400      74617465 
 19400      00
 19401              	.LASF261:
 19402 033e 706E6F72 		.ascii	"pnormal\000"
 19402      6D616C00 
 19403              	.LASF208:
 19404 0346 6F726967 		.ascii	"origin\000"
 19404      696E00
 19405              	.LASF147:
 19406 034d 66616365 		.ascii	"faces\000"
 19406      7300
 19407              	.LASF230:
 19408 0353 5363656E 		.ascii	"Scene3DNode_addShapeWithOffset\000"
 19408      6533444E 
 19408      6F64655F 
 19408      61646453 
 19408      68617065 
 19409              	.LASF21:
 19410 0372 5F5F7661 		.ascii	"__value\000"
 19410      6C756500 
 19411              	.LASF82:
 19412 037a 5F703573 		.ascii	"_p5s\000"
 19412      00
 19413              	.LASF135:
 19414 037f 56656374 		.ascii	"Vector3D\000"
 19414      6F723344 
 19414      00
 19415              	.LASF257:
 19416 0388 64726177 		.ascii	"drawLine\000"
 19416      4C696E65 
 19416      00
 19417              	.LASF164:
 19418 0391 72656E64 		.ascii	"renderStyle\000"
 19418      65725374 
 19418      796C6500 
 19419              	.LASF162:
 19420 039d 70726F74 		.ascii	"prototype\000"
 19420      6F747970 
 19420      6500
 19421              	.LASF116:
 19422 03a7 5F776373 		.ascii	"_wcsrtombs_state\000"
 19422      72746F6D 
 19422      62735F73 
 19422      74617465 
 19422      00
 19423              	.LASF106:
 19424 03b8 5F6D626C 		.ascii	"_mblen_state\000"
 19424      656E5F73 
 19424      74617465 
 19424      00
 19425              	.LASF24:
 19426 03c5 63686172 		.ascii	"char\000"
 19426      00
 19427              	.LASF35:
ARM GAS  /var/folders/cs/83z6p2tj4w57s6p2rt8nwfp00000gn/T//cc3yBana.s 			page 383


 19428 03ca 5F5F746D 		.ascii	"__tm_mday\000"
 19428      5F6D6461 
 19428      7900
 19429              	.LASF88:
 19430 03d4 5F736967 		.ascii	"_sig_func\000"
 19430      5F66756E 
 19430      6300
 19431              	.LASF113:
 19432 03de 5F6D6272 		.ascii	"_mbrtowc_state\000"
 19432      746F7763 
 19432      5F737461 
 19432      746500
 19433              	.LASF87:
 19434 03ed 5F617465 		.ascii	"_atexit0\000"
 19434      78697430 
 19434      00
 19435              	.LASF236:
 19436 03f6 5363656E 		.ascii	"Scene3DNode_setVisible\000"
 19436      6533444E 
 19436      6F64655F 
 19436      73657456 
 19436      69736962 
 19437              	.LASF237:
 19438 040d 76697369 		.ascii	"visible\000"
 19438      626C6500 
 19439              	.LASF258:
 19440 0415 71736F72 		.ascii	"qsort\000"
 19440      7400
 19441              	.LASF222:
 19442 041b 5363656E 		.ascii	"Scene3D_updateShapeInstance\000"
 19442      6533445F 
 19442      75706461 
 19442      74655368 
 19442      61706549 
 19443              	.LASF223:
 19444 0437 70726F74 		.ascii	"proto\000"
 19444      6F00
 19445              	.LASF207:
 19446 043d 5363656E 		.ascii	"Scene3D_setCamera\000"
 19446      6533445F 
 19446      73657443 
 19446      616D6572 
 19446      6100
 19447              	.LASF23:
 19448 044f 5F666C6F 		.ascii	"_flock_t\000"
 19448      636B5F74 
 19448      00
 19449              	.LASF148:
 19450 0458 63656E74 		.ascii	"center\000"
 19450      657200
 19451              	.LASF18:
 19452 045f 5F5F7763 		.ascii	"__wch\000"
 19452      6800
 19453              	.LASF94:
 19454 0465 5F696F62 		.ascii	"_iobs\000"
 19454      7300
 19455              	.LASF126:
ARM GAS  /var/folders/cs/83z6p2tj4w57s6p2rt8nwfp00000gn/T//cc3yBana.s 			page 384


 19456 046b 75696E74 		.ascii	"uint8_t\000"
 19456      385F7400 
 19457              	.LASF186:
 19458 0473 5363656E 		.ascii	"Scene3D\000"
 19458      65334400 
 19459              	.LASF155:
 19460 047b 6B52656E 		.ascii	"kRenderInheritStyle\000"
 19460      64657249 
 19460      6E686572 
 19460      69745374 
 19460      796C6500 
 19461              	.LASF159:
 19462 048f 6B52656E 		.ascii	"kRenderWireframeWhite\000"
 19462      64657257 
 19462      69726566 
 19462      72616D65 
 19462      57686974 
 19463              	.LASF60:
 19464 04a5 5F636C6F 		.ascii	"_close\000"
 19464      736500
 19465              	.LASF78:
 19466 04ac 5F5F7364 		.ascii	"__sdidinit\000"
 19466      6964696E 
 19466      697400
 19467              	.LASF212:
 19468 04b7 726F6C6C 		.ascii	"roll\000"
 19468      00
 19469              	.LASF175:
 19470 04bc 6E656564 		.ascii	"needsUpdate\000"
 19470      73557064 
 19470      61746500 
 19471              	.LASF139:
 19472 04c8 6964656E 		.ascii	"identityMatrix\000"
 19472      74697479 
 19472      4D617472 
 19472      697800
 19473              	.LASF202:
 19474 04d7 66616365 		.ascii	"face\000"
 19474      00
 19475              	.LASF71:
 19476 04dc 5F737464 		.ascii	"_stdin\000"
 19476      696E00
 19477              	.LASF103:
 19478 04e3 5F67616D 		.ascii	"_gamma_signgam\000"
 19478      6D615F73 
 19478      69676E67 
 19478      616D00
 19479              	.LASF2:
 19480 04f2 6C6F6E67 		.ascii	"long long int\000"
 19480      206C6F6E 
 19480      6720696E 
 19480      7400
 19481              	.LASF170:
 19482 0500 6E436869 		.ascii	"nChildren\000"
 19482      6C647265 
 19482      6E00
 19483              	.LASF50:
ARM GAS  /var/folders/cs/83z6p2tj4w57s6p2rt8nwfp00000gn/T//cc3yBana.s 			page 385


 19484 050a 5F626173 		.ascii	"_base\000"
 19484      6500
 19485              	.LASF83:
 19486 0510 5F667265 		.ascii	"_freelist\000"
 19486      656C6973 
 19486      7400
 19487              	.LASF251:
 19488 051a 72657365 		.ascii	"resetZBuffer\000"
 19488      745A4275 
 19488      66666572 
 19488      00
 19489              	.LASF97:
 19490 0527 5F6D756C 		.ascii	"_mult\000"
 19490      7400
 19491              	.LASF25:
 19492 052d 5F5F554C 		.ascii	"__ULong\000"
 19492      6F6E6700 
 19493              	.LASF130:
 19494 0535 5F5F6664 		.ascii	"__fdlibm_svid\000"
 19494      6C69626D 
 19494      5F737669 
 19494      6400
 19495              	.LASF136:
 19496 0543 69734964 		.ascii	"isIdentity\000"
 19496      656E7469 
 19496      747900
 19497              	.LASF115:
 19498 054e 5F776372 		.ascii	"_wcrtomb_state\000"
 19498      746F6D62 
 19498      5F737461 
 19498      746500
 19499              	.LASF54:
 19500 055d 5F66696C 		.ascii	"_file\000"
 19500      6500
 19501              	.LASF262:
 19502 0563 4D617472 		.ascii	"Matrix3D_apply\000"
 19502      69783344 
 19502      5F617070 
 19502      6C7900
 19503              	.LASF182:
 19504 0572 7363616C 		.ascii	"scale\000"
 19504      6500
 19505              	.LASF267:
 19506 0578 6D656D73 		.ascii	"memset\000"
 19506      657400
 19507              	.LASF225:
 19508 057f 6F726465 		.ascii	"ordersize\000"
 19508      7273697A 
 19508      6500
 19509              	.LASF79:
 19510 0589 5F5F636C 		.ascii	"__cleanup\000"
 19510      65616E75 
 19510      7000
 19511              	.LASF133:
 19512 0593 5F5F6664 		.ascii	"__fdlib_version\000"
 19512      6C69625F 
 19512      76657273 
ARM GAS  /var/folders/cs/83z6p2tj4w57s6p2rt8nwfp00000gn/T//cc3yBana.s 			page 386


 19512      696F6E00 
 19513              	.LASF158:
 19514 05a3 6B52656E 		.ascii	"kRenderWireframeBack\000"
 19514      64657257 
 19514      69726566 
 19514      72616D65 
 19514      4261636B 
 19515              	.LASF22:
 19516 05b8 5F6D6273 		.ascii	"_mbstate_t\000"
 19516      74617465 
 19516      5F7400
 19517              	.LASF145:
 19518 05c3 706F696E 		.ascii	"points\000"
 19518      747300
 19519              	.LASF134:
 19520 05ca 506F696E 		.ascii	"Point3D\000"
 19520      74334400 
 19521              	.LASF196:
 19522 05d2 636F756E 		.ascii	"count\000"
 19522      7400
 19523              	.LASF224:
 19524 05d8 7A6D6178 		.ascii	"zmax\000"
 19524      00
 19525              	.LASF265:
 19526 05dd 53686170 		.ascii	"Shape3D_release\000"
 19526      6533445F 
 19526      72656C65 
 19526      61736500 
 19527              	.LASF40:
 19528 05ed 5F5F746D 		.ascii	"__tm_isdst\000"
 19528      5F697364 
 19528      737400
 19529              	.LASF243:
 19530 05f8 5363656E 		.ascii	"Scene3DNode_setTransform\000"
 19530      6533444E 
 19530      6F64655F 
 19530      73657454 
 19530      72616E73 
 19531              	.LASF117:
 19532 0611 5F685F65 		.ascii	"_h_errno\000"
 19532      72726E6F 
 19532      00
 19533              	.LASF256:
 19534 061a 64726177 		.ascii	"drawLine_zbuf\000"
 19534      4C696E65 
 19534      5F7A6275 
 19534      6600
 19535              	.LASF233:
 19536 0628 6E6F6465 		.ascii	"nodeshape\000"
 19536      73686170 
 19536      6500
 19537              	.LASF204:
 19538 0632 64726177 		.ascii	"drawFilledShape\000"
 19538      46696C6C 
 19538      65645368 
 19538      61706500 
 19539              	.LASF138:
ARM GAS  /var/folders/cs/83z6p2tj4w57s6p2rt8nwfp00000gn/T//cc3yBana.s 			page 387


 19540 0642 4D617472 		.ascii	"Matrix3D\000"
 19540      69783344 
 19540      00
 19541              	.LASF36:
 19542 064b 5F5F746D 		.ascii	"__tm_mon\000"
 19542      5F6D6F6E 
 19542      00
 19543              	.LASF3:
 19544 0654 6C6F6E67 		.ascii	"long double\000"
 19544      20646F75 
 19544      626C6500 
 19545              	.LASF242:
 19546 0660 5363656E 		.ascii	"Scene3DNode_addTransform\000"
 19546      6533444E 
 19546      6F64655F 
 19546      61646454 
 19546      72616E73 
 19547              	.LASF14:
 19548 0679 5F4C4F43 		.ascii	"_LOCK_T\000"
 19548      4B5F5400 
 19549              	.LASF127:
 19550 0681 75696E74 		.ascii	"uint16_t\000"
 19550      31365F74 
 19550      00
 19551              	.LASF58:
 19552 068a 5F777269 		.ascii	"_write\000"
 19552      746500
 19553              	.LASF253:
 19554 0691 66696C6C 		.ascii	"fillTriangle_zbuf\000"
 19554      54726961 
 19554      6E676C65 
 19554      5F7A6275 
 19554      6600
 19555              	.LASF239:
 19556 06a3 5363656E 		.ascii	"Scene3DNode_setRenderStyle\000"
 19556      6533444E 
 19556      6F64655F 
 19556      73657452 
 19556      656E6465 
 19557              	.LASF165:
 19558 06be 696E7665 		.ascii	"inverted\000"
 19558      72746564 
 19558      00
 19559              	.LASF142:
 19560 06c7 46616365 		.ascii	"Face3D\000"
 19560      334400
 19561              	.LASF46:
 19562 06ce 5F617465 		.ascii	"_atexit\000"
 19562      78697400 
 19563              	.LASF183:
 19564 06d6 726F6F74 		.ascii	"root\000"
 19564      00
 19565              	.LASF254:
 19566 06db 66696C6C 		.ascii	"fillQuad\000"
 19566      51756164 
 19566      00
 19567              	.LASF172:
ARM GAS  /var/folders/cs/83z6p2tj4w57s6p2rt8nwfp00000gn/T//cc3yBana.s 			page 388


 19568 06e4 73686170 		.ascii	"shapeCount\000"
 19568      65436F75 
 19568      6E7400
 19569              	.LASF141:
 19570 06ef 636F6C6F 		.ascii	"colorBias\000"
 19570      72426961 
 19570      7300
 19571              	.LASF152:
 19572 06f9 46616365 		.ascii	"FaceInstance\000"
 19572      496E7374 
 19572      616E6365 
 19572      00
 19573              	.LASF229:
 19574 0706 5363656E 		.ascii	"Scene3DNode_addShape\000"
 19574      6533444E 
 19574      6F64655F 
 19574      61646453 
 19574      68617065 
 19575              	.LASF140:
 19576 071b 6D33645F 		.ascii	"m3d_realloc\000"
 19576      7265616C 
 19576      6C6F6300 
 19577              	.LASF8:
 19578 0727 73686F72 		.ascii	"short int\000"
 19578      7420696E 
 19578      7400
 19579              	.LASF248:
 19580 0731 56656374 		.ascii	"Vector3DMake\000"
 19580      6F723344 
 19580      4D616B65 
 19580      00
 19581              	.LASF179:
 19582 073e 6C696768 		.ascii	"light\000"
 19582      7400
 19583              	.LASF11:
 19584 0744 6C6F6E67 		.ascii	"long int\000"
 19584      20696E74 
 19584      00
 19585              	.LASF197:
 19586 074d 73686170 		.ascii	"shape\000"
 19586      6500
 19587              	.LASF255:
 19588 0753 66696C6C 		.ascii	"fillTriangle\000"
 19588      54726961 
 19588      6E676C65 
 19588      00
 19589              	.LASF189:
 19590 0760 726F7773 		.ascii	"rowstride\000"
 19590      74726964 
 19590      6500
 19591              	.LASF211:
 19592 076a 70697463 		.ascii	"pitch\000"
 19592      6800
 19593              	.LASF263:
 19594 0770 4D617472 		.ascii	"Matrix3DMakeTranslate\000"
 19594      69783344 
 19594      4D616B65 
ARM GAS  /var/folders/cs/83z6p2tj4w57s6p2rt8nwfp00000gn/T//cc3yBana.s 			page 389


 19594      5472616E 
 19594      736C6174 
 19595              	.LASF90:
 19596 0786 5F5F7366 		.ascii	"__sf\000"
 19596      00
 19597              	.LASF28:
 19598 078b 5F736967 		.ascii	"_sign\000"
 19598      6E00
 19599              	.LASF214:
 19600 0791 67657453 		.ascii	"getShapesAtNode\000"
 19600      68617065 
 19600      7341744E 
 19600      6F646500 
 19601              	.LASF65:
 19602 07a1 5F646174 		.ascii	"_data\000"
 19602      6100
 19603              	.LASF19:
 19604 07a7 5F5F7763 		.ascii	"__wchb\000"
 19604      686200
 19605              	.LASF124:
 19606 07ae 5F676C6F 		.ascii	"_global_impure_ptr\000"
 19606      62616C5F 
 19606      696D7075 
 19606      72655F70 
 19606      747200
 19607              	.LASF37:
 19608 07c1 5F5F746D 		.ascii	"__tm_year\000"
 19608      5F796561 
 19608      7200
 19609              	.LASF249:
 19610 07cb 5F6C6962 		.ascii	"_lib3d_sqrtf\000"
 19610      33645F73 
 19610      71727466 
 19610      00
 19611              	.LASF163:
 19612 07d8 7472616E 		.ascii	"transform\000"
 19612      73666F72 
 19612      6D00
 19613              	.LASF215:
 19614 07e2 5363656E 		.ascii	"Scene3D_setCenter\000"
 19614      6533445F 
 19614      73657443 
 19614      656E7465 
 19614      7200
 19615              	.LASF129:
 19616 07f4 5F5F6664 		.ascii	"__fdlibm_ieee\000"
 19616      6C69626D 
 19616      5F696565 
 19616      6500
 19617              	.LASF102:
 19618 0802 5F6C6F63 		.ascii	"_localtime_buf\000"
 19618      616C7469 
 19618      6D655F62 
 19618      756600
 19619              	.LASF185:
 19620 0811 73686170 		.ascii	"shapelistsize\000"
 19620      656C6973 
ARM GAS  /var/folders/cs/83z6p2tj4w57s6p2rt8nwfp00000gn/T//cc3yBana.s 			page 390


 19620      7473697A 
 19620      6500
 19621              	.LASF120:
 19622 081f 5F756E75 		.ascii	"_unused\000"
 19622      73656400 
 19623              	.LASF6:
 19624 0827 5F5F7569 		.ascii	"__uint8_t\000"
 19624      6E74385F 
 19624      7400
 19625              	.LASF220:
 19626 0831 78666F72 		.ascii	"xform\000"
 19626      6D00
 19627              	.LASF171:
 19628 0837 6368696C 		.ascii	"childNodes\000"
 19628      644E6F64 
 19628      657300
 19629              	.LASF86:
 19630 0842 5F6E6577 		.ascii	"_new\000"
 19630      00
 19631              	.LASF84:
 19632 0847 5F637674 		.ascii	"_cvtlen\000"
 19632      6C656E00 
 19633              	.LASF27:
 19634 084f 5F6D6178 		.ascii	"_maxwds\000"
 19634      77647300 
 19635              	.LASF109:
 19636 0857 5F6C3634 		.ascii	"_l64a_buf\000"
 19636      615F6275 
 19636      6600
 19637              	.LASF234:
 19638 0861 5363656E 		.ascii	"Scene3DNode_setUsesZBuffer\000"
 19638      6533444E 
 19638      6F64655F 
 19638      73657455 
 19638      7365735A 
 19639              	.LASF232:
 19640 087c 5363656E 		.ascii	"Scene3DNode_addShapeWithTransform\000"
 19640      6533444E 
 19640      6F64655F 
 19640      61646453 
 19640      68617065 
 19641              	.LASF268:
 19642 089e 5F5F6275 		.ascii	"__builtin_memset\000"
 19642      696C7469 
 19642      6E5F6D65 
 19642      6D736574 
 19642      00
 19643              	.LASF63:
 19644 08af 5F626C6B 		.ascii	"_blksize\000"
 19644      73697A65 
 19644      00
 19645              	.LASF31:
 19646 08b8 5F5F746D 		.ascii	"__tm\000"
 19646      00
 19647              	.LASF66:
 19648 08bd 5F6C6F63 		.ascii	"_lock\000"
 19648      6B00
ARM GAS  /var/folders/cs/83z6p2tj4w57s6p2rt8nwfp00000gn/T//cc3yBana.s 			page 391


 19649              	.LASF12:
 19650 08c3 6C6F6E67 		.ascii	"long unsigned int\000"
 19650      20756E73 
 19650      69676E65 
 19650      6420696E 
 19650      7400
 19651              	.LASF93:
 19652 08d5 5F6E696F 		.ascii	"_niobs\000"
 19652      627300
 19653              	.LASF17:
 19654 08dc 77696E74 		.ascii	"wint_t\000"
 19654      5F7400
 19655              	.LASF43:
 19656 08e3 5F64736F 		.ascii	"_dso_handle\000"
 19656      5F68616E 
 19656      646C6500 
 19657              	.LASF121:
 19658 08ef 5F5F6C6F 		.ascii	"__lock\000"
 19658      636B00
 19659              	.LASF252:
 19660 08f6 66696C6C 		.ascii	"fillQuad_zbuf\000"
 19660      51756164 
 19660      5F7A6275 
 19660      6600
 19661              	.LASF153:
 19662 0904 6E6F726D 		.ascii	"normal\000"
 19662      616C00
 19663              	.LASF85:
 19664 090b 5F637674 		.ascii	"_cvtbuf\000"
 19664      62756600 
 19665              	.LASF7:
 19666 0913 756E7369 		.ascii	"unsigned char\000"
 19666      676E6564 
 19666      20636861 
 19666      7200
 19667              	.LASF188:
 19668 0921 6269746D 		.ascii	"bitmap\000"
 19668      617000
 19669              	.LASF206:
 19670 0928 70617474 		.ascii	"pattern\000"
 19670      65726E00 
 19671              	.LASF259:
 19672 0930 4D617472 		.ascii	"Matrix3DMake\000"
 19672      69783344 
 19672      4D616B65 
 19672      00
 19673              	.LASF245:
 19674 093d 5363656E 		.ascii	"Scene3DNode_init\000"
 19674      6533444E 
 19674      6F64655F 
 19674      696E6974 
 19674      00
 19675              	.LASF111:
 19676 094e 5F676574 		.ascii	"_getdate_err\000"
 19676      64617465 
 19676      5F657272 
 19676      00
ARM GAS  /var/folders/cs/83z6p2tj4w57s6p2rt8nwfp00000gn/T//cc3yBana.s 			page 392


 19677              	.LASF210:
 19678 095b 70617474 		.ascii	"patterns\000"
 19678      65726E73 
 19678      00
 19679              	.LASF98:
 19680 0964 5F616464 		.ascii	"_add\000"
 19680      00
 19681              	.LASF198:
 19682 0969 7374796C 		.ascii	"style\000"
 19682      6500
 19683              	.LASF49:
 19684 096f 5F5F7362 		.ascii	"__sbuf\000"
 19684      756600
 19685              	.LASF200:
 19686 0976 73686170 		.ascii	"shapeb\000"
 19686      656200
 19687              	.LASF203:
 19688 097d 64726177 		.ascii	"drawWireframe\000"
 19688      57697265 
 19688      6672616D 
 19688      6500
 19689              	.LASF260:
 19690 098b 4D617472 		.ascii	"Matrix3D_multiply\000"
 19690      69783344 
 19690      5F6D756C 
 19690      7469706C 
 19690      7900
 19691              	.LASF92:
 19692 099d 5F676C75 		.ascii	"_glue\000"
 19692      6500
 19693              	.LASF266:
 19694 09a3 5F5F6664 		.ascii	"__fdlibm_version\000"
 19694      6C69626D 
 19694      5F766572 
 19694      73696F6E 
 19694      00
 19695              	.LASF192:
 19696 09b4 2F557365 		.ascii	"/Users/orllewin/projects/playdate/Cube\000"
 19696      72732F6F 
 19696      726C6C65 
 19696      77696E2F 
 19696      70726F6A 
 19697              	.LASF227:
 19698 09db 5363656E 		.ascii	"Scene3DNode_newChild\000"
 19698      6533444E 
 19698      6F64655F 
 19698      6E657743 
 19698      68696C64 
 19699              	.LASF205:
 19700 09f0 64726177 		.ascii	"drawShapeFace\000"
 19700      53686170 
 19700      65466163 
 19700      6500
 19701              	.LASF89:
 19702 09fe 5F5F7367 		.ascii	"__sglue\000"
 19702      6C756500 
 19703              	.LASF100:
ARM GAS  /var/folders/cs/83z6p2tj4w57s6p2rt8nwfp00000gn/T//cc3yBana.s 			page 393


 19704 0a06 5F737472 		.ascii	"_strtok_last\000"
 19704      746F6B5F 
 19704      6C617374 
 19704      00
 19705              	.LASF107:
 19706 0a13 5F6D6274 		.ascii	"_mbtowc_state\000"
 19706      6F77635F 
 19706      73746174 
 19706      6500
 19707              	.LASF77:
 19708 0a21 5F6C6F63 		.ascii	"_locale\000"
 19708      616C6500 
 19709              	.LASF240:
 19710 0a29 5363656E 		.ascii	"Scene3DNode_setColorBias\000"
 19710      6533444E 
 19710      6F64655F 
 19710      73657443 
 19710      6F6C6F72 
 19711              	.LASF157:
 19712 0a42 6B52656E 		.ascii	"kRenderWireframe\000"
 19712      64657257 
 19712      69726566 
 19712      72616D65 
 19712      00
 19713              	.LASF42:
 19714 0a53 5F666E61 		.ascii	"_fnargs\000"
 19714      72677300 
 19715              	.LASF4:
 19716 0a5b 7369676E 		.ascii	"signed char\000"
 19716      65642063 
 19716      68617200 
 19717              	.LASF177:
 19718 0a67 68617350 		.ascii	"hasPerspective\000"
 19718      65727370 
 19718      65637469 
 19718      766500
 19719              	.LASF217:
 19720 0a76 5363656E 		.ascii	"Scene3D_deinit\000"
 19720      6533445F 
 19720      6465696E 
 19720      697400
 19721              	.LASF69:
 19722 0a85 5F726565 		.ascii	"_reent\000"
 19722      6E7400
 19723              	.LASF190:
 19724 0a8c 474E5520 		.ascii	"GNU C17 9.2.1 20191025 (release) [ARM/arm-9-branch "
 19724      43313720 
 19724      392E322E 
 19724      31203230 
 19724      31393130 
 19725 0abf 72657669 		.ascii	"revision 277599] -mthumb -mcpu=cortex-m7 -mfloat-ab"
 19725      73696F6E 
 19725      20323737 
 19725      3539395D 
 19725      202D6D74 
 19726 0af2 693D6861 		.ascii	"i=hard -mfpu=fpv5-sp-d16 -march=armv7e-m+fpv5 -g -g"
 19726      7264202D 
ARM GAS  /var/folders/cs/83z6p2tj4w57s6p2rt8nwfp00000gn/T//cc3yBana.s 			page 394


 19726      6D667075 
 19726      3D667076 
 19726      352D7370 
 19727 0b25 64776172 		.ascii	"dwarf-2 -O2 -falign-functions=16 -fomit-frame-point"
 19727      662D3220 
 19727      2D4F3220 
 19727      2D66616C 
 19727      69676E2D 
 19728 0b58 6572202D 		.ascii	"er -ffunction-sections -fdata-sections\000"
 19728      6666756E 
 19728      6374696F 
 19728      6E2D7365 
 19728      6374696F 
 19729              	.LASF10:
 19730 0b7f 73686F72 		.ascii	"short unsigned int\000"
 19730      7420756E 
 19730      7369676E 
 19730      65642069 
 19730      6E7400
 19731              	.LASF226:
 19732 0b92 5363656E 		.ascii	"Scene3D_getRootNode\000"
 19732      6533445F 
 19732      67657452 
 19732      6F6F744E 
 19732      6F646500 
 19733              	.LASF161:
 19734 0ba6 53686170 		.ascii	"ShapeInstance\000"
 19734      65496E73 
 19734      74616E63 
 19734      6500
 19735              	.LASF219:
 19736 0bb4 5363656E 		.ascii	"Scene3D_updateNode\000"
 19736      6533445F 
 19736      75706461 
 19736      74654E6F 
 19736      646500
 19737              	.LASF174:
 19738 0bc7 69735669 		.ascii	"isVisible\000"
 19738      7369626C 
 19738      6500
 19739              	.LASF44:
 19740 0bd1 5F666E74 		.ascii	"_fntypes\000"
 19740      79706573 
 19740      00
 19741              	.LASF146:
 19742 0bda 6E466163 		.ascii	"nFaces\000"
 19742      657300
 19743              	.LASF51:
 19744 0be1 5F73697A 		.ascii	"_size\000"
 19744      6500
 19745              	.LASF128:
 19746 0be7 646F7562 		.ascii	"double\000"
 19746      6C6500
 19747              	.LASF15:
 19748 0bee 5F6F6666 		.ascii	"_off_t\000"
 19748      5F7400
 19749              	.LASF62:
ARM GAS  /var/folders/cs/83z6p2tj4w57s6p2rt8nwfp00000gn/T//cc3yBana.s 			page 395


 19750 0bf5 5F6E6275 		.ascii	"_nbuf\000"
 19750      6600
 19751              	.LASF99:
 19752 0bfb 5F756E75 		.ascii	"_unused_rand\000"
 19752      7365645F 
 19752      72616E64 
 19752      00
 19753              	.LASF76:
 19754 0c08 5F756E73 		.ascii	"_unspecified_locale_info\000"
 19754      70656369 
 19754      66696564 
 19754      5F6C6F63 
 19754      616C655F 
 19755              	.LASF160:
 19756 0c21 52656E64 		.ascii	"RenderStyle\000"
 19756      65725374 
 19756      796C6500 
 19757              	.LASF68:
 19758 0c2d 5F666C61 		.ascii	"_flags2\000"
 19758      67733200 
 19759              	.LASF45:
 19760 0c35 5F69735F 		.ascii	"_is_cxa\000"
 19760      63786100 
 19761              	.LASF96:
 19762 0c3d 5F736565 		.ascii	"_seed\000"
 19762      6400
 19763              	.LASF104:
 19764 0c43 5F72616E 		.ascii	"_rand_next\000"
 19764      645F6E65 
 19764      787400
 19765              	.LASF122:
 19766 0c4e 5F5F6C6F 		.ascii	"__locale_t\000"
 19766      63616C65 
 19766      5F7400
 19767              	.LASF59:
 19768 0c59 5F736565 		.ascii	"_seek\000"
 19768      6B00
 19769              	.LASF199:
 19770 0c5f 73686170 		.ascii	"shapea\000"
 19770      656100
 19771              	.LASF151:
 19772 0c66 53686170 		.ascii	"Shape3D\000"
 19772      65334400 
 19773              	.LASF73:
 19774 0c6e 5F737464 		.ascii	"_stderr\000"
 19774      65727200 
 19775              	.LASF119:
 19776 0c76 5F6E6D61 		.ascii	"_nmalloc\000"
 19776      6C6C6F63 
 19776      00
 19777              	.LASF61:
 19778 0c7f 5F756275 		.ascii	"_ubuf\000"
 19778      6600
 19779              		.ident	"GCC: (GNU Tools for Arm Embedded Processors 9-2019-q4-major) 9.2.1 20191025 (release) [ARM
ARM GAS  /var/folders/cs/83z6p2tj4w57s6p2rt8nwfp00000gn/T//cc3yBana.s 			page 396


DEFINED SYMBOLS
                            *ABS*:0000000000000000 scene.c
/var/folders/cs/83z6p2tj4w57s6p2rt8nwfp00000gn/T//cc3yBana.s:78     .text.getShapesAtNode:0000000000000000 $t
/var/folders/cs/83z6p2tj4w57s6p2rt8nwfp00000gn/T//cc3yBana.s:86     .text.getShapesAtNode:0000000000000000 getShapesAtNode
/var/folders/cs/83z6p2tj4w57s6p2rt8nwfp00000gn/T//cc3yBana.s:237    .text.getShapesAtNode:000000000000007c $d
/var/folders/cs/83z6p2tj4w57s6p2rt8nwfp00000gn/T//cc3yBana.s:242    .text.compareZ:0000000000000000 $t
/var/folders/cs/83z6p2tj4w57s6p2rt8nwfp00000gn/T//cc3yBana.s:249    .text.compareZ:0000000000000000 compareZ
/var/folders/cs/83z6p2tj4w57s6p2rt8nwfp00000gn/T//cc3yBana.s:284    .text.Scene3DNode_init:0000000000000000 $t
/var/folders/cs/83z6p2tj4w57s6p2rt8nwfp00000gn/T//cc3yBana.s:292    .text.Scene3DNode_init:0000000000000000 Scene3DNode_init
/var/folders/cs/83z6p2tj4w57s6p2rt8nwfp00000gn/T//cc3yBana.s:389    .text.Scene3DNode_init:0000000000000044 $d
/var/folders/cs/83z6p2tj4w57s6p2rt8nwfp00000gn/T//cc3yBana.s:394    .text.Scene3DNode_deinit:0000000000000000 $t
/var/folders/cs/83z6p2tj4w57s6p2rt8nwfp00000gn/T//cc3yBana.s:402    .text.Scene3DNode_deinit:0000000000000000 Scene3DNode_deinit
/var/folders/cs/83z6p2tj4w57s6p2rt8nwfp00000gn/T//cc3yBana.s:550    .text.Scene3DNode_deinit:0000000000000074 $d
/var/folders/cs/83z6p2tj4w57s6p2rt8nwfp00000gn/T//cc3yBana.s:555    .text.Scene3DNode_setTransform:0000000000000000 $t
/var/folders/cs/83z6p2tj4w57s6p2rt8nwfp00000gn/T//cc3yBana.s:563    .text.Scene3DNode_setTransform:0000000000000000 Scene3DNode_setTransform
/var/folders/cs/83z6p2tj4w57s6p2rt8nwfp00000gn/T//cc3yBana.s:635    .text.Scene3DNode_addTransform:0000000000000000 $t
/var/folders/cs/83z6p2tj4w57s6p2rt8nwfp00000gn/T//cc3yBana.s:643    .text.Scene3DNode_addTransform:0000000000000000 Scene3DNode_addTransform
/var/folders/cs/83z6p2tj4w57s6p2rt8nwfp00000gn/T//cc3yBana.s:777    .text.Scene3DNode_setColorBias:0000000000000000 $t
/var/folders/cs/83z6p2tj4w57s6p2rt8nwfp00000gn/T//cc3yBana.s:785    .text.Scene3DNode_setColorBias:0000000000000000 Scene3DNode_setColorBias
/var/folders/cs/83z6p2tj4w57s6p2rt8nwfp00000gn/T//cc3yBana.s:812    .text.Scene3DNode_setRenderStyle:0000000000000000 $t
/var/folders/cs/83z6p2tj4w57s6p2rt8nwfp00000gn/T//cc3yBana.s:820    .text.Scene3DNode_setRenderStyle:0000000000000000 Scene3DNode_setRenderStyle
/var/folders/cs/83z6p2tj4w57s6p2rt8nwfp00000gn/T//cc3yBana.s:847    .text.Scene3DNode_getRenderStyle:0000000000000000 $t
/var/folders/cs/83z6p2tj4w57s6p2rt8nwfp00000gn/T//cc3yBana.s:855    .text.Scene3DNode_getRenderStyle:0000000000000000 Scene3DNode_getRenderStyle
/var/folders/cs/83z6p2tj4w57s6p2rt8nwfp00000gn/T//cc3yBana.s:896    .text.Scene3DNode_setVisible:0000000000000000 $t
/var/folders/cs/83z6p2tj4w57s6p2rt8nwfp00000gn/T//cc3yBana.s:904    .text.Scene3DNode_setVisible:0000000000000000 Scene3DNode_setVisible
/var/folders/cs/83z6p2tj4w57s6p2rt8nwfp00000gn/T//cc3yBana.s:931    .text.Scene3DNode_setUsesZBuffer:0000000000000000 $t
/var/folders/cs/83z6p2tj4w57s6p2rt8nwfp00000gn/T//cc3yBana.s:939    .text.Scene3DNode_setUsesZBuffer:0000000000000000 Scene3DNode_setUsesZBuffer
/var/folders/cs/83z6p2tj4w57s6p2rt8nwfp00000gn/T//cc3yBana.s:967    .text.Scene3DNode_addShapeWithTransform:0000000000000000 $t
/var/folders/cs/83z6p2tj4w57s6p2rt8nwfp00000gn/T//cc3yBana.s:975    .text.Scene3DNode_addShapeWithTransform:0000000000000000 Scene3DNode_addShapeWithTransform
/var/folders/cs/83z6p2tj4w57s6p2rt8nwfp00000gn/T//cc3yBana.s:1358   .text.Scene3DNode_addShapeWithTransform:0000000000000154 $d
/var/folders/cs/83z6p2tj4w57s6p2rt8nwfp00000gn/T//cc3yBana.s:1363   .text.Scene3DNode_addShapeWithOffset:0000000000000000 $t
/var/folders/cs/83z6p2tj4w57s6p2rt8nwfp00000gn/T//cc3yBana.s:1371   .text.Scene3DNode_addShapeWithOffset:0000000000000000 Scene3DNode_addShapeWithOffset
/var/folders/cs/83z6p2tj4w57s6p2rt8nwfp00000gn/T//cc3yBana.s:1441   .text.Scene3DNode_addShape:0000000000000000 $t
/var/folders/cs/83z6p2tj4w57s6p2rt8nwfp00000gn/T//cc3yBana.s:1449   .text.Scene3DNode_addShape:0000000000000000 Scene3DNode_addShape
/var/folders/cs/83z6p2tj4w57s6p2rt8nwfp00000gn/T//cc3yBana.s:1508   .text.Scene3DNode_addShape:0000000000000030 $d
/var/folders/cs/83z6p2tj4w57s6p2rt8nwfp00000gn/T//cc3yBana.s:1513   .text.Scene3DNode_newChild:0000000000000000 $t
/var/folders/cs/83z6p2tj4w57s6p2rt8nwfp00000gn/T//cc3yBana.s:1521   .text.Scene3DNode_newChild:0000000000000000 Scene3DNode_newChild
/var/folders/cs/83z6p2tj4w57s6p2rt8nwfp00000gn/T//cc3yBana.s:1673   .text.Scene3DNode_newChild:000000000000006c $d
/var/folders/cs/83z6p2tj4w57s6p2rt8nwfp00000gn/T//cc3yBana.s:1679   .text.Scene3D_updateNode:0000000000000000 $t
/var/folders/cs/83z6p2tj4w57s6p2rt8nwfp00000gn/T//cc3yBana.s:1687   .text.Scene3D_updateNode:0000000000000000 Scene3D_updateNode
/var/folders/cs/83z6p2tj4w57s6p2rt8nwfp00000gn/T//cc3yBana.s:2370   .text.Scene3D_updateNode:000000000000033c $d
/var/folders/cs/83z6p2tj4w57s6p2rt8nwfp00000gn/T//cc3yBana.s:2385   .text.Scene3D_updateNode:0000000000000350 $t
/var/folders/cs/83z6p2tj4w57s6p2rt8nwfp00000gn/T//cc3yBana.s:2610   .text.Scene3D_deinit:0000000000000000 $t
/var/folders/cs/83z6p2tj4w57s6p2rt8nwfp00000gn/T//cc3yBana.s:2618   .text.Scene3D_deinit:0000000000000000 Scene3D_deinit
/var/folders/cs/83z6p2tj4w57s6p2rt8nwfp00000gn/T//cc3yBana.s:2668   .text.Scene3D_deinit:0000000000000020 $d
/var/folders/cs/83z6p2tj4w57s6p2rt8nwfp00000gn/T//cc3yBana.s:2673   .text.Scene3D_setGlobalLight:0000000000000000 $t
/var/folders/cs/83z6p2tj4w57s6p2rt8nwfp00000gn/T//cc3yBana.s:2681   .text.Scene3D_setGlobalLight:0000000000000000 Scene3D_setGlobalLight
/var/folders/cs/83z6p2tj4w57s6p2rt8nwfp00000gn/T//cc3yBana.s:2721   .text.Scene3D_setCenter:0000000000000000 $t
/var/folders/cs/83z6p2tj4w57s6p2rt8nwfp00000gn/T//cc3yBana.s:2729   .text.Scene3D_setCenter:0000000000000000 Scene3D_setCenter
/var/folders/cs/83z6p2tj4w57s6p2rt8nwfp00000gn/T//cc3yBana.s:2752   .text.Scene3D_getRootNode:0000000000000000 $t
/var/folders/cs/83z6p2tj4w57s6p2rt8nwfp00000gn/T//cc3yBana.s:2760   .text.Scene3D_getRootNode:0000000000000000 Scene3D_getRootNode
/var/folders/cs/83z6p2tj4w57s6p2rt8nwfp00000gn/T//cc3yBana.s:2779   .text.Scene3D_setCamera:0000000000000000 $t
/var/folders/cs/83z6p2tj4w57s6p2rt8nwfp00000gn/T//cc3yBana.s:2787   .text.Scene3D_setCamera:0000000000000000 Scene3D_setCamera
/var/folders/cs/83z6p2tj4w57s6p2rt8nwfp00000gn/T//cc3yBana.s:3351   .text.Scene3D_setCamera:00000000000002c0 $d
/var/folders/cs/83z6p2tj4w57s6p2rt8nwfp00000gn/T//cc3yBana.s:3358   .text.Scene3D_init:0000000000000000 $t
/var/folders/cs/83z6p2tj4w57s6p2rt8nwfp00000gn/T//cc3yBana.s:3366   .text.Scene3D_init:0000000000000000 Scene3D_init
/var/folders/cs/83z6p2tj4w57s6p2rt8nwfp00000gn/T//cc3yBana.s:3593   .text.Scene3D_init:00000000000000a4 $d
ARM GAS  /var/folders/cs/83z6p2tj4w57s6p2rt8nwfp00000gn/T//cc3yBana.s 			page 397


/var/folders/cs/83z6p2tj4w57s6p2rt8nwfp00000gn/T//cc3yBana.s:3600   .text.Scene3D_drawNode:0000000000000000 $t
/var/folders/cs/83z6p2tj4w57s6p2rt8nwfp00000gn/T//cc3yBana.s:3608   .text.Scene3D_drawNode:0000000000000000 Scene3D_drawNode
/var/folders/cs/83z6p2tj4w57s6p2rt8nwfp00000gn/T//cc3yBana.s:4166   .text.Scene3D_drawNode:000000000000022c $d
/var/folders/cs/83z6p2tj4w57s6p2rt8nwfp00000gn/T//cc3yBana.s:4175   .text.Scene3D_drawNode:0000000000000244 $t
/var/folders/cs/83z6p2tj4w57s6p2rt8nwfp00000gn/T//cc3yBana.s:4902   .text.Scene3D_drawNode:00000000000005b8 $d
/var/folders/cs/83z6p2tj4w57s6p2rt8nwfp00000gn/T//cc3yBana.s:4917   .text.Scene3D_drawNode:00000000000005c0 $t
/var/folders/cs/83z6p2tj4w57s6p2rt8nwfp00000gn/T//cc3yBana.s:5603   .text.Scene3D_drawNode:00000000000008dc $d
/var/folders/cs/83z6p2tj4w57s6p2rt8nwfp00000gn/T//cc3yBana.s:5616   .text.Scene3D_draw:0000000000000000 $t
/var/folders/cs/83z6p2tj4w57s6p2rt8nwfp00000gn/T//cc3yBana.s:5624   .text.Scene3D_draw:0000000000000000 Scene3D_draw
/var/folders/cs/83z6p2tj4w57s6p2rt8nwfp00000gn/T//cc3yBana.s:5729   .text.Scene3D_draw:0000000000000060 $d
/var/folders/cs/83z6p2tj4w57s6p2rt8nwfp00000gn/T//cc3yBana.s:5735   .data.patterns:0000000000000000 $d
/var/folders/cs/83z6p2tj4w57s6p2rt8nwfp00000gn/T//cc3yBana.s:5739   .data.patterns:0000000000000000 patterns

UNDEFINED SYMBOLS
m3d_realloc
identityMatrix
Shape3D_release
Matrix3D_multiply
Shape3D_retain
pnormal
Matrix3D_apply
Matrix3DMakeTranslate
memset
Matrix3DMake
fillQuad_zbuf
drawLine_zbuf
fillTriangle_zbuf
fillQuad
fillTriangle
drawLine
qsort
resetZBuffer
