ARM GAS  /var/folders/cs/83z6p2tj4w57s6p2rt8nwfp00000gn/T//cc3yBana.s 			page 1


   1              		.cpu cortex-m7
   2              		.eabi_attribute 27, 1	@ Tag_ABI_HardFP_use
   3              		.eabi_attribute 28, 1	@ Tag_ABI_VFP_args
   4              		.eabi_attribute 20, 1	@ Tag_ABI_FP_denormal
   5              		.eabi_attribute 21, 1	@ Tag_ABI_FP_exceptions
   6              		.eabi_attribute 23, 3	@ Tag_ABI_FP_number_model
   7              		.eabi_attribute 24, 1	@ Tag_ABI_align8_needed
   8              		.eabi_attribute 25, 1	@ Tag_ABI_align8_preserved
   9              		.eabi_attribute 26, 1	@ Tag_ABI_enum_size
  10              		.eabi_attribute 30, 2	@ Tag_ABI_optimization_goals
  11              		.eabi_attribute 34, 1	@ Tag_CPU_unaligned_access
  12              		.eabi_attribute 18, 4	@ Tag_ABI_PCS_wchar_t
  13              		.file	"scene.c"
  14              	@ GNU C17 (GNU Tools for Arm Embedded Processors 9-2019-q4-major) version 9.2.1 20191025 (release) 
  15              	@	compiled by GNU C version 4.2.1 Compatible Apple LLVM 9.0.0 (clang-900.0.39.2), GMP version 6.1.0
  16              	
  17              	@ GGC heuristics: --param ggc-min-expand=100 --param ggc-min-heapsize=131072
  18              	@ options passed:  -I . -I . -I /Users/orllewin/Developer/PlaydateSDK/C_API
  19              	@ -I mini3d -imultilib thumb/v7e-m+fp/hard
  20              	@ -iprefix /usr/local/playdate/gcc-arm-none-eabi-9-2019-q4-major/bin/../lib/gcc/arm-none-eabi/9.2.1
  21              	@ -isysroot /usr/local/playdate/gcc-arm-none-eabi-9-2019-q4-major/bin/../arm-none-eabi
  22              	@ -MD build/mini3d/scene.d -MF build/dep/scene.o.d -MP
  23              	@ -MQ build/mini3d/scene.o -D__USES_INITFINI__ -D __FPU_USED=1
  24              	@ -D TARGET_PLAYDATE=1 -D TARGET_EXTENSION=1 mini3d/scene.c -mthumb
  25              	@ -mcpu=cortex-m7 -mfloat-abi=hard -mfpu=fpv5-sp-d16 -march=armv7e-m+fpv5
  26              	@ -auxbase-strip build/mini3d/scene.o -g -gdwarf-2 -O2 -Wall -Wno-unused
  27              	@ -Wstrict-prototypes -Wno-unknown-pragmas -Wdouble-promotion
  28              	@ -falign-functions=16 -fomit-frame-pointer -fverbose-asm
  29              	@ -ffunction-sections -fdata-sections
  30              	@ options enabled:  -faggressive-loop-optimizations -falign-functions
  31              	@ -falign-jumps -falign-labels -falign-loops -fassume-phsa -fauto-inc-dec
  32              	@ -fbranch-count-reg -fcaller-saves -fcombine-stack-adjustments -fcommon
  33              	@ -fcompare-elim -fcprop-registers -fcrossjumping -fcse-follow-jumps
  34              	@ -fdata-sections -fdefer-pop -fdelete-null-pointer-checks -fdevirtualize
  35              	@ -fdevirtualize-speculatively -fdwarf2-cfi-asm -fearly-inlining
  36              	@ -feliminate-unused-debug-types -fexpensive-optimizations
  37              	@ -fforward-propagate -ffp-int-builtin-inexact -ffunction-cse
  38              	@ -ffunction-sections -fgcse -fgcse-lm -fgnu-runtime -fgnu-unique
  39              	@ -fguess-branch-probability -fhoist-adjacent-loads -fident -fif-conversion
  40              	@ -fif-conversion2 -findirect-inlining -finline -finline-atomics
  41              	@ -finline-functions-called-once -finline-small-functions -fipa-bit-cp
  42              	@ -fipa-cp -fipa-icf -fipa-icf-functions -fipa-icf-variables -fipa-profile
  43              	@ -fipa-pure-const -fipa-ra -fipa-reference -fipa-reference-addressable
  44              	@ -fipa-sra -fipa-stack-alignment -fipa-vrp -fira-hoist-pressure
  45              	@ -fira-share-save-slots -fira-share-spill-slots
  46              	@ -fisolate-erroneous-paths-dereference -fivopts -fkeep-static-consts
  47              	@ -fleading-underscore -flifetime-dse -flra-remat -flto-odr-type-merging
  48              	@ -fmath-errno -fmerge-constants -fmerge-debug-strings
  49              	@ -fmove-loop-invariants -fomit-frame-pointer -foptimize-sibling-calls
  50              	@ -foptimize-strlen -fpartial-inlining -fpeephole -fpeephole2 -fplt
  51              	@ -fprefetch-loop-arrays -freg-struct-return -freorder-blocks
  52              	@ -freorder-functions -frerun-cse-after-loop
  53              	@ -fsched-critical-path-heuristic -fsched-dep-count-heuristic
  54              	@ -fsched-group-heuristic -fsched-interblock -fsched-last-insn-heuristic
  55              	@ -fsched-pressure -fsched-rank-heuristic -fsched-spec
  56              	@ -fsched-spec-insn-heuristic -fsched-stalled-insns-dep -fschedule-insns
  57              	@ -fschedule-insns2 -fsection-anchors -fsemantic-interposition
ARM GAS  /var/folders/cs/83z6p2tj4w57s6p2rt8nwfp00000gn/T//cc3yBana.s 			page 2


  58              	@ -fshow-column -fshrink-wrap -fshrink-wrap-separate -fsigned-zeros
  59              	@ -fsplit-ivs-in-unroller -fsplit-wide-types -fssa-backprop -fssa-phiopt
  60              	@ -fstdarg-opt -fstore-merging -fstrict-aliasing
  61              	@ -fstrict-volatile-bitfields -fsync-libcalls -fthread-jumps
  62              	@ -ftoplevel-reorder -ftrapping-math -ftree-bit-ccp -ftree-builtin-call-dce
  63              	@ -ftree-ccp -ftree-ch -ftree-coalesce-vars -ftree-copy-prop -ftree-cselim
  64              	@ -ftree-dce -ftree-dominator-opts -ftree-dse -ftree-forwprop -ftree-fre
  65              	@ -ftree-loop-if-convert -ftree-loop-im -ftree-loop-ivcanon
  66              	@ -ftree-loop-optimize -ftree-parallelize-loops= -ftree-phiprop -ftree-pre
  67              	@ -ftree-pta -ftree-reassoc -ftree-scev-cprop -ftree-sink -ftree-slsr
  68              	@ -ftree-sra -ftree-switch-conversion -ftree-tail-merge -ftree-ter
  69              	@ -ftree-vrp -funit-at-a-time -fvar-tracking -fvar-tracking-assignments
  70              	@ -fverbose-asm -fzero-initialized-in-bss -masm-syntax-unified -mbe32
  71              	@ -mlittle-endian -mpic-data-is-text-relative -msched-prolog -mthumb
  72              	@ -munaligned-access -mvectorize-with-neon-quad
  73              	
  74              		.text
  75              	.Ltext0:
  76              		.cfi_sections	.debug_frame
  77              		.section	.text.getShapesAtNode,"ax",%progbits
  78              		.align	1
  79              		.p2align 4,,15
  80              		.arch armv7e-m
  81              		.syntax unified
  82              		.thumb
  83              		.thumb_func
  84              		.fpu fpv5-sp-d16
  85              		.type	getShapesAtNode, %function
  86              	getShapesAtNode:
  87              	.LVL0:
  88              	.LFB32:
  89              		.file 1 "mini3d/scene.c"
   1:mini3d/scene.c **** //
   2:mini3d/scene.c **** //  scene.c
   3:mini3d/scene.c **** //  Extension
   4:mini3d/scene.c **** //
   5:mini3d/scene.c **** //  Created by Dave Hayden on 10/7/15.
   6:mini3d/scene.c **** //  Copyright © 2015 Panic, Inc. All rights reserved.
   7:mini3d/scene.c **** //
   8:mini3d/scene.c **** 
   9:mini3d/scene.c **** #include <stdlib.h>
  10:mini3d/scene.c **** #include <string.h>
  11:mini3d/scene.c **** #include "3dmath.h"
  12:mini3d/scene.c **** #include "mini3d.h"
  13:mini3d/scene.c **** #include "scene.h"
  14:mini3d/scene.c **** #include "shape.h"
  15:mini3d/scene.c **** #include "render.h"
  16:mini3d/scene.c **** 
  17:mini3d/scene.c **** #define WIDTH 400
  18:mini3d/scene.c **** #define HEIGHT 240
  19:mini3d/scene.c **** 
  20:mini3d/scene.c **** void
  21:mini3d/scene.c **** Scene3DNode_init(Scene3DNode* node)
  22:mini3d/scene.c **** {
  23:mini3d/scene.c **** 	node->transform = identityMatrix;
  24:mini3d/scene.c **** 	node->parentNode = NULL;
  25:mini3d/scene.c **** 	node->childNodes = NULL;
ARM GAS  /var/folders/cs/83z6p2tj4w57s6p2rt8nwfp00000gn/T//cc3yBana.s 			page 3


  26:mini3d/scene.c **** 	node->nChildren = 0;
  27:mini3d/scene.c **** 	node->shapes = NULL;
  28:mini3d/scene.c **** 	node->colorBias = 0;
  29:mini3d/scene.c **** 	node->renderStyle = kRenderInheritStyle;
  30:mini3d/scene.c **** 	node->isVisible = 1;
  31:mini3d/scene.c **** 	node->needsUpdate = 1;
  32:mini3d/scene.c **** #if ENABLE_Z_BUFFER
  33:mini3d/scene.c **** 	node->useZBuffer = 1;
  34:mini3d/scene.c **** #endif
  35:mini3d/scene.c **** }
  36:mini3d/scene.c **** 
  37:mini3d/scene.c **** void
  38:mini3d/scene.c **** Scene3DNode_deinit(Scene3DNode* node)
  39:mini3d/scene.c **** {
  40:mini3d/scene.c **** 	ShapeInstance* shape = node->shapes;
  41:mini3d/scene.c **** 
  42:mini3d/scene.c **** 	while ( shape != NULL )
  43:mini3d/scene.c **** 	{
  44:mini3d/scene.c **** 		ShapeInstance* next = shape->next;
  45:mini3d/scene.c **** 		Shape3D_release(shape->prototype);
  46:mini3d/scene.c **** 		m3d_free(shape->points);
  47:mini3d/scene.c **** 		m3d_free(shape->faces);
  48:mini3d/scene.c **** 		m3d_free(shape);
  49:mini3d/scene.c **** 		shape = next;
  50:mini3d/scene.c **** 	}
  51:mini3d/scene.c **** 
  52:mini3d/scene.c **** 	if ( node->shapes != NULL )
  53:mini3d/scene.c **** 		m3d_free(node->shapes);
  54:mini3d/scene.c **** 
  55:mini3d/scene.c **** 	int i;
  56:mini3d/scene.c **** 
  57:mini3d/scene.c **** 	for ( i = 0; i < node->nChildren; ++i )
  58:mini3d/scene.c **** 	{
  59:mini3d/scene.c **** 		Scene3DNode_deinit(node->childNodes[i]);
  60:mini3d/scene.c **** 		m3d_free(node->childNodes[i]);
  61:mini3d/scene.c **** 	}
  62:mini3d/scene.c **** 
  63:mini3d/scene.c **** 	if ( node->childNodes != NULL )
  64:mini3d/scene.c **** 		m3d_free(node->childNodes);
  65:mini3d/scene.c **** 
  66:mini3d/scene.c **** 	node->childNodes = NULL;
  67:mini3d/scene.c **** }
  68:mini3d/scene.c **** 
  69:mini3d/scene.c **** void
  70:mini3d/scene.c **** Scene3DNode_setTransform(Scene3DNode* node, Matrix3D* xform)
  71:mini3d/scene.c **** {
  72:mini3d/scene.c **** 	node->transform = *xform;
  73:mini3d/scene.c **** 
  74:mini3d/scene.c **** 	// mark this branch of the tree for updating
  75:mini3d/scene.c **** 
  76:mini3d/scene.c **** 	while ( node != NULL )
  77:mini3d/scene.c **** 	{
  78:mini3d/scene.c **** 		node->needsUpdate = 1;
  79:mini3d/scene.c **** 		node = node->parentNode;
  80:mini3d/scene.c **** 	}
  81:mini3d/scene.c **** }
  82:mini3d/scene.c **** 
ARM GAS  /var/folders/cs/83z6p2tj4w57s6p2rt8nwfp00000gn/T//cc3yBana.s 			page 4


  83:mini3d/scene.c **** void
  84:mini3d/scene.c **** Scene3DNode_addTransform(Scene3DNode* node, Matrix3D* xform)
  85:mini3d/scene.c **** {
  86:mini3d/scene.c **** 	Matrix3D m = Matrix3D_multiply(node->transform, *xform);
  87:mini3d/scene.c **** 	Scene3DNode_setTransform(node, &m);
  88:mini3d/scene.c **** }
  89:mini3d/scene.c **** 
  90:mini3d/scene.c **** void
  91:mini3d/scene.c **** Scene3DNode_setColorBias(Scene3DNode* node, float bias)
  92:mini3d/scene.c **** {
  93:mini3d/scene.c **** 	node->colorBias = bias;
  94:mini3d/scene.c **** 	node->needsUpdate = 1;
  95:mini3d/scene.c **** }
  96:mini3d/scene.c **** 
  97:mini3d/scene.c **** void
  98:mini3d/scene.c **** Scene3DNode_setRenderStyle(Scene3DNode* node, RenderStyle style)
  99:mini3d/scene.c **** {
 100:mini3d/scene.c **** 	node->renderStyle = style;
 101:mini3d/scene.c **** 	node->needsUpdate = 1;
 102:mini3d/scene.c **** }
 103:mini3d/scene.c **** 
 104:mini3d/scene.c **** RenderStyle
 105:mini3d/scene.c **** Scene3DNode_getRenderStyle(Scene3DNode* node)
 106:mini3d/scene.c **** {
 107:mini3d/scene.c **** 	while ( node != NULL )
 108:mini3d/scene.c **** 	{
 109:mini3d/scene.c **** 		if ( node->renderStyle != kRenderInheritStyle )
 110:mini3d/scene.c **** 			return node->renderStyle;
 111:mini3d/scene.c **** 
 112:mini3d/scene.c **** 		node = node->parentNode;
 113:mini3d/scene.c **** 	}
 114:mini3d/scene.c **** 
 115:mini3d/scene.c **** 	return kRenderFilled;
 116:mini3d/scene.c **** }
 117:mini3d/scene.c **** 
 118:mini3d/scene.c **** void
 119:mini3d/scene.c **** Scene3DNode_setVisible(Scene3DNode* node, int visible)
 120:mini3d/scene.c **** {
 121:mini3d/scene.c **** 	node->isVisible = visible;
 122:mini3d/scene.c **** 	node->needsUpdate = 1;
 123:mini3d/scene.c **** }
 124:mini3d/scene.c **** 
 125:mini3d/scene.c **** #if ENABLE_Z_BUFFER
 126:mini3d/scene.c **** void Scene3DNode_setUsesZBuffer(Scene3DNode* node, int flag)
 127:mini3d/scene.c **** {
 128:mini3d/scene.c **** 	node->useZBuffer = flag;
 129:mini3d/scene.c **** 	node->needsUpdate = 1;
 130:mini3d/scene.c **** }
 131:mini3d/scene.c **** #endif
 132:mini3d/scene.c **** 
 133:mini3d/scene.c **** void
 134:mini3d/scene.c **** Scene3DNode_addShapeWithTransform(Scene3DNode* node, Shape3D* shape, Matrix3D transform)
 135:mini3d/scene.c **** {
 136:mini3d/scene.c **** 	ShapeInstance* nodeshape = m3d_malloc(sizeof(ShapeInstance));
 137:mini3d/scene.c **** 	int i;
 138:mini3d/scene.c **** 
 139:mini3d/scene.c **** 	nodeshape->renderStyle = kRenderInheritStyle;
ARM GAS  /var/folders/cs/83z6p2tj4w57s6p2rt8nwfp00000gn/T//cc3yBana.s 			page 5


 140:mini3d/scene.c **** 	nodeshape->prototype = Shape3D_retain(shape);
 141:mini3d/scene.c **** 	nodeshape->nPoints = shape->nPoints;
 142:mini3d/scene.c **** 	nodeshape->points = m3d_malloc(sizeof(Point3D) * shape->nPoints);
 143:mini3d/scene.c **** 
 144:mini3d/scene.c **** 	// not strictly necessary, since we set these again in Scene3D_updateShapeInstance:
 145:mini3d/scene.c **** 	//for ( i = 0; i < shape->nPoints; ++i )
 146:mini3d/scene.c **** 	//	nodeshape->points[i] = shape->points[i];
 147:mini3d/scene.c **** 
 148:mini3d/scene.c **** 	nodeshape->nFaces = shape->nFaces;
 149:mini3d/scene.c **** 	nodeshape->faces = m3d_malloc(sizeof(FaceInstance) * shape->nFaces);
 150:mini3d/scene.c **** 
 151:mini3d/scene.c **** 	for ( i = 0; i < shape->nFaces; ++i )
 152:mini3d/scene.c **** 	{
 153:mini3d/scene.c **** 		// point face vertices at copy's points array
 154:mini3d/scene.c **** 		FaceInstance* face = &nodeshape->faces[i];
 155:mini3d/scene.c **** 
 156:mini3d/scene.c **** 		face->p1 = &nodeshape->points[shape->faces[i].p1];
 157:mini3d/scene.c **** 		face->p2 = &nodeshape->points[shape->faces[i].p2];
 158:mini3d/scene.c **** 		face->p3 = &nodeshape->points[shape->faces[i].p3];
 159:mini3d/scene.c **** 
 160:mini3d/scene.c **** 		if ( shape->faces[i].p4 != 0xffff )
 161:mini3d/scene.c **** 			face->p4 = &nodeshape->points[shape->faces[i].p4];
 162:mini3d/scene.c **** 		else
 163:mini3d/scene.c **** 			face->p4 = NULL;
 164:mini3d/scene.c **** 
 165:mini3d/scene.c **** 		face->colorBias = shape->faces[i].colorBias;
 166:mini3d/scene.c **** 
 167:mini3d/scene.c **** 		// also not necessary
 168:mini3d/scene.c **** 		face->normal = pnormal(face->p1, face->p2, face->p3);
 169:mini3d/scene.c **** 	}
 170:mini3d/scene.c **** 
 171:mini3d/scene.c **** 	nodeshape->transform = transform;
 172:mini3d/scene.c **** 	nodeshape->center = Matrix3D_apply(transform, shape->center);
 173:mini3d/scene.c **** 	nodeshape->colorBias = 0;
 174:mini3d/scene.c **** 
 175:mini3d/scene.c **** #if ENABLE_ORDERING_TABLE
 176:mini3d/scene.c **** 	nodeshape->orderTableSize = 0;
 177:mini3d/scene.c **** 	nodeshape->orderTable = NULL;
 178:mini3d/scene.c **** #endif
 179:mini3d/scene.c **** 
 180:mini3d/scene.c **** 	nodeshape->next = node->shapes;
 181:mini3d/scene.c **** 	node->shapes = nodeshape;
 182:mini3d/scene.c **** 	++node->shapeCount;
 183:mini3d/scene.c **** }
 184:mini3d/scene.c **** 
 185:mini3d/scene.c **** void
 186:mini3d/scene.c **** Scene3DNode_addShapeWithOffset(Scene3DNode* node, Shape3D* shape, Vector3D offset)
 187:mini3d/scene.c **** {
 188:mini3d/scene.c **** 	Scene3DNode_addShapeWithTransform(node, shape, Matrix3DMakeTranslate(offset.dx, offset.dy, offset.
 189:mini3d/scene.c **** }
 190:mini3d/scene.c **** 
 191:mini3d/scene.c **** void
 192:mini3d/scene.c **** Scene3DNode_addShape(Scene3DNode* node, Shape3D* shape)
 193:mini3d/scene.c **** {
 194:mini3d/scene.c **** 	Scene3DNode_addShapeWithTransform(node, shape, identityMatrix);
 195:mini3d/scene.c **** }
 196:mini3d/scene.c **** 
ARM GAS  /var/folders/cs/83z6p2tj4w57s6p2rt8nwfp00000gn/T//cc3yBana.s 			page 6


 197:mini3d/scene.c **** Scene3DNode*
 198:mini3d/scene.c **** Scene3DNode_newChild(Scene3DNode* node)
 199:mini3d/scene.c **** {
 200:mini3d/scene.c **** 	node->childNodes = m3d_realloc(node->childNodes, sizeof(Scene3DNode*) * (node->nChildren + 1));
 201:mini3d/scene.c **** 
 202:mini3d/scene.c **** 	Scene3DNode* child = m3d_malloc(sizeof(Scene3DNode));
 203:mini3d/scene.c **** 	Scene3DNode_init(child);
 204:mini3d/scene.c **** 
 205:mini3d/scene.c **** 	node->childNodes[node->nChildren++] = child;
 206:mini3d/scene.c **** 	child->parentNode = node;
 207:mini3d/scene.c **** 
 208:mini3d/scene.c **** 	return child;
 209:mini3d/scene.c **** }
 210:mini3d/scene.c **** 
 211:mini3d/scene.c **** static void
 212:mini3d/scene.c **** Scene3D_updateShapeInstance(Scene3D* scene, ShapeInstance* shape, Matrix3D xform, float colorBias, 
 213:mini3d/scene.c **** {
 214:mini3d/scene.c **** 	Shape3D* proto = shape->prototype;
 215:mini3d/scene.c **** 	int i;
 216:mini3d/scene.c **** 
 217:mini3d/scene.c **** 	// transform points
 218:mini3d/scene.c **** 
 219:mini3d/scene.c **** 	for ( i = 0; i < shape->nPoints; ++i )
 220:mini3d/scene.c **** 		shape->points[i] = Matrix3D_apply(xform, Matrix3D_apply(shape->transform, proto->points[i]));
 221:mini3d/scene.c **** 
 222:mini3d/scene.c **** 	shape->center = Matrix3D_apply(xform, Matrix3D_apply(shape->transform, proto->center));
 223:mini3d/scene.c **** 	shape->colorBias = proto->colorBias + colorBias;
 224:mini3d/scene.c **** 	shape->renderStyle = style;
 225:mini3d/scene.c **** 	shape->inverted = xform.inverting;
 226:mini3d/scene.c **** 
 227:mini3d/scene.c **** #if ENABLE_ORDERING_TABLE
 228:mini3d/scene.c **** 	float zmin = 1e23f;
 229:mini3d/scene.c **** 	float zmax = 0;
 230:mini3d/scene.c **** 	int ordersize = shape->prototype->orderTableSize;
 231:mini3d/scene.c **** 
 232:mini3d/scene.c **** 	if ( ordersize != shape->orderTableSize )
 233:mini3d/scene.c **** 	{
 234:mini3d/scene.c **** 		shape->orderTableSize = ordersize;
 235:mini3d/scene.c **** 		shape->orderTable = m3d_realloc(shape->orderTable, ordersize * sizeof(FaceInstance*));
 236:mini3d/scene.c **** 	}
 237:mini3d/scene.c **** 
 238:mini3d/scene.c **** 	memset(shape->orderTable, 0, ordersize * sizeof(FaceInstance*));
 239:mini3d/scene.c **** #endif
 240:mini3d/scene.c **** 
 241:mini3d/scene.c **** 	// recompute face normals
 242:mini3d/scene.c **** 
 243:mini3d/scene.c **** 	for ( i = 0; i < shape->nFaces; ++i )
 244:mini3d/scene.c **** 	{
 245:mini3d/scene.c **** 		FaceInstance* face = &shape->faces[i];
 246:mini3d/scene.c **** 		face->normal = pnormal(face->p1, face->p2, face->p3);
 247:mini3d/scene.c **** 
 248:mini3d/scene.c **** #if ENABLE_ORDERING_TABLE
 249:mini3d/scene.c **** 		if ( ordersize > 0 )
 250:mini3d/scene.c **** 		{
 251:mini3d/scene.c **** 			float z = face->p1->z + face->p2->z + face->p3->z;
 252:mini3d/scene.c **** 
 253:mini3d/scene.c **** 			if ( z < zmin ) zmin = z;
ARM GAS  /var/folders/cs/83z6p2tj4w57s6p2rt8nwfp00000gn/T//cc3yBana.s 			page 7


 254:mini3d/scene.c **** 			if ( z > zmax ) zmax = z;
 255:mini3d/scene.c **** 		}
 256:mini3d/scene.c **** #endif
 257:mini3d/scene.c **** 	}
 258:mini3d/scene.c **** 
 259:mini3d/scene.c **** 	// apply perspective, scale to display
 260:mini3d/scene.c **** 
 261:mini3d/scene.c **** 	for ( i = 0; i < shape->nPoints; ++i )
 262:mini3d/scene.c **** 	{
 263:mini3d/scene.c **** 		Point3D* p = &shape->points[i];
 264:mini3d/scene.c **** 
 265:mini3d/scene.c **** 		if ( p->z > 0 )
 266:mini3d/scene.c **** 		{
 267:mini3d/scene.c **** 			if ( scene->hasPerspective )
 268:mini3d/scene.c **** 			{
 269:mini3d/scene.c **** 				p->x = scene->scale * (p->x / p->z + 1.6666666f * scene->centerx);
 270:mini3d/scene.c **** 				p->y = scene->scale * (p->y / p->z + scene->centery);
 271:mini3d/scene.c **** 			}
 272:mini3d/scene.c **** 			else
 273:mini3d/scene.c **** 			{
 274:mini3d/scene.c **** 				p->x = scene->scale * (p->x + 1.6666666f * scene->centerx);
 275:mini3d/scene.c **** 				p->y = scene->scale * (p->y + scene->centery);
 276:mini3d/scene.c **** 			}
 277:mini3d/scene.c **** 		}
 278:mini3d/scene.c **** 
 279:mini3d/scene.c **** #if ENABLE_Z_BUFFER
 280:mini3d/scene.c **** 		if ( p->z < scene->zmin )
 281:mini3d/scene.c **** 			scene->zmin = p->z;
 282:mini3d/scene.c **** #endif
 283:mini3d/scene.c **** 	}
 284:mini3d/scene.c **** 
 285:mini3d/scene.c **** #if ENABLE_ORDERING_TABLE
 286:mini3d/scene.c **** 	// Put faces in bins separated by average z value
 287:mini3d/scene.c **** 
 288:mini3d/scene.c **** 	if ( ordersize > 0 )
 289:mini3d/scene.c **** 	{
 290:mini3d/scene.c **** 		float d = zmax - zmin + 0.0001f;
 291:mini3d/scene.c **** 
 292:mini3d/scene.c **** 		for ( i = 0; i < shape->nFaces; ++i )
 293:mini3d/scene.c **** 		{
 294:mini3d/scene.c **** 			FaceInstance* face = &shape->faces[i];
 295:mini3d/scene.c **** 
 296:mini3d/scene.c **** 			int idx = ordersize * (face->p1->z + face->p2->z + face->p3->z - zmin) / d;
 297:mini3d/scene.c **** 			face->next = shape->orderTable[idx];
 298:mini3d/scene.c **** 			shape->orderTable[idx] = face;
 299:mini3d/scene.c **** 		}
 300:mini3d/scene.c **** 	}
 301:mini3d/scene.c **** #endif
 302:mini3d/scene.c **** }
 303:mini3d/scene.c **** 
 304:mini3d/scene.c **** void
 305:mini3d/scene.c **** Scene3D_updateNode(Scene3D* scene, Scene3DNode* node, Matrix3D xform, float colorBias, RenderStyle 
 306:mini3d/scene.c **** {
 307:mini3d/scene.c **** 	if ( !node->isVisible )
 308:mini3d/scene.c **** 		return;
 309:mini3d/scene.c **** 
 310:mini3d/scene.c **** 	if ( node->needsUpdate )
ARM GAS  /var/folders/cs/83z6p2tj4w57s6p2rt8nwfp00000gn/T//cc3yBana.s 			page 8


 311:mini3d/scene.c **** 	{
 312:mini3d/scene.c **** 		update = 1;
 313:mini3d/scene.c **** 		node->needsUpdate = 0;
 314:mini3d/scene.c **** 	}
 315:mini3d/scene.c **** 
 316:mini3d/scene.c **** 	if ( update )
 317:mini3d/scene.c **** 	{
 318:mini3d/scene.c **** 		xform = Matrix3D_multiply(node->transform, xform);
 319:mini3d/scene.c **** 		colorBias += node->colorBias;
 320:mini3d/scene.c **** 
 321:mini3d/scene.c **** 		if ( node->renderStyle != kRenderInheritStyle )
 322:mini3d/scene.c **** 			style = node->renderStyle;
 323:mini3d/scene.c **** 
 324:mini3d/scene.c **** 		ShapeInstance* shape = node->shapes;
 325:mini3d/scene.c **** 
 326:mini3d/scene.c **** 		while ( shape != NULL )
 327:mini3d/scene.c **** 		{
 328:mini3d/scene.c **** 			Scene3D_updateShapeInstance(scene, shape, xform, colorBias, style);
 329:mini3d/scene.c **** #if ENABLE_Z_BUFFER
 330:mini3d/scene.c **** 			shape->useZBuffer = node->useZBuffer;
 331:mini3d/scene.c **** #endif
 332:mini3d/scene.c **** 			shape = shape->next;
 333:mini3d/scene.c **** 		}
 334:mini3d/scene.c **** 
 335:mini3d/scene.c **** 		int i;
 336:mini3d/scene.c **** 
 337:mini3d/scene.c **** 		for ( i = 0; i < node->nChildren; ++i )
 338:mini3d/scene.c **** 			Scene3D_updateNode(scene, node->childNodes[i], xform, colorBias, style, update);
 339:mini3d/scene.c **** 	}
 340:mini3d/scene.c **** }
 341:mini3d/scene.c **** 
 342:mini3d/scene.c **** 
 343:mini3d/scene.c **** void
 344:mini3d/scene.c **** Scene3D_init(Scene3D* scene)
 345:mini3d/scene.c **** {
 346:mini3d/scene.c **** 	scene->hasPerspective = 1;
 347:mini3d/scene.c **** 
 348:mini3d/scene.c **** 	Scene3D_setCamera(scene, (Point3D){ 0, 0, 0 }, (Point3D){ 0, 0, 1 }, 1.0, (Vector3D){ 0, 1, 0 });
 349:mini3d/scene.c **** 	Scene3D_setGlobalLight(scene, (Vector3D){ 0, -1, 0 });
 350:mini3d/scene.c **** 
 351:mini3d/scene.c **** 	Scene3D_setCenter(scene, 0.5, 0.5);
 352:mini3d/scene.c **** 
 353:mini3d/scene.c **** 	Scene3DNode_init(&scene->root);
 354:mini3d/scene.c **** 
 355:mini3d/scene.c **** 	scene->shapelist = NULL;
 356:mini3d/scene.c **** 	scene->shapelistsize = 0;
 357:mini3d/scene.c **** }
 358:mini3d/scene.c **** 
 359:mini3d/scene.c **** void
 360:mini3d/scene.c **** Scene3D_deinit(Scene3D* scene)
 361:mini3d/scene.c **** {
 362:mini3d/scene.c **** 	if ( scene->shapelist != NULL )
 363:mini3d/scene.c **** 		m3d_free(scene->shapelist);
 364:mini3d/scene.c **** 
 365:mini3d/scene.c **** 	Scene3DNode_deinit(&scene->root);
 366:mini3d/scene.c **** }
 367:mini3d/scene.c **** 
ARM GAS  /var/folders/cs/83z6p2tj4w57s6p2rt8nwfp00000gn/T//cc3yBana.s 			page 9


 368:mini3d/scene.c **** void
 369:mini3d/scene.c **** Scene3D_setGlobalLight(Scene3D* scene, Vector3D light)
 370:mini3d/scene.c **** {
 371:mini3d/scene.c **** 	scene->light = light;
 372:mini3d/scene.c **** }
 373:mini3d/scene.c **** 
 374:mini3d/scene.c **** void
 375:mini3d/scene.c **** Scene3D_setCenter(Scene3D* scene, float x, float y)
 376:mini3d/scene.c **** {
 377:mini3d/scene.c **** 	scene->centerx = x;
 378:mini3d/scene.c **** 	scene->centery = y;
 379:mini3d/scene.c **** }
 380:mini3d/scene.c **** 
 381:mini3d/scene.c **** Scene3DNode*
 382:mini3d/scene.c **** Scene3D_getRootNode(Scene3D* scene)
 383:mini3d/scene.c **** {
 384:mini3d/scene.c **** 	return &scene->root;
 385:mini3d/scene.c **** }
 386:mini3d/scene.c **** 
 387:mini3d/scene.c **** static int
 388:mini3d/scene.c **** getShapesAtNode(Scene3D* scene, Scene3DNode* node, int count)
 389:mini3d/scene.c **** {
  90              		.loc 1 389 1 view -0
  91              		.cfi_startproc
  92              		@ args = 0, pretend = 0, frame = 0
  93              		@ frame_needed = 0, uses_anonymous_args = 0
 390:mini3d/scene.c **** 	if ( !node->isVisible )
  94              		.loc 1 390 2 view .LVU1
  95              	@ mini3d/scene.c:390: 	if ( !node->isVisible )
  96              		.loc 1 390 7 is_stmt 0 view .LVU2
  97 0000 91F84D30 		ldrb	r3, [r1, #77]	@ zero_extendqisi2	@ *node_33(D), *node_33(D)
  98              	@ mini3d/scene.c:390: 	if ( !node->isVisible )
  99              		.loc 1 390 5 view .LVU3
 100 0004 DB07     		lsls	r3, r3, #31	@, *node_33(D),
 101              	@ mini3d/scene.c:389: {
 389:mini3d/scene.c **** 	if ( !node->isVisible )
 102              		.loc 1 389 1 view .LVU4
 103 0006 2DE9F041 		push	{r4, r5, r6, r7, r8, lr}	@
 104              	.LCFI0:
 105              		.cfi_def_cfa_offset 24
 106              		.cfi_offset 4, -24
 107              		.cfi_offset 5, -20
 108              		.cfi_offset 6, -16
 109              		.cfi_offset 7, -12
 110              		.cfi_offset 8, -8
 111              		.cfi_offset 14, -4
 112              	@ mini3d/scene.c:389: {
 389:mini3d/scene.c **** 	if ( !node->isVisible )
 113              		.loc 1 389 1 view .LVU5
 114 000a 1446     		mov	r4, r2	@ count, tmp161
 115              	@ mini3d/scene.c:390: 	if ( !node->isVisible )
 116              		.loc 1 390 5 view .LVU6
 117 000c 32D5     		bpl	.L2		@,
 391:mini3d/scene.c **** 		return count;
 392:mini3d/scene.c **** 
 393:mini3d/scene.c **** 	ShapeInstance* shape = node->shapes;
 118              		.loc 1 393 2 is_stmt 1 view .LVU7
ARM GAS  /var/folders/cs/83z6p2tj4w57s6p2rt8nwfp00000gn/T//cc3yBana.s 			page 10


 119              	@ mini3d/scene.c:393: 	ShapeInstance* shape = node->shapes;
 120              		.loc 1 393 17 is_stmt 0 view .LVU8
 121 000e 4D6C     		ldr	r5, [r1, #68]	@ shape, node_33(D)->shapes
 122              	.LVL1:
 394:mini3d/scene.c **** 	ShapeInstance** shapes = scene->shapelist;
 123              		.loc 1 394 2 is_stmt 1 view .LVU9
 124 0010 0646     		mov	r6, r0	@ scene, tmp159
 125 0012 0F46     		mov	r7, r1	@ node, tmp160
 126              	@ mini3d/scene.c:394: 	ShapeInstance** shapes = scene->shapelist;
 127              		.loc 1 394 18 is_stmt 0 view .LVU10
 128 0014 D0F8A400 		ldr	r0, [r0, #164]	@ shapes, scene_35(D)->shapelist
 129              	.LVL2:
 395:mini3d/scene.c **** 
 396:mini3d/scene.c **** 	while ( shape != NULL )
 130              		.loc 1 396 2 is_stmt 1 view .LVU11
 131              		.loc 1 396 8 view .LVU12
 132 0018 E5B1     		cbz	r5, .L3	@ shape,
 133 001a D6F8A830 		ldr	r3, [r6, #168]	@ _3, scene_35(D)->shapelistsize
 134              	@ mini3d/scene.c:403: 			scene->shapelist = m3d_realloc(scene->shapelist, (scene->shapelistsize + S
 397:mini3d/scene.c **** 	{
 398:mini3d/scene.c **** 		// check if shape is outside camera view: apply camera transform to shape center
 399:mini3d/scene.c **** 
 400:mini3d/scene.c **** 		if ( count + 1 > scene->shapelistsize )
 401:mini3d/scene.c **** 		{
 402:mini3d/scene.c **** #define SHAPELIST_INCREMENT 16
 403:mini3d/scene.c **** 			scene->shapelist = m3d_realloc(scene->shapelist, (scene->shapelistsize + SHAPELIST_INCREMENT) * 
 135              		.loc 1 403 23 is_stmt 0 view .LVU13
 136 001e DFF85C80 		ldr	r8, .L17	@ tmp158,
 137              	.LVL3:
 138              	.L5:
 400:mini3d/scene.c **** 		{
 139              		.loc 1 400 3 is_stmt 1 view .LVU14
 140              		.loc 1 403 4 view .LVU15
 141              	@ mini3d/scene.c:403: 			scene->shapelist = m3d_realloc(scene->shapelist, (scene->shapelistsize + S
 142              		.loc 1 403 75 is_stmt 0 view .LVU16
 143 0022 03F11002 		add	r2, r3, #16	@ tmp143, _3,
 144              	@ mini3d/scene.c:400: 		if ( count + 1 > scene->shapelistsize )
 400:mini3d/scene.c **** 		{
 145              		.loc 1 400 6 view .LVU17
 146 0026 A342     		cmp	r3, r4	@ _3, count
 147              	@ mini3d/scene.c:409: 		shapes[count++] = shape;
 404:mini3d/scene.c **** 			shapes = scene->shapelist;
 405:mini3d/scene.c **** 
 406:mini3d/scene.c **** 			scene->shapelistsize += SHAPELIST_INCREMENT;
 407:mini3d/scene.c **** 		}
 408:mini3d/scene.c **** 
 409:mini3d/scene.c **** 		shapes[count++] = shape;
 148              		.loc 1 409 15 view .LVU18
 149 0028 04F10104 		add	r4, r4, #1	@ count, count,
 150              	.LVL4:
 151              	@ mini3d/scene.c:403: 			scene->shapelist = m3d_realloc(scene->shapelist, (scene->shapelistsize + S
 403:mini3d/scene.c **** 			shapes = scene->shapelist;
 152              		.loc 1 403 23 view .LVU19
 153 002c 4FEA8201 		lsl	r1, r2, #2	@, tmp143,
 154              	@ mini3d/scene.c:400: 		if ( count + 1 > scene->shapelistsize )
 400:mini3d/scene.c **** 		{
 155              		.loc 1 400 6 view .LVU20
ARM GAS  /var/folders/cs/83z6p2tj4w57s6p2rt8nwfp00000gn/T//cc3yBana.s 			page 11


 156 0030 09DC     		bgt	.L4		@,
 157              	@ mini3d/scene.c:403: 			scene->shapelist = m3d_realloc(scene->shapelist, (scene->shapelistsize + S
 403:mini3d/scene.c **** 			shapes = scene->shapelist;
 158              		.loc 1 403 23 view .LVU21
 159 0032 D8F80030 		ldr	r3, [r8]	@ m3d_realloc, m3d_realloc
 160 0036 D6F8A400 		ldr	r0, [r6, #164]	@, scene_35(D)->shapelist
 161              	.LVL5:
 403:mini3d/scene.c **** 			shapes = scene->shapelist;
 162              		.loc 1 403 23 view .LVU22
 163 003a 9847     		blx	r3		@ m3d_realloc
 164              	.LVL6:
 165              	@ mini3d/scene.c:406: 			scene->shapelistsize += SHAPELIST_INCREMENT;
 406:mini3d/scene.c **** 		}
 166              		.loc 1 406 25 view .LVU23
 167 003c D6F8A830 		ldr	r3, [r6, #168]	@ _3, scene_35(D)->shapelistsize
 168 0040 1033     		adds	r3, r3, #16	@ _3, _3,
 169 0042 C6E92903 		strd	r0, r3, [r6, #164]	@ shapes, _3, scene,
 170              	.L4:
 171              	.LVL7:
 172              		.loc 1 409 3 is_stmt 1 view .LVU24
 173              	@ mini3d/scene.c:409: 		shapes[count++] = shape;
 174              		.loc 1 409 19 is_stmt 0 view .LVU25
 175 0046 00EB8402 		add	r2, r0, r4, lsl #2	@ tmp150, shapes, count,
 176 004a 42F8045C 		str	r5, [r2, #-4]	@ shape, *_14
 410:mini3d/scene.c **** 		shape = shape->next;
 177              		.loc 1 410 3 is_stmt 1 view .LVU26
 178              	@ mini3d/scene.c:410: 		shape = shape->next;
 179              		.loc 1 410 9 is_stmt 0 view .LVU27
 180 004e AD6B     		ldr	r5, [r5, #56]	@ shape, shape_58->next
 181              	.LVL8:
 396:mini3d/scene.c **** 	{
 182              		.loc 1 396 8 is_stmt 1 view .LVU28
 183 0050 002D     		cmp	r5, #0	@ shape
 184 0052 E6D1     		bne	.L5	@
 185              	.L3:
 186              	.LVL9:
 411:mini3d/scene.c **** 	}
 412:mini3d/scene.c **** 
 413:mini3d/scene.c **** 	int i;
 414:mini3d/scene.c **** 
 415:mini3d/scene.c **** 	for ( i = 0; i < node->nChildren; ++i )
 187              		.loc 1 415 15 view .LVU29
 188              	@ mini3d/scene.c:415: 	for ( i = 0; i < node->nChildren; ++i )
 189              		.loc 1 415 2 is_stmt 0 view .LVU30
 190 0054 BB6B     		ldr	r3, [r7, #56]	@ node_33(D)->nChildren, node_33(D)->nChildren
 191 0056 002B     		cmp	r3, #0	@ node_33(D)->nChildren,
 192 0058 0CDD     		ble	.L2		@,
 193              	@ mini3d/scene.c:415: 	for ( i = 0; i < node->nChildren; ++i )
 194              		.loc 1 415 10 view .LVU31
 195 005a 0025     		movs	r5, #0	@ i,
 196              	.LVL10:
 197              	.L6:
 416:mini3d/scene.c **** 		count = getShapesAtNode(scene, node->childNodes[i], count);
 198              		.loc 1 416 3 is_stmt 1 discriminator 3 view .LVU32
 199              	@ mini3d/scene.c:416: 		count = getShapesAtNode(scene, node->childNodes[i], count);
 200              		.loc 1 416 11 is_stmt 0 discriminator 3 view .LVU33
 201 005c FB6B     		ldr	r3, [r7, #60]	@ node_33(D)->childNodes, node_33(D)->childNodes
ARM GAS  /var/folders/cs/83z6p2tj4w57s6p2rt8nwfp00000gn/T//cc3yBana.s 			page 12


 202 005e 2246     		mov	r2, r4	@, count
 203 0060 3046     		mov	r0, r6	@, scene
 204 0062 53F82510 		ldr	r1, [r3, r5, lsl #2]	@, *_18
 205              	@ mini3d/scene.c:415: 	for ( i = 0; i < node->nChildren; ++i )
 415:mini3d/scene.c **** 		count = getShapesAtNode(scene, node->childNodes[i], count);
 206              		.loc 1 415 36 discriminator 3 view .LVU34
 207 0066 0135     		adds	r5, r5, #1	@ i, i,
 208              	.LVL11:
 209              	@ mini3d/scene.c:416: 		count = getShapesAtNode(scene, node->childNodes[i], count);
 210              		.loc 1 416 11 discriminator 3 view .LVU35
 211 0068 FFF7CAFF 		bl	getShapesAtNode		@
 212              	.LVL12:
 213              	@ mini3d/scene.c:415: 	for ( i = 0; i < node->nChildren; ++i )
 415:mini3d/scene.c **** 		count = getShapesAtNode(scene, node->childNodes[i], count);
 214              		.loc 1 415 2 discriminator 3 view .LVU36
 215 006c BB6B     		ldr	r3, [r7, #56]	@ node_33(D)->nChildren, node_33(D)->nChildren
 216              	@ mini3d/scene.c:416: 		count = getShapesAtNode(scene, node->childNodes[i], count);
 217              		.loc 1 416 11 discriminator 3 view .LVU37
 218 006e 0446     		mov	r4, r0	@ count, tmp163
 219              	.LVL13:
 415:mini3d/scene.c **** 		count = getShapesAtNode(scene, node->childNodes[i], count);
 220              		.loc 1 415 36 is_stmt 1 discriminator 3 view .LVU38
 415:mini3d/scene.c **** 		count = getShapesAtNode(scene, node->childNodes[i], count);
 221              		.loc 1 415 15 discriminator 3 view .LVU39
 222              	@ mini3d/scene.c:415: 	for ( i = 0; i < node->nChildren; ++i )
 415:mini3d/scene.c **** 		count = getShapesAtNode(scene, node->childNodes[i], count);
 223              		.loc 1 415 2 is_stmt 0 discriminator 3 view .LVU40
 224 0070 AB42     		cmp	r3, r5	@ node_33(D)->nChildren, i
 225 0072 F3DC     		bgt	.L6		@,
 226              	.LVL14:
 227              	.L2:
 228              	@ mini3d/scene.c:419: }
 417:mini3d/scene.c **** 
 418:mini3d/scene.c **** 	return count;
 419:mini3d/scene.c **** }
 229              		.loc 1 419 1 view .LVU41
 230 0074 2046     		mov	r0, r4	@, count
 231 0076 BDE8F081 		pop	{r4, r5, r6, r7, r8, pc}	@
 232              	.LVL15:
 233              	.L18:
 234              		.loc 1 419 1 view .LVU42
 235 007a 00BF     		.align	2
 236              	.L17:
 237 007c 00000000 		.word	m3d_realloc
 238              		.cfi_endproc
 239              	.LFE32:
 240              		.size	getShapesAtNode, .-getShapesAtNode
 241              		.section	.text.compareZ,"ax",%progbits
 242              		.align	1
 243              		.p2align 4,,15
 244              		.syntax unified
 245              		.thumb
 246              		.thumb_func
 247              		.fpu fpv5-sp-d16
 248              		.type	compareZ, %function
 249              	compareZ:
 250              	.LVL16:
ARM GAS  /var/folders/cs/83z6p2tj4w57s6p2rt8nwfp00000gn/T//cc3yBana.s 			page 13


 251              	.LFB37:
 420:mini3d/scene.c **** 
 421:mini3d/scene.c **** void
 422:mini3d/scene.c **** Scene3D_setCamera(Scene3D* scene, Point3D origin, Point3D lookAt, float scale, Vector3D up)
 423:mini3d/scene.c **** {
 424:mini3d/scene.c **** 	Matrix3D camera = identityMatrix;
 425:mini3d/scene.c **** 	camera.isIdentity = 0;
 426:mini3d/scene.c **** 	
 427:mini3d/scene.c **** 	camera.dx = -origin.x;
 428:mini3d/scene.c **** 	camera.dy = -origin.y;
 429:mini3d/scene.c **** 	camera.dz = -origin.z;
 430:mini3d/scene.c **** 
 431:mini3d/scene.c **** 	Vector3D dir = Vector3DMake(lookAt.x - origin.x, lookAt.y - origin.y, lookAt.z - origin.z);
 432:mini3d/scene.c **** 	
 433:mini3d/scene.c **** 	float l = sqrtf(Vector3D_lengthSquared(&dir));
 434:mini3d/scene.c **** 	
 435:mini3d/scene.c **** 	dir.dx /= l;
 436:mini3d/scene.c **** 	dir.dy /= l;
 437:mini3d/scene.c **** 	dir.dz /= l;
 438:mini3d/scene.c **** 	
 439:mini3d/scene.c **** 	scene->scale = 240 * scale;
 440:mini3d/scene.c **** 
 441:mini3d/scene.c **** 	// first yaw around the y axis
 442:mini3d/scene.c **** 
 443:mini3d/scene.c **** 	float h = 0;
 444:mini3d/scene.c **** 
 445:mini3d/scene.c **** 	if ( dir.dx != 0 || dir.dz != 0 )
 446:mini3d/scene.c **** 	{
 447:mini3d/scene.c **** 		h = sqrtf(dir.dx * dir.dx + dir.dz * dir.dz);
 448:mini3d/scene.c **** 		
 449:mini3d/scene.c **** 		Matrix3D yaw = Matrix3DMake(dir.dz/h, 0, -dir.dx/h, 0, 1, 0, dir.dx/h, 0, dir.dz/h, 0);
 450:mini3d/scene.c **** 		camera = Matrix3D_multiply(camera, yaw);
 451:mini3d/scene.c **** 	}
 452:mini3d/scene.c **** 
 453:mini3d/scene.c **** 	// then pitch up/down to y elevation
 454:mini3d/scene.c **** 
 455:mini3d/scene.c **** 	Matrix3D pitch = Matrix3DMake(1, 0, 0, 0, h, -dir.dy, 0, dir.dy, h, 0);
 456:mini3d/scene.c **** 	camera = Matrix3D_multiply(camera, pitch);
 457:mini3d/scene.c **** 
 458:mini3d/scene.c **** 	// and roll to position the up vector
 459:mini3d/scene.c **** 
 460:mini3d/scene.c **** 	if ( up.dx != 0 || up.dy != 0 )
 461:mini3d/scene.c **** 	{
 462:mini3d/scene.c **** 		l = sqrtf(up.dx * up.dx + up.dy * up.dy);
 463:mini3d/scene.c **** 		Matrix3D roll = Matrix3DMake(up.dy/l, up.dx/l, 0, -up.dx/l, up.dy/l, 0, 0, 0, 1, 0);
 464:mini3d/scene.c **** 	
 465:mini3d/scene.c **** 		scene->camera = Matrix3D_multiply(camera, roll);
 466:mini3d/scene.c **** 	}
 467:mini3d/scene.c **** 	else
 468:mini3d/scene.c **** 		scene->camera = camera;
 469:mini3d/scene.c **** 
 470:mini3d/scene.c **** 	scene->root.needsUpdate = 1;
 471:mini3d/scene.c **** }
 472:mini3d/scene.c **** 
 473:mini3d/scene.c **** typedef uint8_t Pattern[8];
 474:mini3d/scene.c **** 
 475:mini3d/scene.c **** static Pattern patterns[] =
ARM GAS  /var/folders/cs/83z6p2tj4w57s6p2rt8nwfp00000gn/T//cc3yBana.s 			page 14


 476:mini3d/scene.c **** {
 477:mini3d/scene.c **** 	{ 0x00, 0x00, 0x00, 0x00, 0x00, 0x00, 0x00, 0x00 },
 478:mini3d/scene.c **** 	{ 0x80, 0x00, 0x00, 0x00, 0x08, 0x00, 0x00, 0x00 },
 479:mini3d/scene.c **** 	{ 0x88, 0x00, 0x00, 0x00, 0x88, 0x00, 0x00, 0x00 },
 480:mini3d/scene.c **** 	{ 0x88, 0x00, 0x20, 0x00, 0x88, 0x00, 0x02, 0x00 },
 481:mini3d/scene.c **** 	{ 0x88, 0x00, 0x22, 0x00, 0x88, 0x00, 0x22, 0x00 },
 482:mini3d/scene.c **** 	{ 0xa8, 0x00, 0x22, 0x00, 0x8a, 0x00, 0x22, 0x00 },
 483:mini3d/scene.c **** 	{ 0xaa, 0x00, 0x22, 0x00, 0xaa, 0x00, 0x22, 0x00 },
 484:mini3d/scene.c **** 	{ 0xaa, 0x00, 0xa2, 0x00, 0xaa, 0x00, 0x2a, 0x00 },
 485:mini3d/scene.c **** 	{ 0xaa, 0x00, 0xaa, 0x00, 0xaa, 0x00, 0xaa, 0x00 },
 486:mini3d/scene.c **** 	{ 0xaa, 0x40, 0xaa, 0x00, 0xaa, 0x04, 0xaa, 0x00 },
 487:mini3d/scene.c **** 	{ 0xaa, 0x44, 0xaa, 0x00, 0xaa, 0x44, 0xaa, 0x00 },
 488:mini3d/scene.c **** 	{ 0xaa, 0x44, 0xaa, 0x10, 0xaa, 0x44, 0xaa, 0x01 },
 489:mini3d/scene.c **** 	{ 0xaa, 0x44, 0xaa, 0x11, 0xaa, 0x44, 0xaa, 0x11 },
 490:mini3d/scene.c **** 	{ 0xaa, 0x54, 0xaa, 0x11, 0xaa, 0x45, 0xaa, 0x11 },
 491:mini3d/scene.c **** 	{ 0xaa, 0x55, 0xaa, 0x11, 0xaa, 0x55, 0xaa, 0x11 },
 492:mini3d/scene.c **** 	{ 0xaa, 0x55, 0xaa, 0x51, 0xaa, 0x55, 0xaa, 0x15 },
 493:mini3d/scene.c **** 	{ 0xaa, 0x55, 0xaa, 0x55, 0xaa, 0x55, 0xaa, 0x55 },
 494:mini3d/scene.c **** 	{ 0xba, 0x55, 0xaa, 0x55, 0xab, 0x55, 0xaa, 0x55 },
 495:mini3d/scene.c **** 	{ 0xbb, 0x55, 0xaa, 0x55, 0xbb, 0x55, 0xaa, 0x55 },
 496:mini3d/scene.c **** 	{ 0xbb, 0x55, 0xea, 0x55, 0xbb, 0x55, 0xae, 0x55 },
 497:mini3d/scene.c **** 	{ 0xbb, 0x55, 0xee, 0x55, 0xbb, 0x55, 0xee, 0x55 },
 498:mini3d/scene.c **** 	{ 0xfb, 0x55, 0xee, 0x55, 0xbf, 0x55, 0xee, 0x55 },
 499:mini3d/scene.c **** 	{ 0xff, 0x55, 0xee, 0x55, 0xff, 0x55, 0xee, 0x55 },
 500:mini3d/scene.c **** 	{ 0xff, 0x55, 0xfe, 0x55, 0xff, 0x55, 0xef, 0x55 },
 501:mini3d/scene.c **** 	{ 0xff, 0x55, 0xff, 0x55, 0xff, 0x55, 0xff, 0x55 },
 502:mini3d/scene.c **** 	{ 0xff, 0x55, 0xff, 0xd5, 0xff, 0x55, 0xff, 0x5d },
 503:mini3d/scene.c **** 	{ 0xff, 0x55, 0xff, 0xdd, 0xff, 0x55, 0xff, 0xdd },
 504:mini3d/scene.c **** 	{ 0xff, 0x75, 0xff, 0xdd, 0xff, 0x57, 0xff, 0xdd },
 505:mini3d/scene.c **** 	{ 0xff, 0x77, 0xff, 0xdd, 0xff, 0x77, 0xff, 0xdd },
 506:mini3d/scene.c **** 	{ 0xff, 0x77, 0xff, 0xfd, 0xff, 0x77, 0xff, 0xdf },
 507:mini3d/scene.c **** 	{ 0xff, 0x77, 0xff, 0xff, 0xff, 0x77, 0xff, 0xff },
 508:mini3d/scene.c **** 	{ 0xff, 0xf7, 0xff, 0xff, 0xff, 0x7f, 0xff, 0xff },
 509:mini3d/scene.c **** 	{ 0xff, 0xff, 0xff, 0xff, 0xff, 0xff, 0xff, 0xff }
 510:mini3d/scene.c **** };
 511:mini3d/scene.c **** 
 512:mini3d/scene.c **** static inline void
 513:mini3d/scene.c **** drawShapeFace(Scene3D* scene, ShapeInstance* shape, uint8_t* bitmap, int rowstride, FaceInstance* f
 514:mini3d/scene.c **** {
 515:mini3d/scene.c **** 	// If any vertex is behind the camera, skip it
 516:mini3d/scene.c **** 
 517:mini3d/scene.c **** 	if ( face->p1->z <= 0 || face->p2->z <= 0 || face->p3->z <= 0 )
 518:mini3d/scene.c **** 		return;
 519:mini3d/scene.c **** 
 520:mini3d/scene.c **** 	float x1 = face->p1->x;
 521:mini3d/scene.c **** 	float y1 = face->p1->y;
 522:mini3d/scene.c **** 	float x2 = face->p2->x;
 523:mini3d/scene.c **** 	float y2 = face->p2->y;
 524:mini3d/scene.c **** 	float x3 = face->p3->x;
 525:mini3d/scene.c **** 	float y3 = face->p3->y;
 526:mini3d/scene.c **** 
 527:mini3d/scene.c **** 	// quick bounds check
 528:mini3d/scene.c **** 
 529:mini3d/scene.c **** 	if ( (x1 < 0 && x2 < 0 && x3 < 0 && (face->p4 == NULL || face->p4->x < 0)) ||
 530:mini3d/scene.c **** 		 (x1 >= WIDTH && x2 >= WIDTH && x3 >= WIDTH && (face->p4 == NULL || face->p4->x >= WIDTH)) ||
 531:mini3d/scene.c **** 		 (y1 < 0 && y2 < 0 && y3 < 0 && (face->p4 == NULL || face->p4->y < 0)) ||
 532:mini3d/scene.c **** 		 (y1 >= HEIGHT && y2 >= HEIGHT && y3 >= HEIGHT && (face->p4 == NULL || face->p4->y >= HEIGHT)) )
ARM GAS  /var/folders/cs/83z6p2tj4w57s6p2rt8nwfp00000gn/T//cc3yBana.s 			page 15


 533:mini3d/scene.c **** 		return;
 534:mini3d/scene.c **** 
 535:mini3d/scene.c **** 	if ( shape->prototype->isClosed )
 536:mini3d/scene.c **** 	{
 537:mini3d/scene.c **** 		// only render front side of faces
 538:mini3d/scene.c **** 
 539:mini3d/scene.c **** 		float d;
 540:mini3d/scene.c **** 
 541:mini3d/scene.c **** 		if ( scene->hasPerspective ) // use winding order
 542:mini3d/scene.c **** 			d = (x2 - x1) * (y3 - y1) - (y2 - y1) * (x3 - x1);
 543:mini3d/scene.c **** 		else // use direction of normal
 544:mini3d/scene.c **** 			d = face->normal.dz;
 545:mini3d/scene.c **** 
 546:mini3d/scene.c **** 		if ( (d >= 0) ^ (shape->inverted ? 1 : 0) )
 547:mini3d/scene.c **** 			return;
 548:mini3d/scene.c **** 	}
 549:mini3d/scene.c **** 
 550:mini3d/scene.c **** 	// lighting
 551:mini3d/scene.c **** 
 552:mini3d/scene.c **** 	float c = face->colorBias + shape->colorBias;
 553:mini3d/scene.c **** 	float v;
 554:mini3d/scene.c **** 
 555:mini3d/scene.c **** 	if ( c <= -1 )
 556:mini3d/scene.c **** 		v = 0;
 557:mini3d/scene.c **** 	else if ( c >= 1 )
 558:mini3d/scene.c **** 		v = 1;
 559:mini3d/scene.c **** 	else
 560:mini3d/scene.c **** 	{
 561:mini3d/scene.c **** 		if ( shape->inverted )
 562:mini3d/scene.c **** 			v = (1.0f + Vector3DDot(face->normal, scene->light)) / 2;
 563:mini3d/scene.c **** 		else
 564:mini3d/scene.c **** 			v = (1.0f - Vector3DDot(face->normal, scene->light)) / 2;
 565:mini3d/scene.c **** 
 566:mini3d/scene.c **** 		if ( c > 0 )
 567:mini3d/scene.c **** 			v = c + (1-c) * v; // map [0,1] to [c,1]
 568:mini3d/scene.c **** 		else if ( c < 0 )
 569:mini3d/scene.c **** 			v *= 1 + c; // map [0,1] to [0, 1+c]
 570:mini3d/scene.c **** 	}
 571:mini3d/scene.c **** 
 572:mini3d/scene.c **** 	// cheap gamma adjust
 573:mini3d/scene.c **** 	// v = v * v;
 574:mini3d/scene.c **** 
 575:mini3d/scene.c **** 	int vi = (int)(32.99f * v);
 576:mini3d/scene.c **** 
 577:mini3d/scene.c **** 	if ( vi > 32 )
 578:mini3d/scene.c **** 		vi = 32;
 579:mini3d/scene.c **** 	else if ( vi < 0 )
 580:mini3d/scene.c **** 		vi = 0;
 581:mini3d/scene.c **** 
 582:mini3d/scene.c **** 	uint8_t* pattern = (uint8_t*)&patterns[vi];
 583:mini3d/scene.c **** 
 584:mini3d/scene.c **** 	if ( face->p4 != NULL )
 585:mini3d/scene.c **** 	{
 586:mini3d/scene.c **** #if ENABLE_Z_BUFFER
 587:mini3d/scene.c **** 		if ( shape->useZBuffer )
 588:mini3d/scene.c **** 			fillQuad_zbuf(bitmap, rowstride, face->p1, face->p2, face->p3, face->p4, pattern);
 589:mini3d/scene.c **** 		else
ARM GAS  /var/folders/cs/83z6p2tj4w57s6p2rt8nwfp00000gn/T//cc3yBana.s 			page 16


 590:mini3d/scene.c **** #endif
 591:mini3d/scene.c **** 			fillQuad(bitmap, rowstride, face->p1, face->p2, face->p3, face->p4, pattern);
 592:mini3d/scene.c **** 	}
 593:mini3d/scene.c **** 	else
 594:mini3d/scene.c **** 	{
 595:mini3d/scene.c **** #if ENABLE_Z_BUFFER
 596:mini3d/scene.c **** 		if ( shape->useZBuffer )
 597:mini3d/scene.c **** 			fillTriangle_zbuf(bitmap, rowstride, face->p1, face->p2, face->p3, pattern);
 598:mini3d/scene.c **** 		else
 599:mini3d/scene.c **** #endif
 600:mini3d/scene.c **** 			fillTriangle(bitmap, rowstride, face->p1, face->p2, face->p3, pattern);
 601:mini3d/scene.c **** 	}
 602:mini3d/scene.c **** }
 603:mini3d/scene.c **** static inline void
 604:mini3d/scene.c **** drawFilledShape(Scene3D* scene, ShapeInstance* shape, uint8_t* bitmap, int rowstride)
 605:mini3d/scene.c **** {
 606:mini3d/scene.c **** #if ENABLE_ORDERING_TABLE
 607:mini3d/scene.c **** 	if ( shape->orderTableSize > 0 )
 608:mini3d/scene.c **** 	{
 609:mini3d/scene.c **** 		for ( int i = shape->orderTableSize - 1; i >= 0; --i )
 610:mini3d/scene.c **** 		{
 611:mini3d/scene.c **** 			FaceInstance* face = shape->orderTable[i];
 612:mini3d/scene.c **** 
 613:mini3d/scene.c **** 			while ( face != NULL )
 614:mini3d/scene.c **** 			{
 615:mini3d/scene.c **** 				drawShapeFace(scene, shape, bitmap, rowstride, face);
 616:mini3d/scene.c **** 				face = face->next;
 617:mini3d/scene.c **** 			}
 618:mini3d/scene.c **** 		}
 619:mini3d/scene.c **** 	}
 620:mini3d/scene.c **** 	else
 621:mini3d/scene.c **** #endif
 622:mini3d/scene.c **** 	for ( int f = 0; f < shape->nFaces; ++f )
 623:mini3d/scene.c **** 		drawShapeFace(scene, shape, bitmap, rowstride, &shape->faces[f]);
 624:mini3d/scene.c **** }
 625:mini3d/scene.c **** 
 626:mini3d/scene.c **** static inline void
 627:mini3d/scene.c **** drawWireframe(Scene3D* scene, ShapeInstance* shape, uint8_t* bitmap, int rowstride)
 628:mini3d/scene.c **** {
 629:mini3d/scene.c **** 	int f;
 630:mini3d/scene.c **** 	RenderStyle style = shape->renderStyle;
 631:mini3d/scene.c **** 	uint8_t* color = patterns[32];
 632:mini3d/scene.c **** 
 633:mini3d/scene.c **** 	for ( f = 0; f < shape->nFaces; ++f )
 634:mini3d/scene.c **** 	{
 635:mini3d/scene.c **** 		FaceInstance* face = &shape->faces[f];
 636:mini3d/scene.c **** 
 637:mini3d/scene.c **** 		// If any vertex is behind the camera, skip it
 638:mini3d/scene.c **** 
 639:mini3d/scene.c **** 		if ( face->p1->z <= 0 || face->p2->z <= 0 || face->p3->z <= 0 || (face->p4 != NULL && face->p4->x
 640:mini3d/scene.c **** 			continue;
 641:mini3d/scene.c **** 
 642:mini3d/scene.c **** 		float x1 = face->p1->x;
 643:mini3d/scene.c **** 		float y1 = face->p1->y;
 644:mini3d/scene.c **** 		float x2 = face->p2->x;
 645:mini3d/scene.c **** 		float y2 = face->p2->y;
 646:mini3d/scene.c **** 		float x3 = face->p3->x;
ARM GAS  /var/folders/cs/83z6p2tj4w57s6p2rt8nwfp00000gn/T//cc3yBana.s 			page 17


 647:mini3d/scene.c **** 		float y3 = face->p3->y;
 648:mini3d/scene.c **** 		float x4 = (face->p4 != NULL) ? face->p4->x : 0;
 649:mini3d/scene.c **** 		float y4 = (face->p4 != NULL) ? face->p4->y : 0;
 650:mini3d/scene.c **** 
 651:mini3d/scene.c **** 		// quick bounds check
 652:mini3d/scene.c **** 
 653:mini3d/scene.c **** 		if ( (x1 < 0 && x2 < 0 && x3 < 0 && x4 < 0) || (x1 >= WIDTH && x2 >= WIDTH && x3 >= WIDTH && x4 >
 654:mini3d/scene.c **** 			 (y1 < 0 && y2 < 0 && y3 < 0 && x4 < 0) || (y1 >= HEIGHT && y2 >= HEIGHT && y3 >= HEIGHT && y4 >
 655:mini3d/scene.c **** 			continue;
 656:mini3d/scene.c **** 
 657:mini3d/scene.c **** 		if ( (style & kRenderWireframeBack) == 0 )
 658:mini3d/scene.c **** 		{
 659:mini3d/scene.c **** 			// only render front side of faces
 660:mini3d/scene.c **** 
 661:mini3d/scene.c **** 			float d;
 662:mini3d/scene.c **** 
 663:mini3d/scene.c **** 			if ( scene->hasPerspective ) // use winding order
 664:mini3d/scene.c **** 				d = (x2 - x1) * (y3 - y1) - (y2 - y1) * (x3 - x1);
 665:mini3d/scene.c **** 			else // use direction of normal
 666:mini3d/scene.c **** 				d = face->normal.dz;
 667:mini3d/scene.c **** 
 668:mini3d/scene.c **** 			if ( (d > 0) ^ (shape->inverted ? 1 : 0) )
 669:mini3d/scene.c **** 				continue;
 670:mini3d/scene.c **** 		}
 671:mini3d/scene.c **** 
 672:mini3d/scene.c **** 		// XXX - can avoid 1/2 the drawing if we're doing the entire shape (kRenderWireframeBack is set)
 673:mini3d/scene.c **** 		// and the shape is closed: skip lines where y1 > y2
 674:mini3d/scene.c **** 
 675:mini3d/scene.c **** #if ENABLE_Z_BUFFER
 676:mini3d/scene.c **** 		if ( shape->useZBuffer )
 677:mini3d/scene.c **** 		{
 678:mini3d/scene.c **** 			drawLine_zbuf(bitmap, rowstride, face->p1, face->p2, 1, color);
 679:mini3d/scene.c **** 			drawLine_zbuf(bitmap, rowstride, face->p2, face->p3, 1, color);
 680:mini3d/scene.c **** 
 681:mini3d/scene.c **** 			if ( face->p4 != NULL )
 682:mini3d/scene.c **** 			{
 683:mini3d/scene.c **** 				drawLine_zbuf(bitmap, rowstride, face->p3, face->p4, 1, color);
 684:mini3d/scene.c **** 				drawLine_zbuf(bitmap, rowstride, face->p4, face->p1, 1, color);
 685:mini3d/scene.c **** 			}
 686:mini3d/scene.c **** 			else
 687:mini3d/scene.c **** 				drawLine_zbuf(bitmap, rowstride, face->p3, face->p1, 1, color);
 688:mini3d/scene.c **** 		}
 689:mini3d/scene.c **** 		else
 690:mini3d/scene.c **** 		{
 691:mini3d/scene.c **** #endif
 692:mini3d/scene.c **** 			drawLine(bitmap, rowstride, face->p1, face->p2, 1, color);
 693:mini3d/scene.c **** 			drawLine(bitmap, rowstride, face->p2, face->p3, 1, color);
 694:mini3d/scene.c **** 
 695:mini3d/scene.c **** 			if ( face->p4 != NULL )
 696:mini3d/scene.c **** 			{
 697:mini3d/scene.c **** 				drawLine(bitmap, rowstride, face->p3, face->p4, 1, color);
 698:mini3d/scene.c **** 				drawLine(bitmap, rowstride, face->p4, face->p1, 1, color);
 699:mini3d/scene.c **** 			}
 700:mini3d/scene.c **** 			else
 701:mini3d/scene.c **** 				drawLine(bitmap, rowstride, face->p3, face->p1, 1, color);
 702:mini3d/scene.c **** #if ENABLE_Z_BUFFER
 703:mini3d/scene.c **** 		}
ARM GAS  /var/folders/cs/83z6p2tj4w57s6p2rt8nwfp00000gn/T//cc3yBana.s 			page 18


 704:mini3d/scene.c **** #endif
 705:mini3d/scene.c **** 	}
 706:mini3d/scene.c **** }
 707:mini3d/scene.c **** 
 708:mini3d/scene.c **** static int compareZ(const void* a, const void* b)
 709:mini3d/scene.c **** {
 252              		.loc 1 709 1 is_stmt 1 view -0
 253              		.cfi_startproc
 254              		@ args = 0, pretend = 0, frame = 0
 255              		@ frame_needed = 0, uses_anonymous_args = 0
 256              		@ link register save eliminated.
 710:mini3d/scene.c **** 	ShapeInstance* shapea = *(ShapeInstance**)a;
 257              		.loc 1 710 2 view .LVU44
 711:mini3d/scene.c **** 	ShapeInstance* shapeb = *(ShapeInstance**)b;
 258              		.loc 1 711 2 view .LVU45
 712:mini3d/scene.c **** 
 713:mini3d/scene.c **** 	return shapea->center.z < shapeb->center.z;
 259              		.loc 1 713 2 view .LVU46
 260              	@ mini3d/scene.c:713: 	return shapea->center.z < shapeb->center.z;
 261              		.loc 1 713 23 is_stmt 0 view .LVU47
 262 0000 0268     		ldr	r2, [r0]	@ MEM[(struct ShapeInstance * *)a_5(D)], MEM[(struct ShapeInstance * *)a_5(D)]
 263              	@ mini3d/scene.c:713: 	return shapea->center.z < shapeb->center.z;
 264              		.loc 1 713 42 view .LVU48
 265 0002 0B68     		ldr	r3, [r1]	@ MEM[(struct ShapeInstance * *)b_7(D)], MEM[(struct ShapeInstance * *)b_7(D)]
 266              	@ mini3d/scene.c:713: 	return shapea->center.z < shapeb->center.z;
 267              		.loc 1 713 26 view .LVU49
 268 0004 92ED157A 		vldr.32	s14, [r2, #84]	@ shapea_6->center.z, shapea_6->center.z
 269 0008 D3ED157A 		vldr.32	s15, [r3, #84]	@ shapeb_8->center.z, shapeb_8->center.z
 270 000c B4EEE77A 		vcmpe.f32	s14, s15	@ shapea_6->center.z, shapeb_8->center.z
 271 0010 F1EE10FA 		vmrs	APSR_nzcv, FPSCR
 272              	@ mini3d/scene.c:714: }
 714:mini3d/scene.c **** }
 273              		.loc 1 714 1 view .LVU50
 274 0014 4CBF     		ite	mi
 275 0016 0120     		movmi	r0, #1	@,
 276              	.LVL17:
 277              		.loc 1 714 1 view .LVU51
 278 0018 0020     		movpl	r0, #0	@,
 279 001a 7047     		bx	lr	@
 280              		.cfi_endproc
 281              	.LFE37:
 282              		.size	compareZ, .-compareZ
 283              		.section	.text.Scene3DNode_init,"ax",%progbits
 284              		.align	1
 285              		.p2align 4,,15
 286              		.global	Scene3DNode_init
 287              		.syntax unified
 288              		.thumb
 289              		.thumb_func
 290              		.fpu fpv5-sp-d16
 291              		.type	Scene3DNode_init, %function
 292              	Scene3DNode_init:
 293              	.LVL18:
 294              	.LFB12:
  22:mini3d/scene.c **** 	node->transform = identityMatrix;
 295              		.loc 1 22 1 is_stmt 1 view -0
 296              		.cfi_startproc
ARM GAS  /var/folders/cs/83z6p2tj4w57s6p2rt8nwfp00000gn/T//cc3yBana.s 			page 19


 297              		@ args = 0, pretend = 0, frame = 0
 298              		@ frame_needed = 0, uses_anonymous_args = 0
 299              		@ link register save eliminated.
  23:mini3d/scene.c **** 	node->parentNode = NULL;
 300              		.loc 1 23 2 view .LVU53
 301              	@ mini3d/scene.c:22: {
  22:mini3d/scene.c **** 	node->transform = identityMatrix;
 302              		.loc 1 22 1 is_stmt 0 view .LVU54
 303 0000 F0B4     		push	{r4, r5, r6, r7}	@
 304              	.LCFI1:
 305              		.cfi_def_cfa_offset 16
 306              		.cfi_offset 4, -16
 307              		.cfi_offset 5, -12
 308              		.cfi_offset 6, -8
 309              		.cfi_offset 7, -4
 310              	@ mini3d/scene.c:22: {
  22:mini3d/scene.c **** 	node->transform = identityMatrix;
 311              		.loc 1 22 1 view .LVU55
 312 0002 0646     		mov	r6, r0	@ node, tmp129
 313              	@ mini3d/scene.c:23: 	node->transform = identityMatrix;
  23:mini3d/scene.c **** 	node->parentNode = NULL;
 314              		.loc 1 23 18 view .LVU56
 315 0004 0F4D     		ldr	r5, .L22	@ tmp116,
 316              	@ mini3d/scene.c:24: 	node->parentNode = NULL;
  24:mini3d/scene.c **** 	node->childNodes = NULL;
 317              		.loc 1 24 19 view .LVU57
 318 0006 0027     		movs	r7, #0	@ tmp118,
 319              	@ mini3d/scene.c:28: 	node->colorBias = 0;
  28:mini3d/scene.c **** 	node->renderStyle = kRenderInheritStyle;
 320              		.loc 1 28 18 view .LVU58
 321 0008 4FF0000C 		mov	ip, #0	@ tmp122,
 322              	@ mini3d/scene.c:23: 	node->transform = identityMatrix;
  23:mini3d/scene.c **** 	node->parentNode = NULL;
 323              		.loc 1 23 18 view .LVU59
 324 000c 3446     		mov	r4, r6	@ node, node
 325 000e 0FCD     		ldmia	r5!, {r0, r1, r2, r3}	@ tmp116,,,,
 326              	.LVL19:
  23:mini3d/scene.c **** 	node->parentNode = NULL;
 327              		.loc 1 23 18 view .LVU60
 328 0010 0FC4     		stmia	r4!, {r0, r1, r2, r3}	@ node,,,,
 329              	.LVL20:
  23:mini3d/scene.c **** 	node->parentNode = NULL;
 330              		.loc 1 23 18 view .LVU61
 331 0012 0FCD     		ldmia	r5!, {r0, r1, r2, r3}	@ tmp116,,,,
 332 0014 0FC4     		stmia	r4!, {r0, r1, r2, r3}	@ node,,,,
 333 0016 0FCD     		ldmia	r5!, {r0, r1, r2, r3}	@ tmp116,,,,
 334 0018 2D68     		ldr	r5, [r5]	@ identityMatrix, identityMatrix
 335 001a 0FC4     		stmia	r4!, {r0, r1, r2, r3}	@ node,,,,
 336 001c 2560     		str	r5, [r4]	@ identityMatrix, node_2(D)->transform
  24:mini3d/scene.c **** 	node->childNodes = NULL;
 337              		.loc 1 24 2 is_stmt 1 view .LVU62
 338              	@ mini3d/scene.c:29: 	node->renderStyle = kRenderInheritStyle;
  29:mini3d/scene.c **** 	node->isVisible = 1;
 339              		.loc 1 29 20 is_stmt 0 view .LVU63
 340 001e B6F84C30 		ldrh	r3, [r6, #76]	@, MEM[(void *)node_2(D) + 76B]
 341              	@ mini3d/scene.c:28: 	node->colorBias = 0;
  28:mini3d/scene.c **** 	node->renderStyle = kRenderInheritStyle;
ARM GAS  /var/folders/cs/83z6p2tj4w57s6p2rt8nwfp00000gn/T//cc3yBana.s 			page 20


 342              		.loc 1 28 18 view .LVU64
 343 0022 C6F848C0 		str	ip, [r6, #72]	@ float	@ tmp122, node_2(D)->colorBias
 344              	@ mini3d/scene.c:29: 	node->renderStyle = kRenderInheritStyle;
  29:mini3d/scene.c **** 	node->isVisible = 1;
 345              		.loc 1 29 20 view .LVU65
 346 0026 23F4FF63 		bic	r3, r3, #2040	@ tmp124, MEM[(void *)node_2(D) + 76B],
 347              	@ mini3d/scene.c:24: 	node->parentNode = NULL;
  24:mini3d/scene.c **** 	node->childNodes = NULL;
 348              		.loc 1 24 19 view .LVU66
 349 002a 7763     		str	r7, [r6, #52]	@ tmp118, node_2(D)->parentNode
  25:mini3d/scene.c **** 	node->nChildren = 0;
 350              		.loc 1 25 2 is_stmt 1 view .LVU67
 351              	@ mini3d/scene.c:25: 	node->childNodes = NULL;
  25:mini3d/scene.c **** 	node->nChildren = 0;
 352              		.loc 1 25 19 is_stmt 0 view .LVU68
 353 002c F763     		str	r7, [r6, #60]	@ tmp118, node_2(D)->childNodes
  26:mini3d/scene.c **** 	node->shapes = NULL;
 354              		.loc 1 26 2 is_stmt 1 view .LVU69
 355              	@ mini3d/scene.c:29: 	node->renderStyle = kRenderInheritStyle;
  29:mini3d/scene.c **** 	node->isVisible = 1;
 356              		.loc 1 29 20 is_stmt 0 view .LVU70
 357 002e 23F00703 		bic	r3, r3, #7	@ tmp124, tmp124,
 358              	@ mini3d/scene.c:26: 	node->nChildren = 0;
  26:mini3d/scene.c **** 	node->shapes = NULL;
 359              		.loc 1 26 18 view .LVU71
 360 0032 B763     		str	r7, [r6, #56]	@ tmp118, node_2(D)->nChildren
  27:mini3d/scene.c **** 	node->colorBias = 0;
 361              		.loc 1 27 2 is_stmt 1 view .LVU72
  28:mini3d/scene.c **** 	node->renderStyle = kRenderInheritStyle;
 362              		.loc 1 28 2 view .LVU73
  29:mini3d/scene.c **** 	node->isVisible = 1;
 363              		.loc 1 29 2 view .LVU74
  30:mini3d/scene.c **** 	node->needsUpdate = 1;
 364              		.loc 1 30 2 view .LVU75
  31:mini3d/scene.c **** #if ENABLE_Z_BUFFER
 365              		.loc 1 31 2 view .LVU76
  33:mini3d/scene.c **** #endif
 366              		.loc 1 33 2 view .LVU77
 367              	@ mini3d/scene.c:27: 	node->shapes = NULL;
  27:mini3d/scene.c **** 	node->colorBias = 0;
 368              		.loc 1 27 15 is_stmt 0 view .LVU78
 369 0034 7764     		str	r7, [r6, #68]	@ tmp118, node_2(D)->shapes
 370              	@ mini3d/scene.c:29: 	node->renderStyle = kRenderInheritStyle;
  29:mini3d/scene.c **** 	node->isVisible = 1;
 371              		.loc 1 29 20 view .LVU79
 372 0036 43F4E063 		orr	r3, r3, #1792	@ tmp127, tmp124,
 373 003a A6F84C30 		strh	r3, [r6, #76]	@ movhi	@ tmp127, MEM[(void *)node_2(D) + 76B]
 374              	@ mini3d/scene.c:35: }
  35:mini3d/scene.c **** 
 375              		.loc 1 35 1 view .LVU80
 376 003e F0BC     		pop	{r4, r5, r6, r7}	@
 377              	.LCFI2:
 378              		.cfi_restore 7
 379              		.cfi_restore 6
 380              		.cfi_restore 5
 381              		.cfi_restore 4
 382              		.cfi_def_cfa_offset 0
ARM GAS  /var/folders/cs/83z6p2tj4w57s6p2rt8nwfp00000gn/T//cc3yBana.s 			page 21


 383              	.LVL21:
  35:mini3d/scene.c **** 
 384              		.loc 1 35 1 view .LVU81
 385 0040 7047     		bx	lr	@
 386              	.L23:
 387 0042 00BF     		.align	2
 388              	.L22:
 389 0044 00000000 		.word	identityMatrix
 390              		.cfi_endproc
 391              	.LFE12:
 392              		.size	Scene3DNode_init, .-Scene3DNode_init
 393              		.section	.text.Scene3DNode_deinit,"ax",%progbits
 394              		.align	1
 395              		.p2align 4,,15
 396              		.global	Scene3DNode_deinit
 397              		.syntax unified
 398              		.thumb
 399              		.thumb_func
 400              		.fpu fpv5-sp-d16
 401              		.type	Scene3DNode_deinit, %function
 402              	Scene3DNode_deinit:
 403              	.LVL22:
 404              	.LFB13:
  39:mini3d/scene.c **** 	ShapeInstance* shape = node->shapes;
 405              		.loc 1 39 1 is_stmt 1 view -0
 406              		.cfi_startproc
 407              		@ args = 0, pretend = 0, frame = 0
 408              		@ frame_needed = 0, uses_anonymous_args = 0
  40:mini3d/scene.c **** 
 409              		.loc 1 40 2 view .LVU83
 410              	@ mini3d/scene.c:39: {
  39:mini3d/scene.c **** 	ShapeInstance* shape = node->shapes;
 411              		.loc 1 39 1 is_stmt 0 view .LVU84
 412 0000 F8B5     		push	{r3, r4, r5, r6, r7, lr}	@
 413              	.LCFI3:
 414              		.cfi_def_cfa_offset 24
 415              		.cfi_offset 3, -24
 416              		.cfi_offset 4, -20
 417              		.cfi_offset 5, -16
 418              		.cfi_offset 6, -12
 419              		.cfi_offset 7, -8
 420              		.cfi_offset 14, -4
 421              	@ mini3d/scene.c:40: 	ShapeInstance* shape = node->shapes;
  40:mini3d/scene.c **** 
 422              		.loc 1 40 17 view .LVU85
 423 0002 456C     		ldr	r5, [r0, #68]	@ next, node_29(D)->shapes
 424              	.LVL23:
  42:mini3d/scene.c **** 	{
 425              		.loc 1 42 2 is_stmt 1 view .LVU86
  42:mini3d/scene.c **** 	{
 426              		.loc 1 42 8 view .LVU87
 427              	@ mini3d/scene.c:39: {
  39:mini3d/scene.c **** 	ShapeInstance* shape = node->shapes;
 428              		.loc 1 39 1 is_stmt 0 view .LVU88
 429 0004 0746     		mov	r7, r0	@ node, tmp160
 430              	@ mini3d/scene.c:42: 	while ( shape != NULL )
  42:mini3d/scene.c **** 	{
ARM GAS  /var/folders/cs/83z6p2tj4w57s6p2rt8nwfp00000gn/T//cc3yBana.s 			page 22


 431              		.loc 1 42 8 view .LVU89
 432 0006 C5B1     		cbz	r5, .L26	@ next,
 433 0008 1A4E     		ldr	r6, .L41	@ tmp157,
 434              	.LVL24:
 435              	.L25:
 436              	.LBB29:
  44:mini3d/scene.c **** 		Shape3D_release(shape->prototype);
 437              		.loc 1 44 3 is_stmt 1 view .LVU90
 438 000a 2C46     		mov	r4, r5	@ shape, next
 439              	@ mini3d/scene.c:44: 		ShapeInstance* next = shape->next;
  44:mini3d/scene.c **** 		Shape3D_release(shape->prototype);
 440              		.loc 1 44 18 is_stmt 0 view .LVU91
 441 000c AD6B     		ldr	r5, [r5, #56]	@ next, shape_9->next
 442              	.LVL25:
  45:mini3d/scene.c **** 		m3d_free(shape->points);
 443              		.loc 1 45 3 is_stmt 1 view .LVU92
 444 000e 2068     		ldr	r0, [r4]	@, shape_12->prototype
 445 0010 FFF7FEFF 		bl	Shape3D_release		@
 446              	.LVL26:
  46:mini3d/scene.c **** 		m3d_free(shape->faces);
 447              		.loc 1 46 3 view .LVU93
 448 0014 3368     		ldr	r3, [r6]	@ m3d_realloc, m3d_realloc
 449 0016 0021     		movs	r1, #0	@,
 450 0018 206C     		ldr	r0, [r4, #64]	@, shape_12->points
 451 001a 9847     		blx	r3		@ m3d_realloc
 452              	.LVL27:
  47:mini3d/scene.c **** 		m3d_free(shape);
 453              		.loc 1 47 3 view .LVU94
 454 001c 3368     		ldr	r3, [r6]	@ m3d_realloc, m3d_realloc
 455 001e 0021     		movs	r1, #0	@,
 456 0020 A06C     		ldr	r0, [r4, #72]	@, shape_12->faces
 457 0022 9847     		blx	r3		@ m3d_realloc
 458              	.LVL28:
  48:mini3d/scene.c **** 		shape = next;
 459              		.loc 1 48 3 view .LVU95
 460 0024 2046     		mov	r0, r4	@, shape
 461 0026 3368     		ldr	r3, [r6]	@ m3d_realloc, m3d_realloc
 462 0028 0021     		movs	r1, #0	@,
 463 002a 9847     		blx	r3		@ m3d_realloc
 464              	.LVL29:
  49:mini3d/scene.c **** 	}
 465              		.loc 1 49 3 view .LVU96
  49:mini3d/scene.c **** 	}
 466              		.loc 1 49 3 is_stmt 0 view .LVU97
 467              	.LBE29:
  42:mini3d/scene.c **** 	{
 468              		.loc 1 42 8 is_stmt 1 view .LVU98
 469 002c 002D     		cmp	r5, #0	@ next
 470 002e ECD1     		bne	.L25	@
  52:mini3d/scene.c **** 		m3d_free(node->shapes);
 471              		.loc 1 52 2 view .LVU99
 472              	@ mini3d/scene.c:52: 	if ( node->shapes != NULL )
  52:mini3d/scene.c **** 		m3d_free(node->shapes);
 473              		.loc 1 52 11 is_stmt 0 view .LVU100
 474 0030 786C     		ldr	r0, [r7, #68]	@ _7, node_29(D)->shapes
 475              	@ mini3d/scene.c:52: 	if ( node->shapes != NULL )
  52:mini3d/scene.c **** 		m3d_free(node->shapes);
ARM GAS  /var/folders/cs/83z6p2tj4w57s6p2rt8nwfp00000gn/T//cc3yBana.s 			page 23


 476              		.loc 1 52 5 view .LVU101
 477 0032 10B1     		cbz	r0, .L26	@ _7,
  53:mini3d/scene.c **** 
 478              		.loc 1 53 3 is_stmt 1 view .LVU102
 479 0034 3368     		ldr	r3, [r6]	@ m3d_realloc, m3d_realloc
 480 0036 2946     		mov	r1, r5	@, next
 481 0038 9847     		blx	r3		@ m3d_realloc
 482              	.LVL30:
 483              	.L26:
  57:mini3d/scene.c **** 	{
 484              		.loc 1 57 15 discriminator 1 view .LVU103
 485              	@ mini3d/scene.c:57: 	for ( i = 0; i < node->nChildren; ++i )
  57:mini3d/scene.c **** 	{
 486              		.loc 1 57 2 is_stmt 0 discriminator 1 view .LVU104
 487 003a BB6B     		ldr	r3, [r7, #56]	@ node_29(D)->nChildren, node_29(D)->nChildren
 488 003c 002B     		cmp	r3, #0	@ node_29(D)->nChildren,
 489 003e 10DD     		ble	.L28		@,
 490              	@ mini3d/scene.c:57: 	for ( i = 0; i < node->nChildren; ++i )
  57:mini3d/scene.c **** 	{
 491              		.loc 1 57 2 view .LVU105
 492 0040 0024     		movs	r4, #0	@ i,
 493 0042 0C4E     		ldr	r6, .L41	@ tmp157,
 494              	.LVL31:
 495              	.L29:
  59:mini3d/scene.c **** 		m3d_free(node->childNodes[i]);
 496              		.loc 1 59 3 is_stmt 1 discriminator 3 view .LVU106
 497 0044 FB6B     		ldr	r3, [r7, #60]	@ node_29(D)->childNodes, node_29(D)->childNodes
 498 0046 53F82400 		ldr	r0, [r3, r4, lsl #2]	@, *_13
 499 004a FFF7FEFF 		bl	Scene3DNode_deinit		@
 500              	.LVL32:
  60:mini3d/scene.c **** 	}
 501              		.loc 1 60 3 discriminator 3 view .LVU107
 502 004e FA6B     		ldr	r2, [r7, #60]	@ node_29(D)->childNodes, node_29(D)->childNodes
 503 0050 3368     		ldr	r3, [r6]	@ m3d_realloc, m3d_realloc
 504 0052 0021     		movs	r1, #0	@,
 505 0054 52F82400 		ldr	r0, [r2, r4, lsl #2]	@, *_17
 506              	@ mini3d/scene.c:57: 	for ( i = 0; i < node->nChildren; ++i )
  57:mini3d/scene.c **** 	{
 507              		.loc 1 57 36 is_stmt 0 discriminator 3 view .LVU108
 508 0058 0134     		adds	r4, r4, #1	@ i, i,
 509              	.LVL33:
 510              	@ mini3d/scene.c:60: 		m3d_free(node->childNodes[i]);
  60:mini3d/scene.c **** 	}
 511              		.loc 1 60 3 discriminator 3 view .LVU109
 512 005a 9847     		blx	r3		@ m3d_realloc
 513              	.LVL34:
  57:mini3d/scene.c **** 	{
 514              		.loc 1 57 36 is_stmt 1 discriminator 3 view .LVU110
  57:mini3d/scene.c **** 	{
 515              		.loc 1 57 15 discriminator 3 view .LVU111
 516              	@ mini3d/scene.c:57: 	for ( i = 0; i < node->nChildren; ++i )
  57:mini3d/scene.c **** 	{
 517              		.loc 1 57 2 is_stmt 0 discriminator 3 view .LVU112
 518 005c BB6B     		ldr	r3, [r7, #56]	@ node_29(D)->nChildren, node_29(D)->nChildren
 519 005e A342     		cmp	r3, r4	@ node_29(D)->nChildren, i
 520 0060 F0DC     		bgt	.L29		@,
 521              	.LVL35:
ARM GAS  /var/folders/cs/83z6p2tj4w57s6p2rt8nwfp00000gn/T//cc3yBana.s 			page 24


 522              	.L28:
  63:mini3d/scene.c **** 		m3d_free(node->childNodes);
 523              		.loc 1 63 2 is_stmt 1 view .LVU113
 524              	@ mini3d/scene.c:63: 	if ( node->childNodes != NULL )
  63:mini3d/scene.c **** 		m3d_free(node->childNodes);
 525              		.loc 1 63 11 is_stmt 0 view .LVU114
 526 0062 F86B     		ldr	r0, [r7, #60]	@ _20, node_29(D)->childNodes
 527              	@ mini3d/scene.c:63: 	if ( node->childNodes != NULL )
  63:mini3d/scene.c **** 		m3d_free(node->childNodes);
 528              		.loc 1 63 5 view .LVU115
 529 0064 18B1     		cbz	r0, .L30	@ _20,
  64:mini3d/scene.c **** 
 530              		.loc 1 64 3 is_stmt 1 view .LVU116
 531 0066 034B     		ldr	r3, .L41	@ tmp154,
 532 0068 0021     		movs	r1, #0	@,
 533 006a 1B68     		ldr	r3, [r3]	@ m3d_realloc, m3d_realloc
 534 006c 9847     		blx	r3		@ m3d_realloc
 535              	.LVL36:
 536              	.L30:
  66:mini3d/scene.c **** }
 537              		.loc 1 66 2 view .LVU117
 538              	@ mini3d/scene.c:66: 	node->childNodes = NULL;
  66:mini3d/scene.c **** }
 539              		.loc 1 66 19 is_stmt 0 view .LVU118
 540 006e 0023     		movs	r3, #0	@ tmp156,
 541 0070 FB63     		str	r3, [r7, #60]	@ tmp156, node_29(D)->childNodes
 542              	@ mini3d/scene.c:67: }
  67:mini3d/scene.c **** 
 543              		.loc 1 67 1 view .LVU119
 544 0072 F8BD     		pop	{r3, r4, r5, r6, r7, pc}	@
 545              	.LVL37:
 546              	.L42:
  67:mini3d/scene.c **** 
 547              		.loc 1 67 1 view .LVU120
 548              		.align	2
 549              	.L41:
 550 0074 00000000 		.word	m3d_realloc
 551              		.cfi_endproc
 552              	.LFE13:
 553              		.size	Scene3DNode_deinit, .-Scene3DNode_deinit
 554              		.section	.text.Scene3DNode_setTransform,"ax",%progbits
 555              		.align	1
 556              		.p2align 4,,15
 557              		.global	Scene3DNode_setTransform
 558              		.syntax unified
 559              		.thumb
 560              		.thumb_func
 561              		.fpu fpv5-sp-d16
 562              		.type	Scene3DNode_setTransform, %function
 563              	Scene3DNode_setTransform:
 564              	.LVL38:
 565              	.LFB14:
  71:mini3d/scene.c **** 	node->transform = *xform;
 566              		.loc 1 71 1 is_stmt 1 view -0
 567              		.cfi_startproc
 568              		@ args = 0, pretend = 0, frame = 0
 569              		@ frame_needed = 0, uses_anonymous_args = 0
ARM GAS  /var/folders/cs/83z6p2tj4w57s6p2rt8nwfp00000gn/T//cc3yBana.s 			page 25


 570              		@ link register save eliminated.
  72:mini3d/scene.c **** 
 571              		.loc 1 72 2 view .LVU122
 572              	@ mini3d/scene.c:71: {
  71:mini3d/scene.c **** 	node->transform = *xform;
 573              		.loc 1 71 1 is_stmt 0 view .LVU123
 574 0000 70B4     		push	{r4, r5, r6}	@
 575              	.LCFI4:
 576              		.cfi_def_cfa_offset 12
 577              		.cfi_offset 4, -12
 578              		.cfi_offset 5, -8
 579              		.cfi_offset 6, -4
 580              	@ mini3d/scene.c:72: 	node->transform = *xform;
  72:mini3d/scene.c **** 
 581              		.loc 1 72 18 view .LVU124
 582 0002 0D46     		mov	r5, r1	@ xform, tmp120
 583 0004 0646     		mov	r6, r0	@ node, node
 584              	@ mini3d/scene.c:71: {
  71:mini3d/scene.c **** 	node->transform = *xform;
 585              		.loc 1 71 1 view .LVU125
 586 0006 0446     		mov	r4, r0	@ node, tmp119
 587              	@ mini3d/scene.c:72: 	node->transform = *xform;
  72:mini3d/scene.c **** 
 588              		.loc 1 72 18 view .LVU126
 589 0008 0FCD     		ldmia	r5!, {r0, r1, r2, r3}	@ xform,,,,
 590              	.LVL39:
  72:mini3d/scene.c **** 
 591              		.loc 1 72 18 view .LVU127
 592 000a 0FC6     		stmia	r6!, {r0, r1, r2, r3}	@ node,,,,
 593 000c 0FCD     		ldmia	r5!, {r0, r1, r2, r3}	@ xform,,,,
 594              	.LVL40:
  72:mini3d/scene.c **** 
 595              		.loc 1 72 18 view .LVU128
 596 000e 0FC6     		stmia	r6!, {r0, r1, r2, r3}	@ node,,,,
 597 0010 0FCD     		ldmia	r5!, {r0, r1, r2, r3}	@ xform,,,,
 598              	.LVL41:
  72:mini3d/scene.c **** 
 599              		.loc 1 72 18 view .LVU129
 600 0012 0FC6     		stmia	r6!, {r0, r1, r2, r3}	@ node,,,,
 601 0014 2B68     		ldr	r3, [r5]	@ *xform_5(D), *xform_5(D)
 602 0016 3360     		str	r3, [r6]	@ *xform_5(D), node_4(D)->transform
  76:mini3d/scene.c **** 	{
 603              		.loc 1 76 2 is_stmt 1 view .LVU130
  76:mini3d/scene.c **** 	{
 604              		.loc 1 76 8 view .LVU131
 605              	.L44:
  78:mini3d/scene.c **** 		node = node->parentNode;
 606              		.loc 1 78 3 view .LVU132
 607              	@ mini3d/scene.c:78: 		node->needsUpdate = 1;
  78:mini3d/scene.c **** 		node = node->parentNode;
 608              		.loc 1 78 21 is_stmt 0 view .LVU133
 609 0018 94F84D30 		ldrb	r3, [r4, #77]	@ zero_extendqisi2	@ node_13->needsUpdate, node_13->needsUpdate
 610 001c 43F00203 		orr	r3, r3, #2	@ tmp117, node_13->needsUpdate,
 611 0020 84F84D30 		strb	r3, [r4, #77]	@ tmp117, node_13->needsUpdate
  79:mini3d/scene.c **** 	}
 612              		.loc 1 79 3 is_stmt 1 view .LVU134
 613              	@ mini3d/scene.c:79: 		node = node->parentNode;
ARM GAS  /var/folders/cs/83z6p2tj4w57s6p2rt8nwfp00000gn/T//cc3yBana.s 			page 26


  79:mini3d/scene.c **** 	}
 614              		.loc 1 79 8 is_stmt 0 view .LVU135
 615 0024 646B     		ldr	r4, [r4, #52]	@ node, node_13->parentNode
 616              	.LVL42:
  76:mini3d/scene.c **** 	{
 617              		.loc 1 76 8 is_stmt 1 view .LVU136
 618 0026 002C     		cmp	r4, #0	@ node
 619 0028 F6D1     		bne	.L44	@
 620              	@ mini3d/scene.c:81: }
  81:mini3d/scene.c **** 
 621              		.loc 1 81 1 is_stmt 0 view .LVU137
 622 002a 70BC     		pop	{r4, r5, r6}	@
 623              	.LCFI5:
 624              		.cfi_restore 6
 625              		.cfi_restore 5
 626              		.cfi_restore 4
 627              		.cfi_def_cfa_offset 0
 628              	.LVL43:
  81:mini3d/scene.c **** 
 629              		.loc 1 81 1 view .LVU138
 630 002c 7047     		bx	lr	@
 631              		.cfi_endproc
 632              	.LFE14:
 633              		.size	Scene3DNode_setTransform, .-Scene3DNode_setTransform
 634 002e 00BF     		.section	.text.Scene3DNode_addTransform,"ax",%progbits
 635              		.align	1
 636              		.p2align 4,,15
 637              		.global	Scene3DNode_addTransform
 638              		.syntax unified
 639              		.thumb
 640              		.thumb_func
 641              		.fpu fpv5-sp-d16
 642              		.type	Scene3DNode_addTransform, %function
 643              	Scene3DNode_addTransform:
 644              	.LVL44:
 645              	.LFB15:
  85:mini3d/scene.c **** 	Matrix3D m = Matrix3D_multiply(node->transform, *xform);
 646              		.loc 1 85 1 is_stmt 1 view -0
 647              		.cfi_startproc
 648              		@ args = 0, pretend = 0, frame = 56
 649              		@ frame_needed = 0, uses_anonymous_args = 0
  86:mini3d/scene.c **** 	Scene3DNode_setTransform(node, &m);
 650              		.loc 1 86 2 view .LVU140
 651              	@ mini3d/scene.c:85: {
  85:mini3d/scene.c **** 	Matrix3D m = Matrix3D_multiply(node->transform, *xform);
 652              		.loc 1 85 1 is_stmt 0 view .LVU141
 653 0000 F0B5     		push	{r4, r5, r6, r7, lr}	@
 654              	.LCFI6:
 655              		.cfi_def_cfa_offset 20
 656              		.cfi_offset 4, -20
 657              		.cfi_offset 5, -16
 658              		.cfi_offset 6, -12
 659              		.cfi_offset 7, -8
 660              		.cfi_offset 14, -4
 661              	@ mini3d/scene.c:86: 	Matrix3D m = Matrix3D_multiply(node->transform, *xform);
  86:mini3d/scene.c **** 	Scene3DNode_setTransform(node, &m);
 662              		.loc 1 86 15 view .LVU142
ARM GAS  /var/folders/cs/83z6p2tj4w57s6p2rt8nwfp00000gn/T//cc3yBana.s 			page 27


 663 0002 0D46     		mov	r5, r1	@ xform, tmp126
 664              	@ mini3d/scene.c:85: {
  85:mini3d/scene.c **** 	Matrix3D m = Matrix3D_multiply(node->transform, *xform);
 665              		.loc 1 85 1 view .LVU143
 666 0004 A7B0     		sub	sp, sp, #156	@,,
 667              	.LCFI7:
 668              		.cfi_def_cfa_offset 176
 669              	@ mini3d/scene.c:85: {
  85:mini3d/scene.c **** 	Matrix3D m = Matrix3D_multiply(node->transform, *xform);
 670              		.loc 1 85 1 view .LVU144
 671 0006 0446     		mov	r4, r0	@ node, tmp125
 672              	@ mini3d/scene.c:86: 	Matrix3D m = Matrix3D_multiply(node->transform, *xform);
  86:mini3d/scene.c **** 	Scene3DNode_setTransform(node, &m);
 673              		.loc 1 86 15 view .LVU145
 674 0008 0AAE     		add	r6, sp, #40	@ tmp113,,
 675 000a 6F46     		mov	r7, sp	@ tmp116,
 676 000c 0FCD     		ldmia	r5!, {r0, r1, r2, r3}	@ xform,,,,
 677              	.LVL45:
  86:mini3d/scene.c **** 	Scene3DNode_setTransform(node, &m);
 678              		.loc 1 86 15 view .LVU146
 679 000e 0FC6     		stmia	r6!, {r0, r1, r2, r3}	@ tmp113,,,,
 680 0010 0FCD     		ldmia	r5!, {r0, r1, r2, r3}	@ xform,,,,
 681              	.LVL46:
  86:mini3d/scene.c **** 	Scene3DNode_setTransform(node, &m);
 682              		.loc 1 86 15 view .LVU147
 683 0012 0FC6     		stmia	r6!, {r0, r1, r2, r3}	@ tmp113,,,,
 684 0014 0FCD     		ldmia	r5!, {r0, r1, r2, r3}	@ xform,,,,
 685              	.LVL47:
  86:mini3d/scene.c **** 	Scene3DNode_setTransform(node, &m);
 686              		.loc 1 86 15 view .LVU148
 687 0016 D5F800C0 		ldr	ip, [r5]	@ *xform_3(D), *xform_3(D)
 688 001a 04F10C05 		add	r5, r4, #12	@ tmp117, node,
 689              	.LVL48:
  86:mini3d/scene.c **** 	Scene3DNode_setTransform(node, &m);
 690              		.loc 1 86 15 view .LVU149
 691 001e 0FC6     		stmia	r6!, {r0, r1, r2, r3}	@ tmp113,,,,
 692 0020 C6F800C0 		str	ip, [r6]	@ *xform_3(D),
 693              	.LBB30:
 694              	.LBB31:
 695              	@ mini3d/scene.c:72: 	node->transform = *xform;
  72:mini3d/scene.c **** 
 696              		.loc 1 72 18 view .LVU150
 697 0024 2646     		mov	r6, r4	@ node, node
 698              	.LBE31:
 699              	.LBE30:
 700              	@ mini3d/scene.c:86: 	Matrix3D m = Matrix3D_multiply(node->transform, *xform);
  86:mini3d/scene.c **** 	Scene3DNode_setTransform(node, &m);
 701              		.loc 1 86 15 view .LVU151
 702 0026 0FCD     		ldmia	r5!, {r0, r1, r2, r3}	@ tmp117,,,,
 703 0028 0FC7     		stmia	r7!, {r0, r1, r2, r3}	@ tmp116,,,,
 704 002a 0FCD     		ldmia	r5!, {r0, r1, r2, r3}	@ tmp117,,,,
 705 002c 0FC7     		stmia	r7!, {r0, r1, r2, r3}	@ tmp116,,,,
 706 002e 95E80300 		ldm	r5, {r0, r1}	@ tmp117,,
 707              	.LBB34:
 708              	.LBB32:
 709              	@ mini3d/scene.c:72: 	node->transform = *xform;
  72:mini3d/scene.c **** 
ARM GAS  /var/folders/cs/83z6p2tj4w57s6p2rt8nwfp00000gn/T//cc3yBana.s 			page 28


 710              		.loc 1 72 18 view .LVU152
 711 0032 19AD     		add	r5, sp, #100	@ tmp128,,
 712              	.LBE32:
 713              	.LBE34:
 714              	@ mini3d/scene.c:86: 	Matrix3D m = Matrix3D_multiply(node->transform, *xform);
  86:mini3d/scene.c **** 	Scene3DNode_setTransform(node, &m);
 715              		.loc 1 86 15 view .LVU153
 716 0034 87E80300 		stm	r7, {r0, r1}	@ tmp116,,
 717 0038 19A8     		add	r0, sp, #100	@ tmp127,,
 718 003a 94E80E00 		ldm	r4, {r1, r2, r3}	@ node,,,
 719 003e FFF7FEFF 		bl	Matrix3D_multiply		@
 720              	.LVL49:
  87:mini3d/scene.c **** }
 721              		.loc 1 87 2 is_stmt 1 view .LVU154
 722              	.LBB35:
 723              	.LBI30:
  70:mini3d/scene.c **** {
 724              		.loc 1 70 1 view .LVU155
 725              	.LBB33:
  72:mini3d/scene.c **** 
 726              		.loc 1 72 2 view .LVU156
 727              	@ mini3d/scene.c:72: 	node->transform = *xform;
  72:mini3d/scene.c **** 
 728              		.loc 1 72 18 is_stmt 0 view .LVU157
 729 0042 0FCD     		ldmia	r5!, {r0, r1, r2, r3}	@ tmp119,,,,
 730              	.LVL50:
  72:mini3d/scene.c **** 
 731              		.loc 1 72 18 view .LVU158
 732 0044 0FC6     		stmia	r6!, {r0, r1, r2, r3}	@ node,,,,
 733 0046 0FCD     		ldmia	r5!, {r0, r1, r2, r3}	@ tmp119,,,,
 734              	.LVL51:
  72:mini3d/scene.c **** 
 735              		.loc 1 72 18 view .LVU159
 736 0048 0FC6     		stmia	r6!, {r0, r1, r2, r3}	@ node,,,,
 737 004a 0FCD     		ldmia	r5!, {r0, r1, r2, r3}	@ tmp119,,,,
 738              	.LVL52:
  72:mini3d/scene.c **** 
 739              		.loc 1 72 18 view .LVU160
 740 004c 2D68     		ldr	r5, [r5]	@ m, m
 741              	.LVL53:
  72:mini3d/scene.c **** 
 742              		.loc 1 72 18 view .LVU161
 743 004e 0FC6     		stmia	r6!, {r0, r1, r2, r3}	@ node,,,,
 744 0050 3560     		str	r5, [r6]	@ m, node_2(D)->transform
  76:mini3d/scene.c **** 	{
 745              		.loc 1 76 2 is_stmt 1 view .LVU162
  76:mini3d/scene.c **** 	{
 746              		.loc 1 76 8 view .LVU163
 747              	.LVL54:
 748              	.L48:
  78:mini3d/scene.c **** 		node = node->parentNode;
 749              		.loc 1 78 3 view .LVU164
 750              	@ mini3d/scene.c:78: 		node->needsUpdate = 1;
  78:mini3d/scene.c **** 		node = node->parentNode;
 751              		.loc 1 78 21 is_stmt 0 view .LVU165
 752 0052 94F84D30 		ldrb	r3, [r4, #77]	@ zero_extendqisi2	@ node_15->needsUpdate, node_15->needsUpdate
 753 0056 43F00203 		orr	r3, r3, #2	@ tmp123, node_15->needsUpdate,
ARM GAS  /var/folders/cs/83z6p2tj4w57s6p2rt8nwfp00000gn/T//cc3yBana.s 			page 29


 754 005a 84F84D30 		strb	r3, [r4, #77]	@ tmp123, node_15->needsUpdate
  79:mini3d/scene.c **** 	}
 755              		.loc 1 79 3 is_stmt 1 view .LVU166
 756              	@ mini3d/scene.c:79: 		node = node->parentNode;
  79:mini3d/scene.c **** 	}
 757              		.loc 1 79 8 is_stmt 0 view .LVU167
 758 005e 646B     		ldr	r4, [r4, #52]	@ node, node_15->parentNode
 759              	.LVL55:
  76:mini3d/scene.c **** 	{
 760              		.loc 1 76 8 is_stmt 1 view .LVU168
 761 0060 002C     		cmp	r4, #0	@ node
 762 0062 F6D1     		bne	.L48	@
 763              	.LBE33:
 764              	.LBE35:
 765              	@ mini3d/scene.c:88: }
  88:mini3d/scene.c **** 
 766              		.loc 1 88 1 is_stmt 0 view .LVU169
 767 0064 27B0     		add	sp, sp, #156	@,,
 768              	.LCFI8:
 769              		.cfi_def_cfa_offset 20
 770              		@ sp needed	@
 771 0066 F0BD     		pop	{r4, r5, r6, r7, pc}	@
  88:mini3d/scene.c **** 
 772              		.loc 1 88 1 view .LVU170
 773              		.cfi_endproc
 774              	.LFE15:
 775              		.size	Scene3DNode_addTransform, .-Scene3DNode_addTransform
 776              		.section	.text.Scene3DNode_setColorBias,"ax",%progbits
 777              		.align	1
 778              		.p2align 4,,15
 779              		.global	Scene3DNode_setColorBias
 780              		.syntax unified
 781              		.thumb
 782              		.thumb_func
 783              		.fpu fpv5-sp-d16
 784              		.type	Scene3DNode_setColorBias, %function
 785              	Scene3DNode_setColorBias:
 786              	.LVL56:
 787              	.LFB16:
  92:mini3d/scene.c **** 	node->colorBias = bias;
 788              		.loc 1 92 1 is_stmt 1 view -0
 789              		.cfi_startproc
 790              		@ args = 0, pretend = 0, frame = 0
 791              		@ frame_needed = 0, uses_anonymous_args = 0
 792              		@ link register save eliminated.
  93:mini3d/scene.c **** 	node->needsUpdate = 1;
 793              		.loc 1 93 2 view .LVU172
 794              	@ mini3d/scene.c:94: 	node->needsUpdate = 1;
  94:mini3d/scene.c **** }
 795              		.loc 1 94 20 is_stmt 0 view .LVU173
 796 0000 90F84D30 		ldrb	r3, [r0, #77]	@ zero_extendqisi2	@ node_2(D)->needsUpdate, node_2(D)->needsUpdate
 797              	@ mini3d/scene.c:93: 	node->colorBias = bias;
  93:mini3d/scene.c **** 	node->needsUpdate = 1;
 798              		.loc 1 93 18 view .LVU174
 799 0004 80ED120A 		vstr.32	s0, [r0, #72]	@ tmp117, node_2(D)->colorBias
  94:mini3d/scene.c **** }
 800              		.loc 1 94 2 is_stmt 1 view .LVU175
ARM GAS  /var/folders/cs/83z6p2tj4w57s6p2rt8nwfp00000gn/T//cc3yBana.s 			page 30


 801              	@ mini3d/scene.c:94: 	node->needsUpdate = 1;
  94:mini3d/scene.c **** }
 802              		.loc 1 94 20 is_stmt 0 view .LVU176
 803 0008 43F00203 		orr	r3, r3, #2	@ tmp114, node_2(D)->needsUpdate,
 804 000c 80F84D30 		strb	r3, [r0, #77]	@ tmp114, node_2(D)->needsUpdate
 805              	@ mini3d/scene.c:95: }
  95:mini3d/scene.c **** 
 806              		.loc 1 95 1 view .LVU177
 807 0010 7047     		bx	lr	@
 808              		.cfi_endproc
 809              	.LFE16:
 810              		.size	Scene3DNode_setColorBias, .-Scene3DNode_setColorBias
 811 0012 00BF     		.section	.text.Scene3DNode_setRenderStyle,"ax",%progbits
 812              		.align	1
 813              		.p2align 4,,15
 814              		.global	Scene3DNode_setRenderStyle
 815              		.syntax unified
 816              		.thumb
 817              		.thumb_func
 818              		.fpu fpv5-sp-d16
 819              		.type	Scene3DNode_setRenderStyle, %function
 820              	Scene3DNode_setRenderStyle:
 821              	.LVL57:
 822              	.LFB17:
  99:mini3d/scene.c **** 	node->renderStyle = style;
 823              		.loc 1 99 1 is_stmt 1 view -0
 824              		.cfi_startproc
 825              		@ args = 0, pretend = 0, frame = 0
 826              		@ frame_needed = 0, uses_anonymous_args = 0
 827              		@ link register save eliminated.
 100:mini3d/scene.c **** 	node->needsUpdate = 1;
 828              		.loc 1 100 2 view .LVU179
 829              	@ mini3d/scene.c:101: 	node->needsUpdate = 1;
 101:mini3d/scene.c **** }
 830              		.loc 1 101 20 is_stmt 0 view .LVU180
 831 0000 90F84D30 		ldrb	r3, [r0, #77]	@ zero_extendqisi2	@ node_2(D)->needsUpdate, node_2(D)->needsUpdate
 832              	@ mini3d/scene.c:100: 	node->renderStyle = style;
 100:mini3d/scene.c **** 	node->needsUpdate = 1;
 833              		.loc 1 100 20 view .LVU181
 834 0004 80F84C10 		strb	r1, [r0, #76]	@ tmp118, node_2(D)->renderStyle
 101:mini3d/scene.c **** }
 835              		.loc 1 101 2 is_stmt 1 view .LVU182
 836              	@ mini3d/scene.c:101: 	node->needsUpdate = 1;
 101:mini3d/scene.c **** }
 837              		.loc 1 101 20 is_stmt 0 view .LVU183
 838 0008 43F00203 		orr	r3, r3, #2	@ tmp115, node_2(D)->needsUpdate,
 839 000c 80F84D30 		strb	r3, [r0, #77]	@ tmp115, node_2(D)->needsUpdate
 840              	@ mini3d/scene.c:102: }
 102:mini3d/scene.c **** 
 841              		.loc 1 102 1 view .LVU184
 842 0010 7047     		bx	lr	@
 843              		.cfi_endproc
 844              	.LFE17:
 845              		.size	Scene3DNode_setRenderStyle, .-Scene3DNode_setRenderStyle
 846 0012 00BF     		.section	.text.Scene3DNode_getRenderStyle,"ax",%progbits
 847              		.align	1
 848              		.p2align 4,,15
ARM GAS  /var/folders/cs/83z6p2tj4w57s6p2rt8nwfp00000gn/T//cc3yBana.s 			page 31


 849              		.global	Scene3DNode_getRenderStyle
 850              		.syntax unified
 851              		.thumb
 852              		.thumb_func
 853              		.fpu fpv5-sp-d16
 854              		.type	Scene3DNode_getRenderStyle, %function
 855              	Scene3DNode_getRenderStyle:
 856              	.LVL58:
 857              	.LFB18:
 106:mini3d/scene.c **** 	while ( node != NULL )
 858              		.loc 1 106 1 is_stmt 1 view -0
 859              		.cfi_startproc
 860              		@ args = 0, pretend = 0, frame = 0
 861              		@ frame_needed = 0, uses_anonymous_args = 0
 862              		@ link register save eliminated.
 107:mini3d/scene.c **** 	{
 863              		.loc 1 107 8 view .LVU186
 864 0000 28B1     		cbz	r0, .L59	@ node,
 865              	.L55:
 109:mini3d/scene.c **** 			return node->renderStyle;
 866              		.loc 1 109 3 view .LVU187
 112:mini3d/scene.c **** 	}
 867              		.loc 1 112 3 view .LVU188
 868              	@ mini3d/scene.c:109: 		if ( node->renderStyle != kRenderInheritStyle )
 109:mini3d/scene.c **** 			return node->renderStyle;
 869              		.loc 1 109 12 is_stmt 0 view .LVU189
 870 0002 90F84C30 		ldrb	r3, [r0, #76]	@ zero_extendqisi2	@ <retval>, node_8->renderStyle
 871              	@ mini3d/scene.c:109: 		if ( node->renderStyle != kRenderInheritStyle )
 109:mini3d/scene.c **** 			return node->renderStyle;
 872              		.loc 1 109 6 view .LVU190
 873 0006 1BB9     		cbnz	r3, .L54	@ <retval>,
 874              	@ mini3d/scene.c:112: 		node = node->parentNode;
 112:mini3d/scene.c **** 	}
 875              		.loc 1 112 8 view .LVU191
 876 0008 406B     		ldr	r0, [r0, #52]	@ node, node_8->parentNode
 877              	.LVL59:
 107:mini3d/scene.c **** 	{
 878              		.loc 1 107 8 is_stmt 1 view .LVU192
 879 000a 0028     		cmp	r0, #0	@ node
 880 000c F9D1     		bne	.L55	@
 881              	.L59:
 882              	@ mini3d/scene.c:115: 	return kRenderFilled;
 115:mini3d/scene.c **** }
 883              		.loc 1 115 9 is_stmt 0 view .LVU193
 884 000e 0123     		movs	r3, #1	@ <retval>,
 885              	.L54:
 886              	@ mini3d/scene.c:116: }
 116:mini3d/scene.c **** 
 887              		.loc 1 116 1 view .LVU194
 888 0010 1846     		mov	r0, r3	@, <retval>
 889              	.LVL60:
 116:mini3d/scene.c **** 
 890              		.loc 1 116 1 view .LVU195
 891 0012 7047     		bx	lr	@
 892              		.cfi_endproc
 893              	.LFE18:
 894              		.size	Scene3DNode_getRenderStyle, .-Scene3DNode_getRenderStyle
ARM GAS  /var/folders/cs/83z6p2tj4w57s6p2rt8nwfp00000gn/T//cc3yBana.s 			page 32


 895              		.section	.text.Scene3DNode_setVisible,"ax",%progbits
 896              		.align	1
 897              		.p2align 4,,15
 898              		.global	Scene3DNode_setVisible
 899              		.syntax unified
 900              		.thumb
 901              		.thumb_func
 902              		.fpu fpv5-sp-d16
 903              		.type	Scene3DNode_setVisible, %function
 904              	Scene3DNode_setVisible:
 905              	.LVL61:
 906              	.LFB19:
 120:mini3d/scene.c **** 	node->isVisible = visible;
 907              		.loc 1 120 1 is_stmt 1 view -0
 908              		.cfi_startproc
 909              		@ args = 0, pretend = 0, frame = 0
 910              		@ frame_needed = 0, uses_anonymous_args = 0
 911              		@ link register save eliminated.
 121:mini3d/scene.c **** 	node->needsUpdate = 1;
 912              		.loc 1 121 2 view .LVU197
 122:mini3d/scene.c **** }
 913              		.loc 1 122 2 view .LVU198
 914              	@ mini3d/scene.c:121: 	node->isVisible = visible;
 121:mini3d/scene.c **** 	node->needsUpdate = 1;
 915              		.loc 1 121 18 is_stmt 0 view .LVU199
 916 0000 90F84D30 		ldrb	r3, [r0, #77]	@ zero_extendqisi2	@ MEM[(struct Scene3DNode *)node_4(D) + 77B], MEM[(struct Sc
 917 0004 01F00101 		and	r1, r1, #1	@ tmp119, tmp132,
 918              	.LVL62:
 121:mini3d/scene.c **** 	node->needsUpdate = 1;
 919              		.loc 1 121 18 view .LVU200
 920 0008 23F00303 		bic	r3, r3, #3	@ tmp126, MEM[(struct Scene3DNode *)node_4(D) + 77B],
 921 000c 41F00201 		orr	r1, r1, #2	@ tmp123, tmp119,
 922 0010 1943     		orrs	r1, r1, r3	@, tmp129, tmp123, tmp126
 923 0012 80F84D10 		strb	r1, [r0, #77]	@ tmp129, MEM[(struct Scene3DNode *)node_4(D) + 77B]
 924              	@ mini3d/scene.c:123: }
 123:mini3d/scene.c **** 
 925              		.loc 1 123 1 view .LVU201
 926 0016 7047     		bx	lr	@
 927              		.cfi_endproc
 928              	.LFE19:
 929              		.size	Scene3DNode_setVisible, .-Scene3DNode_setVisible
 930              		.section	.text.Scene3DNode_setUsesZBuffer,"ax",%progbits
 931              		.align	1
 932              		.p2align 4,,15
 933              		.global	Scene3DNode_setUsesZBuffer
 934              		.syntax unified
 935              		.thumb
 936              		.thumb_func
 937              		.fpu fpv5-sp-d16
 938              		.type	Scene3DNode_setUsesZBuffer, %function
 939              	Scene3DNode_setUsesZBuffer:
 940              	.LVL63:
 941              	.LFB20:
 127:mini3d/scene.c **** 	node->useZBuffer = flag;
 942              		.loc 1 127 1 is_stmt 1 view -0
 943              		.cfi_startproc
 944              		@ args = 0, pretend = 0, frame = 0
ARM GAS  /var/folders/cs/83z6p2tj4w57s6p2rt8nwfp00000gn/T//cc3yBana.s 			page 33


 945              		@ frame_needed = 0, uses_anonymous_args = 0
 946              		@ link register save eliminated.
 128:mini3d/scene.c **** 	node->needsUpdate = 1;
 947              		.loc 1 128 2 view .LVU203
 129:mini3d/scene.c **** }
 948              		.loc 1 129 2 view .LVU204
 949              	@ mini3d/scene.c:129: 	node->needsUpdate = 1;
 129:mini3d/scene.c **** }
 950              		.loc 1 129 20 is_stmt 0 view .LVU205
 951 0000 01F00101 		and	r1, r1, #1	@ tmp120, tmp135,
 952              	.LVL64:
 129:mini3d/scene.c **** }
 953              		.loc 1 129 20 view .LVU206
 954 0004 90F84D30 		ldrb	r3, [r0, #77]	@ zero_extendqisi2	@ MEM[(struct Scene3DNode *)node_4(D) + 77B], MEM[(struct Sc
 955 0008 8900     		lsls	r1, r1, #2	@ tmp122, tmp120,
 956 000a 23F00603 		bic	r3, r3, #6	@ tmp129, MEM[(struct Scene3DNode *)node_4(D) + 77B],
 957 000e 41F00201 		orr	r1, r1, #2	@ tmp126, tmp122,
 958 0012 1943     		orrs	r1, r1, r3	@, tmp132, tmp126, tmp129
 959 0014 80F84D10 		strb	r1, [r0, #77]	@ tmp132, MEM[(struct Scene3DNode *)node_4(D) + 77B]
 960              	@ mini3d/scene.c:130: }
 130:mini3d/scene.c **** #endif
 961              		.loc 1 130 1 view .LVU207
 962 0018 7047     		bx	lr	@
 963              		.cfi_endproc
 964              	.LFE20:
 965              		.size	Scene3DNode_setUsesZBuffer, .-Scene3DNode_setUsesZBuffer
 966 001a 00BF     		.section	.text.Scene3DNode_addShapeWithTransform,"ax",%progbits
 967              		.align	1
 968              		.p2align 4,,15
 969              		.global	Scene3DNode_addShapeWithTransform
 970              		.syntax unified
 971              		.thumb
 972              		.thumb_func
 973              		.fpu fpv5-sp-d16
 974              		.type	Scene3DNode_addShapeWithTransform, %function
 975              	Scene3DNode_addShapeWithTransform:
 976              	.LVL65:
 977              	.LFB21:
 135:mini3d/scene.c **** 	ShapeInstance* nodeshape = m3d_malloc(sizeof(ShapeInstance));
 978              		.loc 1 135 1 is_stmt 1 view -0
 979              		.cfi_startproc
 980              		@ args = 52, pretend = 8, frame = 8
 981              		@ frame_needed = 0, uses_anonymous_args = 0
 136:mini3d/scene.c **** 	int i;
 982              		.loc 1 136 2 view .LVU209
 983              	@ mini3d/scene.c:135: {
 135:mini3d/scene.c **** 	ShapeInstance* nodeshape = m3d_malloc(sizeof(ShapeInstance));
 984              		.loc 1 135 1 is_stmt 0 view .LVU210
 985 0000 82B0     		sub	sp, sp, #8	@,,
 986              	.LCFI9:
 987              		.cfi_def_cfa_offset 8
 988 0002 2DE9F04F 		push	{r4, r5, r6, r7, r8, r9, r10, fp, lr}	@
 989              	.LCFI10:
 990              		.cfi_def_cfa_offset 44
 991              		.cfi_offset 4, -44
 992              		.cfi_offset 5, -40
 993              		.cfi_offset 6, -36
ARM GAS  /var/folders/cs/83z6p2tj4w57s6p2rt8nwfp00000gn/T//cc3yBana.s 			page 34


 994              		.cfi_offset 7, -32
 995              		.cfi_offset 8, -28
 996              		.cfi_offset 9, -24
 997              		.cfi_offset 10, -20
 998              		.cfi_offset 11, -16
 999              		.cfi_offset 14, -12
 1000 0006 8DB0     		sub	sp, sp, #52	@,,
 1001              	.LCFI11:
 1002              		.cfi_def_cfa_offset 96
 1003              	@ mini3d/scene.c:136: 	ShapeInstance* nodeshape = m3d_malloc(sizeof(ShapeInstance));
 136:mini3d/scene.c **** 	int i;
 1004              		.loc 1 136 29 view .LVU211
 1005 0008 DFF84881 		ldr	r8, .L70	@ tmp154,
 1006              	@ mini3d/scene.c:135: {
 135:mini3d/scene.c **** 	ShapeInstance* nodeshape = m3d_malloc(sizeof(ShapeInstance));
 1007              		.loc 1 135 1 view .LVU212
 1008 000c 0546     		mov	r5, r0	@ tmp219, node
 1009              	@ mini3d/scene.c:136: 	ShapeInstance* nodeshape = m3d_malloc(sizeof(ShapeInstance));
 136:mini3d/scene.c **** 	int i;
 1010              		.loc 1 136 29 view .LVU213
 1011 000e 0020     		movs	r0, #0	@,
 1012              	.LVL66:
 1013              	@ mini3d/scene.c:135: {
 135:mini3d/scene.c **** 	ShapeInstance* nodeshape = m3d_malloc(sizeof(ShapeInstance));
 1014              		.loc 1 135 1 view .LVU214
 1015 0010 16AE     		add	r6, sp, #88	@ tmp237,,
 1016 0012 0F46     		mov	r7, r1	@ tmp220, shape
 1017              	@ mini3d/scene.c:136: 	ShapeInstance* nodeshape = m3d_malloc(sizeof(ShapeInstance));
 136:mini3d/scene.c **** 	int i;
 1018              		.loc 1 136 29 view .LVU215
 1019 0014 D8F80040 		ldr	r4, [r8]	@ m3d_realloc, m3d_realloc
 1020 0018 6821     		movs	r1, #104	@,
 1021              	.LVL67:
 1022              	@ mini3d/scene.c:135: {
 135:mini3d/scene.c **** 	ShapeInstance* nodeshape = m3d_malloc(sizeof(ShapeInstance));
 1023              		.loc 1 135 1 view .LVU216
 1024 001a 0B95     		str	r5, [sp, #44]	@ tmp219, %sfp
 1025              	@ mini3d/scene.c:139: 	nodeshape->renderStyle = kRenderInheritStyle;
 139:mini3d/scene.c **** 	nodeshape->prototype = Shape3D_retain(shape);
 1026              		.loc 1 139 25 view .LVU217
 1027 001c 0546     		mov	r5, r0	@ tmp156,
 1028              	.LVL68:
 1029              	@ mini3d/scene.c:135: {
 135:mini3d/scene.c **** 	ShapeInstance* nodeshape = m3d_malloc(sizeof(ShapeInstance));
 1030              		.loc 1 135 1 view .LVU218
 1031 001e 86E80C00 		stm	r6, {r2, r3}	@ tmp237,,
 1032              	@ mini3d/scene.c:136: 	ShapeInstance* nodeshape = m3d_malloc(sizeof(ShapeInstance));
 136:mini3d/scene.c **** 	int i;
 1033              		.loc 1 136 29 view .LVU219
 1034 0022 A047     		blx	r4		@ m3d_realloc
 1035              	.LVL69:
 1036 0024 0646     		mov	r6, r0	@ tmp221,
 1037              	@ mini3d/scene.c:140: 	nodeshape->prototype = Shape3D_retain(shape);
 140:mini3d/scene.c **** 	nodeshape->nPoints = shape->nPoints;
 1038              		.loc 1 140 25 view .LVU220
 1039 0026 3846     		mov	r0, r7	@, shape
 1040              	.LVL70:
ARM GAS  /var/folders/cs/83z6p2tj4w57s6p2rt8nwfp00000gn/T//cc3yBana.s 			page 35


 137:mini3d/scene.c **** 
 1041              		.loc 1 137 2 is_stmt 1 view .LVU221
 139:mini3d/scene.c **** 	nodeshape->prototype = Shape3D_retain(shape);
 1042              		.loc 1 139 2 view .LVU222
 1043              	@ mini3d/scene.c:139: 	nodeshape->renderStyle = kRenderInheritStyle;
 139:mini3d/scene.c **** 	nodeshape->prototype = Shape3D_retain(shape);
 1044              		.loc 1 139 25 is_stmt 0 view .LVU223
 1045 0028 86F85C50 		strb	r5, [r6, #92]	@ tmp156, nodeshape_46->renderStyle
 140:mini3d/scene.c **** 	nodeshape->nPoints = shape->nPoints;
 1046              		.loc 1 140 2 is_stmt 1 view .LVU224
 1047              	@ mini3d/scene.c:140: 	nodeshape->prototype = Shape3D_retain(shape);
 140:mini3d/scene.c **** 	nodeshape->nPoints = shape->nPoints;
 1048              		.loc 1 140 25 is_stmt 0 view .LVU225
 1049 002c FFF7FEFF 		bl	Shape3D_retain		@
 1050              	.LVL71:
 1051              	@ mini3d/scene.c:141: 	nodeshape->nPoints = shape->nPoints;
 141:mini3d/scene.c **** 	nodeshape->points = m3d_malloc(sizeof(Point3D) * shape->nPoints);
 1052              		.loc 1 141 28 view .LVU226
 1053 0030 7B68     		ldr	r3, [r7, #4]	@ _3, shape_48(D)->nPoints
 1054              	@ mini3d/scene.c:140: 	nodeshape->prototype = Shape3D_retain(shape);
 140:mini3d/scene.c **** 	nodeshape->nPoints = shape->nPoints;
 1055              		.loc 1 140 25 view .LVU227
 1056 0032 0246     		mov	r2, r0	@ tmp222,
 1057              	@ mini3d/scene.c:142: 	nodeshape->points = m3d_malloc(sizeof(Point3D) * shape->nPoints);
 142:mini3d/scene.c **** 
 1058              		.loc 1 142 22 view .LVU228
 1059 0034 2846     		mov	r0, r5	@, tmp156
 1060 0036 03EB4301 		add	r1, r3, r3, lsl #1	@ tmp160, _3, _3,
 1061              	@ mini3d/scene.c:141: 	nodeshape->nPoints = shape->nPoints;
 141:mini3d/scene.c **** 	nodeshape->points = m3d_malloc(sizeof(Point3D) * shape->nPoints);
 1062              		.loc 1 141 21 view .LVU229
 1063 003a F363     		str	r3, [r6, #60]	@ _3, nodeshape_46->nPoints
 1064              	@ mini3d/scene.c:140: 	nodeshape->prototype = Shape3D_retain(shape);
 140:mini3d/scene.c **** 	nodeshape->nPoints = shape->nPoints;
 1065              		.loc 1 140 23 view .LVU230
 1066 003c 3260     		str	r2, [r6]	@ tmp222, nodeshape_46->prototype
 141:mini3d/scene.c **** 	nodeshape->points = m3d_malloc(sizeof(Point3D) * shape->nPoints);
 1067              		.loc 1 141 2 is_stmt 1 view .LVU231
 142:mini3d/scene.c **** 
 1068              		.loc 1 142 2 view .LVU232
 1069              	@ mini3d/scene.c:142: 	nodeshape->points = m3d_malloc(sizeof(Point3D) * shape->nPoints);
 142:mini3d/scene.c **** 
 1070              		.loc 1 142 22 is_stmt 0 view .LVU233
 1071 003e D8F80030 		ldr	r3, [r8]	@ m3d_realloc, m3d_realloc
 1072 0042 8900     		lsls	r1, r1, #2	@, tmp160,
 1073 0044 9847     		blx	r3		@ m3d_realloc
 1074              	.LVL72:
 1075              	@ mini3d/scene.c:148: 	nodeshape->nFaces = shape->nFaces;
 148:mini3d/scene.c **** 	nodeshape->faces = m3d_malloc(sizeof(FaceInstance) * shape->nFaces);
 1076              		.loc 1 148 27 view .LVU234
 1077 0046 FB68     		ldr	r3, [r7, #12]	@ _8, shape_48(D)->nFaces
 1078              	@ mini3d/scene.c:142: 	nodeshape->points = m3d_malloc(sizeof(Point3D) * shape->nPoints);
 142:mini3d/scene.c **** 
 1079              		.loc 1 142 22 view .LVU235
 1080 0048 0446     		mov	r4, r0	@ tmp223,
 1081              	@ mini3d/scene.c:149: 	nodeshape->faces = m3d_malloc(sizeof(FaceInstance) * shape->nFaces);
 149:mini3d/scene.c **** 
ARM GAS  /var/folders/cs/83z6p2tj4w57s6p2rt8nwfp00000gn/T//cc3yBana.s 			page 36


 1082              		.loc 1 149 21 view .LVU236
 1083 004a D8F80020 		ldr	r2, [r8]	@ m3d_realloc, m3d_realloc
 1084 004e 03EBC301 		add	r1, r3, r3, lsl #3	@ tmp166, _8, _8,
 1085 0052 2846     		mov	r0, r5	@, tmp156
 1086              	@ mini3d/scene.c:148: 	nodeshape->nFaces = shape->nFaces;
 148:mini3d/scene.c **** 	nodeshape->faces = m3d_malloc(sizeof(FaceInstance) * shape->nFaces);
 1087              		.loc 1 148 20 view .LVU237
 1088 0054 C6E91043 		strd	r4, r3, [r6, #64]	@ tmp223, _8, nodeshape,
 149:mini3d/scene.c **** 
 1089              		.loc 1 149 2 is_stmt 1 view .LVU238
 1090              	@ mini3d/scene.c:149: 	nodeshape->faces = m3d_malloc(sizeof(FaceInstance) * shape->nFaces);
 149:mini3d/scene.c **** 
 1091              		.loc 1 149 21 is_stmt 0 view .LVU239
 1092 0058 8900     		lsls	r1, r1, #2	@, tmp166,
 1093 005a 9047     		blx	r2		@ m3d_realloc
 1094              	.LVL73:
 1095              	@ mini3d/scene.c:151: 	for ( i = 0; i < shape->nFaces; ++i )
 151:mini3d/scene.c **** 	{
 1096              		.loc 1 151 2 view .LVU240
 1097 005c FB68     		ldr	r3, [r7, #12]	@ shape_48(D)->nFaces, shape_48(D)->nFaces
 1098              	@ mini3d/scene.c:149: 	nodeshape->faces = m3d_malloc(sizeof(FaceInstance) * shape->nFaces);
 149:mini3d/scene.c **** 
 1099              		.loc 1 149 19 view .LVU241
 1100 005e B064     		str	r0, [r6, #72]	@ pretmp_103, nodeshape_46->faces
 151:mini3d/scene.c **** 	{
 1101              		.loc 1 151 2 is_stmt 1 view .LVU242
 1102              	.LVL74:
 151:mini3d/scene.c **** 	{
 1103              		.loc 1 151 15 view .LVU243
 1104              	@ mini3d/scene.c:151: 	for ( i = 0; i < shape->nFaces; ++i )
 151:mini3d/scene.c **** 	{
 1105              		.loc 1 151 2 is_stmt 0 view .LVU244
 1106 0060 AB42     		cmp	r3, r5	@ shape_48(D)->nFaces,
 1107 0062 3FDD     		ble	.L63		@,
 1108 0064 8346     		mov	fp, r0	@ pretmp_103, tmp224
 1109              	.LBB36:
 1110              	@ mini3d/scene.c:160: 		if ( shape->faces[i].p4 != 0xffff )
 160:mini3d/scene.c **** 			face->p4 = &nodeshape->points[shape->faces[i].p4];
 1111              		.loc 1 160 6 view .LVU245
 1112 0066 4FF6FF78 		movw	r8, #65535	@ tmp190,
 1113              	.LBE36:
 1114              	@ mini3d/scene.c:151: 	for ( i = 0; i < shape->nFaces; ++i )
 151:mini3d/scene.c **** 	{
 1115              		.loc 1 151 10 view .LVU246
 1116 006a A946     		mov	r9, r5	@ i, ivtmp.158
 1117 006c 01E0     		b	.L65		@
 1118              	.LVL75:
 1119              	.L69:
 151:mini3d/scene.c **** 	{
 1120              		.loc 1 151 10 view .LVU247
 1121 006e D6F848B0 		ldr	fp, [r6, #72]	@ pretmp_103, nodeshape_46->faces
 1122              	.LVL76:
 1123              	.L65:
 1124              	.LBB37:
 154:mini3d/scene.c **** 
 1125              		.loc 1 154 3 is_stmt 1 view .LVU248
 161:mini3d/scene.c **** 		else
ARM GAS  /var/folders/cs/83z6p2tj4w57s6p2rt8nwfp00000gn/T//cc3yBana.s 			page 37


 1126              		.loc 1 161 4 view .LVU249
 1127              	@ mini3d/scene.c:156: 		face->p1 = &nodeshape->points[shape->faces[i].p1];
 156:mini3d/scene.c **** 		face->p2 = &nodeshape->points[shape->faces[i].p2];
 1128              		.loc 1 156 45 is_stmt 0 view .LVU250
 1129 0072 3A69     		ldr	r2, [r7, #16]	@ shape_48(D)->faces, shape_48(D)->faces
 1130              	@ mini3d/scene.c:154: 		FaceInstance* face = &nodeshape->faces[i];
 154:mini3d/scene.c **** 
 1131              		.loc 1 154 17 view .LVU251
 1132 0074 05EB450E 		add	lr, r5, r5, lsl #1	@ tmp173, ivtmp.158, ivtmp.158,
 1133              	@ mini3d/scene.c:156: 		face->p1 = &nodeshape->points[shape->faces[i].p1];
 156:mini3d/scene.c **** 		face->p2 = &nodeshape->points[shape->faces[i].p2];
 1134              		.loc 1 156 24 view .LVU252
 1135 0078 336C     		ldr	r3, [r6, #64]	@ _16, nodeshape_46->points
 1136              	.LBE37:
 1137              	@ mini3d/scene.c:151: 	for ( i = 0; i < shape->nFaces; ++i )
 151:mini3d/scene.c **** 	{
 1138              		.loc 1 151 34 view .LVU253
 1139 007a 09F10109 		add	r9, r9, #1	@ i, i,
 1140              	.LVL77:
 1141              	.LBB38:
 1142              	@ mini3d/scene.c:156: 		face->p1 = &nodeshape->points[shape->faces[i].p1];
 156:mini3d/scene.c **** 		face->p2 = &nodeshape->points[shape->faces[i].p2];
 1143              		.loc 1 156 48 view .LVU254
 1144 007e 505B     		ldrh	r0, [r2, r5]	@ _19->p1, _19->p1
 1145              	@ mini3d/scene.c:156: 		face->p1 = &nodeshape->points[shape->faces[i].p1];
 156:mini3d/scene.c **** 		face->p2 = &nodeshape->points[shape->faces[i].p2];
 1146              		.loc 1 156 45 view .LVU255
 1147 0080 02EB050C 		add	ip, r2, r5	@ _19, shape_48(D)->faces, ivtmp.158
 1148              	@ mini3d/scene.c:154: 		FaceInstance* face = &nodeshape->faces[i];
 154:mini3d/scene.c **** 
 1149              		.loc 1 154 17 view .LVU256
 1150 0084 0BEB0E04 		add	r4, fp, lr	@ face, pretmp_103, tmp173
 1151              	.LVL78:
 156:mini3d/scene.c **** 		face->p2 = &nodeshape->points[shape->faces[i].p2];
 1152              		.loc 1 156 3 is_stmt 1 view .LVU257
 1153 0088 0C35     		adds	r5, r5, #12	@ ivtmp.158, ivtmp.158,
 1154              	@ mini3d/scene.c:156: 		face->p1 = &nodeshape->points[shape->faces[i].p1];
 156:mini3d/scene.c **** 		face->p2 = &nodeshape->points[shape->faces[i].p2];
 1155              		.loc 1 156 32 is_stmt 0 view .LVU258
 1156 008a 00EB4000 		add	r0, r0, r0, lsl #1	@ tmp178, _19->p1, _19->p1,
 1157              	@ mini3d/scene.c:160: 		if ( shape->faces[i].p4 != 0xffff )
 160:mini3d/scene.c **** 			face->p4 = &nodeshape->points[shape->faces[i].p4];
 1158              		.loc 1 160 23 view .LVU259
 1159 008e BCF806A0 		ldrh	r10, [ip, #6]	@ _32, _19->p4
 1160              	@ mini3d/scene.c:157: 		face->p2 = &nodeshape->points[shape->faces[i].p2];
 157:mini3d/scene.c **** 		face->p3 = &nodeshape->points[shape->faces[i].p3];
 1161              		.loc 1 157 48 view .LVU260
 1162 0092 BCF80210 		ldrh	r1, [ip, #2]	@ _19->p2, _19->p2
 1163              	@ mini3d/scene.c:158: 		face->p3 = &nodeshape->points[shape->faces[i].p3];
 158:mini3d/scene.c **** 
 1164              		.loc 1 158 48 view .LVU261
 1165 0096 BCF80420 		ldrh	r2, [ip, #4]	@ _19->p3, _19->p3
 1166              	@ mini3d/scene.c:156: 		face->p1 = &nodeshape->points[shape->faces[i].p1];
 156:mini3d/scene.c **** 		face->p2 = &nodeshape->points[shape->faces[i].p2];
 1167              		.loc 1 156 14 view .LVU262
 1168 009a 03EB8000 		add	r0, r3, r0, lsl #2	@ _23, _16, tmp178,
 1169              	@ mini3d/scene.c:160: 		if ( shape->faces[i].p4 != 0xffff )
ARM GAS  /var/folders/cs/83z6p2tj4w57s6p2rt8nwfp00000gn/T//cc3yBana.s 			page 38


 160:mini3d/scene.c **** 			face->p4 = &nodeshape->points[shape->faces[i].p4];
 1170              		.loc 1 160 6 view .LVU263
 1171 009e C245     		cmp	r10, r8	@ _32, tmp190
 1172              	@ mini3d/scene.c:157: 		face->p2 = &nodeshape->points[shape->faces[i].p2];
 157:mini3d/scene.c **** 		face->p3 = &nodeshape->points[shape->faces[i].p3];
 1173              		.loc 1 157 32 view .LVU264
 1174 00a0 01EB4101 		add	r1, r1, r1, lsl #1	@ tmp183, _19->p2, _19->p2,
 1175              	@ mini3d/scene.c:156: 		face->p1 = &nodeshape->points[shape->faces[i].p1];
 156:mini3d/scene.c **** 		face->p2 = &nodeshape->points[shape->faces[i].p2];
 1176              		.loc 1 156 12 view .LVU265
 1177 00a4 4BF80E00 		str	r0, [fp, lr]	@ _23, face_66->p1
 157:mini3d/scene.c **** 		face->p3 = &nodeshape->points[shape->faces[i].p3];
 1178              		.loc 1 157 3 is_stmt 1 view .LVU266
 1179              	@ mini3d/scene.c:158: 		face->p3 = &nodeshape->points[shape->faces[i].p3];
 158:mini3d/scene.c **** 
 1180              		.loc 1 158 32 is_stmt 0 view .LVU267
 1181 00a8 02EB4202 		add	r2, r2, r2, lsl #1	@ tmp188, _19->p3, _19->p3,
 1182              	@ mini3d/scene.c:161: 			face->p4 = &nodeshape->points[shape->faces[i].p4];
 161:mini3d/scene.c **** 		else
 1183              		.loc 1 161 33 view .LVU268
 1184 00ac 0AEB4A0E 		add	lr, r10, r10, lsl #1	@ tmp193, _32, _32,
 1185              	@ mini3d/scene.c:165: 		face->colorBias = shape->faces[i].colorBias;
 165:mini3d/scene.c **** 
 1186              		.loc 1 165 19 view .LVU269
 1187 00b0 DCF808C0 		ldr	ip, [ip, #8]	@ float	@ _19->colorBias, _19->colorBias
 1188              	@ mini3d/scene.c:157: 		face->p2 = &nodeshape->points[shape->faces[i].p2];
 157:mini3d/scene.c **** 		face->p3 = &nodeshape->points[shape->faces[i].p3];
 1189              		.loc 1 157 14 view .LVU270
 1190 00b4 03EB8101 		add	r1, r3, r1, lsl #2	@ _27, _16, tmp183,
 1191              	@ mini3d/scene.c:158: 		face->p3 = &nodeshape->points[shape->faces[i].p3];
 158:mini3d/scene.c **** 
 1192              		.loc 1 158 14 view .LVU271
 1193 00b8 03EB8202 		add	r2, r3, r2, lsl #2	@ _31, _16, tmp188,
 1194              	@ mini3d/scene.c:165: 		face->colorBias = shape->faces[i].colorBias;
 165:mini3d/scene.c **** 
 1195              		.loc 1 165 19 view .LVU272
 1196 00bc C4F81CC0 		str	ip, [r4, #28]	@ float	@ _19->colorBias, face_66->colorBias
 1197              	@ mini3d/scene.c:161: 			face->p4 = &nodeshape->points[shape->faces[i].p4];
 161:mini3d/scene.c **** 		else
 1198              		.loc 1 161 15 view .LVU273
 1199 00c0 03EB8E03 		add	r3, r3, lr, lsl #2	@ _35, _16, tmp193,
 1200              	@ mini3d/scene.c:163: 			face->p4 = NULL;
 163:mini3d/scene.c **** 
 1201              		.loc 1 163 13 view .LVU274
 1202 00c4 08BF     		it	eq
 1203 00c6 0023     		moveq	r3, #0	@ _35,
 1204              	@ mini3d/scene.c:157: 		face->p2 = &nodeshape->points[shape->faces[i].p2];
 157:mini3d/scene.c **** 		face->p3 = &nodeshape->points[shape->faces[i].p3];
 1205              		.loc 1 157 12 view .LVU275
 1206 00c8 6160     		str	r1, [r4, #4]	@ _27, face_66->p2
 158:mini3d/scene.c **** 
 1207              		.loc 1 158 3 is_stmt 1 view .LVU276
 1208 00ca E360     		str	r3, [r4, #12]	@ _35, face_66->p4
 1209              	@ mini3d/scene.c:158: 		face->p3 = &nodeshape->points[shape->faces[i].p3];
 158:mini3d/scene.c **** 
 1210              		.loc 1 158 12 is_stmt 0 view .LVU277
 1211 00cc A260     		str	r2, [r4, #8]	@ _31, face_66->p3
ARM GAS  /var/folders/cs/83z6p2tj4w57s6p2rt8nwfp00000gn/T//cc3yBana.s 			page 39


 160:mini3d/scene.c **** 			face->p4 = &nodeshape->points[shape->faces[i].p4];
 1212              		.loc 1 160 3 is_stmt 1 view .LVU278
 165:mini3d/scene.c **** 
 1213              		.loc 1 165 3 view .LVU279
 168:mini3d/scene.c **** 	}
 1214              		.loc 1 168 3 view .LVU280
 1215              	@ mini3d/scene.c:168: 		face->normal = pnormal(face->p1, face->p2, face->p3);
 168:mini3d/scene.c **** 	}
 1216              		.loc 1 168 18 is_stmt 0 view .LVU281
 1217 00ce FFF7FEFF 		bl	pnormal		@
 1218              	.LVL79:
 1219              	.LBE38:
 1220              	@ mini3d/scene.c:151: 	for ( i = 0; i < shape->nFaces; ++i )
 151:mini3d/scene.c **** 	{
 1221              		.loc 1 151 2 view .LVU282
 1222 00d2 FB68     		ldr	r3, [r7, #12]	@ shape_48(D)->nFaces, shape_48(D)->nFaces
 1223              	.LBB39:
 1224              	@ mini3d/scene.c:168: 		face->normal = pnormal(face->p1, face->p2, face->p3);
 168:mini3d/scene.c **** 	}
 1225              		.loc 1 168 18 view .LVU283
 1226 00d4 84ED040A 		vstr.32	s0, [r4, #16]	@ tmp225, face_66->normal
 1227              	.LBE39:
 1228              	@ mini3d/scene.c:151: 	for ( i = 0; i < shape->nFaces; ++i )
 151:mini3d/scene.c **** 	{
 1229              		.loc 1 151 2 view .LVU284
 1230 00d8 4B45     		cmp	r3, r9	@ shape_48(D)->nFaces, i
 1231              	.LBB40:
 1232              	@ mini3d/scene.c:168: 		face->normal = pnormal(face->p1, face->p2, face->p3);
 168:mini3d/scene.c **** 	}
 1233              		.loc 1 168 18 view .LVU285
 1234 00da C4ED050A 		vstr.32	s1, [r4, #20]	@ tmp226, face_66->normal
 1235 00de 84ED061A 		vstr.32	s2, [r4, #24]	@ tmp227, face_66->normal
 1236              	.LBE40:
 151:mini3d/scene.c **** 	{
 1237              		.loc 1 151 34 is_stmt 1 view .LVU286
 1238              	.LVL80:
 151:mini3d/scene.c **** 	{
 1239              		.loc 1 151 15 view .LVU287
 1240              	@ mini3d/scene.c:151: 	for ( i = 0; i < shape->nFaces; ++i )
 151:mini3d/scene.c **** 	{
 1241              		.loc 1 151 2 is_stmt 0 view .LVU288
 1242 00e2 C4DC     		bgt	.L69		@,
 1243              	.LVL81:
 1244              	.L63:
 171:mini3d/scene.c **** 	nodeshape->center = Matrix3D_apply(transform, shape->center);
 1245              		.loc 1 171 2 is_stmt 1 view .LVU289
 1246              	@ mini3d/scene.c:171: 	nodeshape->transform = transform;
 171:mini3d/scene.c **** 	nodeshape->center = Matrix3D_apply(transform, shape->center);
 1247              		.loc 1 171 23 is_stmt 0 view .LVU290
 1248 00e4 16AD     		add	r5, sp, #88	@ tmp201,,
 1249 00e6 341D     		adds	r4, r6, #4	@ tmp200, nodeshape,
 1250              	@ mini3d/scene.c:172: 	nodeshape->center = Matrix3D_apply(transform, shape->center);
 172:mini3d/scene.c **** 	nodeshape->colorBias = 0;
 1251              		.loc 1 172 22 view .LVU291
 1252 00e8 0DF1680E 		add	lr, sp, #104	@ tmp207,,
 1253              	.LVL82:
 172:mini3d/scene.c **** 	nodeshape->colorBias = 0;
ARM GAS  /var/folders/cs/83z6p2tj4w57s6p2rt8nwfp00000gn/T//cc3yBana.s 			page 40


 1254              		.loc 1 172 22 view .LVU292
 1255 00ec EC46     		mov	ip, sp	@ tmp206,
 1256              	@ mini3d/scene.c:171: 	nodeshape->transform = transform;
 171:mini3d/scene.c **** 	nodeshape->center = Matrix3D_apply(transform, shape->center);
 1257              		.loc 1 171 23 view .LVU293
 1258 00ee 0FCD     		ldmia	r5!, {r0, r1, r2, r3}	@ tmp201,,,,
 1259 00f0 0FC4     		stmia	r4!, {r0, r1, r2, r3}	@ tmp200,,,,
 1260 00f2 0FCD     		ldmia	r5!, {r0, r1, r2, r3}	@ tmp201,,,,
 1261 00f4 0FC4     		stmia	r4!, {r0, r1, r2, r3}	@ tmp200,,,,
 1262 00f6 0FCD     		ldmia	r5!, {r0, r1, r2, r3}	@ tmp201,,,,
 1263 00f8 2D68     		ldr	r5, [r5]	@ transform, transform
 1264 00fa 0FC4     		stmia	r4!, {r0, r1, r2, r3}	@ tmp200,,,,
 1265              	@ mini3d/scene.c:172: 	nodeshape->center = Matrix3D_apply(transform, shape->center);
 172:mini3d/scene.c **** 	nodeshape->colorBias = 0;
 1266              		.loc 1 172 22 view .LVU294
 1267 00fc BEE80F00 		ldmia	lr!, {r0, r1, r2, r3}	@ tmp207,,,,
 1268              	.LVL83:
 1269              	@ mini3d/scene.c:171: 	nodeshape->transform = transform;
 171:mini3d/scene.c **** 	nodeshape->center = Matrix3D_apply(transform, shape->center);
 1270              		.loc 1 171 23 view .LVU295
 1271 0100 2560     		str	r5, [r4]	@ transform, nodeshape_46->transform
 172:mini3d/scene.c **** 	nodeshape->colorBias = 0;
 1272              		.loc 1 172 2 is_stmt 1 view .LVU296
 1273              	@ mini3d/scene.c:172: 	nodeshape->center = Matrix3D_apply(transform, shape->center);
 172:mini3d/scene.c **** 	nodeshape->colorBias = 0;
 1274              		.loc 1 172 22 is_stmt 0 view .LVU297
 1275 0102 ACE80F00 		stmia	ip!, {r0, r1, r2, r3}	@ tmp206,,,,
 1276 0106 BEE80F00 		ldmia	lr!, {r0, r1, r2, r3}	@ tmp207,,,,
 1277              	.LVL84:
 172:mini3d/scene.c **** 	nodeshape->colorBias = 0;
 1278              		.loc 1 172 22 view .LVU298
 1279 010a 97ED050A 		vldr.32	s0, [r7, #20]	@, shape_48(D)->center
 1280 010e D7ED060A 		vldr.32	s1, [r7, #24]	@, shape_48(D)->center
 1281 0112 97ED071A 		vldr.32	s2, [r7, #28]	@, shape_48(D)->center
 1282 0116 ACE80F00 		stmia	ip!, {r0, r1, r2, r3}	@ tmp206,,,,
 1283 011a 16AB     		add	r3, sp, #88	@ tmp238,,
 1284 011c 0FCB     		ldm	r3, {r0, r1, r2, r3}	@ tmp238,,,,
 1285 011e CCF80050 		str	r5, [ip]	@ transform,
 1286 0122 FFF7FEFF 		bl	Matrix3D_apply		@
 1287              	.LVL85:
 1288              	@ mini3d/scene.c:182: 	++node->shapeCount;
 182:mini3d/scene.c **** }
 1289              		.loc 1 182 2 view .LVU299
 1290 0126 0B9C     		ldr	r4, [sp, #44]	@ node, %sfp
 1291              	@ mini3d/scene.c:176: 	nodeshape->orderTableSize = 0;
 176:mini3d/scene.c **** 	nodeshape->orderTable = NULL;
 1292              		.loc 1 176 28 view .LVU300
 1293 0128 0022     		movs	r2, #0	@ tmp213,
 1294              	@ mini3d/scene.c:173: 	nodeshape->colorBias = 0;
 173:mini3d/scene.c **** 
 1295              		.loc 1 173 23 view .LVU301
 1296 012a 0020     		movs	r0, #0	@ tmp212,
 1297              	@ mini3d/scene.c:182: 	++node->shapeCount;
 182:mini3d/scene.c **** }
 1298              		.loc 1 182 2 view .LVU302
 1299 012c 236C     		ldr	r3, [r4, #64]	@ node_62(D)->shapeCount, node_62(D)->shapeCount
 1300              	@ mini3d/scene.c:180: 	nodeshape->next = node->shapes;
ARM GAS  /var/folders/cs/83z6p2tj4w57s6p2rt8nwfp00000gn/T//cc3yBana.s 			page 41


 180:mini3d/scene.c **** 	node->shapes = nodeshape;
 1301              		.loc 1 180 18 view .LVU303
 1302 012e 616C     		ldr	r1, [r4, #68]	@ node_62(D)->shapes, node_62(D)->shapes
 1303              	@ mini3d/scene.c:182: 	++node->shapeCount;
 182:mini3d/scene.c **** }
 1304              		.loc 1 182 2 view .LVU304
 1305 0130 0133     		adds	r3, r3, #1	@ tmp216, node_62(D)->shapeCount,
 1306              	@ mini3d/scene.c:172: 	nodeshape->center = Matrix3D_apply(transform, shape->center);
 172:mini3d/scene.c **** 	nodeshape->colorBias = 0;
 1307              		.loc 1 172 22 view .LVU305
 1308 0132 86ED130A 		vstr.32	s0, [r6, #76]	@ tmp228, nodeshape_46->center
 1309 0136 C6ED140A 		vstr.32	s1, [r6, #80]	@ tmp229, nodeshape_46->center
 1310 013a 86ED151A 		vstr.32	s2, [r6, #84]	@ tmp230, nodeshape_46->center
 173:mini3d/scene.c **** 
 1311              		.loc 1 173 2 is_stmt 1 view .LVU306
 1312              	@ mini3d/scene.c:173: 	nodeshape->colorBias = 0;
 173:mini3d/scene.c **** 
 1313              		.loc 1 173 23 is_stmt 0 view .LVU307
 1314 013e B065     		str	r0, [r6, #88]	@ float	@ tmp212, nodeshape_46->colorBias
 176:mini3d/scene.c **** 	nodeshape->orderTable = NULL;
 1315              		.loc 1 176 2 is_stmt 1 view .LVU308
 1316              	@ mini3d/scene.c:180: 	nodeshape->next = node->shapes;
 180:mini3d/scene.c **** 	node->shapes = nodeshape;
 1317              		.loc 1 180 18 is_stmt 0 view .LVU309
 1318 0140 B163     		str	r1, [r6, #56]	@ node_62(D)->shapes, nodeshape_46->next
 1319              	@ mini3d/scene.c:177: 	nodeshape->orderTable = NULL;
 177:mini3d/scene.c **** #endif
 1320              		.loc 1 177 24 view .LVU310
 1321 0142 C6E91822 		strd	r2, r2, [r6, #96]	@ tmp213, tmp213, nodeshape,
 180:mini3d/scene.c **** 	node->shapes = nodeshape;
 1322              		.loc 1 180 2 is_stmt 1 view .LVU311
 181:mini3d/scene.c **** 	++node->shapeCount;
 1323              		.loc 1 181 2 view .LVU312
 1324              	@ mini3d/scene.c:182: 	++node->shapeCount;
 182:mini3d/scene.c **** }
 1325              		.loc 1 182 2 is_stmt 0 view .LVU313
 1326 0146 2364     		str	r3, [r4, #64]	@ tmp216, node_62(D)->shapeCount
 1327              	@ mini3d/scene.c:181: 	node->shapes = nodeshape;
 181:mini3d/scene.c **** 	++node->shapeCount;
 1328              		.loc 1 181 15 view .LVU314
 1329 0148 6664     		str	r6, [r4, #68]	@ nodeshape, node_62(D)->shapes
 182:mini3d/scene.c **** }
 1330              		.loc 1 182 2 is_stmt 1 view .LVU315
 1331              	@ mini3d/scene.c:183: }
 183:mini3d/scene.c **** 
 1332              		.loc 1 183 1 is_stmt 0 view .LVU316
 1333 014a 0DB0     		add	sp, sp, #52	@,,
 1334              	.LCFI12:
 1335              		.cfi_def_cfa_offset 44
 1336              		@ sp needed	@
 1337 014c BDE8F04F 		pop	{r4, r5, r6, r7, r8, r9, r10, fp, lr}	@
 1338              	.LCFI13:
 1339              		.cfi_restore 14
 1340              		.cfi_restore 11
 1341              		.cfi_restore 10
 1342              		.cfi_restore 9
 1343              		.cfi_restore 8
ARM GAS  /var/folders/cs/83z6p2tj4w57s6p2rt8nwfp00000gn/T//cc3yBana.s 			page 42


 1344              		.cfi_restore 7
 1345              		.cfi_restore 6
 1346              		.cfi_restore 5
 1347              		.cfi_restore 4
 1348              		.cfi_def_cfa_offset 8
 1349              	.LVL86:
 183:mini3d/scene.c **** 
 1350              		.loc 1 183 1 view .LVU317
 1351 0150 02B0     		add	sp, sp, #8	@,,
 1352              	.LCFI14:
 1353              		.cfi_def_cfa_offset 0
 1354 0152 7047     		bx	lr	@
 1355              	.L71:
 1356              		.align	2
 1357              	.L70:
 1358 0154 00000000 		.word	m3d_realloc
 1359              		.cfi_endproc
 1360              	.LFE21:
 1361              		.size	Scene3DNode_addShapeWithTransform, .-Scene3DNode_addShapeWithTransform
 1362              		.section	.text.Scene3DNode_addShapeWithOffset,"ax",%progbits
 1363              		.align	1
 1364              		.p2align 4,,15
 1365              		.global	Scene3DNode_addShapeWithOffset
 1366              		.syntax unified
 1367              		.thumb
 1368              		.thumb_func
 1369              		.fpu fpv5-sp-d16
 1370              		.type	Scene3DNode_addShapeWithOffset, %function
 1371              	Scene3DNode_addShapeWithOffset:
 1372              	.LVL87:
 1373              	.LFB22:
 187:mini3d/scene.c **** 	Scene3DNode_addShapeWithTransform(node, shape, Matrix3DMakeTranslate(offset.dx, offset.dy, offset.
 1374              		.loc 1 187 1 is_stmt 1 view -0
 1375              		.cfi_startproc
 1376              		@ args = 0, pretend = 0, frame = 72
 1377              		@ frame_needed = 0, uses_anonymous_args = 0
 188:mini3d/scene.c **** }
 1378              		.loc 1 188 2 view .LVU319
 1379              	@ mini3d/scene.c:187: {
 187:mini3d/scene.c **** 	Scene3DNode_addShapeWithTransform(node, shape, Matrix3DMakeTranslate(offset.dx, offset.dy, offset.
 1380              		.loc 1 187 1 is_stmt 0 view .LVU320
 1381 0000 2DE9F041 		push	{r4, r5, r6, r7, r8, lr}	@
 1382              	.LCFI15:
 1383              		.cfi_def_cfa_offset 24
 1384              		.cfi_offset 4, -24
 1385              		.cfi_offset 5, -20
 1386              		.cfi_offset 6, -16
 1387              		.cfi_offset 7, -12
 1388              		.cfi_offset 8, -8
 1389              		.cfi_offset 14, -4
 1390 0004 9EB0     		sub	sp, sp, #120	@,,
 1391              	.LCFI16:
 1392              		.cfi_def_cfa_offset 144
 1393              	@ mini3d/scene.c:187: {
 187:mini3d/scene.c **** 	Scene3DNode_addShapeWithTransform(node, shape, Matrix3DMakeTranslate(offset.dx, offset.dy, offset.
 1394              		.loc 1 187 1 view .LVU321
 1395 0006 0746     		mov	r7, r0	@ tmp125, node
ARM GAS  /var/folders/cs/83z6p2tj4w57s6p2rt8nwfp00000gn/T//cc3yBana.s 			page 43


 1396 0008 8846     		mov	r8, r1	@ shape, tmp126
 1397              	@ mini3d/scene.c:188: 	Scene3DNode_addShapeWithTransform(node, shape, Matrix3DMakeTranslate(offset.
 188:mini3d/scene.c **** }
 1398              		.loc 1 188 2 view .LVU322
 1399 000a 11AE     		add	r6, sp, #68	@ tmp118,,
 1400 000c 13AD     		add	r5, sp, #76	@ tmp123,,
 1401              	@ mini3d/scene.c:187: {
 187:mini3d/scene.c **** 	Scene3DNode_addShapeWithTransform(node, shape, Matrix3DMakeTranslate(offset.dx, offset.dy, offset.
 1402              		.loc 1 187 1 view .LVU323
 1403 000e 8DED0D0A 		vstr.32	s0, [sp, #52]	@ tmp127, offset
 1404              	@ mini3d/scene.c:188: 	Scene3DNode_addShapeWithTransform(node, shape, Matrix3DMakeTranslate(offset.
 188:mini3d/scene.c **** }
 1405              		.loc 1 188 2 view .LVU324
 1406 0012 6C46     		mov	r4, sp	@ tmp122,
 1407 0014 3046     		mov	r0, r6	@, tmp118
 1408              	.LVL88:
 1409              	@ mini3d/scene.c:187: {
 187:mini3d/scene.c **** 	Scene3DNode_addShapeWithTransform(node, shape, Matrix3DMakeTranslate(offset.dx, offset.dy, offset.
 1410              		.loc 1 187 1 view .LVU325
 1411 0016 CDED0E0A 		vstr.32	s1, [sp, #56]	@ tmp128, offset
 1412 001a 8DED0F1A 		vstr.32	s2, [sp, #60]	@ tmp129, offset
 1413              	@ mini3d/scene.c:188: 	Scene3DNode_addShapeWithTransform(node, shape, Matrix3DMakeTranslate(offset.
 188:mini3d/scene.c **** }
 1414              		.loc 1 188 2 view .LVU326
 1415 001e FFF7FEFF 		bl	Matrix3DMakeTranslate		@
 1416              	.LVL89:
 188:mini3d/scene.c **** }
 1417              		.loc 1 188 2 view .LVU327
 1418 0022 0FCD     		ldmia	r5!, {r0, r1, r2, r3}	@ tmp123,,,,
 1419 0024 0FC4     		stmia	r4!, {r0, r1, r2, r3}	@ tmp122,,,,
 1420 0026 0FCD     		ldmia	r5!, {r0, r1, r2, r3}	@ tmp123,,,,
 1421 0028 0FC4     		stmia	r4!, {r0, r1, r2, r3}	@ tmp122,,,,
 1422 002a 95E80700 		ldm	r5, {r0, r1, r2}	@ tmp123,,,
 1423 002e 84E80700 		stm	r4, {r0, r1, r2}	@ tmp122,,,
 1424 0032 4146     		mov	r1, r8	@, shape
 1425 0034 3846     		mov	r0, r7	@, node
 1426 0036 96E80C00 		ldm	r6, {r2, r3}	@ tmp118,,
 1427 003a FFF7FEFF 		bl	Scene3DNode_addShapeWithTransform		@
 1428              	.LVL90:
 1429              	@ mini3d/scene.c:189: }
 189:mini3d/scene.c **** 
 1430              		.loc 1 189 1 view .LVU328
 1431 003e 1EB0     		add	sp, sp, #120	@,,
 1432              	.LCFI17:
 1433              		.cfi_def_cfa_offset 24
 1434              		@ sp needed	@
 1435 0040 BDE8F081 		pop	{r4, r5, r6, r7, r8, pc}	@
 189:mini3d/scene.c **** 
 1436              		.loc 1 189 1 view .LVU329
 1437              		.cfi_endproc
 1438              	.LFE22:
 1439              		.size	Scene3DNode_addShapeWithOffset, .-Scene3DNode_addShapeWithOffset
 1440              		.section	.text.Scene3DNode_addShape,"ax",%progbits
 1441              		.align	1
 1442              		.p2align 4,,15
 1443              		.global	Scene3DNode_addShape
 1444              		.syntax unified
ARM GAS  /var/folders/cs/83z6p2tj4w57s6p2rt8nwfp00000gn/T//cc3yBana.s 			page 44


 1445              		.thumb
 1446              		.thumb_func
 1447              		.fpu fpv5-sp-d16
 1448              		.type	Scene3DNode_addShape, %function
 1449              	Scene3DNode_addShape:
 1450              	.LVL91:
 1451              	.LFB23:
 193:mini3d/scene.c **** 	Scene3DNode_addShapeWithTransform(node, shape, identityMatrix);
 1452              		.loc 1 193 1 is_stmt 1 view -0
 1453              		.cfi_startproc
 1454              		@ args = 0, pretend = 0, frame = 0
 1455              		@ frame_needed = 0, uses_anonymous_args = 0
 194:mini3d/scene.c **** }
 1456              		.loc 1 194 2 view .LVU331
 1457              	@ mini3d/scene.c:193: {
 193:mini3d/scene.c **** 	Scene3DNode_addShapeWithTransform(node, shape, identityMatrix);
 1458              		.loc 1 193 1 is_stmt 0 view .LVU332
 1459 0000 F0B5     		push	{r4, r5, r6, r7, lr}	@
 1460              	.LCFI18:
 1461              		.cfi_def_cfa_offset 20
 1462              		.cfi_offset 4, -20
 1463              		.cfi_offset 5, -16
 1464              		.cfi_offset 6, -12
 1465              		.cfi_offset 7, -8
 1466              		.cfi_offset 14, -4
 1467              	@ mini3d/scene.c:194: 	Scene3DNode_addShapeWithTransform(node, shape, identityMatrix);
 194:mini3d/scene.c **** }
 1468              		.loc 1 194 2 view .LVU333
 1469 0002 0B4E     		ldr	r6, .L76	@ tmp112,
 1470              	@ mini3d/scene.c:193: {
 193:mini3d/scene.c **** 	Scene3DNode_addShapeWithTransform(node, shape, identityMatrix);
 1471              		.loc 1 193 1 view .LVU334
 1472 0004 8DB0     		sub	sp, sp, #52	@,,
 1473              	.LCFI19:
 1474              		.cfi_def_cfa_offset 72
 1475              	@ mini3d/scene.c:193: {
 193:mini3d/scene.c **** 	Scene3DNode_addShapeWithTransform(node, shape, identityMatrix);
 1476              		.loc 1 193 1 view .LVU335
 1477 0006 8C46     		mov	ip, r1	@ tmp116, shape
 1478 0008 0746     		mov	r7, r0	@ tmp115, node
 1479              	@ mini3d/scene.c:194: 	Scene3DNode_addShapeWithTransform(node, shape, identityMatrix);
 194:mini3d/scene.c **** }
 1480              		.loc 1 194 2 view .LVU336
 1481 000a 06F10805 		add	r5, r6, #8	@ tmp114, tmp112,
 1482 000e 6C46     		mov	r4, sp	@ tmp113,
 1483 0010 0FCD     		ldmia	r5!, {r0, r1, r2, r3}	@ tmp114,,,,
 1484              	.LVL92:
 194:mini3d/scene.c **** }
 1485              		.loc 1 194 2 view .LVU337
 1486 0012 0FC4     		stmia	r4!, {r0, r1, r2, r3}	@ tmp113,,,,
 1487 0014 0FCD     		ldmia	r5!, {r0, r1, r2, r3}	@ tmp114,,,,
 1488 0016 0FC4     		stmia	r4!, {r0, r1, r2, r3}	@ tmp113,,,,
 1489 0018 95E80700 		ldm	r5, {r0, r1, r2}	@ tmp114,,,
 1490 001c 84E80700 		stm	r4, {r0, r1, r2}	@ tmp113,,,
 1491 0020 6146     		mov	r1, ip	@, tmp116
 1492 0022 3846     		mov	r0, r7	@, tmp115
 1493 0024 96E80C00 		ldm	r6, {r2, r3}	@ tmp112,,
ARM GAS  /var/folders/cs/83z6p2tj4w57s6p2rt8nwfp00000gn/T//cc3yBana.s 			page 45


 1494 0028 FFF7FEFF 		bl	Scene3DNode_addShapeWithTransform		@
 1495              	.LVL93:
 1496              	@ mini3d/scene.c:195: }
 195:mini3d/scene.c **** 
 1497              		.loc 1 195 1 view .LVU338
 1498 002c 0DB0     		add	sp, sp, #52	@,,
 1499              	.LCFI20:
 1500              		.cfi_def_cfa_offset 20
 1501              		@ sp needed	@
 1502 002e F0BD     		pop	{r4, r5, r6, r7, pc}	@
 1503              	.LVL94:
 1504              	.L77:
 195:mini3d/scene.c **** 
 1505              		.loc 1 195 1 view .LVU339
 1506              		.align	2
 1507              	.L76:
 1508 0030 00000000 		.word	identityMatrix
 1509              		.cfi_endproc
 1510              	.LFE23:
 1511              		.size	Scene3DNode_addShape, .-Scene3DNode_addShape
 1512              		.section	.text.Scene3DNode_newChild,"ax",%progbits
 1513              		.align	1
 1514              		.p2align 4,,15
 1515              		.global	Scene3DNode_newChild
 1516              		.syntax unified
 1517              		.thumb
 1518              		.thumb_func
 1519              		.fpu fpv5-sp-d16
 1520              		.type	Scene3DNode_newChild, %function
 1521              	Scene3DNode_newChild:
 1522              	.LVL95:
 1523              	.LFB24:
 199:mini3d/scene.c **** 	node->childNodes = m3d_realloc(node->childNodes, sizeof(Scene3DNode*) * (node->nChildren + 1));
 1524              		.loc 1 199 1 is_stmt 1 view -0
 1525              		.cfi_startproc
 1526              		@ args = 0, pretend = 0, frame = 0
 1527              		@ frame_needed = 0, uses_anonymous_args = 0
 200:mini3d/scene.c **** 
 1528              		.loc 1 200 2 view .LVU341
 1529              	@ mini3d/scene.c:199: {
 199:mini3d/scene.c **** 	node->childNodes = m3d_realloc(node->childNodes, sizeof(Scene3DNode*) * (node->nChildren + 1));
 1530              		.loc 1 199 1 is_stmt 0 view .LVU342
 1531 0000 F8B5     		push	{r3, r4, r5, r6, r7, lr}	@
 1532              	.LCFI21:
 1533              		.cfi_def_cfa_offset 24
 1534              		.cfi_offset 3, -24
 1535              		.cfi_offset 4, -20
 1536              		.cfi_offset 5, -16
 1537              		.cfi_offset 6, -12
 1538              		.cfi_offset 7, -8
 1539              		.cfi_offset 14, -4
 1540              	@ mini3d/scene.c:199: {
 199:mini3d/scene.c **** 	node->childNodes = m3d_realloc(node->childNodes, sizeof(Scene3DNode*) * (node->nChildren + 1));
 1541              		.loc 1 199 1 view .LVU343
 1542 0002 0746     		mov	r7, r0	@ node, tmp153
 1543              	@ mini3d/scene.c:200: 	node->childNodes = m3d_realloc(node->childNodes, sizeof(Scene3DNode*) * (nod
 200:mini3d/scene.c **** 
ARM GAS  /var/folders/cs/83z6p2tj4w57s6p2rt8nwfp00000gn/T//cc3yBana.s 			page 46


 1544              		.loc 1 200 21 view .LVU344
 1545 0004 194C     		ldr	r4, .L80	@ tmp133,
 1546              	.LBB41:
 1547              	.LBB42:
 1548              	@ mini3d/scene.c:23: 	node->transform = identityMatrix;
  23:mini3d/scene.c **** 	node->parentNode = NULL;
 1549              		.loc 1 23 18 view .LVU345
 1550 0006 1A4D     		ldr	r5, .L80+4	@ tmp139,
 1551              	.LBE42:
 1552              	.LBE41:
 1553              	@ mini3d/scene.c:200: 	node->childNodes = m3d_realloc(node->childNodes, sizeof(Scene3DNode*) * (nod
 200:mini3d/scene.c **** 
 1554              		.loc 1 200 21 view .LVU346
 1555 0008 2368     		ldr	r3, [r4]	@ m3d_realloc, m3d_realloc
 1556 000a D0E90E10 		ldrd	r1, r0, [r0, #56]	@ node_16(D)->nChildren,, node,
 1557              	.LVL96:
 1558              	@ mini3d/scene.c:200: 	node->childNodes = m3d_realloc(node->childNodes, sizeof(Scene3DNode*) * (nod
 200:mini3d/scene.c **** 
 1559              		.loc 1 200 91 view .LVU347
 1560 000e 0131     		adds	r1, r1, #1	@ tmp129, node_16(D)->nChildren,
 1561              	@ mini3d/scene.c:200: 	node->childNodes = m3d_realloc(node->childNodes, sizeof(Scene3DNode*) * (nod
 200:mini3d/scene.c **** 
 1562              		.loc 1 200 21 view .LVU348
 1563 0010 8900     		lsls	r1, r1, #2	@, tmp129,
 1564 0012 9847     		blx	r3		@ m3d_realloc
 1565              	.LVL97:
 1566              	@ mini3d/scene.c:202: 	Scene3DNode* child = m3d_malloc(sizeof(Scene3DNode));
 202:mini3d/scene.c **** 	Scene3DNode_init(child);
 1567              		.loc 1 202 23 view .LVU349
 1568 0014 2368     		ldr	r3, [r4]	@ m3d_realloc, m3d_realloc
 1569              	@ mini3d/scene.c:200: 	node->childNodes = m3d_realloc(node->childNodes, sizeof(Scene3DNode*) * (nod
 200:mini3d/scene.c **** 
 1570              		.loc 1 200 19 view .LVU350
 1571 0016 F863     		str	r0, [r7, #60]	@ tmp154, node_16(D)->childNodes
 202:mini3d/scene.c **** 	Scene3DNode_init(child);
 1572              		.loc 1 202 2 is_stmt 1 view .LVU351
 1573              	@ mini3d/scene.c:202: 	Scene3DNode* child = m3d_malloc(sizeof(Scene3DNode));
 202:mini3d/scene.c **** 	Scene3DNode_init(child);
 1574              		.loc 1 202 23 is_stmt 0 view .LVU352
 1575 0018 5421     		movs	r1, #84	@,
 1576 001a 0020     		movs	r0, #0	@,
 1577 001c 9847     		blx	r3		@ m3d_realloc
 1578              	.LVL98:
 1579 001e 0646     		mov	r6, r0	@ <retval>, tmp155
 1580              	.LVL99:
 203:mini3d/scene.c **** 
 1581              		.loc 1 203 2 is_stmt 1 view .LVU353
 1582              	.LBB45:
 1583              	.LBI41:
  21:mini3d/scene.c **** {
 1584              		.loc 1 21 1 view .LVU354
 1585              	.LBB43:
  23:mini3d/scene.c **** 	node->parentNode = NULL;
 1586              		.loc 1 23 2 view .LVU355
 1587              	@ mini3d/scene.c:25: 	node->childNodes = NULL;
  25:mini3d/scene.c **** 	node->nChildren = 0;
 1588              		.loc 1 25 19 is_stmt 0 view .LVU356
ARM GAS  /var/folders/cs/83z6p2tj4w57s6p2rt8nwfp00000gn/T//cc3yBana.s 			page 47


 1589 0020 4FF0000C 		mov	ip, #0	@ tmp141,
 1590              	@ mini3d/scene.c:28: 	node->colorBias = 0;
  28:mini3d/scene.c **** 	node->renderStyle = kRenderInheritStyle;
 1591              		.loc 1 28 18 view .LVU357
 1592 0024 4FF0000E 		mov	lr, #0	@ tmp144,
 1593              	@ mini3d/scene.c:23: 	node->transform = identityMatrix;
  23:mini3d/scene.c **** 	node->parentNode = NULL;
 1594              		.loc 1 23 18 view .LVU358
 1595 0028 3446     		mov	r4, r6	@ <retval>, <retval>
 1596 002a 0FCD     		ldmia	r5!, {r0, r1, r2, r3}	@ tmp139,,,,
 1597              	.LVL100:
  23:mini3d/scene.c **** 	node->parentNode = NULL;
 1598              		.loc 1 23 18 view .LVU359
 1599 002c 0FC4     		stmia	r4!, {r0, r1, r2, r3}	@ <retval>,,,,
 1600              	.LVL101:
  23:mini3d/scene.c **** 	node->parentNode = NULL;
 1601              		.loc 1 23 18 view .LVU360
 1602 002e 0FCD     		ldmia	r5!, {r0, r1, r2, r3}	@ tmp139,,,,
 1603 0030 0FC4     		stmia	r4!, {r0, r1, r2, r3}	@ <retval>,,,,
 1604 0032 0FCD     		ldmia	r5!, {r0, r1, r2, r3}	@ tmp139,,,,
 1605 0034 2D68     		ldr	r5, [r5]	@ identityMatrix, identityMatrix
 1606 0036 0FC4     		stmia	r4!, {r0, r1, r2, r3}	@ <retval>,,,,
 1607 0038 2560     		str	r5, [r4]	@ identityMatrix, child_20->transform
  24:mini3d/scene.c **** 	node->childNodes = NULL;
 1608              		.loc 1 24 2 is_stmt 1 view .LVU361
  25:mini3d/scene.c **** 	node->nChildren = 0;
 1609              		.loc 1 25 2 view .LVU362
 1610              	.LBE43:
 1611              	.LBE45:
 1612              	@ mini3d/scene.c:209: }
 209:mini3d/scene.c **** 
 1613              		.loc 1 209 1 is_stmt 0 view .LVU363
 1614 003a 3046     		mov	r0, r6	@, <retval>
 1615              	.LBB46:
 1616              	.LBB44:
 1617              	@ mini3d/scene.c:29: 	node->renderStyle = kRenderInheritStyle;
  29:mini3d/scene.c **** 	node->isVisible = 1;
 1618              		.loc 1 29 20 view .LVU364
 1619 003c B6F84C30 		ldrh	r3, [r6, #76]	@, MEM[(void *)child_20 + 76B]
 1620              	@ mini3d/scene.c:28: 	node->colorBias = 0;
  28:mini3d/scene.c **** 	node->renderStyle = kRenderInheritStyle;
 1621              		.loc 1 28 18 view .LVU365
 1622 0040 C6F848E0 		str	lr, [r6, #72]	@ float	@ tmp144, child_20->colorBias
 1623              	@ mini3d/scene.c:29: 	node->renderStyle = kRenderInheritStyle;
  29:mini3d/scene.c **** 	node->isVisible = 1;
 1624              		.loc 1 29 20 view .LVU366
 1625 0044 23F4FF63 		bic	r3, r3, #2040	@ tmp146, MEM[(void *)child_20 + 76B],
 1626              	@ mini3d/scene.c:27: 	node->shapes = NULL;
  27:mini3d/scene.c **** 	node->colorBias = 0;
 1627              		.loc 1 27 15 view .LVU367
 1628 0048 C6F844C0 		str	ip, [r6, #68]	@ tmp141, child_20->shapes
 1629              	@ mini3d/scene.c:29: 	node->renderStyle = kRenderInheritStyle;
  29:mini3d/scene.c **** 	node->isVisible = 1;
 1630              		.loc 1 29 20 view .LVU368
 1631 004c 23F00703 		bic	r3, r3, #7	@ tmp146, tmp146,
 1632 0050 43F4E063 		orr	r3, r3, #1792	@ tmp149, tmp146,
 1633              	@ mini3d/scene.c:26: 	node->nChildren = 0;
ARM GAS  /var/folders/cs/83z6p2tj4w57s6p2rt8nwfp00000gn/T//cc3yBana.s 			page 48


  26:mini3d/scene.c **** 	node->shapes = NULL;
 1634              		.loc 1 26 18 view .LVU369
 1635 0054 C6E90ECC 		strd	ip, ip, [r6, #56]	@ tmp141, tmp141, <retval>,
  27:mini3d/scene.c **** 	node->colorBias = 0;
 1636              		.loc 1 27 2 is_stmt 1 view .LVU370
  28:mini3d/scene.c **** 	node->renderStyle = kRenderInheritStyle;
 1637              		.loc 1 28 2 view .LVU371
  29:mini3d/scene.c **** 	node->isVisible = 1;
 1638              		.loc 1 29 2 view .LVU372
  30:mini3d/scene.c **** 	node->needsUpdate = 1;
 1639              		.loc 1 30 2 view .LVU373
  31:mini3d/scene.c **** #if ENABLE_Z_BUFFER
 1640              		.loc 1 31 2 view .LVU374
  33:mini3d/scene.c **** #endif
 1641              		.loc 1 33 2 view .LVU375
 1642              	@ mini3d/scene.c:29: 	node->renderStyle = kRenderInheritStyle;
  29:mini3d/scene.c **** 	node->isVisible = 1;
 1643              		.loc 1 29 20 is_stmt 0 view .LVU376
 1644 0058 A6F84C30 		strh	r3, [r6, #76]	@ movhi	@ tmp149, MEM[(void *)child_20 + 76B]
 1645              	.LVL102:
  29:mini3d/scene.c **** 	node->isVisible = 1;
 1646              		.loc 1 29 20 view .LVU377
 1647              	.LBE44:
 1648              	.LBE46:
 205:mini3d/scene.c **** 	child->parentNode = node;
 1649              		.loc 1 205 2 is_stmt 1 view .LVU378
 1650              	@ mini3d/scene.c:205: 	node->childNodes[node->nChildren++] = child;
 205:mini3d/scene.c **** 	child->parentNode = node;
 1651              		.loc 1 205 23 is_stmt 0 view .LVU379
 1652 005c D7E90E32 		ldrd	r3, r2, [r7, #56]	@ _10, _9, node,
 1653              	@ mini3d/scene.c:205: 	node->childNodes[node->nChildren++] = child;
 205:mini3d/scene.c **** 	child->parentNode = node;
 1654              		.loc 1 205 34 view .LVU380
 1655 0060 591C     		adds	r1, r3, #1	@ tmp151, _10,
 1656 0062 B963     		str	r1, [r7, #56]	@ tmp151, node_16(D)->nChildren
 1657              	@ mini3d/scene.c:205: 	node->childNodes[node->nChildren++] = child;
 205:mini3d/scene.c **** 	child->parentNode = node;
 1658              		.loc 1 205 38 view .LVU381
 1659 0064 42F82360 		str	r6, [r2, r3, lsl #2]	@ <retval>, *_14
 206:mini3d/scene.c **** 
 1660              		.loc 1 206 2 is_stmt 1 view .LVU382
 1661              	@ mini3d/scene.c:206: 	child->parentNode = node;
 206:mini3d/scene.c **** 
 1662              		.loc 1 206 20 is_stmt 0 view .LVU383
 1663 0068 7763     		str	r7, [r6, #52]	@ node, child_20->parentNode
 208:mini3d/scene.c **** }
 1664              		.loc 1 208 2 is_stmt 1 view .LVU384
 1665              	@ mini3d/scene.c:209: }
 209:mini3d/scene.c **** 
 1666              		.loc 1 209 1 is_stmt 0 view .LVU385
 1667 006a F8BD     		pop	{r3, r4, r5, r6, r7, pc}	@
 1668              	.LVL103:
 1669              	.L81:
 209:mini3d/scene.c **** 
 1670              		.loc 1 209 1 view .LVU386
 1671              		.align	2
 1672              	.L80:
ARM GAS  /var/folders/cs/83z6p2tj4w57s6p2rt8nwfp00000gn/T//cc3yBana.s 			page 49


 1673 006c 00000000 		.word	m3d_realloc
 1674 0070 00000000 		.word	identityMatrix
 1675              		.cfi_endproc
 1676              	.LFE24:
 1677              		.size	Scene3DNode_newChild, .-Scene3DNode_newChild
 1678              		.section	.text.Scene3D_updateNode,"ax",%progbits
 1679              		.align	1
 1680              		.p2align 4,,15
 1681              		.global	Scene3D_updateNode
 1682              		.syntax unified
 1683              		.thumb
 1684              		.thumb_func
 1685              		.fpu fpv5-sp-d16
 1686              		.type	Scene3D_updateNode, %function
 1687              	Scene3D_updateNode:
 1688              	.LVL104:
 1689              	.LFB26:
 306:mini3d/scene.c **** 	if ( !node->isVisible )
 1690              		.loc 1 306 1 is_stmt 1 view -0
 1691              		.cfi_startproc
 1692              		@ args = 60, pretend = 8, frame = 96
 1693              		@ frame_needed = 0, uses_anonymous_args = 0
 307:mini3d/scene.c **** 		return;
 1694              		.loc 1 307 2 view .LVU388
 1695              	@ mini3d/scene.c:306: {
 306:mini3d/scene.c **** 	if ( !node->isVisible )
 1696              		.loc 1 306 1 is_stmt 0 view .LVU389
 1697 0000 82B0     		sub	sp, sp, #8	@,,
 1698              	.LCFI22:
 1699              		.cfi_def_cfa_offset 8
 1700 0002 2DE9F04F 		push	{r4, r5, r6, r7, r8, r9, r10, fp, lr}	@
 1701              	.LCFI23:
 1702              		.cfi_def_cfa_offset 44
 1703              		.cfi_offset 4, -44
 1704              		.cfi_offset 5, -40
 1705              		.cfi_offset 6, -36
 1706              		.cfi_offset 7, -32
 1707              		.cfi_offset 8, -28
 1708              		.cfi_offset 9, -24
 1709              		.cfi_offset 10, -20
 1710              		.cfi_offset 11, -16
 1711              		.cfi_offset 14, -12
 1712 0006 8A46     		mov	r10, r1	@ node, tmp405
 1713              	@ mini3d/scene.c:307: 	if ( !node->isVisible )
 307:mini3d/scene.c **** 		return;
 1714              		.loc 1 307 7 view .LVU390
 1715 0008 91F84D10 		ldrb	r1, [r1, #77]	@ zero_extendqisi2	@ _1, *node_20(D)
 1716              	.LVL105:
 1717              	@ mini3d/scene.c:306: {
 306:mini3d/scene.c **** 	if ( !node->isVisible )
 1718              		.loc 1 306 1 view .LVU391
 1719 000c 0646     		mov	r6, r0	@ scene, tmp404
 1720              	@ mini3d/scene.c:307: 	if ( !node->isVisible )
 307:mini3d/scene.c **** 		return;
 1721              		.loc 1 307 5 view .LVU392
 1722 000e CD07     		lsls	r5, r1, #31	@, _1,
 1723              	@ mini3d/scene.c:306: {
ARM GAS  /var/folders/cs/83z6p2tj4w57s6p2rt8nwfp00000gn/T//cc3yBana.s 			page 50


 306:mini3d/scene.c **** 	if ( !node->isVisible )
 1724              		.loc 1 306 1 view .LVU393
 1725 0010 2DED068B 		vpush.64	{d8, d9, d10}	@
 1726              	.LCFI24:
 1727              		.cfi_def_cfa_offset 68
 1728              		.cfi_offset 80, -68
 1729              		.cfi_offset 81, -64
 1730              		.cfi_offset 82, -60
 1731              		.cfi_offset 83, -56
 1732              		.cfi_offset 84, -52
 1733              		.cfi_offset 85, -48
 1734 0014 B1B0     		sub	sp, sp, #196	@,,
 1735              	.LCFI25:
 1736              		.cfi_def_cfa_offset 264
 1737              	@ mini3d/scene.c:306: {
 306:mini3d/scene.c **** 	if ( !node->isVisible )
 1738              		.loc 1 306 1 view .LVU394
 1739 0016 9DF83441 		ldrb	r4, [sp, #308]	@ zero_extendqisi2	@ style, style
 1740 001a 40A8     		add	r0, sp, #256	@ tmp463,,
 1741              	.LVL106:
 306:mini3d/scene.c **** 	if ( !node->isVisible )
 1742              		.loc 1 306 1 view .LVU395
 1743 001c 1994     		str	r4, [sp, #100]	@ style, %sfp
 1744 001e 80E80C00 		stm	r0, {r2, r3}	@ tmp463,,
 1745              	@ mini3d/scene.c:307: 	if ( !node->isVisible )
 307:mini3d/scene.c **** 		return;
 1746              		.loc 1 307 5 view .LVU396
 1747 0022 40F18481 		bpl	.L82		@,
 310:mini3d/scene.c **** 	{
 1748              		.loc 1 310 2 is_stmt 1 view .LVU397
 1749              	@ mini3d/scene.c:310: 	if ( node->needsUpdate )
 310:mini3d/scene.c **** 	{
 1750              		.loc 1 310 5 is_stmt 0 view .LVU398
 1751 0026 8C07     		lsls	r4, r1, #30	@, _1,
 1752 0028 F0EE408A 		vmov.f32	s17, s0	@ colorBias, tmp406
 1753 002c 40F17B81 		bpl	.L84		@,
 312:mini3d/scene.c **** 		node->needsUpdate = 0;
 1754              		.loc 1 312 3 is_stmt 1 view .LVU399
 1755              	.LVL107:
 313:mini3d/scene.c **** 	}
 1756              		.loc 1 313 3 view .LVU400
 1757              	@ mini3d/scene.c:312: 		update = 1;
 312:mini3d/scene.c **** 		node->needsUpdate = 0;
 1758              		.loc 1 312 10 is_stmt 0 view .LVU401
 1759 0030 0123     		movs	r3, #1	@ tmp464,
 1760              	@ mini3d/scene.c:313: 		node->needsUpdate = 0;
 313:mini3d/scene.c **** 	}
 1761              		.loc 1 313 21 view .LVU402
 1762 0032 6FF34101 		bfc	r1, #1, #1	@ node_20(D)->needsUpdate,,
 1763              	@ mini3d/scene.c:312: 		update = 1;
 312:mini3d/scene.c **** 		node->needsUpdate = 0;
 1764              		.loc 1 312 10 view .LVU403
 1765 0036 4E93     		str	r3, [sp, #312]	@ tmp464, update
 1766              	@ mini3d/scene.c:313: 		node->needsUpdate = 0;
 313:mini3d/scene.c **** 	}
 1767              		.loc 1 313 21 view .LVU404
 1768 0038 8AF84D10 		strb	r1, [r10, #77]	@ node_20(D)->needsUpdate, node_20(D)->needsUpdate
ARM GAS  /var/folders/cs/83z6p2tj4w57s6p2rt8nwfp00000gn/T//cc3yBana.s 			page 51


 316:mini3d/scene.c **** 	{
 1769              		.loc 1 316 2 is_stmt 1 view .LVU405
 1770              	.LVL108:
 1771              	.L85:
 1772              	.LBB55:
 318:mini3d/scene.c **** 		colorBias += node->colorBias;
 1773              		.loc 1 318 3 view .LVU406
 1774              	@ mini3d/scene.c:318: 		xform = Matrix3D_multiply(node->transform, xform);
 318:mini3d/scene.c **** 		colorBias += node->colorBias;
 1775              		.loc 1 318 11 is_stmt 0 view .LVU407
 1776 003c 40AD     		add	r5, sp, #256	@ tmp235,,
 1777 003e 0AAC     		add	r4, sp, #40	@ tmp234,,
 1778 0040 0AF10C07 		add	r7, r10, #12	@ tmp238, node,
 1779 0044 0FCD     		ldmia	r5!, {r0, r1, r2, r3}	@ tmp235,,,,
 1780 0046 0FC4     		stmia	r4!, {r0, r1, r2, r3}	@ tmp234,,,,
 1781 0048 0FCD     		ldmia	r5!, {r0, r1, r2, r3}	@ tmp235,,,,
 1782 004a 0FC4     		stmia	r4!, {r0, r1, r2, r3}	@ tmp234,,,,
 1783 004c 0FCD     		ldmia	r5!, {r0, r1, r2, r3}	@ tmp235,,,,
 1784 004e D5F800C0 		ldr	ip, [r5]	@ xform, xform
 1785 0052 6D46     		mov	r5, sp	@ tmp237,
 1786 0054 0FC4     		stmia	r4!, {r0, r1, r2, r3}	@ tmp234,,,,
 1787 0056 C4F800C0 		str	ip, [r4]	@ xform,
 1788 005a 0FCF     		ldmia	r7!, {r0, r1, r2, r3}	@ tmp238,,,,
 1789 005c 0FC5     		stmia	r5!, {r0, r1, r2, r3}	@ tmp237,,,,
 1790 005e 0FCF     		ldmia	r7!, {r0, r1, r2, r3}	@ tmp238,,,,
 1791 0060 0FC5     		stmia	r5!, {r0, r1, r2, r3}	@ tmp237,,,,
 1792 0062 97E80300 		ldm	r7, {r0, r1}	@ tmp238,,
 1793 0066 85E80300 		stm	r5, {r0, r1}	@ tmp237,,
 1794 006a 40A8     		add	r0, sp, #256	@,,
 1795 006c 9AE80E00 		ldm	r10, {r1, r2, r3}	@ node,,,
 1796 0070 FFF7FEFF 		bl	Matrix3D_multiply		@
 1797              	.LVL109:
 319:mini3d/scene.c **** 
 1798              		.loc 1 319 3 is_stmt 1 view .LVU408
 1799              	@ mini3d/scene.c:321: 		if ( node->renderStyle != kRenderInheritStyle )
 321:mini3d/scene.c **** 			style = node->renderStyle;
 1800              		.loc 1 321 6 is_stmt 0 view .LVU409
 1801 0074 199A     		ldr	r2, [sp, #100]	@ style, %sfp
 1802              	@ mini3d/scene.c:321: 		if ( node->renderStyle != kRenderInheritStyle )
 321:mini3d/scene.c **** 			style = node->renderStyle;
 1803              		.loc 1 321 12 view .LVU410
 1804 0076 9AF84C30 		ldrb	r3, [r10, #76]	@ zero_extendqisi2	@ _5, node_20(D)->renderStyle
 1805              	@ mini3d/scene.c:319: 		colorBias += node->colorBias;
 319:mini3d/scene.c **** 
 1806              		.loc 1 319 13 view .LVU411
 1807 007a 9AED120A 		vldr.32	s0, [r10, #72]	@ node_20(D)->colorBias, node_20(D)->colorBias
 1808              	@ mini3d/scene.c:321: 		if ( node->renderStyle != kRenderInheritStyle )
 321:mini3d/scene.c **** 			style = node->renderStyle;
 1809              		.loc 1 321 6 view .LVU412
 1810 007e 002B     		cmp	r3, #0	@ _5,
 1811 0080 18BF     		it	ne		@
 1812 0082 1A46     		movne	r2, r3	@, style, _5
 1813              	@ mini3d/scene.c:324: 		ShapeInstance* shape = node->shapes;
 324:mini3d/scene.c **** 
 1814              		.loc 1 324 18 view .LVU413
 1815 0084 DAF84440 		ldr	r4, [r10, #68]	@ shape, node_20(D)->shapes
 1816              	@ mini3d/scene.c:319: 		colorBias += node->colorBias;
ARM GAS  /var/folders/cs/83z6p2tj4w57s6p2rt8nwfp00000gn/T//cc3yBana.s 			page 52


 319:mini3d/scene.c **** 
 1817              		.loc 1 319 13 view .LVU414
 1818 0088 78EE808A 		vadd.f32	s17, s17, s0	@ colorBias, colorBias, node_20(D)->colorBias
 1819              	.LVL110:
 321:mini3d/scene.c **** 			style = node->renderStyle;
 1820              		.loc 1 321 3 is_stmt 1 view .LVU415
 1821              	@ mini3d/scene.c:321: 		if ( node->renderStyle != kRenderInheritStyle )
 321:mini3d/scene.c **** 			style = node->renderStyle;
 1822              		.loc 1 321 6 is_stmt 0 view .LVU416
 1823 008c 1992     		str	r2, [sp, #100]	@ style, %sfp
 1824              	.LVL111:
 324:mini3d/scene.c **** 
 1825              		.loc 1 324 3 is_stmt 1 view .LVU417
 326:mini3d/scene.c **** 		{
 1826              		.loc 1 326 3 view .LVU418
 326:mini3d/scene.c **** 		{
 1827              		.loc 1 326 9 view .LVU419
 1828 008e 002C     		cmp	r4, #0	@ shape
 1829 0090 00F0A281 		beq	.L112	@
 1830 0094 9DF80031 		ldrb	r3, [sp, #256]	@ zero_extendqisi2	@ xform, xform
 1831 0098 CDF86CA0 		str	r10, [sp, #108]	@ node, %sfp
 1832 009c 43F34003 		sbfx	r3, r3, #1, #1	@ tmp244, xform,,
 1833              	.LBB56:
 1834              	.LBB57:
 1835              	.LBB58:
 1836              	@ mini3d/scene.c:274: 				p->x = scene->scale * (p->x + 1.6666666f * scene->centerx);
 274:mini3d/scene.c **** 				p->y = scene->scale * (p->y + scene->centery);
 1837              		.loc 1 274 33 is_stmt 0 view .LVU420
 1838 00a0 9FEDA69A 		vldr.32	s18, .L139	@ tmp399,
 1839              	.LBE58:
 1840              	.LBB59:
 1841              	@ mini3d/scene.c:290: 		float d = zmax - zmin + 0.0001f;
 290:mini3d/scene.c **** 
 1842              		.loc 1 290 9 view .LVU421
 1843 00a4 DFEDA69A 		vldr.32	s19, .L139+4	@ tmp401,
 1844 00a8 5BB2     		sxtb	r3, r3	@ pretmp_235, tmp244
 1845 00aa 9A46     		mov	r10, r3	@ pretmp_235, pretmp_235
 1846              	.LVL112:
 1847              	.L111:
 290:mini3d/scene.c **** 
 1848              		.loc 1 290 9 view .LVU422
 1849              	.LBE59:
 1850              	.LBE57:
 1851              	.LBE56:
 328:mini3d/scene.c **** #if ENABLE_Z_BUFFER
 1852              		.loc 1 328 4 is_stmt 1 view .LVU423
 328:mini3d/scene.c **** #if ENABLE_Z_BUFFER
 1853              		.loc 1 328 4 is_stmt 0 view .LVU424
 1854 00ac 0DF5807C 		add	ip, sp, #256	@ tmp246,,
 1855 00b0 23AF     		add	r7, sp, #140	@ tmp472,,
 1856              	.LBB76:
 1857              	.LBB72:
 1858              	@ mini3d/scene.c:214: 	Shape3D* proto = shape->prototype;
 214:mini3d/scene.c **** 	int i;
 1859              		.loc 1 214 11 view .LVU425
 1860 00b2 D4F80090 		ldr	r9, [r4]	@ proto, shape_179->prototype
 1861 00b6 BCE80F00 		ldmia	ip!, {r0, r1, r2, r3}	@ tmp246,,,,
ARM GAS  /var/folders/cs/83z6p2tj4w57s6p2rt8nwfp00000gn/T//cc3yBana.s 			page 53


 1862 00ba 0FC7     		stmia	r7!, {r0, r1, r2, r3}	@ tmp245,,,,
 1863 00bc BCE80F00 		ldmia	ip!, {r0, r1, r2, r3}	@ tmp246,,,,
 1864 00c0 0FC7     		stmia	r7!, {r0, r1, r2, r3}	@ tmp245,,,,
 1865 00c2 BCE80F00 		ldmia	ip!, {r0, r1, r2, r3}	@ tmp246,,,,
 1866 00c6 0FC7     		stmia	r7!, {r0, r1, r2, r3}	@ tmp245,,,,
 1867              	@ mini3d/scene.c:219: 	for ( i = 0; i < shape->nPoints; ++i )
 219:mini3d/scene.c **** 		shape->points[i] = Matrix3D_apply(xform, Matrix3D_apply(shape->transform, proto->points[i]));
 1868              		.loc 1 219 2 view .LVU426
 1869 00c8 E36B     		ldr	r3, [r4, #60]	@ tmp473, shape_179->nPoints
 1870 00ca DCF80050 		ldr	r5, [ip]	@ xform, xform
 1871 00ce 002B     		cmp	r3, #0	@ tmp473,
 1872 00d0 3D60     		str	r5, [r7]	@ xform, xform
 1873              	.LVL113:
 219:mini3d/scene.c **** 		shape->points[i] = Matrix3D_apply(xform, Matrix3D_apply(shape->transform, proto->points[i]));
 1874              		.loc 1 219 2 view .LVU427
 1875              	.LBE72:
 1876              	.LBI56:
 212:mini3d/scene.c **** {
 1877              		.loc 1 212 1 is_stmt 1 view .LVU428
 1878              	.LBB73:
 214:mini3d/scene.c **** 	int i;
 1879              		.loc 1 214 2 view .LVU429
 215:mini3d/scene.c **** 
 1880              		.loc 1 215 2 view .LVU430
 219:mini3d/scene.c **** 		shape->points[i] = Matrix3D_apply(xform, Matrix3D_apply(shape->transform, proto->points[i]));
 1881              		.loc 1 219 2 view .LVU431
 219:mini3d/scene.c **** 		shape->points[i] = Matrix3D_apply(xform, Matrix3D_apply(shape->transform, proto->points[i]));
 1882              		.loc 1 219 15 view .LVU432
 1883              	@ mini3d/scene.c:219: 	for ( i = 0; i < shape->nPoints; ++i )
 219:mini3d/scene.c **** 		shape->points[i] = Matrix3D_apply(xform, Matrix3D_apply(shape->transform, proto->points[i]));
 1884              		.loc 1 219 2 is_stmt 0 view .LVU433
 1885 00d2 40F3B681 		ble	.L135		@,
 1886              	@ mini3d/scene.c:219: 	for ( i = 0; i < shape->nPoints; ++i )
 219:mini3d/scene.c **** 		shape->points[i] = Matrix3D_apply(xform, Matrix3D_apply(shape->transform, proto->points[i]));
 1887              		.loc 1 219 10 view .LVU434
 1888 00d6 4FF0000B 		mov	fp, #0	@ i,
 1889 00da 04F11405 		add	r5, r4, #20	@ tmp393, shape,
 1890 00de 271D     		adds	r7, r4, #4	@ tmp392, shape,
 1891              	.LVL114:
 1892              	.L90:
 220:mini3d/scene.c **** 
 1893              		.loc 1 220 3 is_stmt 1 view .LVU435
 1894              	@ mini3d/scene.c:220: 		shape->points[i] = Matrix3D_apply(xform, Matrix3D_apply(shape->transform, p
 220:mini3d/scene.c **** 
 1895              		.loc 1 220 22 is_stmt 0 view .LVU436
 1896 00e0 D9F80830 		ldr	r3, [r9, #8]	@ proto_36->points, proto_36->points
 1897 00e4 0BEB4B08 		add	r8, fp, fp, lsl #1	@ tmp280, i, i,
 1898 00e8 AE46     		mov	lr, r5	@ tmp292, tmp393
 1899 00ea EC46     		mov	ip, sp	@ tmp291,
 1900 00ec 03EB8803 		add	r3, r3, r8, lsl #2	@ tmp284, proto_36->points, tmp280,
 1901              	@ mini3d/scene.c:219: 	for ( i = 0; i < shape->nPoints; ++i )
 219:mini3d/scene.c **** 		shape->points[i] = Matrix3D_apply(xform, Matrix3D_apply(shape->transform, proto->points[i]));
 1902              		.loc 1 219 35 view .LVU437
 1903 00f0 0BF1010B 		add	fp, fp, #1	@ i, i,
 1904              	.LVL115:
 219:mini3d/scene.c **** 		shape->points[i] = Matrix3D_apply(xform, Matrix3D_apply(shape->transform, proto->points[i]));
 1905              		.loc 1 219 35 view .LVU438
ARM GAS  /var/folders/cs/83z6p2tj4w57s6p2rt8nwfp00000gn/T//cc3yBana.s 			page 54


 1906 00f4 4FEA8808 		lsl	r8, r8, #2	@ tmp281, tmp280,
 1907              	@ mini3d/scene.c:220: 		shape->points[i] = Matrix3D_apply(xform, Matrix3D_apply(shape->transform, p
 220:mini3d/scene.c **** 
 1908              		.loc 1 220 22 view .LVU439
 1909 00f8 93ED000A 		vldr.32	s0, [r3]	@ *_41, *_41
 1910 00fc D3ED010A 		vldr.32	s1, [r3, #4]	@ *_41, *_41
 1911 0100 93ED021A 		vldr.32	s2, [r3, #8]	@ *_41, *_41
 1912 0104 BEE80F00 		ldmia	lr!, {r0, r1, r2, r3}	@ tmp292,,,,
 1913 0108 ACE80F00 		stmia	ip!, {r0, r1, r2, r3}	@ tmp291,,,,
 1914 010c BEE80F00 		ldmia	lr!, {r0, r1, r2, r3}	@ tmp292,,,,
 1915 0110 ACE80F00 		stmia	ip!, {r0, r1, r2, r3}	@ tmp291,,,,
 1916 0114 DEF80030 		ldr	r3, [lr]	@ shape_179->transform, shape_179->transform
 1917 0118 CCF80030 		str	r3, [ip]	@ shape_179->transform,
 1918 011c 97E80F00 		ldm	r7, {r0, r1, r2, r3}	@ tmp392,,,,
 1919 0120 FFF7FEFF 		bl	Matrix3D_apply		@
 1920              	.LVL116:
 1921 0124 9DF88C30 		ldrb	r3, [sp, #140]	@ zero_extendqisi2	@, xform.inverting
 1922              	@ mini3d/scene.c:220: 		shape->points[i] = Matrix3D_apply(xform, Matrix3D_apply(shape->transform, p
 220:mini3d/scene.c **** 
 1923              		.loc 1 220 16 view .LVU440
 1924 0128 226C     		ldr	r2, [r4, #64]	@ shape_179->points, shape_179->points
 1925              	@ mini3d/scene.c:220: 		shape->points[i] = Matrix3D_apply(xform, Matrix3D_apply(shape->transform, p
 220:mini3d/scene.c **** 
 1926              		.loc 1 220 22 view .LVU441
 1927 012a 0DF19C0E 		add	lr, sp, #156	@ tmp478,,
 1928 012e 6AF34103 		bfi	r3, r10, #1, #1	@ xform.inverting, pretmp_235,,
 1929 0132 EC46     		mov	ip, sp	@ tmp304,
 1930              	@ mini3d/scene.c:220: 		shape->points[i] = Matrix3D_apply(xform, Matrix3D_apply(shape->transform, p
 220:mini3d/scene.c **** 
 1931              		.loc 1 220 16 view .LVU442
 1932 0134 9044     		add	r8, r8, r2	@ _43, shape_179->points
 1933              	@ mini3d/scene.c:220: 		shape->points[i] = Matrix3D_apply(xform, Matrix3D_apply(shape->transform, p
 220:mini3d/scene.c **** 
 1934              		.loc 1 220 22 view .LVU443
 1935 0136 8DED200A 		vstr.32	s0, [sp, #128]	@ tmp413, D.8658
 1936 013a 8DF88C30 		strb	r3, [sp, #140]	@ xform.inverting, xform.inverting
 1937 013e CDED210A 		vstr.32	s1, [sp, #132]	@ tmp414, D.8658
 1938 0142 8DED221A 		vstr.32	s2, [sp, #136]	@ tmp415, D.8658
 1939 0146 BEE80F00 		ldmia	lr!, {r0, r1, r2, r3}	@ tmp305,,,,
 1940 014a ACE80F00 		stmia	ip!, {r0, r1, r2, r3}	@ tmp304,,,,
 1941 014e BEE80F00 		ldmia	lr!, {r0, r1, r2, r3}	@ tmp305,,,,
 1942 0152 DEF800E0 		ldr	lr, [lr]	@ xform, xform
 1943 0156 ACE80F00 		stmia	ip!, {r0, r1, r2, r3}	@ tmp304,,,,
 1944 015a 23AB     		add	r3, sp, #140	@ tmp479,,
 1945 015c 0FCB     		ldm	r3, {r0, r1, r2, r3}	@ tmp479,,,,
 1946 015e CCF800E0 		str	lr, [ip]	@ xform,
 1947 0162 FFF7FEFF 		bl	Matrix3D_apply		@
 1948              	.LVL117:
 1949              	@ mini3d/scene.c:219: 	for ( i = 0; i < shape->nPoints; ++i )
 219:mini3d/scene.c **** 		shape->points[i] = Matrix3D_apply(xform, Matrix3D_apply(shape->transform, proto->points[i]));
 1950              		.loc 1 219 2 view .LVU444
 1951 0166 E36B     		ldr	r3, [r4, #60]	@ shape_179->nPoints, shape_179->nPoints
 1952              	@ mini3d/scene.c:220: 		shape->points[i] = Matrix3D_apply(xform, Matrix3D_apply(shape->transform, p
 220:mini3d/scene.c **** 
 1953              		.loc 1 220 22 view .LVU445
 1954 0168 88ED000A 		vstr.32	s0, [r8]	@ tmp416, *_43
 1955              	@ mini3d/scene.c:219: 	for ( i = 0; i < shape->nPoints; ++i )
ARM GAS  /var/folders/cs/83z6p2tj4w57s6p2rt8nwfp00000gn/T//cc3yBana.s 			page 55


 219:mini3d/scene.c **** 		shape->points[i] = Matrix3D_apply(xform, Matrix3D_apply(shape->transform, proto->points[i]));
 1956              		.loc 1 219 2 view .LVU446
 1957 016c 9B45     		cmp	fp, r3	@ i, shape_179->nPoints
 1958              	@ mini3d/scene.c:220: 		shape->points[i] = Matrix3D_apply(xform, Matrix3D_apply(shape->transform, p
 220:mini3d/scene.c **** 
 1959              		.loc 1 220 22 view .LVU447
 1960 016e C8ED010A 		vstr.32	s1, [r8, #4]	@ tmp417, *_43
 1961 0172 88ED021A 		vstr.32	s2, [r8, #8]	@ tmp418, *_43
 219:mini3d/scene.c **** 		shape->points[i] = Matrix3D_apply(xform, Matrix3D_apply(shape->transform, proto->points[i]));
 1962              		.loc 1 219 35 is_stmt 1 view .LVU448
 1963              	.LVL118:
 219:mini3d/scene.c **** 		shape->points[i] = Matrix3D_apply(xform, Matrix3D_apply(shape->transform, proto->points[i]));
 1964              		.loc 1 219 15 view .LVU449
 1965              	@ mini3d/scene.c:219: 	for ( i = 0; i < shape->nPoints; ++i )
 219:mini3d/scene.c **** 		shape->points[i] = Matrix3D_apply(xform, Matrix3D_apply(shape->transform, proto->points[i]));
 1966              		.loc 1 219 2 is_stmt 0 view .LVU450
 1967 0176 B3DB     		blt	.L90		@,
 1968              	.LVL119:
 1969              	.L93:
 222:mini3d/scene.c **** 	shape->colorBias = proto->colorBias + colorBias;
 1970              		.loc 1 222 2 is_stmt 1 view .LVU451
 1971              	@ mini3d/scene.c:222: 	shape->center = Matrix3D_apply(xform, Matrix3D_apply(shape->transform, proto
 222:mini3d/scene.c **** 	shape->colorBias = proto->colorBias + colorBias;
 1972              		.loc 1 222 18 is_stmt 0 view .LVU452
 1973 0178 EC46     		mov	ip, sp	@ tmp252,
 1974 017a 99ED050A 		vldr.32	s0, [r9, #20]	@ proto_36->center, proto_36->center
 1975 017e D9ED060A 		vldr.32	s1, [r9, #24]	@ proto_36->center, proto_36->center
 1976 0182 99ED071A 		vldr.32	s2, [r9, #28]	@ proto_36->center, proto_36->center
 1977 0186 0FCD     		ldmia	r5!, {r0, r1, r2, r3}	@ tmp253,,,,
 1978 0188 ACE80F00 		stmia	ip!, {r0, r1, r2, r3}	@ tmp252,,,,
 1979 018c 0FCD     		ldmia	r5!, {r0, r1, r2, r3}	@ tmp253,,,,
 1980 018e ACE80F00 		stmia	ip!, {r0, r1, r2, r3}	@ tmp252,,,,
 1981 0192 2B68     		ldr	r3, [r5]	@ shape_179->transform, shape_179->transform
 1982 0194 6D46     		mov	r5, sp	@ tmp264,
 1983 0196 CCF80030 		str	r3, [ip]	@ shape_179->transform,
 1984 019a 97E80F00 		ldm	r7, {r0, r1, r2, r3}	@ tmp392,,,,
 1985 019e FFF7FEFF 		bl	Matrix3D_apply		@
 1986              	.LVL120:
 1987 01a2 9DF88C30 		ldrb	r3, [sp, #140]	@ zero_extendqisi2	@, xform.inverting
 1988 01a6 27AF     		add	r7, sp, #156	@ tmp474,,
 1989 01a8 8DED1D0A 		vstr.32	s0, [sp, #116]	@ tmp407, D.8657
 1990 01ac 6AF34103 		bfi	r3, r10, #1, #1	@ xform.inverting, pretmp_235,,
 1991 01b0 CDED1E0A 		vstr.32	s1, [sp, #120]	@ tmp408, D.8657
 1992 01b4 8DED1F1A 		vstr.32	s2, [sp, #124]	@ tmp409, D.8657
 1993 01b8 8DF88C30 		strb	r3, [sp, #140]	@ xform.inverting, xform.inverting
 1994 01bc 0FCF     		ldmia	r7!, {r0, r1, r2, r3}	@ tmp265,,,,
 1995 01be 0FC5     		stmia	r5!, {r0, r1, r2, r3}	@ tmp264,,,,
 1996 01c0 0FCF     		ldmia	r7!, {r0, r1, r2, r3}	@ tmp265,,,,
 1997 01c2 3F68     		ldr	r7, [r7]	@ xform, xform
 1998 01c4 0FC5     		stmia	r5!, {r0, r1, r2, r3}	@ tmp264,,,,
 1999 01c6 23AB     		add	r3, sp, #140	@ tmp475,,
 2000 01c8 0FCB     		ldm	r3, {r0, r1, r2, r3}	@ tmp475,,,,
 2001 01ca 2F60     		str	r7, [r5]	@ xform,
 2002 01cc FFF7FEFF 		bl	Matrix3D_apply		@
 2003              	.LVL121:
 2004              	@ mini3d/scene.c:225: 	shape->inverted = xform.inverting;
 225:mini3d/scene.c **** 
ARM GAS  /var/folders/cs/83z6p2tj4w57s6p2rt8nwfp00000gn/T//cc3yBana.s 			page 56


 2005              		.loc 1 225 18 view .LVU453
 2006 01d0 94F85D30 		ldrb	r3, [r4, #93]	@ zero_extendqisi2	@, shape_179->inverted
 2007              	@ mini3d/scene.c:230: 	int ordersize = shape->prototype->orderTableSize;
 230:mini3d/scene.c **** 
 2008              		.loc 1 230 6 view .LVU454
 2009 01d4 2268     		ldr	r2, [r4]	@ shape_179->prototype, shape_179->prototype
 2010              	@ mini3d/scene.c:225: 	shape->inverted = xform.inverting;
 225:mini3d/scene.c **** 
 2011              		.loc 1 225 18 view .LVU455
 2012 01d6 6AF30003 		bfi	r3, r10, #0, #1	@ shape_179->inverted, pretmp_235,,
 2013              	@ mini3d/scene.c:224: 	shape->renderStyle = style;
 224:mini3d/scene.c **** 	shape->inverted = xform.inverting;
 2014              		.loc 1 224 21 view .LVU456
 2015 01da 1999     		ldr	r1, [sp, #100]	@ style, %sfp
 2016              	@ mini3d/scene.c:223: 	shape->colorBias = proto->colorBias + colorBias;
 223:mini3d/scene.c **** 	shape->renderStyle = style;
 2017              		.loc 1 223 38 view .LVU457
 2018 01dc D9ED087A 		vldr.32	s15, [r9, #32]	@ proto_36->colorBias, proto_36->colorBias
 2019              	@ mini3d/scene.c:225: 	shape->inverted = xform.inverting;
 225:mini3d/scene.c **** 
 2020              		.loc 1 225 18 view .LVU458
 2021 01e0 84F85D30 		strb	r3, [r4, #93]	@ shape_179->inverted, shape_179->inverted
 2022              	@ mini3d/scene.c:224: 	shape->renderStyle = style;
 224:mini3d/scene.c **** 	shape->inverted = xform.inverting;
 2023              		.loc 1 224 21 view .LVU459
 2024 01e4 84F85C10 		strb	r1, [r4, #92]	@ style, shape_179->renderStyle
 2025              	@ mini3d/scene.c:223: 	shape->colorBias = proto->colorBias + colorBias;
 223:mini3d/scene.c **** 	shape->renderStyle = style;
 2026              		.loc 1 223 38 view .LVU460
 2027 01e8 77EEA87A 		vadd.f32	s15, s15, s17	@ tmp271, proto_36->colorBias, colorBias
 2028              	@ mini3d/scene.c:230: 	int ordersize = shape->prototype->orderTableSize;
 230:mini3d/scene.c **** 
 2029              		.loc 1 230 6 view .LVU461
 2030 01ec 976A     		ldr	r7, [r2, #40]	@ ordersize, _49->orderTableSize
 2031              	@ mini3d/scene.c:232: 	if ( ordersize != shape->orderTableSize )
 232:mini3d/scene.c **** 	{
 2032              		.loc 1 232 5 view .LVU462
 2033 01ee 236E     		ldr	r3, [r4, #96]	@ shape_179->orderTableSize, shape_179->orderTableSize
 2034              	@ mini3d/scene.c:223: 	shape->colorBias = proto->colorBias + colorBias;
 223:mini3d/scene.c **** 	shape->renderStyle = style;
 2035              		.loc 1 223 19 view .LVU463
 2036 01f0 C4ED167A 		vstr.32	s15, [r4, #88]	@ tmp271, shape_179->colorBias
 2037              	@ mini3d/scene.c:232: 	if ( ordersize != shape->orderTableSize )
 232:mini3d/scene.c **** 	{
 2038              		.loc 1 232 5 view .LVU464
 2039 01f4 9F42     		cmp	r7, r3	@ ordersize, shape_179->orderTableSize
 2040              	@ mini3d/scene.c:222: 	shape->center = Matrix3D_apply(xform, Matrix3D_apply(shape->transform, proto
 222:mini3d/scene.c **** 	shape->colorBias = proto->colorBias + colorBias;
 2041              		.loc 1 222 18 view .LVU465
 2042 01f6 84ED130A 		vstr.32	s0, [r4, #76]	@ tmp410, shape_179->center
 2043 01fa C4ED140A 		vstr.32	s1, [r4, #80]	@ tmp411, shape_179->center
 2044 01fe 84ED151A 		vstr.32	s2, [r4, #84]	@ tmp412, shape_179->center
 223:mini3d/scene.c **** 	shape->renderStyle = style;
 2045              		.loc 1 223 2 is_stmt 1 view .LVU466
 224:mini3d/scene.c **** 	shape->inverted = xform.inverting;
 2046              		.loc 1 224 2 view .LVU467
 225:mini3d/scene.c **** 
ARM GAS  /var/folders/cs/83z6p2tj4w57s6p2rt8nwfp00000gn/T//cc3yBana.s 			page 57


 2047              		.loc 1 225 2 view .LVU468
 228:mini3d/scene.c **** 	float zmax = 0;
 2048              		.loc 1 228 2 view .LVU469
 2049              	.LVL122:
 229:mini3d/scene.c **** 	int ordersize = shape->prototype->orderTableSize;
 2050              		.loc 1 229 2 view .LVU470
 230:mini3d/scene.c **** 
 2051              		.loc 1 230 2 view .LVU471
 232:mini3d/scene.c **** 	{
 2052              		.loc 1 232 2 view .LVU472
 2053              	@ mini3d/scene.c:232: 	if ( ordersize != shape->orderTableSize )
 232:mini3d/scene.c **** 	{
 2054              		.loc 1 232 5 is_stmt 0 view .LVU473
 2055 0202 00F01081 		beq	.L136		@,
 234:mini3d/scene.c **** 		shape->orderTable = m3d_realloc(shape->orderTable, ordersize * sizeof(FaceInstance*));
 2056              		.loc 1 234 3 is_stmt 1 view .LVU474
 2057              	@ mini3d/scene.c:235: 		shape->orderTable = m3d_realloc(shape->orderTable, ordersize * sizeof(FaceI
 235:mini3d/scene.c **** 	}
 2058              		.loc 1 235 23 is_stmt 0 view .LVU475
 2059 0206 BA00     		lsls	r2, r7, #2	@ _55, ordersize,
 2060 0208 4E4B     		ldr	r3, .L139+8	@ tmp313,
 2061 020a 606E     		ldr	r0, [r4, #100]	@, shape_179->orderTable
 2062 020c 1146     		mov	r1, r2	@, _55
 2063 020e 1B68     		ldr	r3, [r3]	@ m3d_realloc, m3d_realloc
 2064              	@ mini3d/scene.c:234: 		shape->orderTableSize = ordersize;
 234:mini3d/scene.c **** 		shape->orderTable = m3d_realloc(shape->orderTable, ordersize * sizeof(FaceInstance*));
 2065              		.loc 1 234 25 view .LVU476
 2066 0210 2766     		str	r7, [r4, #96]	@ ordersize, shape_179->orderTableSize
 235:mini3d/scene.c **** 	}
 2067              		.loc 1 235 3 is_stmt 1 view .LVU477
 2068              	@ mini3d/scene.c:235: 		shape->orderTable = m3d_realloc(shape->orderTable, ordersize * sizeof(FaceI
 235:mini3d/scene.c **** 	}
 2069              		.loc 1 235 23 is_stmt 0 view .LVU478
 2070 0212 1A92     		str	r2, [sp, #104]	@ _55, %sfp
 2071 0214 9847     		blx	r3		@ m3d_realloc
 2072              	.LVL123:
 2073              	@ mini3d/scene.c:238: 	memset(shape->orderTable, 0, ordersize * sizeof(FaceInstance*));
 238:mini3d/scene.c **** #endif
 2074              		.loc 1 238 2 view .LVU479
 2075 0216 0021     		movs	r1, #0	@,
 2076              	@ mini3d/scene.c:235: 		shape->orderTable = m3d_realloc(shape->orderTable, ordersize * sizeof(FaceI
 235:mini3d/scene.c **** 	}
 2077              		.loc 1 235 21 view .LVU480
 2078 0218 1A9A     		ldr	r2, [sp, #104]	@ _55, %sfp
 238:mini3d/scene.c **** #endif
 2079              		.loc 1 238 2 is_stmt 1 view .LVU481
 2080              	@ mini3d/scene.c:235: 		shape->orderTable = m3d_realloc(shape->orderTable, ordersize * sizeof(FaceI
 235:mini3d/scene.c **** 	}
 2081              		.loc 1 235 21 is_stmt 0 view .LVU482
 2082 021a 6066     		str	r0, [r4, #100]	@ _56, shape_179->orderTable
 2083              	@ mini3d/scene.c:238: 	memset(shape->orderTable, 0, ordersize * sizeof(FaceInstance*));
 238:mini3d/scene.c **** #endif
 2084              		.loc 1 238 2 view .LVU483
 2085 021c FFF7FEFF 		bl	memset		@
 2086              	.LVL124:
 243:mini3d/scene.c **** 	{
 2087              		.loc 1 243 2 is_stmt 1 view .LVU484
ARM GAS  /var/folders/cs/83z6p2tj4w57s6p2rt8nwfp00000gn/T//cc3yBana.s 			page 58


 243:mini3d/scene.c **** 	{
 2088              		.loc 1 243 15 view .LVU485
 2089              	@ mini3d/scene.c:243: 	for ( i = 0; i < shape->nFaces; ++i )
 243:mini3d/scene.c **** 	{
 2090              		.loc 1 243 24 is_stmt 0 view .LVU486
 2091 0220 616C     		ldr	r1, [r4, #68]	@ _79, shape_179->nFaces
 2092              	@ mini3d/scene.c:243: 	for ( i = 0; i < shape->nFaces; ++i )
 243:mini3d/scene.c **** 	{
 2093              		.loc 1 243 2 view .LVU487
 2094 0222 0029     		cmp	r1, #0	@ _79,
 2095 0224 40F30881 		ble	.L116		@,
 2096              	.L138:
 2097 0228 4FF00008 		mov	r8, #0	@ ivtmp.186,
 2098              	@ mini3d/scene.c:229: 	float zmax = 0;
 229:mini3d/scene.c **** 	int ordersize = shape->prototype->orderTableSize;
 2099              		.loc 1 229 8 view .LVU488
 2100 022c 9FED468A 		vldr.32	s16, .L139+12	@ zmax,
 2101              	@ mini3d/scene.c:228: 	float zmin = 1e23f;
 228:mini3d/scene.c **** 	float zmax = 0;
 2102              		.loc 1 228 8 view .LVU489
 2103 0230 9FED46AA 		vldr.32	s20, .L139+16	@ zmin,
 2104              	@ mini3d/scene.c:243: 	for ( i = 0; i < shape->nFaces; ++i )
 243:mini3d/scene.c **** 	{
 2105              		.loc 1 243 10 view .LVU490
 2106 0234 C346     		mov	fp, r8	@ i, ivtmp.186
 2107              	.LVL125:
 2108              	.L100:
 2109              	.LBB64:
 245:mini3d/scene.c **** 		face->normal = pnormal(face->p1, face->p2, face->p3);
 2110              		.loc 1 245 3 is_stmt 1 view .LVU491
 2111              	@ mini3d/scene.c:245: 		FaceInstance* face = &shape->faces[i];
 245:mini3d/scene.c **** 		face->normal = pnormal(face->p1, face->p2, face->p3);
 2112              		.loc 1 245 17 is_stmt 0 view .LVU492
 2113 0236 D4F84890 		ldr	r9, [r4, #72]	@ shape_179->faces, shape_179->faces
 2114              	.LBE64:
 2115              	@ mini3d/scene.c:243: 	for ( i = 0; i < shape->nFaces; ++i )
 243:mini3d/scene.c **** 	{
 2116              		.loc 1 243 34 view .LVU493
 2117 023a 0BF1010B 		add	fp, fp, #1	@ i, i,
 2118              	.LVL126:
 2119              	.LBB67:
 2120              	@ mini3d/scene.c:245: 		FaceInstance* face = &shape->faces[i];
 245:mini3d/scene.c **** 		face->normal = pnormal(face->p1, face->p2, face->p3);
 2121              		.loc 1 245 17 view .LVU494
 2122 023e 09EB0805 		add	r5, r9, r8	@ face, shape_179->faces, ivtmp.186
 2123              	.LVL127:
 246:mini3d/scene.c **** 
 2124              		.loc 1 246 3 is_stmt 1 view .LVU495
 2125              	@ mini3d/scene.c:246: 		face->normal = pnormal(face->p1, face->p2, face->p3);
 246:mini3d/scene.c **** 
 2126              		.loc 1 246 18 is_stmt 0 view .LVU496
 2127 0242 59F80800 		ldr	r0, [r9, r8]	@, face_64->p1
 2128 0246 D5E90112 		ldrd	r1, r2, [r5, #4]	@,, face,
 2129 024a FFF7FEFF 		bl	pnormal		@
 2130              	.LVL128:
 2131              	.LBB65:
 251:mini3d/scene.c **** 
ARM GAS  /var/folders/cs/83z6p2tj4w57s6p2rt8nwfp00000gn/T//cc3yBana.s 			page 59


 2132              		.loc 1 251 4 is_stmt 1 view .LVU497
 2133              	.LBE65:
 2134              	@ mini3d/scene.c:249: 		if ( ordersize > 0 )
 249:mini3d/scene.c **** 		{
 2135              		.loc 1 249 6 is_stmt 0 view .LVU498
 2136 024e 002F     		cmp	r7, #0	@ ordersize,
 2137              	@ mini3d/scene.c:246: 		face->normal = pnormal(face->p1, face->p2, face->p3);
 246:mini3d/scene.c **** 
 2138              		.loc 1 246 18 view .LVU499
 2139 0250 85ED040A 		vstr.32	s0, [r5, #16]	@ tmp420, face_64->normal
 2140 0254 C5ED050A 		vstr.32	s1, [r5, #20]	@ tmp421, face_64->normal
 2141 0258 85ED061A 		vstr.32	s2, [r5, #24]	@ tmp422, face_64->normal
 249:mini3d/scene.c **** 		{
 2142              		.loc 1 249 3 is_stmt 1 view .LVU500
 2143              	@ mini3d/scene.c:249: 		if ( ordersize > 0 )
 249:mini3d/scene.c **** 		{
 2144              		.loc 1 249 6 is_stmt 0 view .LVU501
 2145 025c 1ADD     		ble	.L96		@,
 2146              	.LBB66:
 2147              	@ mini3d/scene.c:251: 			float z = face->p1->z + face->p2->z + face->p3->z;
 251:mini3d/scene.c **** 
 2148              		.loc 1 251 36 view .LVU502
 2149 025e 6B68     		ldr	r3, [r5, #4]	@ face_64->p2, face_64->p2
 2150              	@ mini3d/scene.c:251: 			float z = face->p1->z + face->p2->z + face->p3->z;
 251:mini3d/scene.c **** 
 2151              		.loc 1 251 22 view .LVU503
 2152 0260 59F80820 		ldr	r2, [r9, r8]	@ face_64->p1, face_64->p1
 2153              	@ mini3d/scene.c:251: 			float z = face->p1->z + face->p2->z + face->p3->z;
 251:mini3d/scene.c **** 
 2154              		.loc 1 251 26 view .LVU504
 2155 0264 93ED027A 		vldr.32	s14, [r3, #8]	@ _70->z, _70->z
 2156 0268 D2ED027A 		vldr.32	s15, [r2, #8]	@ _68->z, _68->z
 2157              	@ mini3d/scene.c:251: 			float z = face->p1->z + face->p2->z + face->p3->z;
 251:mini3d/scene.c **** 
 2158              		.loc 1 251 50 view .LVU505
 2159 026c AB68     		ldr	r3, [r5, #8]	@ face_64->p3, face_64->p3
 2160              	@ mini3d/scene.c:251: 			float z = face->p1->z + face->p2->z + face->p3->z;
 251:mini3d/scene.c **** 
 2161              		.loc 1 251 26 view .LVU506
 2162 026e 77EE877A 		vadd.f32	s15, s15, s14	@ tmp328, _68->z, _70->z
 2163              	@ mini3d/scene.c:251: 			float z = face->p1->z + face->p2->z + face->p3->z;
 251:mini3d/scene.c **** 
 2164              		.loc 1 251 10 view .LVU507
 2165 0272 93ED027A 		vldr.32	s14, [r3, #8]	@ _73->z, _73->z
 2166 0276 77EE877A 		vadd.f32	s15, s15, s14	@ z, tmp328, _73->z
 2167              	.LVL129:
 253:mini3d/scene.c **** 			if ( z > zmax ) zmax = z;
 2168              		.loc 1 253 4 is_stmt 1 view .LVU508
 2169              	@ mini3d/scene.c:253: 			if ( z < zmin ) zmin = z;
 253:mini3d/scene.c **** 			if ( z > zmax ) zmax = z;
 2170              		.loc 1 253 25 is_stmt 0 view .LVU509
 2171 027a F4EE4A7A 		vcmp.f32	s15, s20	@ z, zmin
 2172 027e F1EE10FA 		vmrs	APSR_nzcv, FPSCR
 2173              	@ mini3d/scene.c:254: 			if ( z > zmax ) zmax = z;
 254:mini3d/scene.c **** 		}
 2174              		.loc 1 254 25 view .LVU510
 2175 0282 F4EE487A 		vcmp.f32	s15, s16	@ z, zmax
ARM GAS  /var/folders/cs/83z6p2tj4w57s6p2rt8nwfp00000gn/T//cc3yBana.s 			page 60


 2176              	@ mini3d/scene.c:253: 			if ( z < zmin ) zmin = z;
 253:mini3d/scene.c **** 			if ( z > zmax ) zmax = z;
 2177              		.loc 1 253 25 view .LVU511
 2178 0286 48BF     		it	mi	@
 2179 0288 B0EE67AA 		vmovmi.f32	s20, s15	@, zmin, z
 2180              	.LVL130:
 254:mini3d/scene.c **** 		}
 2181              		.loc 1 254 4 is_stmt 1 view .LVU512
 2182              	@ mini3d/scene.c:254: 			if ( z > zmax ) zmax = z;
 254:mini3d/scene.c **** 		}
 2183              		.loc 1 254 25 is_stmt 0 view .LVU513
 2184 028c F1EE10FA 		vmrs	APSR_nzcv, FPSCR
 2185 0290 37FE888A 		vselgt.f32	s16, s15, s16	@, zmax, z, zmax
 2186              	.LVL131:
 2187              	.L96:
 254:mini3d/scene.c **** 		}
 2188              		.loc 1 254 25 view .LVU514
 2189              	.LBE66:
 2190              	.LBE67:
 243:mini3d/scene.c **** 	{
 2191              		.loc 1 243 34 is_stmt 1 view .LVU515
 243:mini3d/scene.c **** 	{
 2192              		.loc 1 243 15 view .LVU516
 2193              	@ mini3d/scene.c:243: 	for ( i = 0; i < shape->nFaces; ++i )
 243:mini3d/scene.c **** 	{
 2194              		.loc 1 243 24 is_stmt 0 view .LVU517
 2195 0294 616C     		ldr	r1, [r4, #68]	@ _79, shape_179->nFaces
 2196 0296 08F12408 		add	r8, r8, #36	@ ivtmp.186, ivtmp.186,
 2197              	@ mini3d/scene.c:243: 	for ( i = 0; i < shape->nFaces; ++i )
 243:mini3d/scene.c **** 	{
 2198              		.loc 1 243 2 view .LVU518
 2199 029a 8B45     		cmp	fp, r1	@ i, _79
 2200 029c CBDB     		blt	.L100		@,
 2201              	.LVL132:
 2202              	.L95:
 261:mini3d/scene.c **** 	{
 2203              		.loc 1 261 15 is_stmt 1 view .LVU519
 2204              	@ mini3d/scene.c:261: 	for ( i = 0; i < shape->nPoints; ++i )
 261:mini3d/scene.c **** 	{
 2205              		.loc 1 261 24 is_stmt 0 view .LVU520
 2206 029e E26B     		ldr	r2, [r4, #60]	@ _187, shape_179->nPoints
 2207              	@ mini3d/scene.c:261: 	for ( i = 0; i < shape->nPoints; ++i )
 261:mini3d/scene.c **** 	{
 2208              		.loc 1 261 2 view .LVU521
 2209 02a0 002A     		cmp	r2, #0	@ _187,
 2210 02a2 55DD     		ble	.L110		@,
 2211 02a4 02EB4202 		add	r2, r2, r2, lsl #1	@ tmp335, _187, _187,
 2212 02a8 236C     		ldr	r3, [r4, #64]	@ ivtmp.183, shape_179->points
 2213 02aa 03EB8202 		add	r2, r3, r2, lsl #2	@ _217, ivtmp.183, tmp335,
 2214 02ae 25E0     		b	.L109		@
 2215              	.LVL133:
 2216              	.L137:
 2217              	.LBB68:
 2218              	@ mini3d/scene.c:269: 				p->x = scene->scale * (p->x / p->z + 1.6666666f * scene->centerx);
 269:mini3d/scene.c **** 				p->y = scene->scale * (p->y / p->z + scene->centery);
 2219              		.loc 1 269 33 view .LVU522
 2220 02b0 93ED007A 		vldr.32	s14, [r3]	@ MEM[base: _221, offset: 0B], MEM[base: _221, offset: 0B]
ARM GAS  /var/folders/cs/83z6p2tj4w57s6p2rt8nwfp00000gn/T//cc3yBana.s 			page 61


 2221              	@ mini3d/scene.c:270: 				p->y = scene->scale * (p->y / p->z + scene->centery);
 270:mini3d/scene.c **** 			}
 2222              		.loc 1 270 33 view .LVU523
 2223 02b4 93ED015A 		vldr.32	s10, [r3, #4]	@ MEM[base: _221, offset: 4B], MEM[base: _221, offset: 4B]
 2224              	@ mini3d/scene.c:269: 				p->x = scene->scale * (p->x / p->z + 1.6666666f * scene->centerx);
 269:mini3d/scene.c **** 				p->y = scene->scale * (p->y / p->z + scene->centery);
 2225              		.loc 1 269 33 view .LVU524
 2226 02b8 C7EE276A 		vdiv.f32	s13, s14, s15	@ tmp343, MEM[base: _221, offset: 0B], _85
 2227              	@ mini3d/scene.c:269: 				p->x = scene->scale * (p->x / p->z + 1.6666666f * scene->centerx);
 269:mini3d/scene.c **** 				p->y = scene->scale * (p->y / p->z + scene->centery);
 2228              		.loc 1 269 40 view .LVU525
 2229 02bc D6ED115A 		vldr.32	s11, [r6, #68]	@ scene_28(D)->centerx, scene_28(D)->centerx
 2230              	@ mini3d/scene.c:269: 				p->x = scene->scale * (p->x / p->z + 1.6666666f * scene->centerx);
 269:mini3d/scene.c **** 				p->y = scene->scale * (p->y / p->z + scene->centery);
 2231              		.loc 1 269 17 view .LVU526
 2232 02c0 96ED136A 		vldr.32	s12, [r6, #76]	@ _88, scene_28(D)->scale
 2233              	@ mini3d/scene.c:270: 				p->y = scene->scale * (p->y / p->z + scene->centery);
 270:mini3d/scene.c **** 			}
 2234              		.loc 1 270 33 view .LVU527
 2235 02c4 85EE277A 		vdiv.f32	s14, s10, s15	@ tmp348, MEM[base: _221, offset: 4B], _85
 2236              	@ mini3d/scene.c:269: 				p->x = scene->scale * (p->x / p->z + 1.6666666f * scene->centerx);
 269:mini3d/scene.c **** 				p->y = scene->scale * (p->y / p->z + scene->centery);
 2237              		.loc 1 269 40 view .LVU528
 2238 02c8 E5EE896A 		vfma.f32	s13, s11, s18	@ _93, scene_28(D)->centerx, tmp399
 2239              	.L134:
 2240              	@ mini3d/scene.c:274: 				p->x = scene->scale * (p->x + 1.6666666f * scene->centerx);
 274:mini3d/scene.c **** 				p->y = scene->scale * (p->y + scene->centery);
 2241              		.loc 1 274 25 view .LVU529
 2242 02cc 66EE266A 		vmul.f32	s13, s12, s13	@ tmp356, _100, _104
 2243              	@ mini3d/scene.c:274: 				p->x = scene->scale * (p->x + 1.6666666f * scene->centerx);
 274:mini3d/scene.c **** 				p->y = scene->scale * (p->y + scene->centery);
 2244              		.loc 1 274 10 view .LVU530
 2245 02d0 C3ED006A 		vstr.32	s13, [r3]	@ tmp356, MEM[base: _221, offset: 0B]
 275:mini3d/scene.c **** 			}
 2246              		.loc 1 275 5 is_stmt 1 view .LVU531
 2247              	@ mini3d/scene.c:275: 				p->y = scene->scale * (p->y + scene->centery);
 275:mini3d/scene.c **** 			}
 2248              		.loc 1 275 33 is_stmt 0 view .LVU532
 2249 02d4 D6ED126A 		vldr.32	s13, [r6, #72]	@ scene_28(D)->centery, scene_28(D)->centery
 2250 02d8 37EE267A 		vadd.f32	s14, s14, s13	@ tmp357, MEM[base: _221, offset: 4B], scene_28(D)->centery
 2251              	@ mini3d/scene.c:275: 				p->y = scene->scale * (p->y + scene->centery);
 275:mini3d/scene.c **** 			}
 2252              		.loc 1 275 25 view .LVU533
 2253 02dc 27EE067A 		vmul.f32	s14, s14, s12	@ tmp360, tmp357, _100
 2254              	@ mini3d/scene.c:275: 				p->y = scene->scale * (p->y + scene->centery);
 275:mini3d/scene.c **** 			}
 2255              		.loc 1 275 10 view .LVU534
 2256 02e0 83ED017A 		vstr.32	s14, [r3, #4]	@ tmp360, MEM[base: _221, offset: 4B]
 2257              	.L104:
 280:mini3d/scene.c **** 			scene->zmin = p->z;
 2258              		.loc 1 280 3 is_stmt 1 view .LVU535
 281:mini3d/scene.c **** #endif
 2259              		.loc 1 281 4 view .LVU536
 2260              	.LBE68:
 261:mini3d/scene.c **** 	{
 2261              		.loc 1 261 35 view .LVU537
 261:mini3d/scene.c **** 	{
ARM GAS  /var/folders/cs/83z6p2tj4w57s6p2rt8nwfp00000gn/T//cc3yBana.s 			page 62


 2262              		.loc 1 261 15 view .LVU538
 2263              	.LBB69:
 2264              	@ mini3d/scene.c:280: 		if ( p->z < scene->zmin )
 280:mini3d/scene.c **** 			scene->zmin = p->z;
 2265              		.loc 1 280 6 is_stmt 0 view .LVU539
 2266 02e4 96ED2B7A 		vldr.32	s14, [r6, #172]	@ scene_28(D)->zmin, scene_28(D)->zmin
 2267 02e8 0C33     		adds	r3, r3, #12	@ ivtmp.183, ivtmp.183,
 2268              	.LVL134:
 280:mini3d/scene.c **** 			scene->zmin = p->z;
 2269              		.loc 1 280 6 view .LVU540
 2270 02ea F4EEC77A 		vcmpe.f32	s15, s14	@ _85, scene_28(D)->zmin
 2271 02ee F1EE10FA 		vmrs	APSR_nzcv, FPSCR
 2272              	@ mini3d/scene.c:281: 			scene->zmin = p->z;
 281:mini3d/scene.c **** #endif
 2273              		.loc 1 281 16 view .LVU541
 2274 02f2 48BF     		it	mi
 2275 02f4 C6ED2B7A 		vstrmi.32	s15, [r6, #172]	@ _85, scene_28(D)->zmin
 2276              	.LBE69:
 2277              	@ mini3d/scene.c:261: 	for ( i = 0; i < shape->nPoints; ++i )
 261:mini3d/scene.c **** 	{
 2278              		.loc 1 261 2 view .LVU542
 2279 02f8 9A42     		cmp	r2, r3	@ _217, ivtmp.183
 2280 02fa 29D0     		beq	.L110		@,
 2281              	.LVL135:
 2282              	.L109:
 2283              	.LBB70:
 263:mini3d/scene.c **** 
 2284              		.loc 1 263 3 is_stmt 1 view .LVU543
 265:mini3d/scene.c **** 		{
 2285              		.loc 1 265 3 view .LVU544
 267:mini3d/scene.c **** 			{
 2286              		.loc 1 267 4 view .LVU545
 2287              	@ mini3d/scene.c:265: 		if ( p->z > 0 )
 265:mini3d/scene.c **** 		{
 2288              		.loc 1 265 9 is_stmt 0 view .LVU546
 2289 02fc D3ED027A 		vldr.32	s15, [r3, #8]	@ _85, MEM[base: _221, offset: 8B]
 2290              	@ mini3d/scene.c:265: 		if ( p->z > 0 )
 265:mini3d/scene.c **** 		{
 2291              		.loc 1 265 6 view .LVU547
 2292 0300 F5EEC07A 		vcmpe.f32	s15, #0	@ _85
 2293 0304 F1EE10FA 		vmrs	APSR_nzcv, FPSCR
 2294 0308 ECDD     		ble	.L104		@,
 269:mini3d/scene.c **** 				p->y = scene->scale * (p->y / p->z + scene->centery);
 2295              		.loc 1 269 5 is_stmt 1 view .LVU548
 274:mini3d/scene.c **** 				p->y = scene->scale * (p->y + scene->centery);
 2296              		.loc 1 274 5 view .LVU549
 2297              	@ mini3d/scene.c:267: 			if ( scene->hasPerspective )
 267:mini3d/scene.c **** 			{
 2298              		.loc 1 267 9 is_stmt 0 view .LVU550
 2299 030a 3078     		ldrb	r0, [r6]	@ zero_extendqisi2	@ *scene_28(D), *scene_28(D)
 2300              	@ mini3d/scene.c:267: 			if ( scene->hasPerspective )
 267:mini3d/scene.c **** 			{
 2301              		.loc 1 267 7 view .LVU551
 2302 030c C007     		lsls	r0, r0, #31	@, *scene_28(D),
 2303 030e CFD4     		bmi	.L137		@,
 2304              	@ mini3d/scene.c:274: 				p->x = scene->scale * (p->x + 1.6666666f * scene->centerx);
 274:mini3d/scene.c **** 				p->y = scene->scale * (p->y + scene->centery);
ARM GAS  /var/folders/cs/83z6p2tj4w57s6p2rt8nwfp00000gn/T//cc3yBana.s 			page 63


 2305              		.loc 1 274 33 view .LVU552
 2306 0310 96ED117A 		vldr.32	s14, [r6, #68]	@ scene_28(D)->centerx, scene_28(D)->centerx
 2307 0314 D3ED006A 		vldr.32	s13, [r3]	@ MEM[base: _221, offset: 0B], MEM[base: _221, offset: 0B]
 2308              	@ mini3d/scene.c:274: 				p->x = scene->scale * (p->x + 1.6666666f * scene->centerx);
 274:mini3d/scene.c **** 				p->y = scene->scale * (p->y + scene->centery);
 2309              		.loc 1 274 17 view .LVU553
 2310 0318 96ED136A 		vldr.32	s12, [r6, #76]	@ _100, scene_28(D)->scale
 2311              	@ mini3d/scene.c:274: 				p->x = scene->scale * (p->x + 1.6666666f * scene->centerx);
 274:mini3d/scene.c **** 				p->y = scene->scale * (p->y + scene->centery);
 2312              		.loc 1 274 33 view .LVU554
 2313 031c E7EE096A 		vfma.f32	s13, s14, s18	@ _104, scene_28(D)->centerx, tmp399
 2314              	@ mini3d/scene.c:275: 				p->y = scene->scale * (p->y + scene->centery);
 275:mini3d/scene.c **** 			}
 2315              		.loc 1 275 33 view .LVU555
 2316 0320 93ED017A 		vldr.32	s14, [r3, #4]	@ MEM[base: _221, offset: 4B], MEM[base: _221, offset: 4B]
 2317 0324 D2E7     		b	.L134		@
 2318              	.LVL136:
 2319              	.L84:
 275:mini3d/scene.c **** 			}
 2320              		.loc 1 275 33 view .LVU556
 2321              	.LBE70:
 2322              	.LBE73:
 2323              	.LBE76:
 2324              	.LBE55:
 316:mini3d/scene.c **** 	{
 2325              		.loc 1 316 2 is_stmt 1 view .LVU557
 2326              	@ mini3d/scene.c:316: 	if ( update )
 316:mini3d/scene.c **** 	{
 2327              		.loc 1 316 5 is_stmt 0 view .LVU558
 2328 0326 4E9B     		ldr	r3, [sp, #312]	@ tmp466, update
 2329 0328 002B     		cmp	r3, #0	@ tmp466
 2330 032a 7FF487AE 		bne	.L85	@
 2331              	.LVL137:
 2332              	.L82:
 2333              	@ mini3d/scene.c:340: }
 340:mini3d/scene.c **** 
 2334              		.loc 1 340 1 view .LVU559
 2335 032e 31B0     		add	sp, sp, #196	@,,
 2336              	.LCFI26:
 2337              		.cfi_remember_state
 2338              		.cfi_def_cfa_offset 68
 2339              		@ sp needed	@
 2340 0330 BDEC068B 		vldm	sp!, {d8-d10}	@,
 2341              	.LCFI27:
 2342              		.cfi_restore 84
 2343              		.cfi_restore 85
 2344              		.cfi_restore 82
 2345              		.cfi_restore 83
 2346              		.cfi_restore 80
 2347              		.cfi_restore 81
 2348              		.cfi_def_cfa_offset 44
 2349 0334 BDE8F04F 		pop	{r4, r5, r6, r7, r8, r9, r10, fp, lr}	@
 2350              	.LCFI28:
 2351              		.cfi_restore 14
 2352              		.cfi_restore 11
 2353              		.cfi_restore 10
 2354              		.cfi_restore 9
ARM GAS  /var/folders/cs/83z6p2tj4w57s6p2rt8nwfp00000gn/T//cc3yBana.s 			page 64


 2355              		.cfi_restore 8
 2356              		.cfi_restore 7
 2357              		.cfi_restore 6
 2358              		.cfi_restore 5
 2359              		.cfi_restore 4
 2360              		.cfi_def_cfa_offset 8
 2361              	.LVL138:
 340:mini3d/scene.c **** 
 2362              		.loc 1 340 1 view .LVU560
 2363 0338 02B0     		add	sp, sp, #8	@,,
 2364              	.LCFI29:
 2365              		.cfi_def_cfa_offset 0
 2366 033a 7047     		bx	lr	@
 2367              	.L140:
 2368              		.align	2
 2369              	.L139:
 2370 033c 5555D53F 		.word	1070945621
 2371 0340 17B7D138 		.word	953267991
 2372 0344 00000000 		.word	m3d_realloc
 2373 0348 00000000 		.word	0
 2374 034c 1668A965 		.word	1705601046
 2375              	.LVL139:
 2376              	.L110:
 2377              	.LCFI30:
 2378              		.cfi_restore_state
 2379              	.LBB79:
 2380              	.LBB77:
 2381              	.LBB74:
 288:mini3d/scene.c **** 	{
 2382              		.loc 1 288 2 is_stmt 1 view .LVU561
 2383              	@ mini3d/scene.c:288: 	if ( ordersize > 0 )
 288:mini3d/scene.c **** 	{
 2384              		.loc 1 288 5 is_stmt 0 view .LVU562
 2385 0350 002F     		cmp	r7, #0	@ ordersize,
 2386 0352 30DD     		ble	.L103		@,
 2387              	.LBB71:
 290:mini3d/scene.c **** 
 2388              		.loc 1 290 3 is_stmt 1 view .LVU563
 2389              	@ mini3d/scene.c:290: 		float d = zmax - zmin + 0.0001f;
 290:mini3d/scene.c **** 
 2390              		.loc 1 290 18 is_stmt 0 view .LVU564
 2391 0354 38EE4A8A 		vsub.f32	s16, s16, s20	@ tmp369, zmax, zmin
 2392              	@ mini3d/scene.c:292: 		for ( i = 0; i < shape->nFaces; ++i )
 292:mini3d/scene.c **** 		{
 2393              		.loc 1 292 3 view .LVU565
 2394 0358 0029     		cmp	r1, #0	@ _79,
 2395              	@ mini3d/scene.c:290: 		float d = zmax - zmin + 0.0001f;
 290:mini3d/scene.c **** 
 2396              		.loc 1 290 9 view .LVU566
 2397 035a 38EE298A 		vadd.f32	s16, s16, s19	@ d, tmp369, tmp401
 2398              	.LVL140:
 292:mini3d/scene.c **** 		{
 2399              		.loc 1 292 3 is_stmt 1 view .LVU567
 292:mini3d/scene.c **** 		{
 2400              		.loc 1 292 16 view .LVU568
 2401              	@ mini3d/scene.c:292: 		for ( i = 0; i < shape->nFaces; ++i )
 292:mini3d/scene.c **** 		{
ARM GAS  /var/folders/cs/83z6p2tj4w57s6p2rt8nwfp00000gn/T//cc3yBana.s 			page 65


 2402              		.loc 1 292 3 is_stmt 0 view .LVU569
 2403 035e 2ADD     		ble	.L103		@,
 2404 0360 07EE907A 		vmov	s15, r7	@ int	@ ordersize, ordersize
 2405              	.LBB60:
 2406              	@ mini3d/scene.c:297: 			face->next = shape->orderTable[idx];
 297:mini3d/scene.c **** 			shape->orderTable[idx] = face;
 2407              		.loc 1 297 22 view .LVU570
 2408 0364 0025     		movs	r5, #0	@ ivtmp.180,
 2409 0366 D4F864C0 		ldr	ip, [r4, #100]	@ _135, shape_179->orderTable
 2410 036a B8EEE77A 		vcvt.f32.s32	s14, s15	@ _255, ordersize
 2411              	.LBE60:
 2412              	@ mini3d/scene.c:292: 		for ( i = 0; i < shape->nFaces; ++i )
 292:mini3d/scene.c **** 		{
 2413              		.loc 1 292 11 view .LVU571
 2414 036e 2F46     		mov	r7, r5	@ i, ivtmp.180
 2415              	.LVL141:
 2416              	.L113:
 2417              	.LBB61:
 294:mini3d/scene.c **** 
 2418              		.loc 1 294 4 is_stmt 1 view .LVU572
 2419              	@ mini3d/scene.c:294: 			FaceInstance* face = &shape->faces[i];
 294:mini3d/scene.c **** 
 2420              		.loc 1 294 18 is_stmt 0 view .LVU573
 2421 0370 A36C     		ldr	r3, [r4, #72]	@ shape_179->faces, shape_179->faces
 2422              	.LBE61:
 2423              	@ mini3d/scene.c:292: 		for ( i = 0; i < shape->nFaces; ++i )
 292:mini3d/scene.c **** 		{
 2424              		.loc 1 292 35 view .LVU574
 2425 0372 0137     		adds	r7, r7, #1	@ i, i,
 2426              	.LVL142:
 2427              	.LBB62:
 2428              	@ mini3d/scene.c:294: 			FaceInstance* face = &shape->faces[i];
 294:mini3d/scene.c **** 
 2429              		.loc 1 294 18 view .LVU575
 2430 0374 5A19     		adds	r2, r3, r5	@ face, shape_179->faces, ivtmp.180
 2431              	.LVL143:
 296:mini3d/scene.c **** 			face->next = shape->orderTable[idx];
 2432              		.loc 1 296 4 is_stmt 1 view .LVU576
 297:mini3d/scene.c **** 			shape->orderTable[idx] = face;
 2433              		.loc 1 297 4 view .LVU577
 2434              	@ mini3d/scene.c:296: 			int idx = ordersize * (face->p1->z + face->p2->z + face->p3->z - zmin) / d
 296:mini3d/scene.c **** 			face->next = shape->orderTable[idx];
 2435              		.loc 1 296 35 is_stmt 0 view .LVU578
 2436 0376 5859     		ldr	r0, [r3, r5]	@ face_121->p1, face_121->p1
 2437              	.LBE62:
 2438              	@ mini3d/scene.c:292: 		for ( i = 0; i < shape->nFaces; ++i )
 292:mini3d/scene.c **** 		{
 2439              		.loc 1 292 3 view .LVU579
 2440 0378 8F42     		cmp	r7, r1	@ i, _79
 2441 037a 05F12405 		add	r5, r5, #36	@ ivtmp.180, ivtmp.180,
 2442              	.LBB63:
 2443              	@ mini3d/scene.c:296: 			int idx = ordersize * (face->p1->z + face->p2->z + face->p3->z - zmin) / d
 296:mini3d/scene.c **** 			face->next = shape->orderTable[idx];
 2444              		.loc 1 296 49 view .LVU580
 2445 037e 5368     		ldr	r3, [r2, #4]	@ face_121->p2, face_121->p2
 2446              	@ mini3d/scene.c:296: 			int idx = ordersize * (face->p1->z + face->p2->z + face->p3->z - zmin) / d
 296:mini3d/scene.c **** 			face->next = shape->orderTable[idx];
ARM GAS  /var/folders/cs/83z6p2tj4w57s6p2rt8nwfp00000gn/T//cc3yBana.s 			page 66


 2447              		.loc 1 296 39 view .LVU581
 2448 0380 D0ED027A 		vldr.32	s15, [r0, #8]	@ _123->z, _123->z
 2449 0384 D3ED026A 		vldr.32	s13, [r3, #8]	@ _125->z, _125->z
 2450              	@ mini3d/scene.c:296: 			int idx = ordersize * (face->p1->z + face->p2->z + face->p3->z - zmin) / d
 296:mini3d/scene.c **** 			face->next = shape->orderTable[idx];
 2451              		.loc 1 296 63 view .LVU582
 2452 0388 9368     		ldr	r3, [r2, #8]	@ face_121->p3, face_121->p3
 2453              	@ mini3d/scene.c:296: 			int idx = ordersize * (face->p1->z + face->p2->z + face->p3->z - zmin) / d
 296:mini3d/scene.c **** 			face->next = shape->orderTable[idx];
 2454              		.loc 1 296 39 view .LVU583
 2455 038a 77EEA67A 		vadd.f32	s15, s15, s13	@ tmp374, _123->z, _125->z
 2456              	@ mini3d/scene.c:296: 			int idx = ordersize * (face->p1->z + face->p2->z + face->p3->z - zmin) / d
 296:mini3d/scene.c **** 			face->next = shape->orderTable[idx];
 2457              		.loc 1 296 53 view .LVU584
 2458 038e D3ED026A 		vldr.32	s13, [r3, #8]	@ _128->z, _128->z
 2459 0392 77EEA67A 		vadd.f32	s15, s15, s13	@ tmp378, tmp374, _128->z
 2460              	@ mini3d/scene.c:296: 			int idx = ordersize * (face->p1->z + face->p2->z + face->p3->z - zmin) / d
 296:mini3d/scene.c **** 			face->next = shape->orderTable[idx];
 2461              		.loc 1 296 67 view .LVU585
 2462 0396 77EECA7A 		vsub.f32	s15, s15, s20	@ tmp380, tmp378, zmin
 2463              	@ mini3d/scene.c:296: 			int idx = ordersize * (face->p1->z + face->p2->z + face->p3->z - zmin) / d
 296:mini3d/scene.c **** 			face->next = shape->orderTable[idx];
 2464              		.loc 1 296 24 view .LVU586
 2465 039a 67EE877A 		vmul.f32	s15, s15, s14	@ tmp381, tmp380, _255
 2466              	@ mini3d/scene.c:296: 			int idx = ordersize * (face->p1->z + face->p2->z + face->p3->z - zmin) / d
 296:mini3d/scene.c **** 			face->next = shape->orderTable[idx];
 2467              		.loc 1 296 75 view .LVU587
 2468 039e C7EE886A 		vdiv.f32	s13, s15, s16	@ tmp382, tmp381, d
 2469              	@ mini3d/scene.c:296: 			int idx = ordersize * (face->p1->z + face->p2->z + face->p3->z - zmin) / d
 296:mini3d/scene.c **** 			face->next = shape->orderTable[idx];
 2470              		.loc 1 296 8 view .LVU588
 2471 03a2 FDEEE67A 		vcvt.s32.f32	s15, s13	@ idx, tmp382
 2472 03a6 17EE903A 		vmov	r3, s15	@ int	@ idx, idx
 2473              	@ mini3d/scene.c:297: 			face->next = shape->orderTable[idx];
 297:mini3d/scene.c **** 			shape->orderTable[idx] = face;
 2474              		.loc 1 297 34 view .LVU589
 2475 03aa 5CF82300 		ldr	r0, [ip, r3, lsl #2]	@ _139, *_138
 2476              	@ mini3d/scene.c:297: 			face->next = shape->orderTable[idx];
 297:mini3d/scene.c **** 			shape->orderTable[idx] = face;
 2477              		.loc 1 297 15 view .LVU590
 2478 03ae 1062     		str	r0, [r2, #32]	@ _139, face_121->next
 298:mini3d/scene.c **** 		}
 2479              		.loc 1 298 4 is_stmt 1 view .LVU591
 2480              	@ mini3d/scene.c:298: 			shape->orderTable[idx] = face;
 298:mini3d/scene.c **** 		}
 2481              		.loc 1 298 27 is_stmt 0 view .LVU592
 2482 03b0 4CF82320 		str	r2, [ip, r3, lsl #2]	@ face, *_138
 2483              	.LBE63:
 292:mini3d/scene.c **** 		{
 2484              		.loc 1 292 35 is_stmt 1 view .LVU593
 2485              	.LVL144:
 292:mini3d/scene.c **** 		{
 2486              		.loc 1 292 16 view .LVU594
 2487              	@ mini3d/scene.c:292: 		for ( i = 0; i < shape->nFaces; ++i )
 292:mini3d/scene.c **** 		{
 2488              		.loc 1 292 3 is_stmt 0 view .LVU595
 2489 03b4 DCD1     		bne	.L113		@,
ARM GAS  /var/folders/cs/83z6p2tj4w57s6p2rt8nwfp00000gn/T//cc3yBana.s 			page 67


 2490              	.LVL145:
 2491              	.L103:
 292:mini3d/scene.c **** 		{
 2492              		.loc 1 292 3 view .LVU596
 2493              	.LBE71:
 2494              	.LBE74:
 2495              	.LBE77:
 330:mini3d/scene.c **** #endif
 2496              		.loc 1 330 4 is_stmt 1 view .LVU597
 2497              	@ mini3d/scene.c:330: 			shape->useZBuffer = node->useZBuffer;
 330:mini3d/scene.c **** #endif
 2498              		.loc 1 330 28 is_stmt 0 view .LVU598
 2499 03b6 1B9B     		ldr	r3, [sp, #108]	@ node, %sfp
 2500              	@ mini3d/scene.c:330: 			shape->useZBuffer = node->useZBuffer;
 330:mini3d/scene.c **** #endif
 2501              		.loc 1 330 22 view .LVU599
 2502 03b8 94F85D20 		ldrb	r2, [r4, #93]	@ zero_extendqisi2	@, shape_179->useZBuffer
 2503              	@ mini3d/scene.c:330: 			shape->useZBuffer = node->useZBuffer;
 330:mini3d/scene.c **** #endif
 2504              		.loc 1 330 28 view .LVU600
 2505 03bc 93F84D30 		ldrb	r3, [r3, #77]	@ zero_extendqisi2	@ *node_20(D), *node_20(D)
 2506 03c0 43F38003 		sbfx	r3, r3, #2, #1	@ tmp365, *node_20(D),,
 2507              	@ mini3d/scene.c:330: 			shape->useZBuffer = node->useZBuffer;
 330:mini3d/scene.c **** #endif
 2508              		.loc 1 330 22 view .LVU601
 2509 03c4 63F34102 		bfi	r2, r3, #1, #1	@ shape_179->useZBuffer, tmp365,,
 2510 03c8 84F85D20 		strb	r2, [r4, #93]	@ shape_179->useZBuffer, shape_179->useZBuffer
 332:mini3d/scene.c **** 		}
 2511              		.loc 1 332 4 is_stmt 1 view .LVU602
 2512              	@ mini3d/scene.c:332: 			shape = shape->next;
 332:mini3d/scene.c **** 		}
 2513              		.loc 1 332 10 is_stmt 0 view .LVU603
 2514 03cc A46B     		ldr	r4, [r4, #56]	@ shape, shape_179->next
 2515              	.LVL146:
 326:mini3d/scene.c **** 		{
 2516              		.loc 1 326 9 is_stmt 1 view .LVU604
 2517 03ce 002C     		cmp	r4, #0	@ shape
 2518 03d0 7FF46CAE 		bne	.L111	@
 2519 03d4 DDF86CA0 		ldr	r10, [sp, #108]	@ node, %sfp
 2520              	.LVL147:
 2521              	.L112:
 337:mini3d/scene.c **** 			Scene3D_updateNode(scene, node->childNodes[i], xform, colorBias, style, update);
 2522              		.loc 1 337 16 view .LVU605
 2523              	@ mini3d/scene.c:337: 		for ( i = 0; i < node->nChildren; ++i )
 337:mini3d/scene.c **** 			Scene3D_updateNode(scene, node->childNodes[i], xform, colorBias, style, update);
 2524              		.loc 1 337 3 is_stmt 0 view .LVU606
 2525 03d8 DAF83830 		ldr	r3, [r10, #56]	@ node_20(D)->nChildren, node_20(D)->nChildren
 2526 03dc 002B     		cmp	r3, #0	@ node_20(D)->nChildren,
 2527 03de A6DD     		ble	.L82		@,
 2528              	@ mini3d/scene.c:337: 		for ( i = 0; i < node->nChildren; ++i )
 337:mini3d/scene.c **** 			Scene3D_updateNode(scene, node->childNodes[i], xform, colorBias, style, update);
 2529              		.loc 1 337 11 view .LVU607
 2530 03e0 0027     		movs	r7, #0	@ i,
 2531 03e2 DDF86480 		ldr	r8, [sp, #100]	@ style, %sfp
 2532 03e6 DDF83891 		ldr	r9, [sp, #312]	@ update, update
 2533              	.LVL148:
 2534              	.L89:
ARM GAS  /var/folders/cs/83z6p2tj4w57s6p2rt8nwfp00000gn/T//cc3yBana.s 			page 68


 338:mini3d/scene.c **** 	}
 2535              		.loc 1 338 4 is_stmt 1 discriminator 3 view .LVU608
 2536 03ea DAF83C30 		ldr	r3, [r10, #60]	@ node_20(D)->childNodes, node_20(D)->childNodes
 2537 03ee 42AD     		add	r5, sp, #264	@ tmp484,,
 2538 03f0 6C46     		mov	r4, sp	@ tmp387,
 2539 03f2 B0EE680A 		vmov.f32	s0, s17	@, colorBias
 2540 03f6 53F827C0 		ldr	ip, [r3, r7, lsl #2]	@ *_10, *_10
 2541              	@ mini3d/scene.c:337: 		for ( i = 0; i < node->nChildren; ++i )
 337:mini3d/scene.c **** 			Scene3D_updateNode(scene, node->childNodes[i], xform, colorBias, style, update);
 2542              		.loc 1 337 37 is_stmt 0 discriminator 3 view .LVU609
 2543 03fa 0137     		adds	r7, r7, #1	@ i, i,
 2544              	.LVL149:
 2545              	@ mini3d/scene.c:338: 			Scene3D_updateNode(scene, node->childNodes[i], xform, colorBias, style, up
 338:mini3d/scene.c **** 	}
 2546              		.loc 1 338 4 discriminator 3 view .LVU610
 2547 03fc CDE90B89 		strd	r8, r9, [sp, #44]	@ style, update,,
 2548 0400 0FCD     		ldmia	r5!, {r0, r1, r2, r3}	@ tmp388,,,,
 2549 0402 0FC4     		stmia	r4!, {r0, r1, r2, r3}	@ tmp387,,,,
 2550 0404 0FCD     		ldmia	r5!, {r0, r1, r2, r3}	@ tmp388,,,,
 2551 0406 0FC4     		stmia	r4!, {r0, r1, r2, r3}	@ tmp387,,,,
 2552 0408 40AB     		add	r3, sp, #256	@ tmp485,,
 2553 040a 95E80700 		ldm	r5, {r0, r1, r2}	@ tmp388,,,
 2554 040e 84E80700 		stm	r4, {r0, r1, r2}	@ tmp387,,,
 2555 0412 6146     		mov	r1, ip	@, *_10
 2556 0414 3046     		mov	r0, r6	@, scene
 2557 0416 0CCB     		ldm	r3, {r2, r3}	@ tmp485,,
 2558 0418 FFF7FEFF 		bl	Scene3D_updateNode		@
 2559              	.LVL150:
 337:mini3d/scene.c **** 			Scene3D_updateNode(scene, node->childNodes[i], xform, colorBias, style, update);
 2560              		.loc 1 337 37 is_stmt 1 discriminator 3 view .LVU611
 337:mini3d/scene.c **** 			Scene3D_updateNode(scene, node->childNodes[i], xform, colorBias, style, update);
 2561              		.loc 1 337 16 discriminator 3 view .LVU612
 2562              	@ mini3d/scene.c:337: 		for ( i = 0; i < node->nChildren; ++i )
 337:mini3d/scene.c **** 			Scene3D_updateNode(scene, node->childNodes[i], xform, colorBias, style, update);
 2563              		.loc 1 337 3 is_stmt 0 discriminator 3 view .LVU613
 2564 041c DAF83830 		ldr	r3, [r10, #56]	@ node_20(D)->nChildren, node_20(D)->nChildren
 2565 0420 BB42     		cmp	r3, r7	@ node_20(D)->nChildren, i
 2566 0422 E2DC     		bgt	.L89		@,
 2567 0424 83E7     		b	.L82		@
 2568              	.LVL151:
 2569              	.L136:
 2570              	.LBB78:
 2571              	.LBB75:
 2572              	@ mini3d/scene.c:238: 	memset(shape->orderTable, 0, ordersize * sizeof(FaceInstance*));
 238:mini3d/scene.c **** #endif
 2573              		.loc 1 238 2 view .LVU614
 2574 0426 0021     		movs	r1, #0	@,
 2575 0428 BA00     		lsls	r2, r7, #2	@ _55, ordersize,
 2576 042a 606E     		ldr	r0, [r4, #100]	@ _56, shape_179->orderTable
 238:mini3d/scene.c **** #endif
 2577              		.loc 1 238 2 is_stmt 1 view .LVU615
 2578 042c FFF7FEFF 		bl	memset		@
 2579              	.LVL152:
 243:mini3d/scene.c **** 	{
 2580              		.loc 1 243 2 view .LVU616
 243:mini3d/scene.c **** 	{
 2581              		.loc 1 243 15 view .LVU617
ARM GAS  /var/folders/cs/83z6p2tj4w57s6p2rt8nwfp00000gn/T//cc3yBana.s 			page 69


 2582              	@ mini3d/scene.c:243: 	for ( i = 0; i < shape->nFaces; ++i )
 243:mini3d/scene.c **** 	{
 2583              		.loc 1 243 24 is_stmt 0 view .LVU618
 2584 0430 616C     		ldr	r1, [r4, #68]	@ _79, shape_179->nFaces
 2585              	@ mini3d/scene.c:243: 	for ( i = 0; i < shape->nFaces; ++i )
 243:mini3d/scene.c **** 	{
 2586              		.loc 1 243 2 view .LVU619
 2587 0432 0029     		cmp	r1, #0	@ _79,
 2588 0434 3FF7F8AE 		bgt	.L138		@,
 2589              	.L116:
 2590              	@ mini3d/scene.c:229: 	float zmax = 0;
 229:mini3d/scene.c **** 	int ordersize = shape->prototype->orderTableSize;
 2591              		.loc 1 229 8 view .LVU620
 2592 0438 1FED3D8A 		vldr.32	s16, .L139+12	@ zmax,
 2593              	@ mini3d/scene.c:228: 	float zmin = 1e23f;
 228:mini3d/scene.c **** 	float zmax = 0;
 2594              		.loc 1 228 8 view .LVU621
 2595 043c 1FED3DAA 		vldr.32	s20, .L139+16	@ zmin,
 2596 0440 2DE7     		b	.L95		@
 2597              	.LVL153:
 2598              	.L135:
 228:mini3d/scene.c **** 	float zmax = 0;
 2599              		.loc 1 228 8 view .LVU622
 2600 0442 04F11405 		add	r5, r4, #20	@ tmp393, shape,
 2601 0446 271D     		adds	r7, r4, #4	@ tmp392, shape,
 2602 0448 96E6     		b	.L93		@
 2603              	.LBE75:
 2604              	.LBE78:
 2605              	.LBE79:
 2606              		.cfi_endproc
 2607              	.LFE26:
 2608              		.size	Scene3D_updateNode, .-Scene3D_updateNode
 2609 044a 00BF     		.section	.text.Scene3D_deinit,"ax",%progbits
 2610              		.align	1
 2611              		.p2align 4,,15
 2612              		.global	Scene3D_deinit
 2613              		.syntax unified
 2614              		.thumb
 2615              		.thumb_func
 2616              		.fpu fpv5-sp-d16
 2617              		.type	Scene3D_deinit, %function
 2618              	Scene3D_deinit:
 2619              	.LVL154:
 2620              	.LFB28:
 361:mini3d/scene.c **** 	if ( scene->shapelist != NULL )
 2621              		.loc 1 361 1 is_stmt 1 view -0
 2622              		.cfi_startproc
 2623              		@ args = 0, pretend = 0, frame = 0
 2624              		@ frame_needed = 0, uses_anonymous_args = 0
 362:mini3d/scene.c **** 		m3d_free(scene->shapelist);
 2625              		.loc 1 362 2 view .LVU624
 2626              	@ mini3d/scene.c:361: {
 361:mini3d/scene.c **** 	if ( scene->shapelist != NULL )
 2627              		.loc 1 361 1 is_stmt 0 view .LVU625
 2628 0000 10B5     		push	{r4, lr}	@
 2629              	.LCFI31:
 2630              		.cfi_def_cfa_offset 8
ARM GAS  /var/folders/cs/83z6p2tj4w57s6p2rt8nwfp00000gn/T//cc3yBana.s 			page 70


 2631              		.cfi_offset 4, -8
 2632              		.cfi_offset 14, -4
 2633              	@ mini3d/scene.c:361: {
 361:mini3d/scene.c **** 	if ( scene->shapelist != NULL )
 2634              		.loc 1 361 1 view .LVU626
 2635 0002 0446     		mov	r4, r0	@ scene, tmp117
 2636              	@ mini3d/scene.c:362: 	if ( scene->shapelist != NULL )
 362:mini3d/scene.c **** 		m3d_free(scene->shapelist);
 2637              		.loc 1 362 12 view .LVU627
 2638 0004 D0F8A400 		ldr	r0, [r0, #164]	@ _1, scene_6(D)->shapelist
 2639              	.LVL155:
 2640              	@ mini3d/scene.c:362: 	if ( scene->shapelist != NULL )
 362:mini3d/scene.c **** 		m3d_free(scene->shapelist);
 2641              		.loc 1 362 5 view .LVU628
 2642 0008 18B1     		cbz	r0, .L142	@ _1,
 363:mini3d/scene.c **** 
 2643              		.loc 1 363 3 is_stmt 1 view .LVU629
 2644 000a 054B     		ldr	r3, .L147	@ tmp114,
 2645 000c 0021     		movs	r1, #0	@,
 2646 000e 1B68     		ldr	r3, [r3]	@ m3d_realloc, m3d_realloc
 2647 0010 9847     		blx	r3		@ m3d_realloc
 2648              	.LVL156:
 2649              	.L142:
 365:mini3d/scene.c **** }
 2650              		.loc 1 365 2 view .LVU630
 2651 0012 04F15000 		add	r0, r4, #80	@, scene,
 2652              	@ mini3d/scene.c:366: }
 366:mini3d/scene.c **** 
 2653              		.loc 1 366 1 is_stmt 0 view .LVU631
 2654 0016 BDE81040 		pop	{r4, lr}	@
 2655              	.LCFI32:
 2656              		.cfi_restore 14
 2657              		.cfi_restore 4
 2658              		.cfi_def_cfa_offset 0
 2659              	.LVL157:
 2660              	@ mini3d/scene.c:365: 	Scene3DNode_deinit(&scene->root);
 365:mini3d/scene.c **** }
 2661              		.loc 1 365 2 view .LVU632
 2662 001a FFF7FEBF 		b	Scene3DNode_deinit		@
 2663              	.LVL158:
 2664              	.L148:
 365:mini3d/scene.c **** }
 2665              		.loc 1 365 2 view .LVU633
 2666 001e 00BF     		.align	2
 2667              	.L147:
 2668 0020 00000000 		.word	m3d_realloc
 2669              		.cfi_endproc
 2670              	.LFE28:
 2671              		.size	Scene3D_deinit, .-Scene3D_deinit
 2672              		.section	.text.Scene3D_setGlobalLight,"ax",%progbits
 2673              		.align	1
 2674              		.p2align 4,,15
 2675              		.global	Scene3D_setGlobalLight
 2676              		.syntax unified
 2677              		.thumb
 2678              		.thumb_func
 2679              		.fpu fpv5-sp-d16
ARM GAS  /var/folders/cs/83z6p2tj4w57s6p2rt8nwfp00000gn/T//cc3yBana.s 			page 71


 2680              		.type	Scene3D_setGlobalLight, %function
 2681              	Scene3D_setGlobalLight:
 2682              	.LVL159:
 2683              	.LFB29:
 370:mini3d/scene.c **** 	scene->light = light;
 2684              		.loc 1 370 1 is_stmt 1 view -0
 2685              		.cfi_startproc
 2686              		@ args = 0, pretend = 0, frame = 16
 2687              		@ frame_needed = 0, uses_anonymous_args = 0
 2688              		@ link register save eliminated.
 371:mini3d/scene.c **** }
 2689              		.loc 1 371 2 view .LVU635
 2690              	@ mini3d/scene.c:370: {
 370:mini3d/scene.c **** 	scene->light = light;
 2691              		.loc 1 370 1 is_stmt 0 view .LVU636
 2692 0000 84B0     		sub	sp, sp, #16	@,,
 2693              	.LCFI33:
 2694              		.cfi_def_cfa_offset 16
 2695              	@ mini3d/scene.c:371: 	scene->light = light;
 371:mini3d/scene.c **** }
 2696              		.loc 1 371 15 view .LVU637
 2697 0002 00F13803 		add	r3, r0, #56	@ tmp114, tmp116,
 2698 0006 04AA     		add	r2, sp, #16	@ tmp120,,
 2699              	@ mini3d/scene.c:370: {
 370:mini3d/scene.c **** 	scene->light = light;
 2700              		.loc 1 370 1 view .LVU638
 2701 0008 8DED010A 		vstr.32	s0, [sp, #4]	@ tmp117, light
 2702 000c CDED020A 		vstr.32	s1, [sp, #8]	@ tmp118, light
 2703 0010 8DED031A 		vstr.32	s2, [sp, #12]	@ tmp119, light
 2704              	@ mini3d/scene.c:371: 	scene->light = light;
 371:mini3d/scene.c **** }
 2705              		.loc 1 371 15 view .LVU639
 2706 0014 12E90700 		ldmdb	r2, {r0, r1, r2}	@ tmp120,,,
 2707              	.LVL160:
 371:mini3d/scene.c **** }
 2708              		.loc 1 371 15 view .LVU640
 2709 0018 83E80700 		stm	r3, {r0, r1, r2}	@ tmp114,,,
 2710              	@ mini3d/scene.c:372: }
 372:mini3d/scene.c **** 
 2711              		.loc 1 372 1 view .LVU641
 2712 001c 04B0     		add	sp, sp, #16	@,,
 2713              	.LCFI34:
 2714              		.cfi_def_cfa_offset 0
 2715              		@ sp needed	@
 2716 001e 7047     		bx	lr	@
 2717              		.cfi_endproc
 2718              	.LFE29:
 2719              		.size	Scene3D_setGlobalLight, .-Scene3D_setGlobalLight
 2720              		.section	.text.Scene3D_setCenter,"ax",%progbits
 2721              		.align	1
 2722              		.p2align 4,,15
 2723              		.global	Scene3D_setCenter
 2724              		.syntax unified
 2725              		.thumb
 2726              		.thumb_func
 2727              		.fpu fpv5-sp-d16
 2728              		.type	Scene3D_setCenter, %function
ARM GAS  /var/folders/cs/83z6p2tj4w57s6p2rt8nwfp00000gn/T//cc3yBana.s 			page 72


 2729              	Scene3D_setCenter:
 2730              	.LVL161:
 2731              	.LFB30:
 376:mini3d/scene.c **** 	scene->centerx = x;
 2732              		.loc 1 376 1 is_stmt 1 view -0
 2733              		.cfi_startproc
 2734              		@ args = 0, pretend = 0, frame = 0
 2735              		@ frame_needed = 0, uses_anonymous_args = 0
 2736              		@ link register save eliminated.
 377:mini3d/scene.c **** 	scene->centery = y;
 2737              		.loc 1 377 2 view .LVU643
 2738              	@ mini3d/scene.c:377: 	scene->centerx = x;
 377:mini3d/scene.c **** 	scene->centery = y;
 2739              		.loc 1 377 17 is_stmt 0 view .LVU644
 2740 0000 80ED110A 		vstr.32	s0, [r0, #68]	@ tmp114, scene_2(D)->centerx
 378:mini3d/scene.c **** }
 2741              		.loc 1 378 2 is_stmt 1 view .LVU645
 2742              	@ mini3d/scene.c:378: 	scene->centery = y;
 378:mini3d/scene.c **** }
 2743              		.loc 1 378 17 is_stmt 0 view .LVU646
 2744 0004 C0ED120A 		vstr.32	s1, [r0, #72]	@ tmp115, scene_2(D)->centery
 2745              	@ mini3d/scene.c:379: }
 379:mini3d/scene.c **** 
 2746              		.loc 1 379 1 view .LVU647
 2747 0008 7047     		bx	lr	@
 2748              		.cfi_endproc
 2749              	.LFE30:
 2750              		.size	Scene3D_setCenter, .-Scene3D_setCenter
 2751 000a 00BF     		.section	.text.Scene3D_getRootNode,"ax",%progbits
 2752              		.align	1
 2753              		.p2align 4,,15
 2754              		.global	Scene3D_getRootNode
 2755              		.syntax unified
 2756              		.thumb
 2757              		.thumb_func
 2758              		.fpu fpv5-sp-d16
 2759              		.type	Scene3D_getRootNode, %function
 2760              	Scene3D_getRootNode:
 2761              	.LVL162:
 2762              	.LFB31:
 383:mini3d/scene.c **** 	return &scene->root;
 2763              		.loc 1 383 1 is_stmt 1 view -0
 2764              		.cfi_startproc
 2765              		@ args = 0, pretend = 0, frame = 0
 2766              		@ frame_needed = 0, uses_anonymous_args = 0
 2767              		@ link register save eliminated.
 384:mini3d/scene.c **** }
 2768              		.loc 1 384 2 view .LVU649
 2769              	@ mini3d/scene.c:385: }
 385:mini3d/scene.c **** 
 2770              		.loc 1 385 1 is_stmt 0 view .LVU650
 2771 0000 5030     		adds	r0, r0, #80	@, tmp113,
 2772              	.LVL163:
 385:mini3d/scene.c **** 
 2773              		.loc 1 385 1 view .LVU651
 2774 0002 7047     		bx	lr	@
 2775              		.cfi_endproc
ARM GAS  /var/folders/cs/83z6p2tj4w57s6p2rt8nwfp00000gn/T//cc3yBana.s 			page 73


 2776              	.LFE31:
 2777              		.size	Scene3D_getRootNode, .-Scene3D_getRootNode
 2778              		.section	.text.Scene3D_setCamera,"ax",%progbits
 2779              		.align	1
 2780              		.p2align 4,,15
 2781              		.global	Scene3D_setCamera
 2782              		.syntax unified
 2783              		.thumb
 2784              		.thumb_func
 2785              		.fpu fpv5-sp-d16
 2786              		.type	Scene3D_setCamera, %function
 2787              	Scene3D_setCamera:
 2788              	.LVL164:
 2789              	.LFB33:
 423:mini3d/scene.c **** 	Matrix3D camera = identityMatrix;
 2790              		.loc 1 423 1 is_stmt 1 view -0
 2791              		.cfi_startproc
 2792              		@ args = 0, pretend = 0, frame = 256
 2793              		@ frame_needed = 0, uses_anonymous_args = 0
 2794              	@ mini3d/scene.c:431: 	Vector3D dir = Vector3DMake(lookAt.x - origin.x, lookAt.y - origin.y, lookAt
 431:mini3d/scene.c **** 	
 2795              		.loc 1 431 17 is_stmt 0 view .LVU653
 2796 0000 32EE606A 		vsub.f32	s12, s4, s1	@ _7, lookAt, origin
 2797              	.LVL165:
 2798              	@ mini3d/scene.c:439: 	scene->scale = 240 * scale;
 439:mini3d/scene.c **** 
 2799              		.loc 1 439 21 view .LVU654
 2800 0004 9FEDAE5A 		vldr.32	s10, .L163	@ tmp175,
 2801              	@ mini3d/scene.c:431: 	Vector3D dir = Vector3DMake(lookAt.x - origin.x, lookAt.y - origin.y, lookAt
 431:mini3d/scene.c **** 	
 2802              		.loc 1 431 17 view .LVU655
 2803 0008 71EEC05A 		vsub.f32	s11, s3, s0	@ _5, lookAt, origin
 2804 000c 72EEC16A 		vsub.f32	s13, s5, s2	@ _9, lookAt, origin
 2805              	.LBB80:
 2806              	.LBB81:
 2807              	@ mini3d/3dmath.h:69: 	return v->dx * v->dx + v->dy * v->dy + v->dz * v->dz;
 2808              		.file 2 "mini3d/3dmath.h"
   1:mini3d/3dmath.h **** //
   2:mini3d/3dmath.h **** //  pd3d.h
   3:mini3d/3dmath.h **** //  Playdate Simulator
   4:mini3d/3dmath.h **** //
   5:mini3d/3dmath.h **** //  Created by Dave Hayden on 8/25/15.
   6:mini3d/3dmath.h **** //  Copyright (c) 2015 Panic, Inc. All rights reserved.
   7:mini3d/3dmath.h **** //
   8:mini3d/3dmath.h **** 
   9:mini3d/3dmath.h **** #ifndef __Playdate_Simulator__pd3d__
  10:mini3d/3dmath.h **** #define __Playdate_Simulator__pd3d__
  11:mini3d/3dmath.h **** 
  12:mini3d/3dmath.h **** #include <stdio.h>
  13:mini3d/3dmath.h **** #include <stdint.h>
  14:mini3d/3dmath.h **** #include <math.h>
  15:mini3d/3dmath.h **** 
  16:mini3d/3dmath.h **** #if TARGET_PLAYDATE
  17:mini3d/3dmath.h **** static inline float _lib3d_sqrtf(float x)
  18:mini3d/3dmath.h **** {
  19:mini3d/3dmath.h **** 	float result;
  20:mini3d/3dmath.h **** 	asm ("vsqrt.f32 %0, %1" : "=t"(result) : "t"(x));
ARM GAS  /var/folders/cs/83z6p2tj4w57s6p2rt8nwfp00000gn/T//cc3yBana.s 			page 74


  21:mini3d/3dmath.h **** 	return result;
  22:mini3d/3dmath.h **** }
  23:mini3d/3dmath.h **** #define sqrtf(f) _lib3d_sqrtf(f)
  24:mini3d/3dmath.h **** #endif
  25:mini3d/3dmath.h **** 
  26:mini3d/3dmath.h **** typedef struct
  27:mini3d/3dmath.h **** {
  28:mini3d/3dmath.h **** 	float x;
  29:mini3d/3dmath.h **** 	float y;
  30:mini3d/3dmath.h **** 	float z;
  31:mini3d/3dmath.h **** } Point3D;
  32:mini3d/3dmath.h **** 
  33:mini3d/3dmath.h **** static inline Point3D Point3DMake(float x, float y, float z)
  34:mini3d/3dmath.h **** {
  35:mini3d/3dmath.h **** 	return (Point3D){ .x = x, .y = y, .z = z };
  36:mini3d/3dmath.h **** }
  37:mini3d/3dmath.h **** 
  38:mini3d/3dmath.h **** static inline int Point3D_equals(Point3D a, Point3D b)
  39:mini3d/3dmath.h **** {
  40:mini3d/3dmath.h **** 	return (a.x == b.x) && (a.y == b.y) && (a.z == b.z);
  41:mini3d/3dmath.h **** }
  42:mini3d/3dmath.h **** 
  43:mini3d/3dmath.h **** typedef struct
  44:mini3d/3dmath.h **** {
  45:mini3d/3dmath.h **** 	float dx;
  46:mini3d/3dmath.h **** 	float dy;
  47:mini3d/3dmath.h **** 	float dz;
  48:mini3d/3dmath.h **** } Vector3D;
  49:mini3d/3dmath.h **** 
  50:mini3d/3dmath.h **** static inline Vector3D Vector3DMake(float dx, float dy, float dz)
  51:mini3d/3dmath.h **** {
  52:mini3d/3dmath.h **** 	return (Vector3D){ .dx = dx, .dy = dy, .dz = dz };
  53:mini3d/3dmath.h **** }
  54:mini3d/3dmath.h **** 
  55:mini3d/3dmath.h **** static inline Vector3D Vector3DCross(Vector3D a, Vector3D b)
  56:mini3d/3dmath.h **** {
  57:mini3d/3dmath.h **** 	return (Vector3D){ .dx = a.dy * b.dz - a.dz * b.dy, .dy = a.dz * b.dx - a.dx * b.dz, .dz = a.dx * 
  58:mini3d/3dmath.h **** }
  59:mini3d/3dmath.h **** 
  60:mini3d/3dmath.h **** static inline float Vector3DDot(Vector3D a, Vector3D b)
  61:mini3d/3dmath.h **** {
  62:mini3d/3dmath.h **** 	return a.dx * b.dx + a.dy * b.dy + a.dz * b.dz;
  63:mini3d/3dmath.h **** }
  64:mini3d/3dmath.h **** 
  65:mini3d/3dmath.h **** Vector3D pnormal(Point3D* p1, Point3D* p2, Point3D* p3);
  66:mini3d/3dmath.h **** 
  67:mini3d/3dmath.h **** static inline float Vector3D_lengthSquared(Vector3D* v)
  68:mini3d/3dmath.h **** {
  69:mini3d/3dmath.h **** 	return v->dx * v->dx + v->dy * v->dy + v->dz * v->dz;
 2809              		.loc 2 69 31 view .LVU656
 2810 0010 66EE067A 		vmul.f32	s15, s12, s12	@ tmp172, _7, _7
 2811              	.LVL166:
 2812              		.loc 2 69 31 view .LVU657
 2813              	.LBE81:
 2814              	.LBE80:
 2815              	@ mini3d/scene.c:439: 	scene->scale = 240 * scale;
 439:mini3d/scene.c **** 
ARM GAS  /var/folders/cs/83z6p2tj4w57s6p2rt8nwfp00000gn/T//cc3yBana.s 			page 75


 2816              		.loc 1 439 21 view .LVU658
 2817 0014 23EE053A 		vmul.f32	s6, s6, s10	@ tmp174, tmp271, tmp175
 2818              	.LVL167:
 2819              	.LBB85:
 2820              	.LBB82:
 2821              	@ mini3d/3dmath.h:69: 	return v->dx * v->dx + v->dy * v->dy + v->dz * v->dz;
 2822              		.loc 2 69 23 view .LVU659
 2823 0018 E5EEA57A 		vfma.f32	s15, s11, s11	@ _57, _5, _5
 2824              	.LBE82:
 2825              	.LBE85:
 2826              	@ mini3d/scene.c:423: {
 423:mini3d/scene.c **** 	Matrix3D camera = identityMatrix;
 2827              		.loc 1 423 1 view .LVU660
 2828 001c 2DE9F04F 		push	{r4, r5, r6, r7, r8, r9, r10, fp, lr}	@
 2829              	.LCFI35:
 2830              		.cfi_def_cfa_offset 36
 2831              		.cfi_offset 4, -36
 2832              		.cfi_offset 5, -32
 2833              		.cfi_offset 6, -28
 2834              		.cfi_offset 7, -24
 2835              		.cfi_offset 8, -20
 2836              		.cfi_offset 9, -16
 2837              		.cfi_offset 10, -12
 2838              		.cfi_offset 11, -8
 2839              		.cfi_offset 14, -4
 2840 0020 2DED088B 		vpush.64	{d8, d9, d10, d11}	@
 2841              	.LCFI36:
 2842              		.cfi_def_cfa_offset 68
 2843              		.cfi_offset 80, -68
 2844              		.cfi_offset 81, -64
 2845              		.cfi_offset 82, -60
 2846              		.cfi_offset 83, -56
 2847              		.cfi_offset 84, -52
 2848              		.cfi_offset 85, -48
 2849              		.cfi_offset 86, -44
 2850              		.cfi_offset 87, -40
 2851 0024 D9B0     		sub	sp, sp, #356	@,,
 2852              	.LCFI37:
 2853              		.cfi_def_cfa_offset 424
 2854              	@ mini3d/scene.c:424: 	Matrix3D camera = identityMatrix;
 424:mini3d/scene.c **** 	camera.isIdentity = 0;
 2855              		.loc 1 424 11 view .LVU661
 2856 0026 A74D     		ldr	r5, .L163+4	@ tmp167,
 2857              	.LBB86:
 2858              	.LBB83:
 2859              	@ mini3d/3dmath.h:69: 	return v->dx * v->dx + v->dy * v->dy + v->dz * v->dz;
 2860              		.loc 2 69 39 view .LVU662
 2861 0028 E6EEA67A 		vfma.f32	s15, s13, s13	@ _59, _9, _9
 2862              	.LBE83:
 2863              	.LBE86:
 2864              	@ mini3d/scene.c:423: {
 423:mini3d/scene.c **** 	Matrix3D camera = identityMatrix;
 2865              		.loc 1 423 1 view .LVU663
 2866 002c 0746     		mov	r7, r0	@ scene, tmp264
 2867              	.LBB87:
 2868              	.LBB88:
 2869              	@ mini3d/3dmath.h:20: 	asm ("vsqrt.f32 %0, %1" : "=t"(result) : "t"(x));
ARM GAS  /var/folders/cs/83z6p2tj4w57s6p2rt8nwfp00000gn/T//cc3yBana.s 			page 76


  20:mini3d/3dmath.h **** 	return result;
 2870              		.loc 2 20 2 view .LVU664
 2871              		.syntax unified
 2872              	@ 20 "mini3d/3dmath.h" 1
 2873 002e F1EEE77A 		vsqrt.f32 s15, s15	@ result, _59
 2874              	@ 0 "" 2
 2875              		.thumb
 2876              		.syntax unified
 2877              	.LBE88:
 2878              	.LBE87:
 2879              	@ mini3d/scene.c:435: 	dir.dx /= l;
 435:mini3d/scene.c **** 	dir.dy /= l;
 2880              		.loc 1 435 9 view .LVU665
 2881 0032 85EEA77A 		vdiv.f32	s14, s11, s15	@ _11, _5, result
 2882              	@ mini3d/scene.c:424: 	Matrix3D camera = identityMatrix;
 424:mini3d/scene.c **** 	camera.isIdentity = 0;
 2883              		.loc 1 424 11 view .LVU666
 2884 0036 31AE     		add	r6, sp, #196	@ tmp261,,
 2885              	@ mini3d/scene.c:423: {
 423:mini3d/scene.c **** 	Matrix3D camera = identityMatrix;
 2886              		.loc 1 423 1 view .LVU667
 2887 0038 CDED2E0A 		vstr.32	s1, [sp, #184]	@ origin, origin
 2888              	@ mini3d/scene.c:424: 	Matrix3D camera = identityMatrix;
 424:mini3d/scene.c **** 	camera.isIdentity = 0;
 2889              		.loc 1 424 11 view .LVU668
 2890 003c 3446     		mov	r4, r6	@ tmp166, tmp261
 2891              	@ mini3d/scene.c:423: {
 423:mini3d/scene.c **** 	Matrix3D camera = identityMatrix;
 2892              		.loc 1 423 1 view .LVU669
 2893 003e 8DED2B2A 		vstr.32	s4, [sp, #172]	@ lookAt, lookAt
 2894 0042 8DED2D0A 		vstr.32	s0, [sp, #180]	@ origin, origin
 2895 0046 CDED2A1A 		vstr.32	s3, [sp, #168]	@ lookAt, lookAt
 2896 004a 8DED2F1A 		vstr.32	s2, [sp, #188]	@ origin, origin
 2897              	@ mini3d/scene.c:436: 	dir.dy /= l;
 436:mini3d/scene.c **** 	dir.dz /= l;
 2898              		.loc 1 436 9 view .LVU670
 2899 004e 86EE27BA 		vdiv.f32	s22, s12, s15	@ _12, _7, result
 2900              	@ mini3d/scene.c:423: {
 423:mini3d/scene.c **** 	Matrix3D camera = identityMatrix;
 2901              		.loc 1 423 1 view .LVU671
 2902 0052 CDED2C2A 		vstr.32	s5, [sp, #176]	@ lookAt, lookAt
 2903 0056 CDED273A 		vstr.32	s7, [sp, #156]	@ up, up
 2904 005a 8DED284A 		vstr.32	s8, [sp, #160]	@ up, up
 2905 005e CDED294A 		vstr.32	s9, [sp, #164]	@ tmp274, up
 2906              	@ mini3d/scene.c:437: 	dir.dz /= l;
 437:mini3d/scene.c **** 	
 2907              		.loc 1 437 9 view .LVU672
 2908 0062 86EEA76A 		vdiv.f32	s12, s13, s15	@ _13, _9, result
 2909              	@ mini3d/scene.c:423: {
 423:mini3d/scene.c **** 	Matrix3D camera = identityMatrix;
 2910              		.loc 1 423 1 view .LVU673
 2911 0066 B0EE63AA 		vmov.f32	s20, s7	@ up, tmp272
 2912              	.LVL168:
 2913              	@ mini3d/scene.c:445: 	if ( dir.dx != 0 || dir.dz != 0 )
 445:mini3d/scene.c **** 	{
 2914              		.loc 1 445 19 view .LVU674
 2915 006a B5EE407A 		vcmp.f32	s14, #0	@ _11
ARM GAS  /var/folders/cs/83z6p2tj4w57s6p2rt8nwfp00000gn/T//cc3yBana.s 			page 77


 2916              	@ mini3d/scene.c:428: 	camera.dy = -origin.y;
 428:mini3d/scene.c **** 	camera.dz = -origin.z;
 2917              		.loc 1 428 14 view .LVU675
 2918 006e F1EE609A 		vneg.f32	s19, s1	@ camera$44, origin
 2919              	@ mini3d/scene.c:423: {
 423:mini3d/scene.c **** 	Matrix3D camera = identityMatrix;
 2920              		.loc 1 423 1 view .LVU676
 2921 0072 F0EE44AA 		vmov.f32	s21, s8	@ up, tmp273
 2922              	.LVL169:
 424:mini3d/scene.c **** 	camera.isIdentity = 0;
 2923              		.loc 1 424 2 is_stmt 1 view .LVU677
 2924              	@ mini3d/scene.c:445: 	if ( dir.dx != 0 || dir.dz != 0 )
 445:mini3d/scene.c **** 	{
 2925              		.loc 1 445 19 is_stmt 0 view .LVU678
 2926 0076 F1EE10FA 		vmrs	APSR_nzcv, FPSCR
 2927              	@ mini3d/scene.c:427: 	camera.dx = -origin.x;
 427:mini3d/scene.c **** 	camera.dy = -origin.y;
 2928              		.loc 1 427 14 view .LVU679
 2929 007a B1EE409A 		vneg.f32	s18, s0	@ camera$40, origin
 2930              	@ mini3d/scene.c:429: 	camera.dz = -origin.z;
 429:mini3d/scene.c **** 
 2931              		.loc 1 429 14 view .LVU680
 2932 007e B1EE418A 		vneg.f32	s16, s2	@ camera$48, origin
 2933              	@ mini3d/scene.c:424: 	Matrix3D camera = identityMatrix;
 424:mini3d/scene.c **** 	camera.isIdentity = 0;
 2934              		.loc 1 424 11 view .LVU681
 2935 0082 0FCD     		ldmia	r5!, {r0, r1, r2, r3}	@ tmp167,,,,
 2936              	.LVL170:
 424:mini3d/scene.c **** 	camera.isIdentity = 0;
 2937              		.loc 1 424 11 view .LVU682
 2938 0084 0FC4     		stmia	r4!, {r0, r1, r2, r3}	@ tmp166,,,,
 2939 0086 0FCD     		ldmia	r5!, {r0, r1, r2, r3}	@ tmp167,,,,
 2940 0088 0FC4     		stmia	r4!, {r0, r1, r2, r3}	@ tmp166,,,,
 2941 008a 0FCD     		ldmia	r5!, {r0, r1, r2, r3}	@ tmp167,,,,
 2942 008c 0FC4     		stmia	r4!, {r0, r1, r2, r3}	@ tmp166,,,,
 2943 008e 2B68     		ldr	r3, [r5]	@ identityMatrix, identityMatrix
 2944              	@ mini3d/scene.c:439: 	scene->scale = 240 * scale;
 439:mini3d/scene.c **** 
 2945              		.loc 1 439 15 view .LVU683
 2946 0090 87ED133A 		vstr.32	s6, [r7, #76]	@ tmp174, scene_38(D)->scale
 2947              	@ mini3d/scene.c:424: 	Matrix3D camera = identityMatrix;
 424:mini3d/scene.c **** 	camera.isIdentity = 0;
 2948              		.loc 1 424 11 view .LVU684
 2949 0094 2360     		str	r3, [r4]	@ identityMatrix, camera
 2950              	.LVL171:
 425:mini3d/scene.c **** 	
 2951              		.loc 1 425 2 is_stmt 1 view .LVU685
 427:mini3d/scene.c **** 	camera.dy = -origin.y;
 2952              		.loc 1 427 2 view .LVU686
 428:mini3d/scene.c **** 	camera.dz = -origin.z;
 2953              		.loc 1 428 2 view .LVU687
 429:mini3d/scene.c **** 
 2954              		.loc 1 429 2 view .LVU688
 431:mini3d/scene.c **** 	
 2955              		.loc 1 431 2 view .LVU689
  52:mini3d/3dmath.h **** }
 2956              		.loc 2 52 2 view .LVU690
ARM GAS  /var/folders/cs/83z6p2tj4w57s6p2rt8nwfp00000gn/T//cc3yBana.s 			page 78


 433:mini3d/scene.c **** 	
 2957              		.loc 1 433 2 view .LVU691
 2958              	.LBB90:
 2959              	.LBI80:
  67:mini3d/3dmath.h **** {
 2960              		.loc 2 67 21 view .LVU692
 2961              	.LBB84:
 2962              		.loc 2 69 2 view .LVU693
 2963              		.loc 2 69 2 is_stmt 0 view .LVU694
 2964              	.LBE84:
 2965              	.LBE90:
 2966              	.LBB91:
 2967              	.LBI87:
  17:mini3d/3dmath.h **** {
 2968              		.loc 2 17 21 is_stmt 1 view .LVU695
 2969              	.LBB89:
  19:mini3d/3dmath.h **** 	asm ("vsqrt.f32 %0, %1" : "=t"(result) : "t"(x));
 2970              		.loc 2 19 2 view .LVU696
  20:mini3d/3dmath.h **** 	return result;
 2971              		.loc 2 20 2 view .LVU697
  21:mini3d/3dmath.h **** }
 2972              		.loc 2 21 2 view .LVU698
  21:mini3d/3dmath.h **** }
 2973              		.loc 2 21 2 is_stmt 0 view .LVU699
 2974              	.LBE89:
 2975              	.LBE91:
 435:mini3d/scene.c **** 	dir.dy /= l;
 2976              		.loc 1 435 2 is_stmt 1 view .LVU700
 436:mini3d/scene.c **** 	dir.dz /= l;
 2977              		.loc 1 436 2 view .LVU701
 437:mini3d/scene.c **** 	
 2978              		.loc 1 437 2 view .LVU702
 439:mini3d/scene.c **** 
 2979              		.loc 1 439 2 view .LVU703
 443:mini3d/scene.c **** 
 2980              		.loc 1 443 2 view .LVU704
 445:mini3d/scene.c **** 	{
 2981              		.loc 1 445 2 view .LVU705
 2982              	@ mini3d/scene.c:445: 	if ( dir.dx != 0 || dir.dz != 0 )
 445:mini3d/scene.c **** 	{
 2983              		.loc 1 445 19 is_stmt 0 view .LVU706
 2984 0096 10D1     		bne	.L160		@,
 2985 0098 B5EE406A 		vcmp.f32	s12, #0	@ _13
 2986 009c F1EE10FA 		vmrs	APSR_nzcv, FPSCR
 2987 00a0 14BF     		ite	ne
 2988 00a2 4FF0010A 		movne	r10, #1	@ tmp181,
 2989 00a6 4FF0000A 		moveq	r10, #0	@ tmp181,
 2990 00aa 06D1     		bne	.L160		@,
 2991              	@ mini3d/scene.c:443: 	float h = 0;
 443:mini3d/scene.c **** 
 2992              		.loc 1 443 8 view .LVU707
 2993 00ac DFED868A 		vldr.32	s17, .L163+8	@ result,
 2994 00b0 0DF12809 		add	r9, sp, #40	@ tmp263,,
 2995 00b4 0DF1D008 		add	r8, sp, #208	@ tmp262,,
 2996 00b8 56E0     		b	.L154		@
 2997              	.L160:
 2998              	.LBB92:
ARM GAS  /var/folders/cs/83z6p2tj4w57s6p2rt8nwfp00000gn/T//cc3yBana.s 			page 79


 447:mini3d/scene.c **** 		
 2999              		.loc 1 447 3 is_stmt 1 view .LVU708
 3000              	@ mini3d/scene.c:447: 		h = sqrtf(dir.dx * dir.dx + dir.dz * dir.dz);
 447:mini3d/scene.c **** 		
 3001              		.loc 1 447 7 is_stmt 0 view .LVU709
 3002 00ba 66EE068A 		vmul.f32	s17, s12, s12	@ tmp182, _13, _13
 3003              	@ mini3d/scene.c:449: 		Matrix3D yaw = Matrix3DMake(dir.dz/h, 0, -dir.dx/h, 0, 1, 0, dir.dx/h, 0, d
 449:mini3d/scene.c **** 		camera = Matrix3D_multiply(camera, yaw);
 3004              		.loc 1 449 18 view .LVU710
 3005 00be DFED823A 		vldr.32	s7, .L163+8	@,
 3006              	.LVL172:
 3007              	@ mini3d/scene.c:449: 		Matrix3D yaw = Matrix3DMake(dir.dz/h, 0, -dir.dx/h, 0, 1, 0, dir.dx/h, 0, d
 449:mini3d/scene.c **** 		camera = Matrix3D_multiply(camera, yaw);
 3008              		.loc 1 449 44 view .LVU711
 3009 00c2 B1EE471A 		vneg.f32	s2, s14	@ tmp189, _11
 3010              	.LVL173:
 3011              	@ mini3d/scene.c:450: 		camera = Matrix3D_multiply(camera, yaw);
 450:mini3d/scene.c **** 	}
 3012              		.loc 1 450 12 view .LVU712
 3013 00c6 0DF12809 		add	r9, sp, #40	@ tmp263,,
 3014 00ca 4BAC     		add	r4, sp, #300	@ tmp276,,
 3015              	@ mini3d/scene.c:449: 		Matrix3D yaw = Matrix3DMake(dir.dz/h, 0, -dir.dx/h, 0, 1, 0, dir.dx/h, 0, d
 449:mini3d/scene.c **** 		camera = Matrix3D_multiply(camera, yaw);
 3016              		.loc 1 449 18 view .LVU713
 3017 00cc F0EE632A 		vmov.f32	s5, s7	@,
 3018              	@ mini3d/scene.c:447: 		h = sqrtf(dir.dx * dir.dx + dir.dz * dir.dz);
 447:mini3d/scene.c **** 		
 3019              		.loc 1 447 7 view .LVU714
 3020 00d0 E7EE078A 		vfma.f32	s17, s14, s14	@ _17, _11, _11
 3021              	.LVL174:
 3022              	.LBB93:
 3023              	.LBI93:
  17:mini3d/3dmath.h **** {
 3024              		.loc 2 17 21 is_stmt 1 view .LVU715
 3025              	.LBB94:
  19:mini3d/3dmath.h **** 	asm ("vsqrt.f32 %0, %1" : "=t"(result) : "t"(x));
 3026              		.loc 2 19 2 view .LVU716
  20:mini3d/3dmath.h **** 	return result;
 3027              		.loc 2 20 2 view .LVU717
 3028              	.LBE94:
 3029              	.LBE93:
 3030              	@ mini3d/scene.c:449: 		Matrix3D yaw = Matrix3DMake(dir.dz/h, 0, -dir.dx/h, 0, 1, 0, dir.dx/h, 0, d
 449:mini3d/scene.c **** 		camera = Matrix3D_multiply(camera, yaw);
 3031              		.loc 1 449 18 is_stmt 0 view .LVU718
 3032 00d4 4BA8     		add	r0, sp, #300	@ tmp275,,
 3033              	.LBB96:
 3034              	.LBB95:
 3035              	@ mini3d/3dmath.h:20: 	asm ("vsqrt.f32 %0, %1" : "=t"(result) : "t"(x));
  20:mini3d/3dmath.h **** 	return result;
 3036              		.loc 2 20 2 view .LVU719
 3037              		.syntax unified
 3038              	@ 20 "mini3d/3dmath.h" 1
 3039 00d6 F1EEE88A 		vsqrt.f32 s17, s17	@ result, _17
 3040              	@ 0 "" 2
 3041              	.LVL175:
  21:mini3d/3dmath.h **** }
 3042              		.loc 2 21 2 is_stmt 1 view .LVU720
ARM GAS  /var/folders/cs/83z6p2tj4w57s6p2rt8nwfp00000gn/T//cc3yBana.s 			page 80


  21:mini3d/3dmath.h **** }
 3043              		.loc 2 21 2 is_stmt 0 view .LVU721
 3044              		.thumb
 3045              		.syntax unified
 3046              	.LBE95:
 3047              	.LBE96:
 449:mini3d/scene.c **** 		camera = Matrix3D_multiply(camera, yaw);
 3048              		.loc 1 449 3 is_stmt 1 view .LVU722
 3049              	@ mini3d/scene.c:449: 		Matrix3D yaw = Matrix3DMake(dir.dz/h, 0, -dir.dx/h, 0, 1, 0, dir.dx/h, 0, d
 449:mini3d/scene.c **** 		camera = Matrix3D_multiply(camera, yaw);
 3050              		.loc 1 449 18 is_stmt 0 view .LVU723
 3051 00da 86EE284A 		vdiv.f32	s8, s12, s17	@ _18, _13, result
 3052              	.LVL176:
 449:mini3d/scene.c **** 		camera = Matrix3D_multiply(camera, yaw);
 3053              		.loc 1 449 18 view .LVU724
 3054 00de 0021     		movs	r1, #0	@,
 3055              	@ mini3d/scene.c:450: 		camera = Matrix3D_multiply(camera, yaw);
 450:mini3d/scene.c **** 	}
 3056              		.loc 1 450 12 view .LVU725
 3057 00e0 4D46     		mov	r5, r9	@ tmp195, tmp263
 3058 00e2 0DF1D008 		add	r8, sp, #208	@ tmp262,,
 3059              	@ mini3d/scene.c:449: 		Matrix3D yaw = Matrix3DMake(dir.dz/h, 0, -dir.dx/h, 0, 1, 0, dir.dx/h, 0, d
 449:mini3d/scene.c **** 		camera = Matrix3D_multiply(camera, yaw);
 3060              		.loc 1 449 18 view .LVU726
 3061 00e6 87EE283A 		vdiv.f32	s6, s14, s17	@, _11, result
 3062 00ea 81EE281A 		vdiv.f32	s2, s2, s17	@, tmp189, result
 3063 00ee F0EE631A 		vmov.f32	s3, s7	@,
 3064 00f2 B0EE440A 		vmov.f32	s0, s8	@,
 3065              	.LVL177:
 449:mini3d/scene.c **** 		camera = Matrix3D_multiply(camera, yaw);
 3066              		.loc 1 449 18 view .LVU727
 3067 00f6 F0EE630A 		vmov.f32	s1, s7	@,
 3068              	.LVL178:
 449:mini3d/scene.c **** 		camera = Matrix3D_multiply(camera, yaw);
 3069              		.loc 1 449 18 view .LVU728
 3070 00fa B7EE002A 		vmov.f32	s4, #1.0e+0	@,
 3071 00fe FFF7FEFF 		bl	Matrix3DMake		@
 3072              	.LVL179:
 450:mini3d/scene.c **** 	}
 3073              		.loc 1 450 3 is_stmt 1 view .LVU729
 3074              	@ mini3d/scene.c:450: 		camera = Matrix3D_multiply(camera, yaw);
 450:mini3d/scene.c **** 	}
 3075              		.loc 1 450 12 is_stmt 0 view .LVU730
 3076 0102 8DED3B9A 		vstr.32	s18, [sp, #236]	@ camera$40, MEM[(struct  *)&camera + 40B]
 3077 0106 CDED3C9A 		vstr.32	s19, [sp, #240]	@ camera$44, MEM[(struct  *)&camera + 44B]
 3078 010a C446     		mov	ip, r8	@ tmp199, tmp262
 3079 010c 8DED3D8A 		vstr.32	s16, [sp, #244]	@ camera$48, MEM[(struct  *)&camera + 48B]
 3080 0110 0FCC     		ldmia	r4!, {r0, r1, r2, r3}	@ tmp196,,,,
 3081 0112 0FC5     		stmia	r5!, {r0, r1, r2, r3}	@ tmp195,,,,
 3082 0114 0FCC     		ldmia	r4!, {r0, r1, r2, r3}	@ tmp196,,,,
 3083 0116 0FC5     		stmia	r5!, {r0, r1, r2, r3}	@ tmp195,,,,
 3084 0118 0FCC     		ldmia	r4!, {r0, r1, r2, r3}	@ tmp196,,,,
 3085 011a 9DF8C4E0 		ldrb	lr, [sp, #196]	@ zero_extendqisi2	@, camera.isIdentity
 3086 011e D4F800A0 		ldr	r10, [r4]	@ yaw, yaw
 3087 0122 6C46     		mov	r4, sp	@ tmp198,
 3088 0124 6FF3000E 		bfc	lr, #0, #1	@ camera.isIdentity,,
 3089 0128 0FC5     		stmia	r5!, {r0, r1, r2, r3}	@ tmp195,,,,
ARM GAS  /var/folders/cs/83z6p2tj4w57s6p2rt8nwfp00000gn/T//cc3yBana.s 			page 81


 3090 012a 8DF8C4E0 		strb	lr, [sp, #196]	@ camera.isIdentity, camera.isIdentity
 3091 012e C5F800A0 		str	r10, [r5]	@ yaw,
 3092 0132 BCE80F00 		ldmia	ip!, {r0, r1, r2, r3}	@ tmp199,,,,
 3093 0136 0FC4     		stmia	r4!, {r0, r1, r2, r3}	@ tmp198,,,,
 3094 0138 BCE80F00 		ldmia	ip!, {r0, r1, r2, r3}	@ tmp199,,,,
 3095 013c 0FC4     		stmia	r4!, {r0, r1, r2, r3}	@ tmp198,,,,
 3096 013e 9CE80300 		ldm	ip, {r0, r1}	@ tmp199,,
 3097 0142 84E80300 		stm	r4, {r0, r1}	@ tmp198,,
 3098 0146 3046     		mov	r0, r6	@, tmp261
 3099 0148 96E80E00 		ldm	r6, {r1, r2, r3}	@ tmp261,,,
 3100 014c FFF7FEFF 		bl	Matrix3D_multiply		@
 3101              	.LVL180:
 3102 0150 9DF8C4A0 		ldrb	r10, [sp, #196]	@ zero_extendqisi2	@ camera, camera
 3103 0154 9DED3B9A 		vldr.32	s18, [sp, #236]	@ camera$40, MEM[(struct  *)&camera + 40B]
 3104 0158 4AF3000A 		sbfx	r10, r10, #0, #1	@ tmp204, camera,,
 3105 015c DDED3C9A 		vldr.32	s19, [sp, #240]	@ camera$44, MEM[(struct  *)&camera + 44B]
 3106 0160 9DED3D8A 		vldr.32	s16, [sp, #244]	@ camera$48, MEM[(struct  *)&camera + 48B]
 3107 0164 4FFA8AFA 		sxtb	r10, r10	@ camera$isIdentity, tmp204
 3108              	.LVL181:
 3109              	.L154:
 450:mini3d/scene.c **** 	}
 3110              		.loc 1 450 12 view .LVU731
 3111              	.LBE92:
 455:mini3d/scene.c **** 	camera = Matrix3D_multiply(camera, pitch);
 3112              		.loc 1 455 2 is_stmt 1 view .LVU732
 3113              	@ mini3d/scene.c:455: 	Matrix3D pitch = Matrix3DMake(1, 0, 0, 0, h, -dir.dy, 0, dir.dy, h, 0);
 455:mini3d/scene.c **** 	camera = Matrix3D_multiply(camera, pitch);
 3114              		.loc 1 455 19 is_stmt 0 view .LVU733
 3115 0168 9FED573A 		vldr.32	s6, .L163+8	@,
 3116              	@ mini3d/scene.c:456: 	camera = Matrix3D_multiply(camera, pitch);
 456:mini3d/scene.c **** 
 3117              		.loc 1 456 11 view .LVU734
 3118 016c 3EAC     		add	r4, sp, #248	@ tmp278,,
 3119              	@ mini3d/scene.c:455: 	Matrix3D pitch = Matrix3DMake(1, 0, 0, 0, h, -dir.dy, 0, dir.dy, h, 0);
 455:mini3d/scene.c **** 	camera = Matrix3D_multiply(camera, pitch);
 3120              		.loc 1 455 19 view .LVU735
 3121 016e B0EE684A 		vmov.f32	s8, s17	@, result
 3122 0172 0021     		movs	r1, #0	@,
 3123 0174 F0EE431A 		vmov.f32	s3, s6	@,
 3124 0178 3EA8     		add	r0, sp, #248	@ tmp277,,
 3125 017a B0EE431A 		vmov.f32	s2, s6	@,
 3126              	@ mini3d/scene.c:456: 	camera = Matrix3D_multiply(camera, pitch);
 456:mini3d/scene.c **** 
 3127              		.loc 1 456 11 view .LVU736
 3128 017e 4D46     		mov	r5, r9	@ tmp214, tmp263
 3129              	@ mini3d/scene.c:455: 	Matrix3D pitch = Matrix3DMake(1, 0, 0, 0, h, -dir.dy, 0, dir.dy, h, 0);
 455:mini3d/scene.c **** 	camera = Matrix3D_multiply(camera, pitch);
 3130              		.loc 1 455 19 view .LVU737
 3131 0180 B0EE682A 		vmov.f32	s4, s17	@, tmp24
 3132 0184 F0EE430A 		vmov.f32	s1, s6	@,
 3133 0188 F0EE4B3A 		vmov.f32	s7, s22	@, _12
 3134 018c F1EE4B2A 		vneg.f32	s5, s22	@, tmp23
 3135 0190 B7EE000A 		vmov.f32	s0, #1.0e+0	@,
 3136 0194 FFF7FEFF 		bl	Matrix3DMake		@
 3137              	.LVL182:
 456:mini3d/scene.c **** 
 3138              		.loc 1 456 2 is_stmt 1 view .LVU738
ARM GAS  /var/folders/cs/83z6p2tj4w57s6p2rt8nwfp00000gn/T//cc3yBana.s 			page 82


 3139              	@ mini3d/scene.c:456: 	camera = Matrix3D_multiply(camera, pitch);
 456:mini3d/scene.c **** 
 3140              		.loc 1 456 11 is_stmt 0 view .LVU739
 3141 0198 8DED3B9A 		vstr.32	s18, [sp, #236]	@ camera$40, MEM[(struct  *)&camera + 40B]
 3142 019c CDED3C9A 		vstr.32	s19, [sp, #240]	@ camera$44, MEM[(struct  *)&camera + 44B]
 3143 01a0 C446     		mov	ip, r8	@ tmp218, tmp262
 3144 01a2 8DED3D8A 		vstr.32	s16, [sp, #244]	@ camera$48, MEM[(struct  *)&camera + 48B]
 3145 01a6 0FCC     		ldmia	r4!, {r0, r1, r2, r3}	@ tmp215,,,,
 3146 01a8 0FC5     		stmia	r5!, {r0, r1, r2, r3}	@ tmp214,,,,
 3147 01aa 0FCC     		ldmia	r4!, {r0, r1, r2, r3}	@ tmp215,,,,
 3148 01ac 0FC5     		stmia	r5!, {r0, r1, r2, r3}	@ tmp214,,,,
 3149 01ae 0FCC     		ldmia	r4!, {r0, r1, r2, r3}	@ tmp215,,,,
 3150 01b0 9DF8C4E0 		ldrb	lr, [sp, #196]	@ zero_extendqisi2	@, camera.isIdentity
 3151 01b4 D4F800B0 		ldr	fp, [r4]	@ pitch, pitch
 3152 01b8 6C46     		mov	r4, sp	@ tmp217,
 3153 01ba 6AF3000E 		bfi	lr, r10, #0, #1	@ camera.isIdentity, camera$isIdentity,,
 3154 01be 0FC5     		stmia	r5!, {r0, r1, r2, r3}	@ tmp214,,,,
 3155 01c0 8DF8C4E0 		strb	lr, [sp, #196]	@ camera.isIdentity, camera.isIdentity
 3156 01c4 C5F800B0 		str	fp, [r5]	@ pitch,
 3157 01c8 18AD     		add	r5, sp, #96	@ tmp280,,
 3158 01ca BCE80F00 		ldmia	ip!, {r0, r1, r2, r3}	@ tmp218,,,,
 3159 01ce 0FC4     		stmia	r4!, {r0, r1, r2, r3}	@ tmp217,,,,
 3160 01d0 BCE80F00 		ldmia	ip!, {r0, r1, r2, r3}	@ tmp218,,,,
 3161 01d4 0FC4     		stmia	r4!, {r0, r1, r2, r3}	@ tmp217,,,,
 3162 01d6 9CE80300 		ldm	ip, {r0, r1}	@ tmp218,,
 3163 01da 84E80300 		stm	r4, {r0, r1}	@ tmp217,,
 3164 01de 18A8     		add	r0, sp, #96	@ tmp279,,
 3165 01e0 3446     		mov	r4, r6	@ tmp222, tmp261
 3166 01e2 96E80E00 		ldm	r6, {r1, r2, r3}	@ tmp261,,,
 3167 01e6 FFF7FEFF 		bl	Matrix3D_multiply		@
 3168              	.LVL183:
 3169              	@ mini3d/scene.c:460: 	if ( up.dx != 0 || up.dy != 0 )
 460:mini3d/scene.c **** 	{
 3170              		.loc 1 460 18 view .LVU740
 3171 01ea F5EE40AA 		vcmp.f32	s21, #0	@ up
 3172              	@ mini3d/scene.c:456: 	camera = Matrix3D_multiply(camera, pitch);
 456:mini3d/scene.c **** 
 3173              		.loc 1 456 11 view .LVU741
 3174 01ee 0FCD     		ldmia	r5!, {r0, r1, r2, r3}	@ tmp223,,,,
 3175 01f0 0FC4     		stmia	r4!, {r0, r1, r2, r3}	@ tmp222,,,,
 3176 01f2 0FCD     		ldmia	r5!, {r0, r1, r2, r3}	@ tmp223,,,,
 3177 01f4 0FC4     		stmia	r4!, {r0, r1, r2, r3}	@ tmp222,,,,
 3178 01f6 0FCD     		ldmia	r5!, {r0, r1, r2, r3}	@ tmp223,,,,
 3179              	@ mini3d/scene.c:460: 	if ( up.dx != 0 || up.dy != 0 )
 460:mini3d/scene.c **** 	{
 3180              		.loc 1 460 18 view .LVU742
 3181 01f8 F1EE10FA 		vmrs	APSR_nzcv, FPSCR
 3182              	@ mini3d/scene.c:456: 	camera = Matrix3D_multiply(camera, pitch);
 456:mini3d/scene.c **** 
 3183              		.loc 1 456 11 view .LVU743
 3184 01fc 0FC4     		stmia	r4!, {r0, r1, r2, r3}	@ tmp222,,,,
 3185 01fe 2B68     		ldr	r3, [r5]	@ tmp224,
 3186 0200 2360     		str	r3, [r4]	@ tmp224, camera
 3187              	.LVL184:
 460:mini3d/scene.c **** 	{
 3188              		.loc 1 460 2 is_stmt 1 view .LVU744
 3189              	@ mini3d/scene.c:460: 	if ( up.dx != 0 || up.dy != 0 )
ARM GAS  /var/folders/cs/83z6p2tj4w57s6p2rt8nwfp00000gn/T//cc3yBana.s 			page 83


 460:mini3d/scene.c **** 	{
 3190              		.loc 1 460 18 is_stmt 0 view .LVU745
 3191 0202 0ED1     		bne	.L161		@,
 3192 0204 B5EE40AA 		vcmp.f32	s20, #0	@ up
 3193 0208 F1EE10FA 		vmrs	APSR_nzcv, FPSCR
 3194 020c 09D1     		bne	.L161		@,
 468:mini3d/scene.c **** 
 3195              		.loc 1 468 3 is_stmt 1 view .LVU746
 3196              	@ mini3d/scene.c:468: 		scene->camera = camera;
 468:mini3d/scene.c **** 
 3197              		.loc 1 468 17 is_stmt 0 view .LVU747
 3198 020e 3C1D     		adds	r4, r7, #4	@ tmp253, scene,
 3199 0210 0FCE     		ldmia	r6!, {r0, r1, r2, r3}	@ tmp254,,,,
 3200              	.LVL185:
 468:mini3d/scene.c **** 
 3201              		.loc 1 468 17 view .LVU748
 3202 0212 0FC4     		stmia	r4!, {r0, r1, r2, r3}	@ tmp253,,,,
 3203 0214 0FCE     		ldmia	r6!, {r0, r1, r2, r3}	@ tmp254,,,,
 3204              	.LVL186:
 468:mini3d/scene.c **** 
 3205              		.loc 1 468 17 view .LVU749
 3206 0216 0FC4     		stmia	r4!, {r0, r1, r2, r3}	@ tmp253,,,,
 3207 0218 0FCE     		ldmia	r6!, {r0, r1, r2, r3}	@ tmp254,,,,
 3208              	.LVL187:
 468:mini3d/scene.c **** 
 3209              		.loc 1 468 17 view .LVU750
 3210 021a 3568     		ldr	r5, [r6]	@ camera, camera
 3211 021c 0FC4     		stmia	r4!, {r0, r1, r2, r3}	@ tmp253,,,,
 3212 021e 2560     		str	r5, [r4]	@ camera, scene_38(D)->camera
 3213 0220 43E0     		b	.L158		@
 3214              	.LVL188:
 3215              	.L161:
 3216              	.LBB97:
 462:mini3d/scene.c **** 		Matrix3D roll = Matrix3DMake(up.dy/l, up.dx/l, 0, -up.dx/l, up.dy/l, 0, 0, 0, 1, 0);
 3217              		.loc 1 462 3 is_stmt 1 view .LVU751
 3218              	@ mini3d/scene.c:462: 		l = sqrtf(up.dx * up.dx + up.dy * up.dy);
 462:mini3d/scene.c **** 		Matrix3D roll = Matrix3DMake(up.dy/l, up.dx/l, 0, -up.dx/l, up.dy/l, 0, 0, 0, 1, 0);
 3219              		.loc 1 462 7 is_stmt 0 view .LVU752
 3220 0222 6AEEAA0A 		vmul.f32	s1, s21, s21	@ tmp231, up, up
 3221              	@ mini3d/scene.c:463: 		Matrix3D roll = Matrix3DMake(up.dy/l, up.dx/l, 0, -up.dx/l, up.dy/l, 0, 0, 
 463:mini3d/scene.c **** 	
 3222              		.loc 1 463 19 view .LVU753
 3223 0226 DFED283A 		vldr.32	s7, .L163+8	@,
 3224              	@ mini3d/scene.c:463: 		Matrix3D roll = Matrix3DMake(up.dy/l, up.dx/l, 0, -up.dx/l, up.dy/l, 0, 0, 
 463:mini3d/scene.c **** 	
 3225              		.loc 1 463 53 view .LVU754
 3226 022a F1EE4A1A 		vneg.f32	s3, s20	@ tmp237, up
 3227              	@ mini3d/scene.c:465: 		scene->camera = Matrix3D_multiply(camera, roll);
 465:mini3d/scene.c **** 	}
 3228              		.loc 1 465 19 view .LVU755
 3229 022e 4BAD     		add	r5, sp, #300	@ tmp282,,
 3230              	@ mini3d/scene.c:463: 		Matrix3D roll = Matrix3DMake(up.dy/l, up.dx/l, 0, -up.dx/l, up.dy/l, 0, 0, 
 463:mini3d/scene.c **** 	
 3231              		.loc 1 463 19 view .LVU756
 3232 0230 B0EE633A 		vmov.f32	s6, s7	@,
 3233 0234 4BA8     		add	r0, sp, #300	@ tmp281,,
 3234              	@ mini3d/scene.c:462: 		l = sqrtf(up.dx * up.dx + up.dy * up.dy);
ARM GAS  /var/folders/cs/83z6p2tj4w57s6p2rt8nwfp00000gn/T//cc3yBana.s 			page 84


 462:mini3d/scene.c **** 		Matrix3D roll = Matrix3DMake(up.dy/l, up.dx/l, 0, -up.dx/l, up.dy/l, 0, 0, 0, 1, 0);
 3235              		.loc 1 462 7 view .LVU757
 3236 0236 EAEE0A0A 		vfma.f32	s1, s20, s20	@ _25, up, up
 3237              	.LVL189:
 3238              	.LBB98:
 3239              	.LBI98:
  17:mini3d/3dmath.h **** {
