ARM GAS  /var/folders/cs/83z6p2tj4w57s6p2rt8nwfp00000gn/T//ccfCX7Ve.s 			page 1


   1              		.cpu cortex-m7
   2              		.eabi_attribute 27, 1	@ Tag_ABI_HardFP_use
   3              		.eabi_attribute 28, 1	@ Tag_ABI_VFP_args
   4              		.eabi_attribute 20, 1	@ Tag_ABI_FP_denormal
   5              		.eabi_attribute 21, 1	@ Tag_ABI_FP_exceptions
   6              		.eabi_attribute 23, 3	@ Tag_ABI_FP_number_model
   7              		.eabi_attribute 24, 1	@ Tag_ABI_align8_needed
   8              		.eabi_attribute 25, 1	@ Tag_ABI_align8_preserved
   9              		.eabi_attribute 26, 1	@ Tag_ABI_enum_size
  10              		.eabi_attribute 30, 2	@ Tag_ABI_optimization_goals
  11              		.eabi_attribute 34, 1	@ Tag_CPU_unaligned_access
  12              		.eabi_attribute 18, 4	@ Tag_ABI_PCS_wchar_t
  13              		.file	"setup.c"
  14              	@ GNU C17 (GNU Tools for Arm Embedded Processors 9-2019-q4-major) version 9.2.1 20191025 (release) 
  15              	@	compiled by GNU C version 4.2.1 Compatible Apple LLVM 9.0.0 (clang-900.0.39.2), GMP version 6.1.0
  16              	
  17              	@ GGC heuristics: --param ggc-min-expand=100 --param ggc-min-heapsize=131072
  18              	@ options passed:  -I . -I .
  19              	@ -I /Users/orllewin/Developer/PlaydateSDK-2.0.0/C_API -I mini3d
  20              	@ -imultilib thumb/v7e-m+fp/hard
  21              	@ -iprefix /usr/local/playdate/gcc-arm-none-eabi-9-2019-q4-major/bin/../lib/gcc/arm-none-eabi/9.2.1
  22              	@ -isysroot /usr/local/playdate/gcc-arm-none-eabi-9-2019-q4-major/bin/../arm-none-eabi
  23              	@ -MD build//Users/orllewin/Developer/PlaydateSDK-2.0.0/C_API/buildsupport/setup.d
  24              	@ -MF build/dep/setup.o.d -MP
  25              	@ -MQ build//Users/orllewin/Developer/PlaydateSDK-2.0.0/C_API/buildsupport/setup.o
  26              	@ -D__USES_INITFINI__ -D __FPU_USED=1 -D TARGET_PLAYDATE=1
  27              	@ -D TARGET_EXTENSION=1
  28              	@ /Users/orllewin/Developer/PlaydateSDK-2.0.0/C_API/buildsupport/setup.c
  29              	@ -mthumb -mcpu=cortex-m7 -mfloat-abi=hard -mfpu=fpv5-sp-d16
  30              	@ -mword-relocations -march=armv7e-m+fpv5
  31              	@ -auxbase-strip build//Users/orllewin/Developer/PlaydateSDK-2.0.0/C_API/buildsupport/setup.o
  32              	@ -g3 -gdwarf-2 -O2 -Wall -Wno-unused -Wstrict-prototypes
  33              	@ -Wno-unknown-pragmas -Wdouble-promotion -falign-functions=16
  34              	@ -fomit-frame-pointer -fverbose-asm -fno-common -ffunction-sections
  35              	@ -fdata-sections
  36              	@ options enabled:  -faggressive-loop-optimizations -falign-functions
  37              	@ -falign-jumps -falign-labels -falign-loops -fassume-phsa -fauto-inc-dec
  38              	@ -fbranch-count-reg -fcaller-saves -fcombine-stack-adjustments
  39              	@ -fcompare-elim -fcprop-registers -fcrossjumping -fcse-follow-jumps
  40              	@ -fdata-sections -fdefer-pop -fdelete-null-pointer-checks -fdevirtualize
  41              	@ -fdevirtualize-speculatively -fdwarf2-cfi-asm -fearly-inlining
  42              	@ -feliminate-unused-debug-types -fexpensive-optimizations
  43              	@ -fforward-propagate -ffp-int-builtin-inexact -ffunction-cse
  44              	@ -ffunction-sections -fgcse -fgcse-lm -fgnu-runtime -fgnu-unique
  45              	@ -fguess-branch-probability -fhoist-adjacent-loads -fident -fif-conversion
  46              	@ -fif-conversion2 -findirect-inlining -finline -finline-atomics
  47              	@ -finline-functions-called-once -finline-small-functions -fipa-bit-cp
  48              	@ -fipa-cp -fipa-icf -fipa-icf-functions -fipa-icf-variables -fipa-profile
  49              	@ -fipa-pure-const -fipa-ra -fipa-reference -fipa-reference-addressable
  50              	@ -fipa-sra -fipa-stack-alignment -fipa-vrp -fira-hoist-pressure
  51              	@ -fira-share-save-slots -fira-share-spill-slots
  52              	@ -fisolate-erroneous-paths-dereference -fivopts -fkeep-static-consts
  53              	@ -fleading-underscore -flifetime-dse -flra-remat -flto-odr-type-merging
  54              	@ -fmath-errno -fmerge-constants -fmerge-debug-strings
  55              	@ -fmove-loop-invariants -fomit-frame-pointer -foptimize-sibling-calls
  56              	@ -foptimize-strlen -fpartial-inlining -fpeephole -fpeephole2 -fplt
  57              	@ -fprefetch-loop-arrays -freg-struct-return -freorder-blocks
ARM GAS  /var/folders/cs/83z6p2tj4w57s6p2rt8nwfp00000gn/T//ccfCX7Ve.s 			page 2


  58              	@ -freorder-functions -frerun-cse-after-loop
  59              	@ -fsched-critical-path-heuristic -fsched-dep-count-heuristic
  60              	@ -fsched-group-heuristic -fsched-interblock -fsched-last-insn-heuristic
  61              	@ -fsched-pressure -fsched-rank-heuristic -fsched-spec
  62              	@ -fsched-spec-insn-heuristic -fsched-stalled-insns-dep -fschedule-insns
  63              	@ -fschedule-insns2 -fsection-anchors -fsemantic-interposition
  64              	@ -fshow-column -fshrink-wrap -fshrink-wrap-separate -fsigned-zeros
  65              	@ -fsplit-ivs-in-unroller -fsplit-wide-types -fssa-backprop -fssa-phiopt
  66              	@ -fstdarg-opt -fstore-merging -fstrict-aliasing
  67              	@ -fstrict-volatile-bitfields -fsync-libcalls -fthread-jumps
  68              	@ -ftoplevel-reorder -ftrapping-math -ftree-bit-ccp -ftree-builtin-call-dce
  69              	@ -ftree-ccp -ftree-ch -ftree-coalesce-vars -ftree-copy-prop -ftree-cselim
  70              	@ -ftree-dce -ftree-dominator-opts -ftree-dse -ftree-forwprop -ftree-fre
  71              	@ -ftree-loop-if-convert -ftree-loop-im -ftree-loop-ivcanon
  72              	@ -ftree-loop-optimize -ftree-parallelize-loops= -ftree-phiprop -ftree-pre
  73              	@ -ftree-pta -ftree-reassoc -ftree-scev-cprop -ftree-sink -ftree-slsr
  74              	@ -ftree-sra -ftree-switch-conversion -ftree-tail-merge -ftree-ter
  75              	@ -ftree-vrp -funit-at-a-time -fvar-tracking -fvar-tracking-assignments
  76              	@ -fverbose-asm -fzero-initialized-in-bss -masm-syntax-unified -mbe32
  77              	@ -mlittle-endian -mpic-data-is-text-relative -msched-prolog -mthumb
  78              	@ -munaligned-access -mvectorize-with-neon-quad -mword-relocations
  79              	
  80              		.text
  81              	.Ltext0:
  82              		.cfi_sections	.debug_frame
  83              		.section	.text.eventHandlerShim,"ax",%progbits
  84              		.align	1
  85              		.p2align 4,,15
  86              		.global	eventHandlerShim
  87              		.arch armv7e-m
  88              		.syntax unified
  89              		.thumb
  90              		.thumb_func
  91              		.fpu fpv5-sp-d16
  92              		.type	eventHandlerShim, %function
  93              	eventHandlerShim:
  94              	.LVL0:
  95              	.LFB12:
  96              		.file 1 "/Users/orllewin/Developer/PlaydateSDK-2.0.0/C_API/buildsupport/setup.c"
   1:/Users/orllewin/Developer/PlaydateSDK-2.0.0/C_API/buildsupport/setup.c **** 
   2:/Users/orllewin/Developer/PlaydateSDK-2.0.0/C_API/buildsupport/setup.c **** #include "pd_api.h"
   3:/Users/orllewin/Developer/PlaydateSDK-2.0.0/C_API/buildsupport/setup.c **** 
   4:/Users/orllewin/Developer/PlaydateSDK-2.0.0/C_API/buildsupport/setup.c **** typedef int (PDEventHandler)(PlaydateAPI* playdate, PDSystemEvent event, uint32_t arg);
   5:/Users/orllewin/Developer/PlaydateSDK-2.0.0/C_API/buildsupport/setup.c **** 
   6:/Users/orllewin/Developer/PlaydateSDK-2.0.0/C_API/buildsupport/setup.c **** extern PDEventHandler eventHandler;
   7:/Users/orllewin/Developer/PlaydateSDK-2.0.0/C_API/buildsupport/setup.c **** 
   8:/Users/orllewin/Developer/PlaydateSDK-2.0.0/C_API/buildsupport/setup.c **** static void* (*pdrealloc)(void* ptr, size_t size);
   9:/Users/orllewin/Developer/PlaydateSDK-2.0.0/C_API/buildsupport/setup.c **** 
  10:/Users/orllewin/Developer/PlaydateSDK-2.0.0/C_API/buildsupport/setup.c **** int eventHandlerShim(PlaydateAPI* playdate, PDSystemEvent event, uint32_t arg)
  11:/Users/orllewin/Developer/PlaydateSDK-2.0.0/C_API/buildsupport/setup.c **** {
  97              		.loc 1 11 1 view -0
  98              		.cfi_startproc
  99              		@ args = 0, pretend = 0, frame = 0
 100              		@ frame_needed = 0, uses_anonymous_args = 0
 101              		@ link register save eliminated.
  12:/Users/orllewin/Developer/PlaydateSDK-2.0.0/C_API/buildsupport/setup.c **** 	if ( event == kEventInit )
 102              		.loc 1 12 2 view .LVU1
ARM GAS  /var/folders/cs/83z6p2tj4w57s6p2rt8nwfp00000gn/T//ccfCX7Ve.s 			page 3


 103              	@ /Users/orllewin/Developer/PlaydateSDK-2.0.0/C_API/buildsupport/setup.c:12: 	if ( event == kEventI
 104              		.loc 1 12 5 is_stmt 0 view .LVU2
 105 0000 41B9     		cbnz	r1, .L4	@ event,
  13:/Users/orllewin/Developer/PlaydateSDK-2.0.0/C_API/buildsupport/setup.c **** 		pdrealloc = playdate->system->realloc;
 106              		.loc 1 13 3 is_stmt 1 view .LVU3
 107              	@ /Users/orllewin/Developer/PlaydateSDK-2.0.0/C_API/buildsupport/setup.c:13: 		pdrealloc = playdate
 108              		.loc 1 13 13 is_stmt 0 view .LVU4
 109 0002 054B     		ldr	r3, .L8	@ tmp116,
 110              	@ /Users/orllewin/Developer/PlaydateSDK-2.0.0/C_API/buildsupport/setup.c:11: {
  11:/Users/orllewin/Developer/PlaydateSDK-2.0.0/C_API/buildsupport/setup.c **** 	if ( event == kEventInit )
 111              		.loc 1 11 1 view .LVU5
 112 0004 10B4     		push	{r4}	@
 113              	.LCFI0:
 114              		.cfi_def_cfa_offset 4
 115              		.cfi_offset 4, -4
 116              	@ /Users/orllewin/Developer/PlaydateSDK-2.0.0/C_API/buildsupport/setup.c:13: 		pdrealloc = playdate
 117              		.loc 1 13 31 view .LVU6
 118 0006 0468     		ldr	r4, [r0]	@ playdate_6(D)->system, playdate_6(D)->system
 119              	@ /Users/orllewin/Developer/PlaydateSDK-2.0.0/C_API/buildsupport/setup.c:13: 		pdrealloc = playdate
 120              		.loc 1 13 13 view .LVU7
 121 0008 2468     		ldr	r4, [r4]	@ _1->realloc, _1->realloc
 122 000a 1C60     		str	r4, [r3]	@ _1->realloc, pdrealloc
  14:/Users/orllewin/Developer/PlaydateSDK-2.0.0/C_API/buildsupport/setup.c **** 	
  15:/Users/orllewin/Developer/PlaydateSDK-2.0.0/C_API/buildsupport/setup.c **** 	return eventHandler(playdate, event, arg);
 123              		.loc 1 15 2 is_stmt 1 view .LVU8
 124              	@ /Users/orllewin/Developer/PlaydateSDK-2.0.0/C_API/buildsupport/setup.c:16: }
  16:/Users/orllewin/Developer/PlaydateSDK-2.0.0/C_API/buildsupport/setup.c **** }
 125              		.loc 1 16 1 is_stmt 0 view .LVU9
 126 000c 5DF8044B 		ldr	r4, [sp], #4	@,
 127              	.LCFI1:
 128              		.cfi_restore 4
 129              		.cfi_def_cfa_offset 0
 130              	@ /Users/orllewin/Developer/PlaydateSDK-2.0.0/C_API/buildsupport/setup.c:15: 	return eventHandler(p
  15:/Users/orllewin/Developer/PlaydateSDK-2.0.0/C_API/buildsupport/setup.c **** }
 131              		.loc 1 15 9 view .LVU10
 132 0010 FFF7FEBF 		b	eventHandler		@
 133              	.LVL1:
 134              	.L4:
  15:/Users/orllewin/Developer/PlaydateSDK-2.0.0/C_API/buildsupport/setup.c **** }
 135              		.loc 1 15 2 is_stmt 1 view .LVU11
 136              	@ /Users/orllewin/Developer/PlaydateSDK-2.0.0/C_API/buildsupport/setup.c:15: 	return eventHandler(p
  15:/Users/orllewin/Developer/PlaydateSDK-2.0.0/C_API/buildsupport/setup.c **** }
 137              		.loc 1 15 9 is_stmt 0 view .LVU12
 138 0014 FFF7FEBF 		b	eventHandler		@
 139              	.LVL2:
 140              	.L9:
  15:/Users/orllewin/Developer/PlaydateSDK-2.0.0/C_API/buildsupport/setup.c **** }
 141              		.loc 1 15 9 view .LVU13
 142              		.align	2
 143              	.L8:
 144 0018 00000000 		.word	.LANCHOR0
 145              		.cfi_endproc
 146              	.LFE12:
 147              		.size	eventHandlerShim, .-eventHandlerShim
 148              		.section	.text._malloc_r,"ax",%progbits
 149              		.align	1
 150              		.p2align 4,,15
ARM GAS  /var/folders/cs/83z6p2tj4w57s6p2rt8nwfp00000gn/T//ccfCX7Ve.s 			page 4


 151              		.global	_malloc_r
 152              		.syntax unified
 153              		.thumb
 154              		.thumb_func
 155              		.fpu fpv5-sp-d16
 156              		.type	_malloc_r, %function
 157              	_malloc_r:
 158              	.LVL3:
 159              	.LFB13:
  17:/Users/orllewin/Developer/PlaydateSDK-2.0.0/C_API/buildsupport/setup.c **** 
  18:/Users/orllewin/Developer/PlaydateSDK-2.0.0/C_API/buildsupport/setup.c **** #if TARGET_PLAYDATE
  19:/Users/orllewin/Developer/PlaydateSDK-2.0.0/C_API/buildsupport/setup.c **** 
  20:/Users/orllewin/Developer/PlaydateSDK-2.0.0/C_API/buildsupport/setup.c **** void* _malloc_r(struct _reent* _REENT, size_t nbytes) { return pdrealloc(NULL,nbytes); }
 160              		.loc 1 20 55 is_stmt 1 view -0
 161              		.cfi_startproc
 162              		@ args = 0, pretend = 0, frame = 0
 163              		@ frame_needed = 0, uses_anonymous_args = 0
 164              		@ link register save eliminated.
 165              		.loc 1 20 57 view .LVU15
 166              	@ /Users/orllewin/Developer/PlaydateSDK-2.0.0/C_API/buildsupport/setup.c:20: void* _malloc_r(struct
 167              		.loc 1 20 64 is_stmt 0 view .LVU16
 168 0000 014B     		ldr	r3, .L11	@ tmp114,
 169 0002 0020     		movs	r0, #0	@,
 170              	.LVL4:
 171              		.loc 1 20 64 view .LVU17
 172 0004 1B68     		ldr	r3, [r3]	@ pdrealloc, pdrealloc
 173 0006 1847     		bx	r3		@ pdrealloc
 174              	.LVL5:
 175              	.L12:
 176              		.loc 1 20 64 view .LVU18
 177              		.align	2
 178              	.L11:
 179 0008 00000000 		.word	.LANCHOR0
 180              		.cfi_endproc
 181              	.LFE13:
 182              		.size	_malloc_r, .-_malloc_r
 183              		.section	.text._realloc_r,"ax",%progbits
 184              		.align	1
 185              		.p2align 4,,15
 186              		.global	_realloc_r
 187              		.syntax unified
 188              		.thumb
 189              		.thumb_func
 190              		.fpu fpv5-sp-d16
 191              		.type	_realloc_r, %function
 192              	_realloc_r:
 193              	.LVL6:
 194              	.LFB14:
  21:/Users/orllewin/Developer/PlaydateSDK-2.0.0/C_API/buildsupport/setup.c **** void* _realloc_r(struct _reent* _REENT, void* ptr, size_t nbytes) { return pdrealloc(ptr,nbytes); }
 195              		.loc 1 21 67 is_stmt 1 view -0
 196              		.cfi_startproc
 197              		@ args = 0, pretend = 0, frame = 0
 198              		@ frame_needed = 0, uses_anonymous_args = 0
 199              		@ link register save eliminated.
 200              		.loc 1 21 69 view .LVU20
 201              	@ /Users/orllewin/Developer/PlaydateSDK-2.0.0/C_API/buildsupport/setup.c:21: void* _realloc_r(struc
 202              		.loc 1 21 76 is_stmt 0 view .LVU21
ARM GAS  /var/folders/cs/83z6p2tj4w57s6p2rt8nwfp00000gn/T//ccfCX7Ve.s 			page 5


 203 0000 024B     		ldr	r3, .L14	@ tmp115,
 204 0002 0846     		mov	r0, r1	@, tmp117
 205              	.LVL7:
 206              		.loc 1 21 76 view .LVU22
 207 0004 1146     		mov	r1, r2	@, tmp118
 208              	.LVL8:
 209              		.loc 1 21 76 view .LVU23
 210 0006 1B68     		ldr	r3, [r3]	@ pdrealloc, pdrealloc
 211 0008 1847     		bx	r3		@ pdrealloc
 212              	.LVL9:
 213              	.L15:
 214              		.loc 1 21 76 view .LVU24
 215 000a 00BF     		.align	2
 216              	.L14:
 217 000c 00000000 		.word	.LANCHOR0
 218              		.cfi_endproc
 219              	.LFE14:
 220              		.size	_realloc_r, .-_realloc_r
 221              		.section	.text._free_r,"ax",%progbits
 222              		.align	1
 223              		.p2align 4,,15
 224              		.global	_free_r
 225              		.syntax unified
 226              		.thumb
 227              		.thumb_func
 228              		.fpu fpv5-sp-d16
 229              		.type	_free_r, %function
 230              	_free_r:
 231              	.LVL10:
 232              	.LFB15:
  22:/Users/orllewin/Developer/PlaydateSDK-2.0.0/C_API/buildsupport/setup.c **** void _free_r(struct _reent* _REENT, void* ptr ) { if ( ptr != NULL ) pdrealloc(ptr,0); }
 233              		.loc 1 22 49 is_stmt 1 view -0
 234              		.cfi_startproc
 235              		@ args = 0, pretend = 0, frame = 0
 236              		@ frame_needed = 0, uses_anonymous_args = 0
 237              		@ link register save eliminated.
 238              		.loc 1 22 51 view .LVU26
 239              	@ /Users/orllewin/Developer/PlaydateSDK-2.0.0/C_API/buildsupport/setup.c:22: void _free_r(struct _r
 240              		.loc 1 22 54 is_stmt 0 view .LVU27
 241 0000 0846     		mov	r0, r1	@ ptr, tmp115
 242              	.LVL11:
 243              		.loc 1 22 54 view .LVU28
 244 0002 19B1     		cbz	r1, .L16	@ ptr,
 245              		.loc 1 22 70 is_stmt 1 discriminator 1 view .LVU29
 246 0004 024B     		ldr	r3, .L18	@ tmp113,
 247 0006 0021     		movs	r1, #0	@,
 248              	.LVL12:
 249              		.loc 1 22 70 is_stmt 0 discriminator 1 view .LVU30
 250 0008 1B68     		ldr	r3, [r3]	@ pdrealloc, pdrealloc
 251 000a 1847     		bx	r3		@ pdrealloc
 252              	.LVL13:
 253              	.L16:
 254              	@ /Users/orllewin/Developer/PlaydateSDK-2.0.0/C_API/buildsupport/setup.c:22: void _free_r(struct _r
 255              		.loc 1 22 21 view .LVU31
 256 000c 7047     		bx	lr	@
 257              	.L19:
 258 000e 00BF     		.align	2
ARM GAS  /var/folders/cs/83z6p2tj4w57s6p2rt8nwfp00000gn/T//ccfCX7Ve.s 			page 6


 259              	.L18:
 260 0010 00000000 		.word	.LANCHOR0
 261              		.cfi_endproc
 262              	.LFE15:
 263              		.size	_free_r, .-_free_r
 264              		.section	.bss.pdrealloc,"aw",%nobits
 265              		.align	2
 266              		.set	.LANCHOR0,. + 0
 267              		.type	pdrealloc, %object
 268              		.size	pdrealloc, 4
 269              	pdrealloc:
 270 0000 00000000 		.space	4
 271              		.text
 272              	.Letext0:
 273              		.file 2 "/usr/local/playdate/gcc-arm-none-eabi-9-2019-q4-major/arm-none-eabi/include/machine/_defa
 274              		.file 3 "/usr/local/playdate/gcc-arm-none-eabi-9-2019-q4-major/arm-none-eabi/include/sys/_stdint.h
 275              		.file 4 "/usr/local/playdate/gcc-arm-none-eabi-9-2019-q4-major/lib/gcc/arm-none-eabi/9.2.1/include
 276              		.file 5 "/usr/local/playdate/gcc-arm-none-eabi-9-2019-q4-major/arm-none-eabi/include/sys/lock.h"
 277              		.file 6 "/usr/local/playdate/gcc-arm-none-eabi-9-2019-q4-major/arm-none-eabi/include/sys/_types.h"
 278              		.file 7 "/usr/local/playdate/gcc-arm-none-eabi-9-2019-q4-major/arm-none-eabi/include/sys/reent.h"
 279              		.file 8 "/usr/local/playdate/gcc-arm-none-eabi-9-2019-q4-major/arm-none-eabi/include/stdlib.h"
 280              		.file 9 "/Users/orllewin/Developer/PlaydateSDK-2.0.0/C_API/pd_api/pd_api_gfx.h"
 281              		.file 10 "/Users/orllewin/Developer/PlaydateSDK-2.0.0/C_API/pd_api/pd_api_sys.h"
 282              		.file 11 "/Users/orllewin/Developer/PlaydateSDK-2.0.0/C_API/pd_api/pd_api_lua.h"
 283              		.file 12 "/Users/orllewin/Developer/PlaydateSDK-2.0.0/C_API/pd_api/pd_api_json.h"
 284              		.file 13 "/Users/orllewin/Developer/PlaydateSDK-2.0.0/C_API/pd_api/pd_api_file.h"
 285              		.file 14 "/Users/orllewin/Developer/PlaydateSDK-2.0.0/C_API/pd_api/pd_api_sprite.h"
 286              		.file 15 "/Users/orllewin/Developer/PlaydateSDK-2.0.0/C_API/pd_api/pd_api_sound.h"
 287              		.file 16 "/usr/local/playdate/gcc-arm-none-eabi-9-2019-q4-major/arm-none-eabi/include/math.h"
 288              		.file 17 "/Users/orllewin/Developer/PlaydateSDK-2.0.0/C_API/pd_api/pd_api_display.h"
 289              		.file 18 "/Users/orllewin/Developer/PlaydateSDK-2.0.0/C_API/pd_api/pd_api_scoreboards.h"
 290              		.file 19 "/Users/orllewin/Developer/PlaydateSDK-2.0.0/C_API/pd_api.h"