ARM GAS  /var/folders/cs/83z6p2tj4w57s6p2rt8nwfp00000gn/T//ccPvBcIz.s 			page 1


   1              		.cpu cortex-m7
   2              		.eabi_attribute 27, 1	@ Tag_ABI_HardFP_use
   3              		.eabi_attribute 28, 1	@ Tag_ABI_VFP_args
   4              		.eabi_attribute 20, 1	@ Tag_ABI_FP_denormal
   5              		.eabi_attribute 21, 1	@ Tag_ABI_FP_exceptions
   6              		.eabi_attribute 23, 3	@ Tag_ABI_FP_number_model
   7              		.eabi_attribute 24, 1	@ Tag_ABI_align8_needed
   8              		.eabi_attribute 25, 1	@ Tag_ABI_align8_preserved
   9              		.eabi_attribute 26, 1	@ Tag_ABI_enum_size
  10              		.eabi_attribute 30, 2	@ Tag_ABI_optimization_goals
  11              		.eabi_attribute 34, 1	@ Tag_CPU_unaligned_access
  12              		.eabi_attribute 18, 4	@ Tag_ABI_PCS_wchar_t
  13              		.file	"shape.c"
  14              	@ GNU C17 (GNU Tools for Arm Embedded Processors 9-2019-q4-major) version 9.2.1 20191025 (release) 
  15              	@	compiled by GNU C version 4.2.1 Compatible Apple LLVM 9.0.0 (clang-900.0.39.2), GMP version 6.1.0
  16              	
  17              	@ GGC heuristics: --param ggc-min-expand=100 --param ggc-min-heapsize=131072
  18              	@ options passed:  -I . -I .
  19              	@ -I /Users/orllewin/Developer/PlaydateSDK-2.0.0/C_API -I mini3d
  20              	@ -imultilib thumb/v7e-m+fp/hard
  21              	@ -iprefix /usr/local/playdate/gcc-arm-none-eabi-9-2019-q4-major/bin/../lib/gcc/arm-none-eabi/9.2.1
  22              	@ -isysroot /usr/local/playdate/gcc-arm-none-eabi-9-2019-q4-major/bin/../arm-none-eabi
  23              	@ -MD build/mini3d/shape.d -MF build/dep/shape.o.d -MP
  24              	@ -MQ build/mini3d/shape.o -D__USES_INITFINI__ -D __FPU_USED=1
  25              	@ -D TARGET_PLAYDATE=1 -D TARGET_EXTENSION=1 mini3d/shape.c -mthumb
  26              	@ -mcpu=cortex-m7 -mfloat-abi=hard -mfpu=fpv5-sp-d16 -mword-relocations
  27              	@ -march=armv7e-m+fpv5 -auxbase-strip build/mini3d/shape.o -g3 -gdwarf-2
  28              	@ -O2 -Wall -Wno-unused -Wstrict-prototypes -Wno-unknown-pragmas
  29              	@ -Wdouble-promotion -falign-functions=16 -fomit-frame-pointer
  30              	@ -fverbose-asm -fno-common -ffunction-sections -fdata-sections
  31              	@ options enabled:  -faggressive-loop-optimizations -falign-functions
  32              	@ -falign-jumps -falign-labels -falign-loops -fassume-phsa -fauto-inc-dec
  33              	@ -fbranch-count-reg -fcaller-saves -fcombine-stack-adjustments
  34              	@ -fcompare-elim -fcprop-registers -fcrossjumping -fcse-follow-jumps
  35              	@ -fdata-sections -fdefer-pop -fdelete-null-pointer-checks -fdevirtualize
  36              	@ -fdevirtualize-speculatively -fdwarf2-cfi-asm -fearly-inlining
  37              	@ -feliminate-unused-debug-types -fexpensive-optimizations
  38              	@ -fforward-propagate -ffp-int-builtin-inexact -ffunction-cse
  39              	@ -ffunction-sections -fgcse -fgcse-lm -fgnu-runtime -fgnu-unique
  40              	@ -fguess-branch-probability -fhoist-adjacent-loads -fident -fif-conversion
  41              	@ -fif-conversion2 -findirect-inlining -finline -finline-atomics
  42              	@ -finline-functions-called-once -finline-small-functions -fipa-bit-cp
  43              	@ -fipa-cp -fipa-icf -fipa-icf-functions -fipa-icf-variables -fipa-profile
  44              	@ -fipa-pure-const -fipa-ra -fipa-reference -fipa-reference-addressable
  45              	@ -fipa-sra -fipa-stack-alignment -fipa-vrp -fira-hoist-pressure
  46              	@ -fira-share-save-slots -fira-share-spill-slots
  47              	@ -fisolate-erroneous-paths-dereference -fivopts -fkeep-static-consts
  48              	@ -fleading-underscore -flifetime-dse -flra-remat -flto-odr-type-merging
  49              	@ -fmath-errno -fmerge-constants -fmerge-debug-strings
  50              	@ -fmove-loop-invariants -fomit-frame-pointer -foptimize-sibling-calls
  51              	@ -foptimize-strlen -fpartial-inlining -fpeephole -fpeephole2 -fplt
  52              	@ -fprefetch-loop-arrays -freg-struct-return -freorder-blocks
  53              	@ -freorder-functions -frerun-cse-after-loop
  54              	@ -fsched-critical-path-heuristic -fsched-dep-count-heuristic
  55              	@ -fsched-group-heuristic -fsched-interblock -fsched-last-insn-heuristic
  56              	@ -fsched-pressure -fsched-rank-heuristic -fsched-spec
  57              	@ -fsched-spec-insn-heuristic -fsched-stalled-insns-dep -fschedule-insns
ARM GAS  /var/folders/cs/83z6p2tj4w57s6p2rt8nwfp00000gn/T//ccPvBcIz.s 			page 2


  58              	@ -fschedule-insns2 -fsection-anchors -fsemantic-interposition
  59              	@ -fshow-column -fshrink-wrap -fshrink-wrap-separate -fsigned-zeros
  60              	@ -fsplit-ivs-in-unroller -fsplit-wide-types -fssa-backprop -fssa-phiopt
  61              	@ -fstdarg-opt -fstore-merging -fstrict-aliasing
  62              	@ -fstrict-volatile-bitfields -fsync-libcalls -fthread-jumps
  63              	@ -ftoplevel-reorder -ftrapping-math -ftree-bit-ccp -ftree-builtin-call-dce
  64              	@ -ftree-ccp -ftree-ch -ftree-coalesce-vars -ftree-copy-prop -ftree-cselim
  65              	@ -ftree-dce -ftree-dominator-opts -ftree-dse -ftree-forwprop -ftree-fre
  66              	@ -ftree-loop-if-convert -ftree-loop-im -ftree-loop-ivcanon
  67              	@ -ftree-loop-optimize -ftree-parallelize-loops= -ftree-phiprop -ftree-pre
  68              	@ -ftree-pta -ftree-reassoc -ftree-scev-cprop -ftree-sink -ftree-slsr
  69              	@ -ftree-sra -ftree-switch-conversion -ftree-tail-merge -ftree-ter
  70              	@ -ftree-vrp -funit-at-a-time -fvar-tracking -fvar-tracking-assignments
  71              	@ -fverbose-asm -fzero-initialized-in-bss -masm-syntax-unified -mbe32
  72              	@ -mlittle-endian -mpic-data-is-text-relative -msched-prolog -mthumb
  73              	@ -munaligned-access -mvectorize-with-neon-quad -mword-relocations
  74              	
  75              		.text
  76              	.Ltext0:
  77              		.cfi_sections	.debug_frame
  78              		.section	.text.Shape3D_init,"ax",%progbits
  79              		.align	1
  80              		.p2align 4,,15
  81              		.global	Shape3D_init
  82              		.arch armv7e-m
  83              		.syntax unified
  84              		.thumb
  85              		.thumb_func
  86              		.fpu fpv5-sp-d16
  87              		.type	Shape3D_init, %function
  88              	Shape3D_init:
  89              	.LVL0:
  90              	.LFB12:
  91              		.file 1 "mini3d/shape.c"
   1:mini3d/shape.c **** //
   2:mini3d/shape.c **** //  shape.c
   3:mini3d/shape.c **** //  Extension
   4:mini3d/shape.c **** //
   5:mini3d/shape.c **** //  Created by Dave Hayden on 10/7/15.
   6:mini3d/shape.c **** //  Copyright © 2015 Panic, Inc. All rights reserved.
   7:mini3d/shape.c **** //
   8:mini3d/shape.c **** 
   9:mini3d/shape.c **** #include "mini3d.h"
  10:mini3d/shape.c **** #include "shape.h"
  11:mini3d/shape.c **** 
  12:mini3d/shape.c **** void Shape3D_init(Shape3D* shape)
  13:mini3d/shape.c **** {
  92              		.loc 1 13 1 view -0
  93              		.cfi_startproc
  94              		@ args = 0, pretend = 0, frame = 0
  95              		@ frame_needed = 0, uses_anonymous_args = 0
  96              		@ link register save eliminated.
  14:mini3d/shape.c **** 	shape->retainCount = 0;
  97              		.loc 1 14 2 view .LVU1
  98              	@ mini3d/shape.c:14: 	shape->retainCount = 0;
  99              		.loc 1 14 21 is_stmt 0 view .LVU2
 100 0000 0023     		movs	r3, #0	@ tmp111,
ARM GAS  /var/folders/cs/83z6p2tj4w57s6p2rt8nwfp00000gn/T//ccPvBcIz.s 			page 3


 101              	@ mini3d/shape.c:23: 	shape->isClosed = 0;
  15:mini3d/shape.c **** 	shape->nPoints = 0;
  16:mini3d/shape.c **** 	shape->points = NULL;
  17:mini3d/shape.c **** 	shape->nFaces = 0;
  18:mini3d/shape.c **** 	shape->faces = NULL;
  19:mini3d/shape.c **** 	shape->center.x = 0;
  20:mini3d/shape.c **** 	shape->center.y = 0;
  21:mini3d/shape.c **** 	shape->center.z = 0;
  22:mini3d/shape.c **** 	shape->colorBias = 0;
  23:mini3d/shape.c **** 	shape->isClosed = 0;
 102              		.loc 1 23 18 view .LVU3
 103 0002 90F82410 		ldrb	r1, [r0, #36]	@ zero_extendqisi2	@, shape_2(D)->isClosed
 104              	@ mini3d/shape.c:19: 	shape->center.x = 0;
  19:mini3d/shape.c **** 	shape->center.y = 0;
 105              		.loc 1 19 18 view .LVU4
 106 0006 0022     		movs	r2, #0	@ tmp116,
 107              	@ mini3d/shape.c:23: 	shape->isClosed = 0;
 108              		.loc 1 23 18 view .LVU5
 109 0008 63F30001 		bfi	r1, r3, #0, #1	@ shape_2(D)->isClosed, tmp111,,
 110              	@ mini3d/shape.c:14: 	shape->retainCount = 0;
  14:mini3d/shape.c **** 	shape->retainCount = 0;
 111              		.loc 1 14 21 view .LVU6
 112 000c 0360     		str	r3, [r0]	@ tmp111, shape_2(D)->retainCount
  15:mini3d/shape.c **** 	shape->nPoints = 0;
 113              		.loc 1 15 2 is_stmt 1 view .LVU7
 114              	@ mini3d/shape.c:19: 	shape->center.x = 0;
  19:mini3d/shape.c **** 	shape->center.y = 0;
 115              		.loc 1 19 18 is_stmt 0 view .LVU8
 116 000e 4261     		str	r2, [r0, #20]	@ float	@ tmp116, shape_2(D)->center.x
 117              	@ mini3d/shape.c:23: 	shape->isClosed = 0;
 118              		.loc 1 23 18 view .LVU9
 119 0010 80F82410 		strb	r1, [r0, #36]	@ shape_2(D)->isClosed, shape_2(D)->isClosed
 120              	@ mini3d/shape.c:20: 	shape->center.y = 0;
  20:mini3d/shape.c **** 	shape->center.z = 0;
 121              		.loc 1 20 18 view .LVU10
 122 0014 8261     		str	r2, [r0, #24]	@ float	@ tmp116, shape_2(D)->center.y
 123              	@ mini3d/shape.c:21: 	shape->center.z = 0;
  21:mini3d/shape.c **** 	shape->colorBias = 0;
 124              		.loc 1 21 18 view .LVU11
 125 0016 C261     		str	r2, [r0, #28]	@ float	@ tmp116, shape_2(D)->center.z
 126              	@ mini3d/shape.c:22: 	shape->colorBias = 0;
  22:mini3d/shape.c **** 	shape->isClosed = 0;
 127              		.loc 1 22 19 view .LVU12
 128 0018 0262     		str	r2, [r0, #32]	@ float	@ tmp116, shape_2(D)->colorBias
 129              	@ mini3d/shape.c:16: 	shape->points = NULL;
  16:mini3d/shape.c **** 	shape->nFaces = 0;
 130              		.loc 1 16 16 view .LVU13
 131 001a C0E90133 		strd	r3, r3, [r0, #4]	@ tmp111, tmp111, shape,
  17:mini3d/shape.c **** 	shape->faces = NULL;
 132              		.loc 1 17 2 is_stmt 1 view .LVU14
 133              	@ mini3d/shape.c:18: 	shape->faces = NULL;
  18:mini3d/shape.c **** 	shape->center.x = 0;
 134              		.loc 1 18 15 is_stmt 0 view .LVU15
 135 001e C0E90333 		strd	r3, r3, [r0, #12]	@ tmp111, tmp111, shape,
  19:mini3d/shape.c **** 	shape->center.y = 0;
 136              		.loc 1 19 2 is_stmt 1 view .LVU16
  20:mini3d/shape.c **** 	shape->center.z = 0;
ARM GAS  /var/folders/cs/83z6p2tj4w57s6p2rt8nwfp00000gn/T//ccPvBcIz.s 			page 4


 137              		.loc 1 20 2 view .LVU17
  21:mini3d/shape.c **** 	shape->colorBias = 0;
 138              		.loc 1 21 2 view .LVU18
  22:mini3d/shape.c **** 	shape->isClosed = 0;
 139              		.loc 1 22 2 view .LVU19
 140              		.loc 1 23 2 view .LVU20
 141              	@ mini3d/shape.c:27: }
  24:mini3d/shape.c **** #if ENABLE_ORDERING_TABLE
  25:mini3d/shape.c **** 	shape->orderTableSize = 0;
  26:mini3d/shape.c **** #endif
  27:mini3d/shape.c **** }
 142              		.loc 1 27 1 is_stmt 0 view .LVU21
 143 0022 7047     		bx	lr	@
 144              		.cfi_endproc
 145              	.LFE12:
 146              		.size	Shape3D_init, .-Shape3D_init
 147              		.section	.text.Shape3D_retain,"ax",%progbits
 148              		.align	1
 149              		.p2align 4,,15
 150              		.global	Shape3D_retain
 151              		.syntax unified
 152              		.thumb
 153              		.thumb_func
 154              		.fpu fpv5-sp-d16
 155              		.type	Shape3D_retain, %function
 156              	Shape3D_retain:
 157              	.LVL1:
 158              	.LFB13:
  28:mini3d/shape.c **** 
  29:mini3d/shape.c **** Shape3D* Shape3D_retain(Shape3D* shape)
  30:mini3d/shape.c **** {
 159              		.loc 1 30 1 is_stmt 1 view -0
 160              		.cfi_startproc
 161              		@ args = 0, pretend = 0, frame = 0
 162              		@ frame_needed = 0, uses_anonymous_args = 0
 163              		@ link register save eliminated.
  31:mini3d/shape.c **** 	++shape->retainCount;
 164              		.loc 1 31 2 view .LVU23
 165 0000 0268     		ldr	r2, [r0]	@ shape_4(D)->retainCount, shape_4(D)->retainCount
 166 0002 0132     		adds	r2, r2, #1	@ tmp114, shape_4(D)->retainCount,
 167 0004 0260     		str	r2, [r0]	@ tmp114, shape_4(D)->retainCount
  32:mini3d/shape.c **** 	return shape;
 168              		.loc 1 32 2 view .LVU24
 169              	@ mini3d/shape.c:33: }
  33:mini3d/shape.c **** }
 170              		.loc 1 33 1 is_stmt 0 view .LVU25
 171 0006 7047     		bx	lr	@
 172              		.cfi_endproc
 173              	.LFE13:
 174              		.size	Shape3D_retain, .-Shape3D_retain
 175              		.section	.text.Shape3D_release,"ax",%progbits
 176              		.align	1
 177              		.p2align 4,,15
 178              		.global	Shape3D_release
 179              		.syntax unified
 180              		.thumb
 181              		.thumb_func
ARM GAS  /var/folders/cs/83z6p2tj4w57s6p2rt8nwfp00000gn/T//ccPvBcIz.s 			page 5


 182              		.fpu fpv5-sp-d16
 183              		.type	Shape3D_release, %function
 184              	Shape3D_release:
 185              	.LVL2:
 186              	.LFB14:
  34:mini3d/shape.c **** 
  35:mini3d/shape.c **** void Shape3D_release(Shape3D* shape)
  36:mini3d/shape.c **** {
 187              		.loc 1 36 1 is_stmt 1 view -0
 188              		.cfi_startproc
 189              		@ args = 0, pretend = 0, frame = 0
 190              		@ frame_needed = 0, uses_anonymous_args = 0
  37:mini3d/shape.c **** 	if ( --shape->retainCount > 0 )
 191              		.loc 1 37 2 view .LVU27
 192              	@ mini3d/shape.c:37: 	if ( --shape->retainCount > 0 )
 193              		.loc 1 37 7 is_stmt 0 view .LVU28
 194 0000 0368     		ldr	r3, [r0]	@ shape_12(D)->retainCount, shape_12(D)->retainCount
 195 0002 013B     		subs	r3, r3, #1	@ _2, shape_12(D)->retainCount,
 196              	@ mini3d/shape.c:37: 	if ( --shape->retainCount > 0 )
 197              		.loc 1 37 5 view .LVU29
 198 0004 002B     		cmp	r3, #0	@ _2,
 199 0006 0360     		str	r3, [r0]	@ _2, shape_12(D)->retainCount
 200 0008 12DC     		bgt	.L4		@,
  38:mini3d/shape.c **** 		return;
  39:mini3d/shape.c **** 	
  40:mini3d/shape.c **** 	if ( shape->points != NULL )
 201              		.loc 1 40 2 is_stmt 1 view .LVU30
 202              	@ mini3d/shape.c:36: {
  36:mini3d/shape.c **** 	if ( --shape->retainCount > 0 )
 203              		.loc 1 36 1 is_stmt 0 view .LVU31
 204 000a 70B5     		push	{r4, r5, r6, lr}	@
 205              	.LCFI0:
 206              		.cfi_def_cfa_offset 16
 207              		.cfi_offset 4, -16
 208              		.cfi_offset 5, -12
 209              		.cfi_offset 6, -8
 210              		.cfi_offset 14, -4
 211 000c 0446     		mov	r4, r0	@ shape, tmp126
 212              	@ mini3d/shape.c:40: 	if ( shape->points != NULL )
 213              		.loc 1 40 12 view .LVU32
 214 000e 8068     		ldr	r0, [r0, #8]	@ _3, shape_12(D)->points
 215              	.LVL3:
 216              	@ mini3d/shape.c:41: 		m3d_free(shape->points);
  41:mini3d/shape.c **** 		m3d_free(shape->points);
 217              		.loc 1 41 3 view .LVU33
 218 0010 084D     		ldr	r5, .L17	@ tmp125,
 219              	@ mini3d/shape.c:40: 	if ( shape->points != NULL )
  40:mini3d/shape.c **** 		m3d_free(shape->points);
 220              		.loc 1 40 5 view .LVU34
 221 0012 10B1     		cbz	r0, .L6	@ _3,
 222              		.loc 1 41 3 is_stmt 1 view .LVU35
 223 0014 0021     		movs	r1, #0	@,
 224 0016 2B68     		ldr	r3, [r5]	@ m3d_realloc, m3d_realloc
 225 0018 9847     		blx	r3		@ m3d_realloc
 226              	.LVL4:
 227              	.L6:
  42:mini3d/shape.c **** 	
ARM GAS  /var/folders/cs/83z6p2tj4w57s6p2rt8nwfp00000gn/T//ccPvBcIz.s 			page 6


  43:mini3d/shape.c **** 	if ( shape->faces != NULL )
 228              		.loc 1 43 2 view .LVU36
 229              	@ mini3d/shape.c:43: 	if ( shape->faces != NULL )
 230              		.loc 1 43 12 is_stmt 0 view .LVU37
 231 001a 2069     		ldr	r0, [r4, #16]	@ _5, shape_12(D)->faces
 232              	@ mini3d/shape.c:43: 	if ( shape->faces != NULL )
 233              		.loc 1 43 5 view .LVU38
 234 001c 10B1     		cbz	r0, .L7	@ _5,
  44:mini3d/shape.c **** 		m3d_free(shape->faces);
 235              		.loc 1 44 3 is_stmt 1 view .LVU39
 236 001e 2B68     		ldr	r3, [r5]	@ m3d_realloc, m3d_realloc
 237 0020 0021     		movs	r1, #0	@,
 238 0022 9847     		blx	r3		@ m3d_realloc
 239              	.LVL5:
 240              	.L7:
  45:mini3d/shape.c **** 	
  46:mini3d/shape.c **** 	m3d_free(shape);
 241              		.loc 1 46 2 view .LVU40
 242 0024 2B68     		ldr	r3, [r5]	@ m3d_realloc, m3d_realloc
 243 0026 2046     		mov	r0, r4	@, shape
 244 0028 0021     		movs	r1, #0	@,
 245              	@ mini3d/shape.c:47: }
  47:mini3d/shape.c **** }
 246              		.loc 1 47 1 is_stmt 0 view .LVU41
 247 002a BDE87040 		pop	{r4, r5, r6, lr}	@
 248              	.LCFI1:
 249              		.cfi_restore 14
 250              		.cfi_restore 6
 251              		.cfi_restore 5
 252              		.cfi_restore 4
 253              		.cfi_def_cfa_offset 0
 254              	.LVL6:
 255              	@ mini3d/shape.c:46: 	m3d_free(shape);
  46:mini3d/shape.c **** }
 256              		.loc 1 46 2 view .LVU42
 257 002e 1847     		bx	r3		@ m3d_realloc
 258              	.LVL7:
 259              	.L4:
  46:mini3d/shape.c **** }
 260              		.loc 1 46 2 view .LVU43
 261 0030 7047     		bx	lr	@
 262              	.L18:
 263 0032 00BF     		.align	2
 264              	.L17:
 265 0034 00000000 		.word	m3d_realloc
 266              		.cfi_endproc
 267              	.LFE14:
 268              		.size	Shape3D_release, .-Shape3D_release
 269              		.section	.text.Shape3D_addPoint,"ax",%progbits
 270              		.align	1
 271              		.p2align 4,,15
 272              		.global	Shape3D_addPoint
 273              		.syntax unified
 274              		.thumb
 275              		.thumb_func
 276              		.fpu fpv5-sp-d16
 277              		.type	Shape3D_addPoint, %function
ARM GAS  /var/folders/cs/83z6p2tj4w57s6p2rt8nwfp00000gn/T//ccPvBcIz.s 			page 7


 278              	Shape3D_addPoint:
 279              	.LVL8:
 280              	.LFB15:
  48:mini3d/shape.c **** 
  49:mini3d/shape.c **** int Shape3D_addPoint(Shape3D* shape, Point3D* p)
  50:mini3d/shape.c **** {
 281              		.loc 1 50 1 is_stmt 1 view -0
 282              		.cfi_startproc
 283              		@ args = 0, pretend = 0, frame = 0
 284              		@ frame_needed = 0, uses_anonymous_args = 0
  51:mini3d/shape.c **** 	int i;
 285              		.loc 1 51 2 view .LVU45
  52:mini3d/shape.c **** 	
  53:mini3d/shape.c **** 	for ( i = 0; i < shape->nPoints; ++i )
 286              		.loc 1 53 2 view .LVU46
 287              		.loc 1 53 15 view .LVU47
 288              	@ mini3d/shape.c:50: {
  50:mini3d/shape.c **** 	int i;
 289              		.loc 1 50 1 is_stmt 0 view .LVU48
 290 0000 F8B5     		push	{r3, r4, r5, r6, r7, lr}	@
 291              	.LCFI2:
 292              		.cfi_def_cfa_offset 24
 293              		.cfi_offset 3, -24
 294              		.cfi_offset 4, -20
 295              		.cfi_offset 5, -16
 296              		.cfi_offset 6, -12
 297              		.cfi_offset 7, -8
 298              		.cfi_offset 14, -4
 299              	@ mini3d/shape.c:53: 	for ( i = 0; i < shape->nPoints; ++i )
 300              		.loc 1 53 24 view .LVU49
 301 0002 4568     		ldr	r5, [r0, #4]	@ _48, shape_24(D)->nPoints
 302              	@ mini3d/shape.c:50: {
  50:mini3d/shape.c **** 	int i;
 303              		.loc 1 50 1 view .LVU50
 304 0004 0746     		mov	r7, r0	@ shape, tmp167
 305 0006 0E46     		mov	r6, r1	@ p, tmp168
 306              	@ mini3d/shape.c:55: 		if ( Point3D_equals(*p, shape->points[i]) )
  54:mini3d/shape.c **** 	{
  55:mini3d/shape.c **** 		if ( Point3D_equals(*p, shape->points[i]) )
 307              		.loc 1 55 32 view .LVU51
 308 0008 8068     		ldr	r0, [r0, #8]	@ _1, shape_24(D)->points
 309              	.LVL9:
 310              	@ mini3d/shape.c:53: 	for ( i = 0; i < shape->nPoints; ++i )
  53:mini3d/shape.c **** 	{
 311              		.loc 1 53 2 view .LVU52
 312 000a 002D     		cmp	r5, #0	@ _48,
 313 000c 28DD     		ble	.L24		@,
 314              	@ mini3d/shape.c:53: 	for ( i = 0; i < shape->nPoints; ++i )
  53:mini3d/shape.c **** 	{
 315              		.loc 1 53 10 view .LVU53
 316 000e 0024     		movs	r4, #0	@ <retval>,
 317 0010 91ED006A 		vldr.32	s12, [r1]	@ a$x, MEM[(struct Point3D *)p_28(D)]
 318 0014 0346     		mov	r3, r0	@ ivtmp.32, _1
 319 0016 D1ED016A 		vldr.32	s13, [r1, #4]	@ a$y, MEM[(struct Point3D *)p_28(D) + 4B]
 320 001a D1ED025A 		vldr.32	s11, [r1, #8]	@ a$z, MEM[(struct Point3D *)p_28(D) + 8B]
 321 001e 03E0     		b	.L23		@
 322              	.LVL10:
ARM GAS  /var/folders/cs/83z6p2tj4w57s6p2rt8nwfp00000gn/T//ccPvBcIz.s 			page 8


 323              	.L25:
 324              	@ mini3d/shape.c:53: 	for ( i = 0; i < shape->nPoints; ++i )
  53:mini3d/shape.c **** 	{
 325              		.loc 1 53 35 view .LVU54
 326 0020 0134     		adds	r4, r4, #1	@ <retval>, <retval>,
 327              	.LVL11:
  53:mini3d/shape.c **** 	{
 328              		.loc 1 53 15 is_stmt 1 view .LVU55
 329 0022 0C33     		adds	r3, r3, #12	@ ivtmp.32, ivtmp.32,
 330              	@ mini3d/shape.c:53: 	for ( i = 0; i < shape->nPoints; ++i )
  53:mini3d/shape.c **** 	{
 331              		.loc 1 53 2 is_stmt 0 view .LVU56
 332 0024 AC42     		cmp	r4, r5	@ <retval>, _48
 333 0026 1BD0     		beq	.L24		@,
 334              	.LVL12:
 335              	.L23:
 336              		.loc 1 55 3 is_stmt 1 view .LVU57
 337              	.LBB4:
 338              	.LBI4:
 339              		.file 2 "mini3d/3dmath.h"
   1:mini3d/3dmath.h **** //
   2:mini3d/3dmath.h **** //  pd3d.h
   3:mini3d/3dmath.h **** //  Playdate Simulator
   4:mini3d/3dmath.h **** //
   5:mini3d/3dmath.h **** //  Created by Dave Hayden on 8/25/15.
   6:mini3d/3dmath.h **** //  Copyright (c) 2015 Panic, Inc. All rights reserved.
   7:mini3d/3dmath.h **** //
   8:mini3d/3dmath.h **** 
   9:mini3d/3dmath.h **** #ifndef __Playdate_Simulator__pd3d__
  10:mini3d/3dmath.h **** #define __Playdate_Simulator__pd3d__
  11:mini3d/3dmath.h **** 
  12:mini3d/3dmath.h **** #include <stdio.h>
  13:mini3d/3dmath.h **** #include <stdint.h>
  14:mini3d/3dmath.h **** #include <math.h>
  15:mini3d/3dmath.h **** 
  16:mini3d/3dmath.h **** #if TARGET_PLAYDATE
  17:mini3d/3dmath.h **** static inline float _lib3d_sqrtf(float x)
  18:mini3d/3dmath.h **** {
  19:mini3d/3dmath.h **** 	float result;
  20:mini3d/3dmath.h **** 	asm ("vsqrt.f32 %0, %1" : "=t"(result) : "t"(x));
  21:mini3d/3dmath.h **** 	return result;
  22:mini3d/3dmath.h **** }
  23:mini3d/3dmath.h **** #define sqrtf(f) _lib3d_sqrtf(f)
  24:mini3d/3dmath.h **** #endif
  25:mini3d/3dmath.h **** 
  26:mini3d/3dmath.h **** typedef struct
  27:mini3d/3dmath.h **** {
  28:mini3d/3dmath.h **** 	float x;
  29:mini3d/3dmath.h **** 	float y;
  30:mini3d/3dmath.h **** 	float z;
  31:mini3d/3dmath.h **** } Point3D;
  32:mini3d/3dmath.h **** 
  33:mini3d/3dmath.h **** static inline Point3D Point3DMake(float x, float y, float z)
  34:mini3d/3dmath.h **** {
  35:mini3d/3dmath.h **** 	return (Point3D){ .x = x, .y = y, .z = z };
  36:mini3d/3dmath.h **** }
  37:mini3d/3dmath.h **** 
ARM GAS  /var/folders/cs/83z6p2tj4w57s6p2rt8nwfp00000gn/T//ccPvBcIz.s 			page 9


  38:mini3d/3dmath.h **** static inline int Point3D_equals(Point3D a, Point3D b)
 340              		.loc 2 38 19 view .LVU58
 341              	.LBB5:
  39:mini3d/3dmath.h **** {
  40:mini3d/3dmath.h **** 	return (a.x == b.x) && (a.y == b.y) && (a.z == b.z);
 342              		.loc 2 40 2 view .LVU59
 343              		.loc 2 40 2 is_stmt 0 view .LVU60
 344              	.LBE5:
 345              	.LBE4:
  53:mini3d/shape.c **** 	{
 346              		.loc 1 53 35 is_stmt 1 view .LVU61
 347              	.LBB7:
 348              	.LBB6:
 349              	@ mini3d/3dmath.h:40: 	return (a.x == b.x) && (a.y == b.y) && (a.z == b.z);
 350              		.loc 2 40 22 is_stmt 0 view .LVU62
 351 0028 93ED017A 		vldr.32	s14, [r3, #4]	@ MEM[base: _57, offset: 4B], MEM[base: _57, offset: 4B]
 352              	@ mini3d/3dmath.h:40: 	return (a.x == b.x) && (a.y == b.y) && (a.z == b.z);
 353              		.loc 2 40 38 view .LVU63
 354 002c D3ED007A 		vldr.32	s15, [r3]	@ MEM[base: _57, offset: 0B], MEM[base: _57, offset: 0B]
 355              	@ mini3d/3dmath.h:40: 	return (a.x == b.x) && (a.y == b.y) && (a.z == b.z);
 356              		.loc 2 40 22 view .LVU64
 357 0030 B4EE667A 		vcmp.f32	s14, s13	@ MEM[base: _57, offset: 4B], a$y
 358 0034 F1EE10FA 		vmrs	APSR_nzcv, FPSCR
 359              	@ mini3d/3dmath.h:40: 	return (a.x == b.x) && (a.y == b.y) && (a.z == b.z);
 360              		.loc 2 40 38 view .LVU65
 361 0038 F4EE467A 		vcmp.f32	s15, s12	@ MEM[base: _57, offset: 0B], a$x
 362              	@ mini3d/3dmath.h:40: 	return (a.x == b.x) && (a.y == b.y) && (a.z == b.z);
 363              		.loc 2 40 22 view .LVU66
 364 003c 14BF     		ite	ne
 365 003e 0022     		movne	r2, #0	@ tmp139,
 366 0040 0122     		moveq	r2, #1	@ tmp139,
 367              	@ mini3d/3dmath.h:40: 	return (a.x == b.x) && (a.y == b.y) && (a.z == b.z);
 368              		.loc 2 40 38 view .LVU67
 369 0042 F1EE10FA 		vmrs	APSR_nzcv, FPSCR
 370 0046 18BF     		it	ne
 371 0048 0022     		movne	r2, #0	@ tmp145,
 372 004a 002A     		cmp	r2, #0	@ tmp145
 373 004c E8D0     		beq	.L25	@
 374 004e D3ED027A 		vldr.32	s15, [r3, #8]	@ MEM[base: _57, offset: 8B], MEM[base: _57, offset: 8B]
 375 0052 F4EE657A 		vcmp.f32	s15, s11	@ MEM[base: _57, offset: 8B], a$z
 376 0056 F1EE10FA 		vmrs	APSR_nzcv, FPSCR
 377 005a E1D1     		bne	.L25		@,
 378              	.LBE6:
 379              	.LBE7:
 380              	@ mini3d/shape.c:65: }
  56:mini3d/shape.c **** 			return i;
  57:mini3d/shape.c **** 	}
  58:mini3d/shape.c **** 	
  59:mini3d/shape.c **** 	shape->points = m3d_realloc(shape->points, (shape->nPoints + 1) * sizeof(Point3D));
  60:mini3d/shape.c **** 	
  61:mini3d/shape.c **** 	Point3D* point = &shape->points[shape->nPoints];
  62:mini3d/shape.c **** 	*point = *p;
  63:mini3d/shape.c **** 	
  64:mini3d/shape.c **** 	return shape->nPoints++;
  65:mini3d/shape.c **** }
 381              		.loc 1 65 1 view .LVU68
 382 005c 2046     		mov	r0, r4	@, <retval>
ARM GAS  /var/folders/cs/83z6p2tj4w57s6p2rt8nwfp00000gn/T//ccPvBcIz.s 			page 10


 383 005e F8BD     		pop	{r3, r4, r5, r6, r7, pc}	@
 384              	.LVL13:
 385              	.L24:
  59:mini3d/shape.c **** 	
 386              		.loc 1 59 2 is_stmt 1 view .LVU69
 387              	@ mini3d/shape.c:59: 	shape->points = m3d_realloc(shape->points, (shape->nPoints + 1) * sizeof(Poin
  59:mini3d/shape.c **** 	
 388              		.loc 1 59 61 is_stmt 0 view .LVU70
 389 0060 0135     		adds	r5, r5, #1	@ tmp150, _48,
 390              	@ mini3d/shape.c:59: 	shape->points = m3d_realloc(shape->points, (shape->nPoints + 1) * sizeof(Poin
  59:mini3d/shape.c **** 	
 391              		.loc 1 59 18 view .LVU71
 392 0062 0A4B     		ldr	r3, .L31	@ tmp155,
 393 0064 05EB4505 		add	r5, r5, r5, lsl #1	@ tmp153, tmp150, tmp150,
 394 0068 1B68     		ldr	r3, [r3]	@ m3d_realloc, m3d_realloc
 395 006a A900     		lsls	r1, r5, #2	@, tmp153,
 396              	.LVL14:
  59:mini3d/shape.c **** 	
 397              		.loc 1 59 18 view .LVU72
 398 006c 9847     		blx	r3		@ m3d_realloc
 399              	.LVL15:
 400              	@ mini3d/shape.c:61: 	Point3D* point = &shape->points[shape->nPoints];
  61:mini3d/shape.c **** 	*point = *p;
 401              		.loc 1 61 39 view .LVU73
 402 006e 7C68     		ldr	r4, [r7, #4]	@ <retval>, shape_24(D)->nPoints
 403              	@ mini3d/shape.c:59: 	shape->points = m3d_realloc(shape->points, (shape->nPoints + 1) * sizeof(Poin
  59:mini3d/shape.c **** 	
 404              		.loc 1 59 16 view .LVU74
 405 0070 B860     		str	r0, [r7, #8]	@ _13, shape_24(D)->points
  61:mini3d/shape.c **** 	*point = *p;
 406              		.loc 1 61 2 is_stmt 1 view .LVU75
 407              	.LVL16:
  62:mini3d/shape.c **** 	
 408              		.loc 1 62 2 view .LVU76
 409              	@ mini3d/shape.c:62: 	*point = *p;
  62:mini3d/shape.c **** 	
 410              		.loc 1 62 9 is_stmt 0 view .LVU77
 411 0072 04EB4403 		add	r3, r4, r4, lsl #1	@ tmp159, <retval>, <retval>,
 412              	@ mini3d/shape.c:64: 	return shape->nPoints++;
  64:mini3d/shape.c **** }
 413              		.loc 1 64 23 view .LVU78
 414 0076 651C     		adds	r5, r4, #1	@ tmp164, <retval>,
 415              	@ mini3d/shape.c:62: 	*point = *p;
  62:mini3d/shape.c **** 	
 416              		.loc 1 62 9 view .LVU79
 417 0078 00EB8303 		add	r3, r0, r3, lsl #2	@ tmp161, _13, tmp159,
 418 007c 96E80700 		ldm	r6, {r0, r1, r2}	@ p,,,
 419              	.LVL17:
  62:mini3d/shape.c **** 	
 420              		.loc 1 62 9 view .LVU80
 421 0080 83E80700 		stm	r3, {r0, r1, r2}	@ tmp161,,,
  64:mini3d/shape.c **** }
 422              		.loc 1 64 2 is_stmt 1 view .LVU81
 423              	@ mini3d/shape.c:65: }
 424              		.loc 1 65 1 is_stmt 0 view .LVU82
 425 0084 2046     		mov	r0, r4	@, <retval>
 426              	@ mini3d/shape.c:64: 	return shape->nPoints++;
ARM GAS  /var/folders/cs/83z6p2tj4w57s6p2rt8nwfp00000gn/T//ccPvBcIz.s 			page 11


  64:mini3d/shape.c **** }
 427              		.loc 1 64 23 view .LVU83
 428 0086 7D60     		str	r5, [r7, #4]	@ tmp164, shape_24(D)->nPoints
 429              	@ mini3d/shape.c:65: }
 430              		.loc 1 65 1 view .LVU84
 431 0088 F8BD     		pop	{r3, r4, r5, r6, r7, pc}	@
 432              	.LVL18:
 433              	.L32:
 434              		.loc 1 65 1 view .LVU85
 435 008a 00BF     		.align	2
 436              	.L31:
 437 008c 00000000 		.word	m3d_realloc
 438              		.cfi_endproc
 439              	.LFE15:
 440              		.size	Shape3D_addPoint, .-Shape3D_addPoint
 441              		.section	.text.Shape3D_addFace,"ax",%progbits
 442              		.align	1
 443              		.p2align 4,,15
 444              		.global	Shape3D_addFace
 445              		.syntax unified
 446              		.thumb
 447              		.thumb_func
 448              		.fpu fpv5-sp-d16
 449              		.type	Shape3D_addFace, %function
 450              	Shape3D_addFace:
 451              	.LVL19:
 452              	.LFB16:
  66:mini3d/shape.c **** 
  67:mini3d/shape.c **** void Shape3D_addFace(Shape3D* shape, Point3D* a, Point3D* b, Point3D* c, Point3D* d, float colorBia
  68:mini3d/shape.c **** {
 453              		.loc 1 68 1 is_stmt 1 view -0
 454              		.cfi_startproc
 455              		@ args = 4, pretend = 0, frame = 0
 456              		@ frame_needed = 0, uses_anonymous_args = 0
  69:mini3d/shape.c **** 	shape->faces = m3d_realloc(shape->faces, (shape->nFaces + 1) * sizeof(Face3D));
 457              		.loc 1 69 2 view .LVU87
 458              	@ mini3d/shape.c:68: {
  68:mini3d/shape.c **** 	shape->faces = m3d_realloc(shape->faces, (shape->nFaces + 1) * sizeof(Face3D));
 459              		.loc 1 68 1 is_stmt 0 view .LVU88
 460 0000 2DE9F84F 		push	{r3, r4, r5, r6, r7, r8, r9, r10, fp, lr}	@
 461              	.LCFI3:
 462              		.cfi_def_cfa_offset 40
 463              		.cfi_offset 3, -40
 464              		.cfi_offset 4, -36
 465              		.cfi_offset 5, -32
 466              		.cfi_offset 6, -28
 467              		.cfi_offset 7, -24
 468              		.cfi_offset 8, -20
 469              		.cfi_offset 9, -16
 470              		.cfi_offset 10, -12
 471              		.cfi_offset 11, -8
 472              		.cfi_offset 14, -4
 473              	@ mini3d/shape.c:69: 	shape->faces = m3d_realloc(shape->faces, (shape->nFaces + 1) * sizeof(Face3D)
 474              		.loc 1 69 17 view .LVU89
 475 0004 6D4D     		ldr	r5, .L37	@ tmp208,
 476              	@ mini3d/shape.c:68: {
  68:mini3d/shape.c **** 	shape->faces = m3d_realloc(shape->faces, (shape->nFaces + 1) * sizeof(Face3D));
ARM GAS  /var/folders/cs/83z6p2tj4w57s6p2rt8nwfp00000gn/T//ccPvBcIz.s 			page 12


 477              		.loc 1 68 1 view .LVU90
 478 0006 0446     		mov	r4, r0	@ shape, tmp289
 479 0008 8946     		mov	r9, r1	@ a, tmp290
 480 000a 1746     		mov	r7, r2	@ b, tmp291
 481              	@ mini3d/shape.c:69: 	shape->faces = m3d_realloc(shape->faces, (shape->nFaces + 1) * sizeof(Face3D)
 482              		.loc 1 69 17 view .LVU91
 483 000c 2E68     		ldr	r6, [r5]	@ m3d_realloc, m3d_realloc
 484              	@ mini3d/shape.c:68: {
  68:mini3d/shape.c **** 	shape->faces = m3d_realloc(shape->faces, (shape->nFaces + 1) * sizeof(Face3D));
 485              		.loc 1 68 1 view .LVU92
 486 000e 9A46     		mov	r10, r3	@ c, tmp292
 487              	@ mini3d/shape.c:69: 	shape->faces = m3d_realloc(shape->faces, (shape->nFaces + 1) * sizeof(Face3D)
 488              		.loc 1 69 58 view .LVU93
 489 0010 C568     		ldr	r5, [r0, #12]	@ shape_86(D)->nFaces, shape_86(D)->nFaces
 490              	@ mini3d/shape.c:69: 	shape->faces = m3d_realloc(shape->faces, (shape->nFaces + 1) * sizeof(Face3D)
 491              		.loc 1 69 17 view .LVU94
 492 0012 0069     		ldr	r0, [r0, #16]	@, shape_86(D)->faces
 493              	.LVL20:
 494              	@ mini3d/shape.c:69: 	shape->faces = m3d_realloc(shape->faces, (shape->nFaces + 1) * sizeof(Face3D)
 495              		.loc 1 69 58 view .LVU95
 496 0014 0135     		adds	r5, r5, #1	@ tmp201, shape_86(D)->nFaces,
 497              	@ mini3d/shape.c:69: 	shape->faces = m3d_realloc(shape->faces, (shape->nFaces + 1) * sizeof(Face3D)
 498              		.loc 1 69 17 view .LVU96
 499 0016 05EB4505 		add	r5, r5, r5, lsl #1	@ tmp205, tmp201, tmp201,
 500              	@ mini3d/shape.c:68: {
  68:mini3d/shape.c **** 	shape->faces = m3d_realloc(shape->faces, (shape->nFaces + 1) * sizeof(Face3D));
 501              		.loc 1 68 1 view .LVU97
 502 001a 2DED028B 		vpush.64	{d8}	@
 503              	.LCFI4:
 504              		.cfi_def_cfa_offset 48
 505              		.cfi_offset 80, -48
 506              		.cfi_offset 81, -44
 507              	@ mini3d/shape.c:69: 	shape->faces = m3d_realloc(shape->faces, (shape->nFaces + 1) * sizeof(Face3D)
 508              		.loc 1 69 17 view .LVU98
 509 001e A900     		lsls	r1, r5, #2	@, tmp205,
 510              	.LVL21:
 511              	@ mini3d/shape.c:68: {
  68:mini3d/shape.c **** 	shape->faces = m3d_realloc(shape->faces, (shape->nFaces + 1) * sizeof(Face3D));
 512              		.loc 1 68 1 view .LVU99
 513 0020 B0EE408A 		vmov.f32	s16, s0	@ colorBias, tmp293
 514 0024 DDF83080 		ldr	r8, [sp, #48]	@ d, d
 515              	@ mini3d/shape.c:69: 	shape->faces = m3d_realloc(shape->faces, (shape->nFaces + 1) * sizeof(Face3D)
 516              		.loc 1 69 17 view .LVU100
 517 0028 B047     		blx	r6		@ m3d_realloc
 518              	.LVL22:
 519              	@ mini3d/shape.c:71: 	Face3D* face = &shape->faces[shape->nFaces];
  70:mini3d/shape.c **** 	
  71:mini3d/shape.c **** 	Face3D* face = &shape->faces[shape->nFaces];
 520              		.loc 1 71 30 view .LVU101
 521 002a E568     		ldr	r5, [r4, #12]	@ shape_86(D)->nFaces, shape_86(D)->nFaces
 522              	@ mini3d/shape.c:69: 	shape->faces = m3d_realloc(shape->faces, (shape->nFaces + 1) * sizeof(Face3D)
  69:mini3d/shape.c **** 	
 523              		.loc 1 69 17 view .LVU102
 524 002c 0646     		mov	r6, r0	@ _7, tmp294
 525              	@ mini3d/shape.c:72: 	face->p1 = Shape3D_addPoint(shape, a);
  72:mini3d/shape.c **** 	face->p1 = Shape3D_addPoint(shape, a);
 526              		.loc 1 72 13 view .LVU103
ARM GAS  /var/folders/cs/83z6p2tj4w57s6p2rt8nwfp00000gn/T//ccPvBcIz.s 			page 13


 527 002e 4946     		mov	r1, r9	@, a
 528 0030 2046     		mov	r0, r4	@, shape
 529              	@ mini3d/shape.c:71: 	Face3D* face = &shape->faces[shape->nFaces];
  71:mini3d/shape.c **** 	face->p1 = Shape3D_addPoint(shape, a);
 530              		.loc 1 71 30 view .LVU104
 531 0032 05EB4505 		add	r5, r5, r5, lsl #1	@ tmp213, shape_86(D)->nFaces, shape_86(D)->nFaces,
 532              	@ mini3d/shape.c:69: 	shape->faces = m3d_realloc(shape->faces, (shape->nFaces + 1) * sizeof(Face3D)
  69:mini3d/shape.c **** 	
 533              		.loc 1 69 15 view .LVU105
 534 0036 2661     		str	r6, [r4, #16]	@ _7, shape_86(D)->faces
  71:mini3d/shape.c **** 	face->p1 = Shape3D_addPoint(shape, a);
 535              		.loc 1 71 2 is_stmt 1 view .LVU106
 536              	@ mini3d/shape.c:72: 	face->p1 = Shape3D_addPoint(shape, a);
 537              		.loc 1 72 13 is_stmt 0 view .LVU107
 538 0038 FFF7FEFF 		bl	Shape3D_addPoint		@
 539              	.LVL23:
 540 003c 0346     		mov	r3, r0	@ tmp295,
 541              	@ mini3d/shape.c:71: 	Face3D* face = &shape->faces[shape->nFaces];
  71:mini3d/shape.c **** 	face->p1 = Shape3D_addPoint(shape, a);
 542              		.loc 1 71 30 view .LVU108
 543 003e 4FEA850B 		lsl	fp, r5, #2	@ tmp214, tmp213,
 544              	@ mini3d/shape.c:73: 	face->p2 = Shape3D_addPoint(shape, b);
  73:mini3d/shape.c **** 	face->p2 = Shape3D_addPoint(shape, b);
 545              		.loc 1 73 13 view .LVU109
 546 0042 3946     		mov	r1, r7	@, b
 547 0044 2046     		mov	r0, r4	@, shape
 548              	@ mini3d/shape.c:71: 	Face3D* face = &shape->faces[shape->nFaces];
  71:mini3d/shape.c **** 	face->p1 = Shape3D_addPoint(shape, a);
 549              		.loc 1 71 10 view .LVU110
 550 0046 06EB8505 		add	r5, r6, r5, lsl #2	@ face, _7, tmp213,
 551              	.LVL24:
  72:mini3d/shape.c **** 	face->p1 = Shape3D_addPoint(shape, a);
 552              		.loc 1 72 2 is_stmt 1 view .LVU111
 553              	@ mini3d/shape.c:72: 	face->p1 = Shape3D_addPoint(shape, a);
  72:mini3d/shape.c **** 	face->p1 = Shape3D_addPoint(shape, a);
 554              		.loc 1 72 11 is_stmt 0 view .LVU112
 555 004a 26F80B30 		strh	r3, [r6, fp]	@ movhi	@ tmp295, face_89->p1
 556              		.loc 1 73 2 is_stmt 1 view .LVU113
 557              	@ mini3d/shape.c:73: 	face->p2 = Shape3D_addPoint(shape, b);
 558              		.loc 1 73 13 is_stmt 0 view .LVU114
 559 004e FFF7FEFF 		bl	Shape3D_addPoint		@
 560              	.LVL25:
 561 0052 0346     		mov	r3, r0	@ tmp296,
 562              	@ mini3d/shape.c:74: 	face->p3 = Shape3D_addPoint(shape, c);
  74:mini3d/shape.c **** 	face->p3 = Shape3D_addPoint(shape, c);
 563              		.loc 1 74 13 view .LVU115
 564 0054 5146     		mov	r1, r10	@, c
 565 0056 2046     		mov	r0, r4	@, shape
 566              	@ mini3d/shape.c:73: 	face->p2 = Shape3D_addPoint(shape, b);
  73:mini3d/shape.c **** 	face->p2 = Shape3D_addPoint(shape, b);
 567              		.loc 1 73 11 view .LVU116
 568 0058 6B80     		strh	r3, [r5, #2]	@ movhi	@ tmp296, face_89->p2
 569              		.loc 1 74 2 is_stmt 1 view .LVU117
 570              	@ mini3d/shape.c:74: 	face->p3 = Shape3D_addPoint(shape, c);
 571              		.loc 1 74 13 is_stmt 0 view .LVU118
 572 005a FFF7FEFF 		bl	Shape3D_addPoint		@
 573              	.LVL26:
ARM GAS  /var/folders/cs/83z6p2tj4w57s6p2rt8nwfp00000gn/T//ccPvBcIz.s 			page 14


 574              	@ mini3d/shape.c:74: 	face->p3 = Shape3D_addPoint(shape, c);
 575              		.loc 1 74 11 view .LVU119
 576 005e A880     		strh	r0, [r5, #4]	@ movhi	@ tmp297, face_89->p3
  75:mini3d/shape.c **** 	face->p4 = (d != NULL) ? Shape3D_addPoint(shape, d) : 0xffff;
 577              		.loc 1 75 2 is_stmt 1 view .LVU120
 578              	@ mini3d/shape.c:75: 	face->p4 = (d != NULL) ? Shape3D_addPoint(shape, d) : 0xffff;
 579              		.loc 1 75 11 is_stmt 0 view .LVU121
 580 0060 B8F1000F 		cmp	r8, #0	@ d
 581 0064 5BD0     		beq	.L34	@
 582              	@ mini3d/shape.c:75: 	face->p4 = (d != NULL) ? Shape3D_addPoint(shape, d) : 0xffff;
 583              		.loc 1 75 27 discriminator 1 view .LVU122
 584 0066 4146     		mov	r1, r8	@, d
 585 0068 2046     		mov	r0, r4	@, shape
 586 006a FFF7FEFF 		bl	Shape3D_addPoint		@
 587              	.LVL27:
 588              	@ mini3d/shape.c:82: 		shape->center.x += (a->x + b->x + c->x + d->x) / 4 / shape->nFaces;
  76:mini3d/shape.c **** 	face->colorBias = colorBias;
  77:mini3d/shape.c **** 	
  78:mini3d/shape.c **** 	++shape->nFaces;
  79:mini3d/shape.c **** 	
  80:mini3d/shape.c **** 	if ( d != NULL )
  81:mini3d/shape.c **** 	{
  82:mini3d/shape.c **** 		shape->center.x += (a->x + b->x + c->x + d->x) / 4 / shape->nFaces;
 589              		.loc 1 82 28 discriminator 1 view .LVU123
 590 006e D7ED007A 		vldr.32	s15, [r7]	@ b_93(D)->x, b_93(D)->x
 591 0072 D9ED006A 		vldr.32	s13, [r9]	@ a_90(D)->x, a_90(D)->x
 592              	@ mini3d/shape.c:82: 		shape->center.x += (a->x + b->x + c->x + d->x) / 4 / shape->nFaces;
 593              		.loc 1 82 50 discriminator 1 view .LVU124
 594 0076 B5EE004A 		vmov.f32	s8, #2.5e-1	@ tmp228,
 595              	@ mini3d/shape.c:83: 		shape->center.y += (a->y + b->y + c->y + d->y) / 4 / shape->nFaces;
  83:mini3d/shape.c **** 		shape->center.y += (a->y + b->y + c->y + d->y) / 4 / shape->nFaces;
 596              		.loc 1 83 28 discriminator 1 view .LVU125
 597 007a D7ED015A 		vldr.32	s11, [r7, #4]	@ b_93(D)->y, b_93(D)->y
 598              	@ mini3d/shape.c:84: 		shape->center.z += (a->z + b->z + c->z + d->z) / 4 / shape->nFaces;
  84:mini3d/shape.c **** 		shape->center.z += (a->z + b->z + c->z + d->z) / 4 / shape->nFaces;
 599              		.loc 1 84 28 discriminator 1 view .LVU126
 600 007e 97ED026A 		vldr.32	s12, [r7, #8]	@ b_93(D)->z, b_93(D)->z
 601              	@ mini3d/shape.c:82: 		shape->center.x += (a->x + b->x + c->x + d->x) / 4 / shape->nFaces;
  82:mini3d/shape.c **** 		shape->center.y += (a->y + b->y + c->y + d->y) / 4 / shape->nFaces;
 602              		.loc 1 82 28 discriminator 1 view .LVU127
 603 0082 76EEA76A 		vadd.f32	s13, s13, s15	@ tmp220, a_90(D)->x, b_93(D)->x
 604              	@ mini3d/shape.c:83: 		shape->center.y += (a->y + b->y + c->y + d->y) / 4 / shape->nFaces;
  83:mini3d/shape.c **** 		shape->center.y += (a->y + b->y + c->y + d->y) / 4 / shape->nFaces;
 605              		.loc 1 83 28 discriminator 1 view .LVU128
 606 0086 99ED017A 		vldr.32	s14, [r9, #4]	@ a_90(D)->y, a_90(D)->y
 607              	@ mini3d/shape.c:84: 		shape->center.z += (a->z + b->z + c->z + d->z) / 4 / shape->nFaces;
 608              		.loc 1 84 28 discriminator 1 view .LVU129
 609 008a D9ED027A 		vldr.32	s15, [r9, #8]	@ a_90(D)->z, a_90(D)->z
 610              	@ mini3d/shape.c:83: 		shape->center.y += (a->y + b->y + c->y + d->y) / 4 / shape->nFaces;
  83:mini3d/shape.c **** 		shape->center.y += (a->y + b->y + c->y + d->y) / 4 / shape->nFaces;
 611              		.loc 1 83 28 discriminator 1 view .LVU130
 612 008e 37EE257A 		vadd.f32	s14, s14, s11	@ tmp232, a_90(D)->y, b_93(D)->y
 613              	@ mini3d/shape.c:82: 		shape->center.x += (a->x + b->x + c->x + d->x) / 4 / shape->nFaces;
  82:mini3d/shape.c **** 		shape->center.y += (a->y + b->y + c->y + d->y) / 4 / shape->nFaces;
 614              		.loc 1 82 35 discriminator 1 view .LVU131
 615 0092 9AED005A 		vldr.32	s10, [r10]	@ c_96(D)->x, c_96(D)->x
 616              	@ mini3d/shape.c:84: 		shape->center.z += (a->z + b->z + c->z + d->z) / 4 / shape->nFaces;
ARM GAS  /var/folders/cs/83z6p2tj4w57s6p2rt8nwfp00000gn/T//ccPvBcIz.s 			page 15


 617              		.loc 1 84 28 discriminator 1 view .LVU132
 618 0096 77EE867A 		vadd.f32	s15, s15, s12	@ tmp244, a_90(D)->z, b_93(D)->z
 619              	@ mini3d/shape.c:83: 		shape->center.y += (a->y + b->y + c->y + d->y) / 4 / shape->nFaces;
  83:mini3d/shape.c **** 		shape->center.y += (a->y + b->y + c->y + d->y) / 4 / shape->nFaces;
 620              		.loc 1 83 35 discriminator 1 view .LVU133
 621 009a DAED015A 		vldr.32	s11, [r10, #4]	@ c_96(D)->y, c_96(D)->y
 622              	@ mini3d/shape.c:84: 		shape->center.z += (a->z + b->z + c->z + d->z) / 4 / shape->nFaces;
 623              		.loc 1 84 35 discriminator 1 view .LVU134
 624 009e 9AED026A 		vldr.32	s12, [r10, #8]	@ c_96(D)->z, c_96(D)->z
 625              	@ mini3d/shape.c:82: 		shape->center.x += (a->x + b->x + c->x + d->x) / 4 / shape->nFaces;
  82:mini3d/shape.c **** 		shape->center.y += (a->y + b->y + c->y + d->y) / 4 / shape->nFaces;
 626              		.loc 1 82 35 discriminator 1 view .LVU135
 627 00a2 76EE856A 		vadd.f32	s13, s13, s10	@ tmp223, tmp220, c_96(D)->x
 628              	@ mini3d/shape.c:78: 	++shape->nFaces;
  78:mini3d/shape.c **** 	
 629              		.loc 1 78 2 discriminator 1 view .LVU136
 630 00a6 E368     		ldr	r3, [r4, #12]	@ shape_86(D)->nFaces, shape_86(D)->nFaces
 631              	@ mini3d/shape.c:83: 		shape->center.y += (a->y + b->y + c->y + d->y) / 4 / shape->nFaces;
  83:mini3d/shape.c **** 		shape->center.z += (a->z + b->z + c->z + d->z) / 4 / shape->nFaces;
 632              		.loc 1 83 35 discriminator 1 view .LVU137
 633 00a8 37EE257A 		vadd.f32	s14, s14, s11	@ tmp235, tmp232, c_96(D)->y
 634              	@ mini3d/shape.c:84: 		shape->center.z += (a->z + b->z + c->z + d->z) / 4 / shape->nFaces;
 635              		.loc 1 84 35 discriminator 1 view .LVU138
 636 00ac 77EE867A 		vadd.f32	s15, s15, s12	@ tmp247, tmp244, c_96(D)->z
 637              	@ mini3d/shape.c:82: 		shape->center.x += (a->x + b->x + c->x + d->x) / 4 / shape->nFaces;
  82:mini3d/shape.c **** 		shape->center.y += (a->y + b->y + c->y + d->y) / 4 / shape->nFaces;
 638              		.loc 1 82 42 discriminator 1 view .LVU139
 639 00b0 98ED005A 		vldr.32	s10, [r8]	@ d_99(D)->x, d_99(D)->x
 640              	@ mini3d/shape.c:83: 		shape->center.y += (a->y + b->y + c->y + d->y) / 4 / shape->nFaces;
  83:mini3d/shape.c **** 		shape->center.z += (a->z + b->z + c->z + d->z) / 4 / shape->nFaces;
 641              		.loc 1 83 42 discriminator 1 view .LVU140
 642 00b4 D8ED015A 		vldr.32	s11, [r8, #4]	@ d_99(D)->y, d_99(D)->y
 643              	@ mini3d/shape.c:78: 	++shape->nFaces;
  78:mini3d/shape.c **** 	
 644              		.loc 1 78 2 discriminator 1 view .LVU141
 645 00b8 0133     		adds	r3, r3, #1	@ _129, shape_86(D)->nFaces,
 646              	@ mini3d/shape.c:84: 		shape->center.z += (a->z + b->z + c->z + d->z) / 4 / shape->nFaces;
 647              		.loc 1 84 42 discriminator 1 view .LVU142
 648 00ba 98ED026A 		vldr.32	s12, [r8, #8]	@ d_99(D)->z, d_99(D)->z
 649              	@ mini3d/shape.c:82: 		shape->center.x += (a->x + b->x + c->x + d->x) / 4 / shape->nFaces;
  82:mini3d/shape.c **** 		shape->center.y += (a->y + b->y + c->y + d->y) / 4 / shape->nFaces;
 650              		.loc 1 82 42 discriminator 1 view .LVU143
 651 00be 76EE856A 		vadd.f32	s13, s13, s10	@ tmp225, tmp223, d_99(D)->x
 652              	@ mini3d/shape.c:83: 		shape->center.y += (a->y + b->y + c->y + d->y) / 4 / shape->nFaces;
  83:mini3d/shape.c **** 		shape->center.z += (a->z + b->z + c->z + d->z) / 4 / shape->nFaces;
 653              		.loc 1 83 42 discriminator 1 view .LVU144
 654 00c2 37EE257A 		vadd.f32	s14, s14, s11	@ tmp237, tmp235, d_99(D)->y
 655              	@ mini3d/shape.c:82: 		shape->center.x += (a->x + b->x + c->x + d->x) / 4 / shape->nFaces;
  82:mini3d/shape.c **** 		shape->center.y += (a->y + b->y + c->y + d->y) / 4 / shape->nFaces;
 656              		.loc 1 82 19 discriminator 1 view .LVU145
 657 00c6 94ED055A 		vldr.32	s10, [r4, #20]	@ shape_86(D)->center.x, shape_86(D)->center.x
 658              	@ mini3d/shape.c:84: 		shape->center.z += (a->z + b->z + c->z + d->z) / 4 / shape->nFaces;
 659              		.loc 1 84 42 discriminator 1 view .LVU146
 660 00ca 77EE867A 		vadd.f32	s15, s15, s12	@ tmp249, tmp247, d_99(D)->z
 661              	@ mini3d/shape.c:82: 		shape->center.x += (a->x + b->x + c->x + d->x) / 4 / shape->nFaces;
  82:mini3d/shape.c **** 		shape->center.y += (a->y + b->y + c->y + d->y) / 4 / shape->nFaces;
 662              		.loc 1 82 54 discriminator 1 view .LVU147
ARM GAS  /var/folders/cs/83z6p2tj4w57s6p2rt8nwfp00000gn/T//ccPvBcIz.s 			page 16


 663 00ce 06EE103A 		vmov	s12, r3	@ int	@ _129, _129
 664              	@ mini3d/shape.c:82: 		shape->center.x += (a->x + b->x + c->x + d->x) / 4 / shape->nFaces;
  82:mini3d/shape.c **** 		shape->center.y += (a->y + b->y + c->y + d->y) / 4 / shape->nFaces;
 665              		.loc 1 82 50 discriminator 1 view .LVU148
 666 00d2 66EE846A 		vmul.f32	s13, s13, s8	@ tmp227, tmp225, tmp228
 667              	@ mini3d/shape.c:83: 		shape->center.y += (a->y + b->y + c->y + d->y) / 4 / shape->nFaces;
  83:mini3d/shape.c **** 		shape->center.z += (a->z + b->z + c->z + d->z) / 4 / shape->nFaces;
 668              		.loc 1 83 19 discriminator 1 view .LVU149
 669 00d6 D4ED065A 		vldr.32	s11, [r4, #24]	@ shape_86(D)->center.y, shape_86(D)->center.y
 670              	@ mini3d/shape.c:82: 		shape->center.x += (a->x + b->x + c->x + d->x) / 4 / shape->nFaces;
  82:mini3d/shape.c **** 		shape->center.y += (a->y + b->y + c->y + d->y) / 4 / shape->nFaces;
 671              		.loc 1 82 54 discriminator 1 view .LVU150
 672 00da F8EEC64A 		vcvt.f32.s32	s9, s12	@ _29, _129
 673              	@ mini3d/shape.c:84: 		shape->center.z += (a->z + b->z + c->z + d->z) / 4 / shape->nFaces;
 674              		.loc 1 84 19 discriminator 1 view .LVU151
 675 00de 94ED076A 		vldr.32	s12, [r4, #28]	@ shape_86(D)->center.z, shape_86(D)->center.z
 676              	@ mini3d/shape.c:83: 		shape->center.y += (a->y + b->y + c->y + d->y) / 4 / shape->nFaces;
  83:mini3d/shape.c **** 		shape->center.z += (a->z + b->z + c->z + d->z) / 4 / shape->nFaces;
 677              		.loc 1 83 50 discriminator 1 view .LVU152
 678 00e2 27EE047A 		vmul.f32	s14, s14, s8	@ tmp239, tmp237, tmp228
 679              	@ mini3d/shape.c:76: 	face->colorBias = colorBias;
  76:mini3d/shape.c **** 	
 680              		.loc 1 76 18 discriminator 1 view .LVU153
 681 00e6 85ED028A 		vstr.32	s16, [r5, #8]	@ colorBias, face_89->colorBias
 682              	@ mini3d/shape.c:84: 		shape->center.z += (a->z + b->z + c->z + d->z) / 4 / shape->nFaces;
 683              		.loc 1 84 50 discriminator 1 view .LVU154
 684 00ea 67EE847A 		vmul.f32	s15, s15, s8	@ tmp251, tmp249, tmp228
 685              	@ mini3d/shape.c:75: 	face->p4 = (d != NULL) ? Shape3D_addPoint(shape, d) : 0xffff;
  75:mini3d/shape.c **** 	face->colorBias = colorBias;
 686              		.loc 1 75 11 discriminator 1 view .LVU155
 687 00ee E880     		strh	r0, [r5, #6]	@ movhi	@ tmp298, face_89->p4
  76:mini3d/shape.c **** 	
 688              		.loc 1 76 2 is_stmt 1 discriminator 1 view .LVU156
  78:mini3d/shape.c **** 	
 689              		.loc 1 78 2 discriminator 1 view .LVU157
 690              	@ mini3d/shape.c:82: 		shape->center.x += (a->x + b->x + c->x + d->x) / 4 / shape->nFaces;
  82:mini3d/shape.c **** 		shape->center.y += (a->y + b->y + c->y + d->y) / 4 / shape->nFaces;
 691              		.loc 1 82 54 is_stmt 0 discriminator 1 view .LVU158
 692 00f0 86EEA43A 		vdiv.f32	s6, s13, s9	@ tmp229, tmp227, _29
 693              	@ mini3d/shape.c:78: 	++shape->nFaces;
  78:mini3d/shape.c **** 	
 694              		.loc 1 78 2 discriminator 1 view .LVU159
 695 00f4 E360     		str	r3, [r4, #12]	@ _129, shape_86(D)->nFaces
  80:mini3d/shape.c **** 	{
 696              		.loc 1 80 2 is_stmt 1 discriminator 1 view .LVU160
  82:mini3d/shape.c **** 		shape->center.y += (a->y + b->y + c->y + d->y) / 4 / shape->nFaces;
 697              		.loc 1 82 3 discriminator 1 view .LVU161
 698              	@ mini3d/shape.c:83: 		shape->center.y += (a->y + b->y + c->y + d->y) / 4 / shape->nFaces;
  83:mini3d/shape.c **** 		shape->center.z += (a->z + b->z + c->z + d->z) / 4 / shape->nFaces;
 699              		.loc 1 83 54 is_stmt 0 discriminator 1 view .LVU162
 700 00f6 C7EE243A 		vdiv.f32	s7, s14, s9	@ tmp241, tmp239, _29
 701              	@ mini3d/shape.c:84: 		shape->center.z += (a->z + b->z + c->z + d->z) / 4 / shape->nFaces;
 702              		.loc 1 84 54 discriminator 1 view .LVU163
 703 00fa 87EEA44A 		vdiv.f32	s8, s15, s9	@ tmp253, tmp251, _29
 704              	@ mini3d/shape.c:82: 		shape->center.x += (a->x + b->x + c->x + d->x) / 4 / shape->nFaces;
  82:mini3d/shape.c **** 		shape->center.y += (a->y + b->y + c->y + d->y) / 4 / shape->nFaces;
 705              		.loc 1 82 19 discriminator 1 view .LVU164
ARM GAS  /var/folders/cs/83z6p2tj4w57s6p2rt8nwfp00000gn/T//ccPvBcIz.s 			page 17


 706 00fe 75EE036A 		vadd.f32	s13, s10, s6	@ tmp230, shape_86(D)->center.x, tmp229
 707              	@ mini3d/shape.c:92: }
  85:mini3d/shape.c **** 	}
  86:mini3d/shape.c **** 	else
  87:mini3d/shape.c **** 	{
  88:mini3d/shape.c **** 		shape->center.x += (a->x + b->x + c->x) / 3 / shape->nFaces;
  89:mini3d/shape.c **** 		shape->center.y += (a->y + b->y + c->y) / 3 / shape->nFaces;
  90:mini3d/shape.c **** 		shape->center.z += (a->z + b->z + c->z) / 3 / shape->nFaces;
  91:mini3d/shape.c **** 	}
  92:mini3d/shape.c **** }
 708              		.loc 1 92 1 discriminator 1 view .LVU165
 709 0102 BDEC028B 		vldm	sp!, {d8}	@
 710              	.LCFI5:
 711              		.cfi_remember_state
 712              		.cfi_restore 80
 713              		.cfi_restore 81
 714              		.cfi_def_cfa_offset 40
 715              	.LVL28:
 716              	@ mini3d/shape.c:82: 		shape->center.x += (a->x + b->x + c->x + d->x) / 4 / shape->nFaces;
  82:mini3d/shape.c **** 		shape->center.y += (a->y + b->y + c->y + d->y) / 4 / shape->nFaces;
 717              		.loc 1 82 19 discriminator 1 view .LVU166
 718 0106 C4ED056A 		vstr.32	s13, [r4, #20]	@ tmp230, shape_86(D)->center.x
  83:mini3d/shape.c **** 		shape->center.z += (a->z + b->z + c->z + d->z) / 4 / shape->nFaces;
 719              		.loc 1 83 3 is_stmt 1 discriminator 1 view .LVU167
 720              	@ mini3d/shape.c:83: 		shape->center.y += (a->y + b->y + c->y + d->y) / 4 / shape->nFaces;
  83:mini3d/shape.c **** 		shape->center.z += (a->z + b->z + c->z + d->z) / 4 / shape->nFaces;
 721              		.loc 1 83 19 is_stmt 0 discriminator 1 view .LVU168
 722 010a 35EEA37A 		vadd.f32	s14, s11, s7	@ tmp242, shape_86(D)->center.y, tmp241
 723 010e 84ED067A 		vstr.32	s14, [r4, #24]	@ tmp242, shape_86(D)->center.y
  84:mini3d/shape.c **** 	}
 724              		.loc 1 84 3 is_stmt 1 discriminator 1 view .LVU169
 725              	@ mini3d/shape.c:84: 		shape->center.z += (a->z + b->z + c->z + d->z) / 4 / shape->nFaces;
  84:mini3d/shape.c **** 	}
 726              		.loc 1 84 19 is_stmt 0 discriminator 1 view .LVU170
 727 0112 76EE047A 		vadd.f32	s15, s12, s8	@ tmp254, shape_86(D)->center.z, tmp253
 728 0116 C4ED077A 		vstr.32	s15, [r4, #28]	@ tmp254, shape_86(D)->center.z
 729              	@ mini3d/shape.c:92: }
 730              		.loc 1 92 1 discriminator 1 view .LVU171
 731 011a BDE8F88F 		pop	{r3, r4, r5, r6, r7, r8, r9, r10, fp, pc}	@
 732              	.LVL29:
 733              	.L34:
 734              	.LCFI6:
 735              		.cfi_restore_state
 736              	@ mini3d/shape.c:88: 		shape->center.x += (a->x + b->x + c->x) / 3 / shape->nFaces;
  88:mini3d/shape.c **** 		shape->center.y += (a->y + b->y + c->y) / 3 / shape->nFaces;
 737              		.loc 1 88 28 view .LVU172
 738 011e D7ED007A 		vldr.32	s15, [r7]	@ b_93(D)->x, b_93(D)->x
 739              	@ mini3d/shape.c:88: 		shape->center.x += (a->x + b->x + c->x) / 3 / shape->nFaces;
  88:mini3d/shape.c **** 		shape->center.y += (a->y + b->y + c->y) / 3 / shape->nFaces;
 740              		.loc 1 88 43 view .LVU173
 741 0122 B0EE085A 		vmov.f32	s10, #3.0e+0	@ tmp265,
 742              	@ mini3d/shape.c:88: 		shape->center.x += (a->x + b->x + c->x) / 3 / shape->nFaces;
  88:mini3d/shape.c **** 		shape->center.y += (a->y + b->y + c->y) / 3 / shape->nFaces;
 743              		.loc 1 88 28 view .LVU174
 744 0126 D9ED006A 		vldr.32	s13, [r9]	@ a_90(D)->x, a_90(D)->x
 745              	@ mini3d/shape.c:75: 	face->p4 = (d != NULL) ? Shape3D_addPoint(shape, d) : 0xffff;
  75:mini3d/shape.c **** 	face->colorBias = colorBias;
ARM GAS  /var/folders/cs/83z6p2tj4w57s6p2rt8nwfp00000gn/T//ccPvBcIz.s 			page 18


 746              		.loc 1 75 11 view .LVU175
 747 012a 4FF6FF72 		movw	r2, #65535	@ tmp257,
 748              	@ mini3d/shape.c:89: 		shape->center.y += (a->y + b->y + c->y) / 3 / shape->nFaces;
  89:mini3d/shape.c **** 		shape->center.z += (a->z + b->z + c->z) / 3 / shape->nFaces;
 749              		.loc 1 89 28 view .LVU176
 750 012e D7ED015A 		vldr.32	s11, [r7, #4]	@ b_93(D)->y, b_93(D)->y
 751              	@ mini3d/shape.c:90: 		shape->center.z += (a->z + b->z + c->z) / 3 / shape->nFaces;
  90:mini3d/shape.c **** 	}
 752              		.loc 1 90 28 view .LVU177
 753 0132 97ED026A 		vldr.32	s12, [r7, #8]	@ b_93(D)->z, b_93(D)->z
 754              	@ mini3d/shape.c:88: 		shape->center.x += (a->x + b->x + c->x) / 3 / shape->nFaces;
  88:mini3d/shape.c **** 		shape->center.y += (a->y + b->y + c->y) / 3 / shape->nFaces;
 755              		.loc 1 88 28 view .LVU178
 756 0136 76EEA76A 		vadd.f32	s13, s13, s15	@ tmp259, a_90(D)->x, b_93(D)->x
 757              	@ mini3d/shape.c:89: 		shape->center.y += (a->y + b->y + c->y) / 3 / shape->nFaces;
  89:mini3d/shape.c **** 		shape->center.z += (a->z + b->z + c->z) / 3 / shape->nFaces;
 758              		.loc 1 89 28 view .LVU179
 759 013a 99ED017A 		vldr.32	s14, [r9, #4]	@ a_90(D)->y, a_90(D)->y
 760              	@ mini3d/shape.c:90: 		shape->center.z += (a->z + b->z + c->z) / 3 / shape->nFaces;
  90:mini3d/shape.c **** 	}
 761              		.loc 1 90 28 view .LVU180
 762 013e D9ED027A 		vldr.32	s15, [r9, #8]	@ a_90(D)->z, a_90(D)->z
 763              	@ mini3d/shape.c:89: 		shape->center.y += (a->y + b->y + c->y) / 3 / shape->nFaces;
  89:mini3d/shape.c **** 		shape->center.z += (a->z + b->z + c->z) / 3 / shape->nFaces;
 764              		.loc 1 89 28 view .LVU181
 765 0142 37EE257A 		vadd.f32	s14, s14, s11	@ tmp269, a_90(D)->y, b_93(D)->y
 766              	@ mini3d/shape.c:88: 		shape->center.x += (a->x + b->x + c->x) / 3 / shape->nFaces;
  88:mini3d/shape.c **** 		shape->center.y += (a->y + b->y + c->y) / 3 / shape->nFaces;
 767              		.loc 1 88 35 view .LVU182
 768 0146 DAED004A 		vldr.32	s9, [r10]	@ c_96(D)->x, c_96(D)->x
 769              	@ mini3d/shape.c:90: 		shape->center.z += (a->z + b->z + c->z) / 3 / shape->nFaces;
  90:mini3d/shape.c **** 	}
 770              		.loc 1 90 28 view .LVU183
 771 014a 77EE867A 		vadd.f32	s15, s15, s12	@ tmp279, a_90(D)->z, b_93(D)->z
 772              	@ mini3d/shape.c:89: 		shape->center.y += (a->y + b->y + c->y) / 3 / shape->nFaces;
  89:mini3d/shape.c **** 		shape->center.z += (a->z + b->z + c->z) / 3 / shape->nFaces;
 773              		.loc 1 89 35 view .LVU184
 774 014e DAED015A 		vldr.32	s11, [r10, #4]	@ c_96(D)->y, c_96(D)->y
 775              	@ mini3d/shape.c:90: 		shape->center.z += (a->z + b->z + c->z) / 3 / shape->nFaces;
  90:mini3d/shape.c **** 	}
 776              		.loc 1 90 35 view .LVU185
 777 0152 9AED026A 		vldr.32	s12, [r10, #8]	@ c_96(D)->z, c_96(D)->z
 778              	@ mini3d/shape.c:88: 		shape->center.x += (a->x + b->x + c->x) / 3 / shape->nFaces;
  88:mini3d/shape.c **** 		shape->center.y += (a->y + b->y + c->y) / 3 / shape->nFaces;
 779              		.loc 1 88 35 view .LVU186
 780 0156 76EEA46A 		vadd.f32	s13, s13, s9	@ tmp262, tmp259, c_96(D)->x
 781              	@ mini3d/shape.c:89: 		shape->center.y += (a->y + b->y + c->y) / 3 / shape->nFaces;
  89:mini3d/shape.c **** 		shape->center.z += (a->z + b->z + c->z) / 3 / shape->nFaces;
 782              		.loc 1 89 35 view .LVU187
 783 015a 37EE257A 		vadd.f32	s14, s14, s11	@ tmp272, tmp269, c_96(D)->y
 784              	@ mini3d/shape.c:78: 	++shape->nFaces;
  78:mini3d/shape.c **** 	
 785              		.loc 1 78 2 view .LVU188
 786 015e E368     		ldr	r3, [r4, #12]	@ shape_86(D)->nFaces, shape_86(D)->nFaces
 787              	@ mini3d/shape.c:90: 		shape->center.z += (a->z + b->z + c->z) / 3 / shape->nFaces;
  90:mini3d/shape.c **** 	}
 788              		.loc 1 90 35 view .LVU189
ARM GAS  /var/folders/cs/83z6p2tj4w57s6p2rt8nwfp00000gn/T//ccPvBcIz.s 			page 19


 789 0160 77EE867A 		vadd.f32	s15, s15, s12	@ tmp282, tmp279, c_96(D)->z
 790              	@ mini3d/shape.c:88: 		shape->center.x += (a->x + b->x + c->x) / 3 / shape->nFaces;
  88:mini3d/shape.c **** 		shape->center.y += (a->y + b->y + c->y) / 3 / shape->nFaces;
 791              		.loc 1 88 19 view .LVU190
 792 0164 D4ED055A 		vldr.32	s11, [r4, #20]	@ shape_86(D)->center.x, shape_86(D)->center.x
 793              	@ mini3d/shape.c:88: 		shape->center.x += (a->x + b->x + c->x) / 3 / shape->nFaces;
  88:mini3d/shape.c **** 		shape->center.y += (a->y + b->y + c->y) / 3 / shape->nFaces;
 794              		.loc 1 88 43 view .LVU191
 795 0168 86EE853A 		vdiv.f32	s6, s13, s10	@ tmp264, tmp262, tmp265
 796              	@ mini3d/shape.c:78: 	++shape->nFaces;
  78:mini3d/shape.c **** 	
 797              		.loc 1 78 2 view .LVU192
 798 016c 0133     		adds	r3, r3, #1	@ _136, shape_86(D)->nFaces,
 799              	@ mini3d/shape.c:89: 		shape->center.y += (a->y + b->y + c->y) / 3 / shape->nFaces;
  89:mini3d/shape.c **** 		shape->center.z += (a->z + b->z + c->z) / 3 / shape->nFaces;
 800              		.loc 1 89 19 view .LVU193
 801 016e 94ED066A 		vldr.32	s12, [r4, #24]	@ shape_86(D)->center.y, shape_86(D)->center.y
 802              	@ mini3d/shape.c:90: 		shape->center.z += (a->z + b->z + c->z) / 3 / shape->nFaces;
  90:mini3d/shape.c **** 	}
 803              		.loc 1 90 19 view .LVU194
 804 0172 D4ED076A 		vldr.32	s13, [r4, #28]	@ shape_86(D)->center.z, shape_86(D)->center.z
 805              	@ mini3d/shape.c:76: 	face->colorBias = colorBias;
  76:mini3d/shape.c **** 	
 806              		.loc 1 76 18 view .LVU195
 807 0176 85ED028A 		vstr.32	s16, [r5, #8]	@ colorBias, face_89->colorBias
 808              	@ mini3d/shape.c:75: 	face->p4 = (d != NULL) ? Shape3D_addPoint(shape, d) : 0xffff;
  75:mini3d/shape.c **** 	face->colorBias = colorBias;
 809              		.loc 1 75 11 view .LVU196
 810 017a EA80     		strh	r2, [r5, #6]	@ movhi	@ tmp257, face_89->p4
  76:mini3d/shape.c **** 	
 811              		.loc 1 76 2 is_stmt 1 view .LVU197
  78:mini3d/shape.c **** 	
 812              		.loc 1 78 2 view .LVU198
 813              	@ mini3d/shape.c:89: 		shape->center.y += (a->y + b->y + c->y) / 3 / shape->nFaces;
  89:mini3d/shape.c **** 		shape->center.z += (a->z + b->z + c->z) / 3 / shape->nFaces;
 814              		.loc 1 89 43 is_stmt 0 view .LVU199
 815 017c C7EE053A 		vdiv.f32	s7, s14, s10	@ tmp274, tmp272, tmp265
 816              	@ mini3d/shape.c:78: 	++shape->nFaces;
  78:mini3d/shape.c **** 	
 817              		.loc 1 78 2 view .LVU200
 818 0180 E360     		str	r3, [r4, #12]	@ _136, shape_86(D)->nFaces
  80:mini3d/shape.c **** 	{
 819              		.loc 1 80 2 is_stmt 1 view .LVU201
  88:mini3d/shape.c **** 		shape->center.y += (a->y + b->y + c->y) / 3 / shape->nFaces;
 820              		.loc 1 88 3 view .LVU202
 821              	@ mini3d/shape.c:90: 		shape->center.z += (a->z + b->z + c->z) / 3 / shape->nFaces;
  90:mini3d/shape.c **** 	}
 822              		.loc 1 90 43 is_stmt 0 view .LVU203
 823 0182 87EE854A 		vdiv.f32	s8, s15, s10	@ tmp284, tmp282, tmp265
 824              	@ mini3d/shape.c:88: 		shape->center.x += (a->x + b->x + c->x) / 3 / shape->nFaces;
  88:mini3d/shape.c **** 		shape->center.y += (a->y + b->y + c->y) / 3 / shape->nFaces;
 825              		.loc 1 88 47 view .LVU204
 826 0186 07EE903A 		vmov	s15, r3	@ int	@ _136, _136
 827 018a F8EEE77A 		vcvt.f32.s32	s15, s15	@ _61, _136
 828              	@ mini3d/shape.c:92: }
 829              		.loc 1 92 1 view .LVU205
 830 018e BDEC028B 		vldm	sp!, {d8}	@
ARM GAS  /var/folders/cs/83z6p2tj4w57s6p2rt8nwfp00000gn/T//ccPvBcIz.s 			page 20


 831              	.LCFI7:
 832              		.cfi_restore 80
 833              		.cfi_restore 81
 834              		.cfi_def_cfa_offset 40
 835              	.LVL30:
 836              	@ mini3d/shape.c:88: 		shape->center.x += (a->x + b->x + c->x) / 3 / shape->nFaces;
  88:mini3d/shape.c **** 		shape->center.y += (a->y + b->y + c->y) / 3 / shape->nFaces;
 837              		.loc 1 88 47 view .LVU206
 838 0192 C3EE274A 		vdiv.f32	s9, s6, s15	@ tmp266, tmp264, _61
 839              	@ mini3d/shape.c:89: 		shape->center.y += (a->y + b->y + c->y) / 3 / shape->nFaces;
  89:mini3d/shape.c **** 		shape->center.z += (a->z + b->z + c->z) / 3 / shape->nFaces;
 840              		.loc 1 89 47 view .LVU207
 841 0196 83EEA77A 		vdiv.f32	s14, s7, s15	@ tmp276, tmp274, _61
 842              	@ mini3d/shape.c:90: 		shape->center.z += (a->z + b->z + c->z) / 3 / shape->nFaces;
  90:mini3d/shape.c **** 	}
 843              		.loc 1 90 47 view .LVU208
 844 019a 84EE275A 		vdiv.f32	s10, s8, s15	@ tmp286, tmp284, _61
 845              	@ mini3d/shape.c:88: 		shape->center.x += (a->x + b->x + c->x) / 3 / shape->nFaces;
  88:mini3d/shape.c **** 		shape->center.y += (a->y + b->y + c->y) / 3 / shape->nFaces;
 846              		.loc 1 88 19 view .LVU209
 847 019e 75EEA45A 		vadd.f32	s11, s11, s9	@ tmp267, shape_86(D)->center.x, tmp266
 848 01a2 C4ED055A 		vstr.32	s11, [r4, #20]	@ tmp267, shape_86(D)->center.x
  89:mini3d/shape.c **** 		shape->center.z += (a->z + b->z + c->z) / 3 / shape->nFaces;
 849              		.loc 1 89 3 is_stmt 1 view .LVU210
 850              	@ mini3d/shape.c:89: 		shape->center.y += (a->y + b->y + c->y) / 3 / shape->nFaces;
  89:mini3d/shape.c **** 		shape->center.z += (a->z + b->z + c->z) / 3 / shape->nFaces;
 851              		.loc 1 89 19 is_stmt 0 view .LVU211
 852 01a6 36EE077A 		vadd.f32	s14, s12, s14	@ tmp277, shape_86(D)->center.y, tmp276
 853 01aa 84ED067A 		vstr.32	s14, [r4, #24]	@ tmp277, shape_86(D)->center.y
  90:mini3d/shape.c **** 	}
 854              		.loc 1 90 3 is_stmt 1 view .LVU212
 855              	@ mini3d/shape.c:90: 		shape->center.z += (a->z + b->z + c->z) / 3 / shape->nFaces;
  90:mini3d/shape.c **** 	}
 856              		.loc 1 90 19 is_stmt 0 view .LVU213
 857 01ae 76EE857A 		vadd.f32	s15, s13, s10	@ tmp287, shape_86(D)->center.z, tmp286
 858 01b2 C4ED077A 		vstr.32	s15, [r4, #28]	@ tmp287, shape_86(D)->center.z
 859              	@ mini3d/shape.c:92: }
 860              		.loc 1 92 1 view .LVU214
 861 01b6 BDE8F88F 		pop	{r3, r4, r5, r6, r7, r8, r9, r10, fp, pc}	@
 862              	.LVL31:
 863              	.L38:
 864              		.loc 1 92 1 view .LVU215
 865 01ba 00BF     		.align	2
 866              	.L37:
 867 01bc 00000000 		.word	m3d_realloc
 868              		.cfi_endproc
 869              	.LFE16:
 870              		.size	Shape3D_addFace, .-Shape3D_addFace
 871              		.section	.text.Shape3D_setClosed,"ax",%progbits
 872              		.align	1
 873              		.p2align 4,,15
 874              		.global	Shape3D_setClosed
 875              		.syntax unified
 876              		.thumb
 877              		.thumb_func
 878              		.fpu fpv5-sp-d16
 879              		.type	Shape3D_setClosed, %function
ARM GAS  /var/folders/cs/83z6p2tj4w57s6p2rt8nwfp00000gn/T//ccPvBcIz.s 			page 21


 880              	Shape3D_setClosed:
 881              	.LVL32:
 882              	.LFB17:
  93:mini3d/shape.c **** 
  94:mini3d/shape.c **** void Shape3D_setClosed(Shape3D* shape, int flag)
  95:mini3d/shape.c **** {
 883              		.loc 1 95 1 is_stmt 1 view -0
 884              		.cfi_startproc
 885              		@ args = 0, pretend = 0, frame = 0
 886              		@ frame_needed = 0, uses_anonymous_args = 0
 887              		@ link register save eliminated.
  96:mini3d/shape.c **** 	shape->isClosed = flag;
 888              		.loc 1 96 2 view .LVU217
 889              	@ mini3d/shape.c:96: 	shape->isClosed = flag;
 890              		.loc 1 96 18 is_stmt 0 view .LVU218
 891 0000 90F82430 		ldrb	r3, [r0, #36]	@ zero_extendqisi2	@, shape_4(D)->isClosed
 892 0004 61F30003 		bfi	r3, r1, #0, #1	@ shape_4(D)->isClosed, tmp116,,
 893 0008 80F82430 		strb	r3, [r0, #36]	@ shape_4(D)->isClosed, shape_4(D)->isClosed
 894              	@ mini3d/shape.c:97: }
  97:mini3d/shape.c **** }
 895              		.loc 1 97 1 view .LVU219
 896 000c 7047     		bx	lr	@
 897              		.cfi_endproc
 898              	.LFE17:
 899              		.size	Shape3D_setClosed, .-Shape3D_setClosed
 900 000e 00BF     		.text
 901              	.Letext0:
 902              		.file 3 "/usr/local/playdate/gcc-arm-none-eabi-9-2019-q4-major/lib/gcc/arm-none-eabi/9.2.1/include
 903              		.file 4 "/usr/local/playdate/gcc-arm-none-eabi-9-2019-q4-major/arm-none-eabi/include/machine/_defa
 904              		.file 5 "/usr/local/playdate/gcc-arm-none-eabi-9-2019-q4-major/arm-none-eabi/include/sys/lock.h"
 905              		.file 6 "/usr/local/playdate/gcc-arm-none-eabi-9-2019-q4-major/arm-none-eabi/include/sys/_types.h"
 906              		.file 7 "/usr/local/playdate/gcc-arm-none-eabi-9-2019-q4-major/arm-none-eabi/include/sys/reent.h"
 907              		.file 8 "mini3d/mini3d.h"
 908              		.file 9 "/usr/local/playdate/gcc-arm-none-eabi-9-2019-q4-major/arm-none-eabi/include/sys/_stdint.h
 909              		.file 10 "/usr/local/playdate/gcc-arm-none-eabi-9-2019-q4-major/arm-none-eabi/include/math.h"
 910              		.file 11 "mini3d/shape.h"